GAS LISTING /tmp/ccEKufMP.s 			page 1


   1              		.file	"testmbox.c"
   2              	# GNU C (Ubuntu 4.8.2-19ubuntu1) version 4.8.2 (x86_64-linux-gnu)
   3              	#	compiled by GNU C version 4.8.2, GMP version 5.1.3, MPFR version 3.1.2-p3, MPC version 1.0.1
   4              	# GGC heuristics: --param ggc-min-expand=97 --param ggc-min-heapsize=126309
   5              	# options passed:  -I . -I ../../../os/ports/GCC/SIMIA32
   6              	# -I ../../../os/kernel/include -I ../../../test -I ../../../os/hal/include
   7              	# -I ../../../os/hal/platforms/Posix -I ../../../boards/simulator
   8              	# -I ../../../os/various -imultilib 32 -imultiarch i386-linux-gnu
   9              	# -MD ../../../test/testmbox.d -MF .dep/testmbox.o.d -MP
  10              	# -MQ ../../../test/testmbox.o -D SIMULATOR -D SHELL_USE_IPRINTF=FALSE
  11              	# ../../../test/testmbox.c -m32 -mtune=generic -march=i686
  12              	# -auxbase-strip ../../../test/testmbox.o -ggdb -O2 -Wall -Wextra
  13              	# -Wstrict-prototypes -fomit-frame-pointer -fverbose-asm -fstack-protector
  14              	# -Wformat -Wformat-security
  15              	# options enabled:  -faggressive-loop-optimizations
  16              	# -fasynchronous-unwind-tables -fauto-inc-dec -fbranch-count-reg
  17              	# -fcaller-saves -fcombine-stack-adjustments -fcommon -fcompare-elim
  18              	# -fcprop-registers -fcrossjumping -fcse-follow-jumps -fdefer-pop
  19              	# -fdelete-null-pointer-checks -fdevirtualize -fdwarf2-cfi-asm
  20              	# -fearly-inlining -feliminate-unused-debug-types -fexpensive-optimizations
  21              	# -fforward-propagate -ffunction-cse -fgcse -fgcse-lm -fgnu-runtime
  22              	# -fguess-branch-probability -fhoist-adjacent-loads -fident -fif-conversion
  23              	# -fif-conversion2 -findirect-inlining -finline -finline-atomics
  24              	# -finline-functions-called-once -finline-small-functions -fipa-cp
  25              	# -fipa-profile -fipa-pure-const -fipa-reference -fipa-sra
  26              	# -fira-hoist-pressure -fira-share-save-slots -fira-share-spill-slots
  27              	# -fivopts -fkeep-static-consts -fleading-underscore -fmath-errno
  28              	# -fmerge-constants -fmerge-debug-strings -fmove-loop-invariants
  29              	# -fomit-frame-pointer -foptimize-register-move -foptimize-sibling-calls
  30              	# -foptimize-strlen -fpartial-inlining -fpcc-struct-return -fpeephole
  31              	# -fpeephole2 -fprefetch-loop-arrays -free -fregmove -freorder-blocks
  32              	# -freorder-functions -frerun-cse-after-loop
  33              	# -fsched-critical-path-heuristic -fsched-dep-count-heuristic
  34              	# -fsched-group-heuristic -fsched-interblock -fsched-last-insn-heuristic
  35              	# -fsched-rank-heuristic -fsched-spec -fsched-spec-insn-heuristic
  36              	# -fsched-stalled-insns-dep -fschedule-insns2 -fshow-column -fshrink-wrap
  37              	# -fsigned-zeros -fsplit-ivs-in-unroller -fsplit-wide-types
  38              	# -fstack-protector -fstrict-aliasing -fstrict-overflow
  39              	# -fstrict-volatile-bitfields -fsync-libcalls -fthread-jumps
  40              	# -ftoplevel-reorder -ftrapping-math -ftree-bit-ccp -ftree-builtin-call-dce
  41              	# -ftree-ccp -ftree-ch -ftree-coalesce-vars -ftree-copy-prop
  42              	# -ftree-copyrename -ftree-cselim -ftree-dce -ftree-dominator-opts
  43              	# -ftree-dse -ftree-forwprop -ftree-fre -ftree-loop-if-convert
  44              	# -ftree-loop-im -ftree-loop-ivcanon -ftree-loop-optimize
  45              	# -ftree-parallelize-loops= -ftree-phiprop -ftree-pre -ftree-pta
  46              	# -ftree-reassoc -ftree-scev-cprop -ftree-sink -ftree-slp-vectorize
  47              	# -ftree-slsr -ftree-sra -ftree-switch-conversion -ftree-tail-merge
  48              	# -ftree-ter -ftree-vect-loop-version -ftree-vrp -funit-at-a-time
  49              	# -funwind-tables -fvar-tracking -fvar-tracking-assignments -fverbose-asm
  50              	# -fzero-initialized-in-bss -m32 -m80387 -m96bit-long-double
  51              	# -maccumulate-outgoing-args -malign-stringops -mfancy-math-387
  52              	# -mfp-ret-in-387 -mglibc -mieee-fp -mlong-double-80 -mno-red-zone
  53              	# -mno-sse4 -mpush-args -msahf -mtls-direct-seg-refs
  54              	
  55              		.text
  56              	.Ltext0:
  57              		.section	.rodata.str1.1,"aMS",@progbits,1
GAS LISTING /tmp/ccEKufMP.s 			page 2


  58              	.LC0:
  59 0000 41424344 		.string	"ABCDE"
  59      4500
  60              		.text
  61              		.p2align 4,,15
  62              		.type	mbox1_execute, @function
  63              	mbox1_execute:
  64              	.LFB8:
  65              		.file 1 "../../../test/testmbox.c"
  66              		.loc 1 76 0
  67              		.cfi_startproc
  68 0000 56       		pushl	%esi	#
  69              		.cfi_def_cfa_offset 8
  70              		.cfi_offset 6, -8
  71              		.loc 1 83 0
  72 0001 31C0     		xorl	%eax, %eax	# D.2269
  73              		.loc 1 76 0
  74 0003 53       		pushl	%ebx	#
  75              		.cfi_def_cfa_offset 12
  76              		.cfi_offset 3, -12
  77 0004 83EC24   		subl	$36, %esp	#,
  78              		.cfi_def_cfa_offset 48
  79              		.loc 1 83 0
  80 0007 833D2400 		cmpl	$5, mb1+36	#, mb1.mb_emptysem.s_cnt
  80      000005
  81 000e C7042401 		movl	$1, (%esp)	#,
  81      000000
  82 0015 0F94C0   		sete	%al	#, D.2269
  83 0018 89442404 		movl	%eax, 4(%esp)	# D.2269,
  84 001c E8FCFFFF 		call	_test_assert	#
  84      FF
  85              	.LVL0:
  86 0021 84C0     		testb	%al, %al	# D.2269
  87 0023 7579     		jne	.L1	#,
  88 0025 BB420000 		movl	$66, %ebx	#, ivtmp.26
  88      00
  89              	.L4:
  90              	.LVL1:
  91              		.loc 1 89 0
  92 002a C7442408 		movl	$-1, 8(%esp)	#,
  92      FFFFFFFF 
  93 0032 895C2404 		movl	%ebx, 4(%esp)	# ivtmp.26,
  94 0036 C7042400 		movl	$mb1, (%esp)	#,
  94      000000
  95 003d E8FCFFFF 		call	chMBPost	#
  95      FF
  96              	.LVL2:
  97              		.loc 1 90 0
  98 0042 C7042402 		movl	$2, (%esp)	#,
  98      000000
  99 0049 85C0     		testl	%eax, %eax	# msg1
 100 004b 0F94C0   		sete	%al	#, D.2269
 101              	.LVL3:
 102 004e 0FB6C0   		movzbl	%al, %eax	# D.2269, D.2269
 103 0051 89442404 		movl	%eax, 4(%esp)	# D.2269,
 104 0055 E8FCFFFF 		call	_test_assert	#
 104      FF
GAS LISTING /tmp/ccEKufMP.s 			page 3


 105              	.LVL4:
 106 005a 84C0     		testb	%al, %al	# D.2269
 107 005c 7540     		jne	.L1	#,
 108              	.LVL5:
 109 005e 83C301   		addl	$1, %ebx	#, ivtmp.26
 110              	.LVL6:
 111              		.loc 1 88 0
 112 0061 83FB46   		cmpl	$70, %ebx	#, ivtmp.26
 113 0064 75C4     		jne	.L4	#,
 114              		.loc 1 92 0
 115 0066 C7442408 		movl	$-1, 8(%esp)	#,
 115      FFFFFFFF 
 116 006e C7442404 		movl	$65, 4(%esp)	#,
 116      41000000 
 117 0076 C7042400 		movl	$mb1, (%esp)	#,
 117      000000
 118 007d E8FCFFFF 		call	chMBPostAhead	#
 118      FF
 119              	.LVL7:
 120              		.loc 1 93 0
 121 0082 C7042403 		movl	$3, (%esp)	#,
 121      000000
 122 0089 85C0     		testl	%eax, %eax	# msg1
 123 008b 0F94C0   		sete	%al	#, D.2269
 124              	.LVL8:
 125 008e 0FB6C0   		movzbl	%al, %eax	# D.2269, D.2269
 126 0091 89442404 		movl	%eax, 4(%esp)	# D.2269,
 127 0095 E8FCFFFF 		call	_test_assert	#
 127      FF
 128              	.LVL9:
 129 009a 84C0     		testb	%al, %al	# D.2269
 130 009c 740A     		je	.L29	#,
 131              	.LVL10:
 132              	.L1:
 133              		.loc 1 220 0
 134 009e 83C424   		addl	$36, %esp	#,
 135              		.cfi_remember_state
 136              		.cfi_def_cfa_offset 12
 137 00a1 5B       		popl	%ebx	#
 138              		.cfi_restore 3
 139              		.cfi_def_cfa_offset 8
 140 00a2 5E       		popl	%esi	#
 141              		.cfi_restore 6
 142              		.cfi_def_cfa_offset 4
 143 00a3 C3       		ret
 144              	.LVL11:
 145              		.p2align 4,,7
 146 00a4 8D742600 		.p2align 3
 147              	.L29:
 148              		.cfi_restore_state
 149              		.loc 1 98 0
 150 00a8 C7442408 		movl	$1, 8(%esp)	#,
 150      01000000 
 151 00b0 C7442404 		movl	$88, 4(%esp)	#,
 151      58000000 
 152 00b8 C7042400 		movl	$mb1, (%esp)	#,
 152      000000
GAS LISTING /tmp/ccEKufMP.s 			page 4


 153 00bf E8FCFFFF 		call	chMBPost	#
 153      FF
 154              	.LVL12:
 155              		.loc 1 99 0
 156 00c4 C7042404 		movl	$4, (%esp)	#,
 156      000000
 157 00cb 83F8FF   		cmpl	$-1, %eax	#, msg1
 158 00ce 0F94C0   		sete	%al	#, D.2269
 159              	.LVL13:
 160 00d1 0FB6C0   		movzbl	%al, %eax	# D.2269, D.2269
 161 00d4 89442404 		movl	%eax, 4(%esp)	# D.2269,
 162 00d8 E8FCFFFF 		call	_test_assert	#
 162      FF
 163              	.LVL14:
 164 00dd 84C0     		testb	%al, %al	# D.2269
 165 00df 75BD     		jne	.L1	#,
 166              		.loc 1 100 0
 167              	#APP
 168              	# 100 "../../../test/testmbox.c" 1
   1              	/*
   2              	    ChibiOS/RT - Copyright (C) 2006-2013 Giovanni Di Sirio
   3              	
   4              	    Licensed under the Apache License, Version 2.0 (the "License");
   5              	    you may not use this file except in compliance with the License.
   6              	    You may obtain a copy of the License at
   7              	
   8              	        http://www.apache.org/licenses/LICENSE-2.0
   9              	
  10              	    Unless required by applicable law or agreed to in writing, software
  11              	    distributed under the License is distributed on an "AS IS" BASIS,
  12              	    WITHOUT WARRANTIES OR CONDITIONS OF ANY KIND, either express or implied.
  13              	    See the License for the specific language governing permissions and
  14              	    limitations under the License.
  15              	*/
  16              	
  17              	#include "ch.h"
  18              	#include "test.h"
  19              	
  20              	/**
  21              	 * @page test_mbox Mailboxes test
  22              	 *
  23              	 * File: @ref testmbox.c
  24              	 *
  25              	 * <h2>Description</h2>
  26              	 * This module implements the test sequence for the @ref mailboxes subsystem.
  27              	 *
  28              	 * <h2>Objective</h2>
  29              	 * Objective of the test module is to cover 100% of the @ref mailboxes
  30              	 * subsystem code.<br>
  31              	 * Note that the @ref mailboxes subsystem depends on the @ref semaphores
  32              	 * subsystem that has to met its testing objectives as well.
  33              	 *
  34              	 * <h2>Preconditions</h2>
  35              	 * The module requires the following kernel options:
  36              	 * - @p CH_USE_MAILBOXES
  37              	 * .
  38              	 * In case some of the required options are not enabled then some or all tests
GAS LISTING /tmp/ccEKufMP.s 			page 5


  39              	 * may be skipped.
  40              	 *
  41              	 * <h2>Test Cases</h2>
  42              	 * - @subpage test_mbox_001
  43              	 * .
  44              	 * @file testmbox.c
  45              	 * @brief Mailboxes test source file
  46              	 * @file testmbox.h
  47              	 * @brief Mailboxes header file
  48              	 */
  49              	
  50              	#if CH_USE_MAILBOXES || defined(__DOXYGEN__)
  51              	
  52              	#define ALLOWED_DELAY MS2ST(5)
  53              	#define MB_SIZE 5
  54              	
  55              	/*
  56              	 * Note, the static initializers are not really required because the
  57              	 * variables are explicitly initialized in each test case. It is done in order
  58              	 * to test the macros.
  59              	 */
  60              	static MAILBOX_DECL(mb1, test.wa.T0, MB_SIZE);
  61              	
  62              	/**
  63              	 * @page test_mbox_001 Queuing and timeouts
  64              	 *
  65              	 * <h2>Description</h2>
  66              	 * Messages are posted/fetched from a mailbox in carefully designed sequences
  67              	 * in order to stimulate all the possible code paths inside the mailbox.<br>
  68              	 * The test expects to find a consistent mailbox status after each operation.
  69              	 */
  70              	
  71              	static void mbox1_setup(void) {
  72              	
  73              	  chMBInit(&mb1, (msg_t *)test.wa.T0, MB_SIZE);
  74              	}
  75              	
  76              	static void mbox1_execute(void) {
  77              	  msg_t msg1, msg2;
  78              	  unsigned i;
  79              	
  80              	  /*
  81              	   * Testing initial space.
  82              	   */
  83              	  test_assert(1, chMBGetFreeCountI(&mb1) == MB_SIZE, "wrong size");
  84              	
  85              	  /*
  86              	   * Testing enqueuing and backward circularity.
  87              	   */
  88              	  for (i = 0; i < MB_SIZE - 1; i++) {
  89              	    msg1 = chMBPost(&mb1, 'B' + i, TIME_INFINITE);
  90              	    test_assert(2, msg1 == RDY_OK, "wrong wake-up message");
  91              	  }
  92              	  msg1 = chMBPostAhead(&mb1, 'A', TIME_INFINITE);
  93              	  test_assert(3, msg1 == RDY_OK, "wrong wake-up message");
  94              	
  95              	  /*
GAS LISTING /tmp/ccEKufMP.s 			page 6


  96              	   * Testing post timeout.
  97              	   */
  98              	  msg1 = chMBPost(&mb1, 'X', 1);
  99              	  test_assert(4, msg1 == RDY_TIMEOUT, "wrong wake-up message");
 100 00e1 90       	  chSysLock();
 101              	  msg1 = chMBPostI(&mb1, 'X');
 169              		nop
 170              	# 0 "" 2
 171              		.loc 1 101 0
 172              	#NO_APP
 173 00e2 C7442404 		movl	$88, 4(%esp)	#,
 173      58000000 
 174 00ea C7042400 		movl	$mb1, (%esp)	#,
 174      000000
 175 00f1 E8FCFFFF 		call	chMBPostI	#
 175      FF
 176              	.LVL15:
 177              		.loc 1 102 0
 178              	#APP
 179              	# 102 "../../../test/testmbox.c" 1
 102 00f6 90       	  chSysUnlock();
 103              	  test_assert(5, msg1 == RDY_TIMEOUT, "wrong wake-up message");
 180              		nop
 181              	# 0 "" 2
 182              		.loc 1 103 0
 183              	#NO_APP
 184 00f7 83F8FF   		cmpl	$-1, %eax	#, msg1
 185 00fa 0F94C0   		sete	%al	#, D.2269
 186              	.LVL16:
 187 00fd 0FB6C0   		movzbl	%al, %eax	# D.2269, D.2269
 188 0100 89442404 		movl	%eax, 4(%esp)	# D.2269,
 189 0104 C7042405 		movl	$5, (%esp)	#,
 189      000000
 190 010b E8FCFFFF 		call	_test_assert	#
 190      FF
 191              	.LVL17:
 192 0110 84C0     		testb	%al, %al	# D.2269
 193 0112 758A     		jne	.L1	#,
 194              		.loc 1 104 0
 195 0114 C7442408 		movl	$1, 8(%esp)	#,
 195      01000000 
 196 011c C7442404 		movl	$88, 4(%esp)	#,
 196      58000000 
 197 0124 C7042400 		movl	$mb1, (%esp)	#,
 197      000000
 198 012b E8FCFFFF 		call	chMBPostAhead	#
 198      FF
 199              	.LVL18:
 200              		.loc 1 105 0
 201 0130 C7042406 		movl	$6, (%esp)	#,
 201      000000
 202 0137 83F8FF   		cmpl	$-1, %eax	#, msg1
 203 013a 0F94C0   		sete	%al	#, D.2269
 204              	.LVL19:
 205 013d 0FB6C0   		movzbl	%al, %eax	# D.2269, D.2269
 206 0140 89442404 		movl	%eax, 4(%esp)	# D.2269,
 207 0144 E8FCFFFF 		call	_test_assert	#
GAS LISTING /tmp/ccEKufMP.s 			page 7


 207      FF
 208              	.LVL20:
 209 0149 84C0     		testb	%al, %al	# D.2269
 210 014b 0F854DFF 		jne	.L1	#,
 210      FFFF
 211              		.loc 1 106 0
 212              	#APP
 213              	# 106 "../../../test/testmbox.c" 1
 104              	  msg1 = chMBPostAhead(&mb1, 'X', 1);
 105              	  test_assert(6, msg1 == RDY_TIMEOUT, "wrong wake-up message");
 106 0151 90       	  chSysLock();
 107              	  msg1 = chMBPostAheadI(&mb1, 'X');
 214              		nop
 215              	# 0 "" 2
 216              		.loc 1 107 0
 217              	#NO_APP
 218 0152 C7442404 		movl	$88, 4(%esp)	#,
 218      58000000 
 219 015a C7042400 		movl	$mb1, (%esp)	#,
 219      000000
 220 0161 E8FCFFFF 		call	chMBPostAheadI	#
 220      FF
 221              	.LVL21:
 222              		.loc 1 108 0
 223              	#APP
 224              	# 108 "../../../test/testmbox.c" 1
 108 0166 90       	  chSysUnlock();
 109              	  test_assert(7, msg1 == RDY_TIMEOUT, "wrong wake-up message");
 225              		nop
 226              	# 0 "" 2
 227              		.loc 1 109 0
 228              	#NO_APP
 229 0167 83F8FF   		cmpl	$-1, %eax	#, msg1
 230 016a 0F94C0   		sete	%al	#, D.2269
 231              	.LVL22:
 232 016d 0FB6C0   		movzbl	%al, %eax	# D.2269, D.2269
 233 0170 89442404 		movl	%eax, 4(%esp)	# D.2269,
 234 0174 C7042407 		movl	$7, (%esp)	#,
 234      000000
 235 017b E8FCFFFF 		call	_test_assert	#
 235      FF
 236              	.LVL23:
 237 0180 84C0     		testb	%al, %al	# D.2269
 238 0182 0F8516FF 		jne	.L1	#,
 238      FFFF
 239              		.loc 1 114 0
 240              	#APP
 241              	# 114 "../../../test/testmbox.c" 1
 110              	
 111              	  /*
 112              	   * Testing final conditions.
 113              	   */
 114 0188 90       	  test_assert_lock(8, chMBGetFreeCountI(&mb1) == 0, "still empty");
 115              	  test_assert_lock(9, chMBGetUsedCountI(&mb1) == MB_SIZE, "not full");
 242              		nop
 243              	# 0 "" 2
 244              	#NO_APP
GAS LISTING /tmp/ccEKufMP.s 			page 8


 245 0189 8B152400 		movl	mb1+36, %edx	# mb1.mb_emptysem.s_cnt,
 245      0000
 246 018f 31C0     		xorl	%eax, %eax	# D.2269
 247 0191 C7042408 		movl	$8, (%esp)	#,
 247      000000
 248 0198 85D2     		testl	%edx, %edx	#
 249 019a 0F94C0   		sete	%al	#, D.2269
 250 019d 89442404 		movl	%eax, 4(%esp)	# D.2269,
 251 01a1 E8FCFFFF 		call	_test_assert	#
 251      FF
 252              	.LVL24:
 253 01a6 84C0     		testb	%al, %al	# D.2269
 254 01a8 7406     		je	.L5	#,
 255              	.LVL25:
 256              	.L25:
 257              		.loc 1 219 0 discriminator 2
 258              	#APP
 259              	# 219 "../../../test/testmbox.c" 1
 116              	  test_assert_lock(10, mb1.mb_rdptr == mb1.mb_wrptr, "pointers not aligned");
 117              	
 118              	  /*
 119              	   * Testing dequeuing.
 120              	   */
 121              	  for (i = 0; i < MB_SIZE; i++) {
 122              	    msg1 = chMBFetch(&mb1, &msg2, TIME_INFINITE);
 123              	    test_assert(11, msg1 == RDY_OK, "wrong wake-up message");
 124              	    test_emit_token(msg2);
 125              	  }
 126              	  test_assert_sequence(12, "ABCDE");
 127              	
 128              	  /*
 129              	   * Testing buffer circularity.
 130              	   */
 131              	  msg1 = chMBPost(&mb1, 'B' + i, TIME_INFINITE);
 132              	  test_assert(13, msg1 == RDY_OK, "wrong wake-up message");
 133              	  msg1 = chMBFetch(&mb1, &msg2, TIME_INFINITE);
 134              	  test_assert(14, msg1 == RDY_OK, "wrong wake-up message");
 135              	  test_assert(15, mb1.mb_buffer == mb1.mb_wrptr, "write pointer not aligned to base");
 136              	  test_assert(16, mb1.mb_buffer == mb1.mb_rdptr, "read pointer not aligned to base");
 137              	
 138              	  /*
 139              	   * Testing fetch timeout.
 140              	   */
 141              	  msg1 = chMBFetch(&mb1, &msg2, 1);
 142              	  test_assert(17, msg1 == RDY_TIMEOUT, "wrong wake-up message");
 143              	  chSysLock();
 144              	  msg1 = chMBFetchI(&mb1, &msg2);
 145              	  chSysUnlock();
 146              	  test_assert(18, msg1 == RDY_TIMEOUT, "wrong wake-up message");
 147              	
 148              	  /*
 149              	   * Testing final conditions.
 150              	   */
 151              	  test_assert_lock(19, chMBGetFreeCountI(&mb1) == MB_SIZE, "not empty");
 152              	  test_assert_lock(20, chMBGetUsedCountI(&mb1) == 0, "still full");
 153              	  test_assert_lock(21, mb1.mb_rdptr == mb1.mb_wrptr, "pointers not aligned");
 154              	
GAS LISTING /tmp/ccEKufMP.s 			page 9


 155              	  /*
 156              	   * Testing I-Class.
 157              	   */
 158              	  chSysLock();
 159              	  msg1 = chMBPostI(&mb1, 'A');
 160              	  test_assert(22, msg1 == RDY_OK, "wrong wake-up message");
 161              	  msg1 = chMBPostI(&mb1, 'B');
 162              	  test_assert(23, msg1 == RDY_OK, "wrong wake-up message");
 163              	  msg1 = chMBPostI(&mb1, 'C');
 164              	  test_assert(24, msg1 == RDY_OK, "wrong wake-up message");
 165              	  msg1 = chMBPostI(&mb1, 'D');
 166              	  test_assert(25, msg1 == RDY_OK, "wrong wake-up message");
 167              	  msg1 = chMBPostI(&mb1, 'E');
 168              	  chSysUnlock();
 169              	  test_assert(26, msg1 == RDY_OK, "wrong wake-up message");
 170              	  test_assert(27, mb1.mb_rdptr == mb1.mb_wrptr, "pointers not aligned");
 171              	  for (i = 0; i < MB_SIZE; i++) {
 172              	    chSysLock();
 173              	    msg1 = chMBFetchI(&mb1, &msg2);
 174              	    chSysUnlock();
 175              	    test_assert(28, msg1 == RDY_OK, "wrong wake-up message");
 176              	    test_emit_token(msg2);
 177              	  }
 178              	  test_assert_sequence(29, "ABCDE");
 179              	  test_assert_lock(30, chMBGetFreeCountI(&mb1) == MB_SIZE, "not empty");
 180              	  test_assert_lock(31, chMBGetUsedCountI(&mb1) == 0, "still full");
 181              	  test_assert(32, mb1.mb_rdptr == mb1.mb_wrptr, "pointers not aligned");
 182              	
 183              	  chSysLock();
 184              	  msg1 = chMBPostAheadI(&mb1, 'E');
 185              	  test_assert(33, msg1 == RDY_OK, "wrong wake-up message");
 186              	  msg1 = chMBPostAheadI(&mb1, 'D');
 187              	  test_assert(34, msg1 == RDY_OK, "wrong wake-up message");
 188              	  msg1 = chMBPostAheadI(&mb1, 'C');
 189              	  test_assert(35, msg1 == RDY_OK, "wrong wake-up message");
 190              	  msg1 = chMBPostAheadI(&mb1, 'B');
 191              	  test_assert(36, msg1 == RDY_OK, "wrong wake-up message");
 192              	  msg1 = chMBPostAheadI(&mb1, 'A');
 193              	  chSysUnlock();
 194              	  test_assert(37, msg1 == RDY_OK, "wrong wake-up message");
 195              	  test_assert(38, mb1.mb_rdptr == mb1.mb_wrptr, "pointers not aligned");
 196              	  for (i = 0; i < MB_SIZE; i++) {
 197              	    chSysLock();
 198              	    msg1 = chMBFetchI(&mb1, &msg2);
 199              	    chSysUnlock();
 200              	    test_assert(39, msg1 == RDY_OK, "wrong wake-up message");
 201              	    test_emit_token(msg2);
 202              	  }
 203              	  test_assert_sequence(40, "ABCDE");
 204              	  test_assert_lock(41, chMBGetFreeCountI(&mb1) == MB_SIZE, "not empty");
 205              	  test_assert_lock(42, chMBGetUsedCountI(&mb1) == 0, "still full");
 206              	  test_assert(43, mb1.mb_rdptr == mb1.mb_wrptr, "pointers not aligned");
 207              	
 208              	  /*
 209              	   * Testing reset.
 210              	   */
 211              	  chMBReset(&mb1);
GAS LISTING /tmp/ccEKufMP.s 			page 10


 212              	
 213              	  /*
 214              	   * Re-testing final conditions.
 215              	   */
 216              	  test_assert_lock(44, chMBGetFreeCountI(&mb1) == MB_SIZE, "not empty");
 217              	  test_assert_lock(45, chMBGetUsedCountI(&mb1) == 0, "still full");
 218              	  test_assert_lock(46, mb1.mb_buffer == mb1.mb_wrptr, "write pointer not aligned to base");
 219 01aa 90       	  test_assert_lock(47, mb1.mb_buffer == mb1.mb_rdptr, "read pointer not aligned to base");
 220              	}
 260              		nop
 261              	# 0 "" 2
 262              	#NO_APP
 263 01ab E9EEFEFF 		jmp	.L1	#
 263      FF
 264              	.LVL26:
 265              	.L5:
 266              		.loc 1 114 0 discriminator 2
 267              	#APP
 268              	# 114 "../../../test/testmbox.c" 1
 269              		nop
 270              	# 0 "" 2
 271              		.loc 1 115 0 discriminator 2
 272              	# 115 "../../../test/testmbox.c" 1
 273              		nop
 274              	# 0 "" 2
 275              	#NO_APP
 276 01b2 31C0     		xorl	%eax, %eax	# D.2269
 277 01b4 833D1800 		cmpl	$5, mb1+24	#, mb1.mb_fullsem.s_cnt
 277      000005
 278 01bb C7042409 		movl	$9, (%esp)	#,
 278      000000
 279 01c2 0F94C0   		sete	%al	#, D.2269
 280 01c5 89442404 		movl	%eax, 4(%esp)	# D.2269,
 281 01c9 E8FCFFFF 		call	_test_assert	#
 281      FF
 282              	.LVL27:
 283 01ce 84C0     		testb	%al, %al	# D.2269
 284 01d0 75D8     		jne	.L25	#,
 285              	#APP
 286              	# 115 "../../../test/testmbox.c" 1
 287              		nop
 288              	# 0 "" 2
 289              		.loc 1 116 0 discriminator 2
 290              	# 116 "../../../test/testmbox.c" 1
 291              		nop
 292              	# 0 "" 2
 293              	#NO_APP
 294 01d4 A1080000 		movl	mb1+8, %eax	# mb1.mb_wrptr, tmp404
 294      00
 295 01d9 39050C00 		cmpl	%eax, mb1+12	# tmp404, mb1.mb_rdptr
 295      0000
 296 01df C704240A 		movl	$10, (%esp)	#,
 296      000000
 297 01e6 0F94C0   		sete	%al	#, D.2269
 298 01e9 0FB6C0   		movzbl	%al, %eax	# D.2269, D.2269
 299 01ec 89442404 		movl	%eax, 4(%esp)	# D.2269,
 300 01f0 E8FCFFFF 		call	_test_assert	#
GAS LISTING /tmp/ccEKufMP.s 			page 11


 300      FF
 301              	.LVL28:
 302 01f5 84C0     		testb	%al, %al	# D.2269
 303 01f7 75B1     		jne	.L25	#,
 304              	#APP
 305              	# 116 "../../../test/testmbox.c" 1
 306              		nop
 307              	# 0 "" 2
 308              	.LVL29:
 309              	#NO_APP
 310 01fa BE050000 		movl	$5, %esi	#, D.2267
 310      00
 311 01ff 8D5C241C 		leal	28(%esp), %ebx	#, tmp403
 312 0203 EB12     		jmp	.L10	#
 313              	.LVL30:
 314              	.L31:
 315              		.loc 1 124 0
 316 0205 0FBE4424 		movsbl	28(%esp), %eax	# msg2, msg2
 316      1C
 317 020a 890424   		movl	%eax, (%esp)	# msg2,
 318 020d E8FCFFFF 		call	test_emit_token	#
 318      FF
 319              	.LVL31:
 320              		.loc 1 121 0
 321 0212 83EE01   		subl	$1, %esi	#, D.2267
 322              	.LVL32:
 323 0215 7439     		je	.L30	#,
 324              	.LVL33:
 325              	.L10:
 326              		.loc 1 122 0
 327 0217 C7442408 		movl	$-1, 8(%esp)	#,
 327      FFFFFFFF 
 328 021f 895C2404 		movl	%ebx, 4(%esp)	# tmp403,
 329 0223 C7042400 		movl	$mb1, (%esp)	#,
 329      000000
 330 022a E8FCFFFF 		call	chMBFetch	#
 330      FF
 331              	.LVL34:
 332              		.loc 1 123 0
 333 022f C704240B 		movl	$11, (%esp)	#,
 333      000000
 334 0236 85C0     		testl	%eax, %eax	# msg1
 335 0238 0F94C0   		sete	%al	#, D.2269
 336              	.LVL35:
 337 023b 0FB6C0   		movzbl	%al, %eax	# D.2269, D.2269
 338 023e 89442404 		movl	%eax, 4(%esp)	# D.2269,
 339 0242 E8FCFFFF 		call	_test_assert	#
 339      FF
 340              	.LVL36:
 341 0247 84C0     		testb	%al, %al	# D.2269
 342 0249 74BA     		je	.L31	#,
 343 024b E94EFEFF 		jmp	.L1	#
 343      FF
 344              	.L30:
 345              		.loc 1 126 0
 346 0250 C7442404 		movl	$.LC0, 4(%esp)	#,
 346      00000000 
GAS LISTING /tmp/ccEKufMP.s 			page 12


 347 0258 C704240C 		movl	$12, (%esp)	#,
 347      000000
 348 025f E8FCFFFF 		call	_test_assert_sequence	#
 348      FF
 349              	.LVL37:
 350 0264 84C0     		testb	%al, %al	# D.2269
 351 0266 0F8532FE 		jne	.L1	#,
 351      FFFF
 352              		.loc 1 131 0
 353 026c C7442408 		movl	$-1, 8(%esp)	#,
 353      FFFFFFFF 
 354 0274 C7442404 		movl	$71, 4(%esp)	#,
 354      47000000 
 355 027c C7042400 		movl	$mb1, (%esp)	#,
 355      000000
 356 0283 E8FCFFFF 		call	chMBPost	#
 356      FF
 357              	.LVL38:
 358              		.loc 1 132 0
 359 0288 C704240D 		movl	$13, (%esp)	#,
 359      000000
 360 028f 85C0     		testl	%eax, %eax	# msg1
 361 0291 0F94C0   		sete	%al	#, D.2269
 362              	.LVL39:
 363 0294 0FB6C0   		movzbl	%al, %eax	# D.2269, D.2269
 364 0297 89442404 		movl	%eax, 4(%esp)	# D.2269,
 365 029b E8FCFFFF 		call	_test_assert	#
 365      FF
 366              	.LVL40:
 367 02a0 84C0     		testb	%al, %al	# D.2269
 368 02a2 0F85F6FD 		jne	.L1	#,
 368      FFFF
 369              		.loc 1 133 0
 370 02a8 C7442408 		movl	$-1, 8(%esp)	#,
 370      FFFFFFFF 
 371 02b0 895C2404 		movl	%ebx, 4(%esp)	# tmp403,
 372 02b4 C7042400 		movl	$mb1, (%esp)	#,
 372      000000
 373 02bb E8FCFFFF 		call	chMBFetch	#
 373      FF
 374              	.LVL41:
 375              		.loc 1 134 0
 376 02c0 C704240E 		movl	$14, (%esp)	#,
 376      000000
 377 02c7 85C0     		testl	%eax, %eax	# msg1
 378 02c9 0F94C0   		sete	%al	#, D.2269
 379              	.LVL42:
 380 02cc 0FB6C0   		movzbl	%al, %eax	# D.2269, D.2269
 381 02cf 89442404 		movl	%eax, 4(%esp)	# D.2269,
 382 02d3 E8FCFFFF 		call	_test_assert	#
 382      FF
 383              	.LVL43:
 384 02d8 84C0     		testb	%al, %al	# D.2269
 385 02da 0F85BEFD 		jne	.L1	#,
 385      FFFF
 386              		.loc 1 135 0
 387 02e0 A1080000 		movl	mb1+8, %eax	# mb1.mb_wrptr, tmp405
GAS LISTING /tmp/ccEKufMP.s 			page 13


 387      00
 388 02e5 39050000 		cmpl	%eax, mb1	# tmp405, mb1.mb_buffer
 388      0000
 389 02eb C704240F 		movl	$15, (%esp)	#,
 389      000000
 390 02f2 0F94C0   		sete	%al	#, D.2269
 391 02f5 0FB6C0   		movzbl	%al, %eax	# D.2269, D.2269
 392 02f8 89442404 		movl	%eax, 4(%esp)	# D.2269,
 393 02fc E8FCFFFF 		call	_test_assert	#
 393      FF
 394              	.LVL44:
 395 0301 84C0     		testb	%al, %al	# D.2269
 396 0303 0F8595FD 		jne	.L1	#,
 396      FFFF
 397              		.loc 1 136 0
 398 0309 A10C0000 		movl	mb1+12, %eax	# mb1.mb_rdptr, tmp406
 398      00
 399 030e 39050000 		cmpl	%eax, mb1	# tmp406, mb1.mb_buffer
 399      0000
 400 0314 C7042410 		movl	$16, (%esp)	#,
 400      000000
 401 031b 0F94C0   		sete	%al	#, D.2269
 402 031e 0FB6C0   		movzbl	%al, %eax	# D.2269, D.2269
 403 0321 89442404 		movl	%eax, 4(%esp)	# D.2269,
 404 0325 E8FCFFFF 		call	_test_assert	#
 404      FF
 405              	.LVL45:
 406 032a 84C0     		testb	%al, %al	# D.2269
 407 032c 0F856CFD 		jne	.L1	#,
 407      FFFF
 408              		.loc 1 141 0
 409 0332 C7442408 		movl	$1, 8(%esp)	#,
 409      01000000 
 410 033a 895C2404 		movl	%ebx, 4(%esp)	# tmp403,
 411 033e C7042400 		movl	$mb1, (%esp)	#,
 411      000000
 412 0345 E8FCFFFF 		call	chMBFetch	#
 412      FF
 413              	.LVL46:
 414              		.loc 1 142 0
 415 034a C7042411 		movl	$17, (%esp)	#,
 415      000000
 416 0351 83C001   		addl	$1, %eax	#, msg1
 417              	.LVL47:
 418 0354 0F94C0   		sete	%al	#, D.2269
 419 0357 0FB6C0   		movzbl	%al, %eax	# D.2269, D.2269
 420 035a 89442404 		movl	%eax, 4(%esp)	# D.2269,
 421 035e E8FCFFFF 		call	_test_assert	#
 421      FF
 422              	.LVL48:
 423 0363 84C0     		testb	%al, %al	# D.2269
 424 0365 0F8533FD 		jne	.L1	#,
 424      FFFF
 425              		.loc 1 143 0
 426              	#APP
 427              	# 143 "../../../test/testmbox.c" 1
 428              		nop
GAS LISTING /tmp/ccEKufMP.s 			page 14


 429              	# 0 "" 2
 430              		.loc 1 144 0
 431              	#NO_APP
 432 036c 895C2404 		movl	%ebx, 4(%esp)	# tmp403,
 433 0370 C7042400 		movl	$mb1, (%esp)	#,
 433      000000
 434 0377 E8FCFFFF 		call	chMBFetchI	#
 434      FF
 435              	.LVL49:
 436              		.loc 1 145 0
 437              	#APP
 438              	# 145 "../../../test/testmbox.c" 1
 439              		nop
 440              	# 0 "" 2
 441              		.loc 1 146 0
 442              	#NO_APP
 443 037d 83C001   		addl	$1, %eax	#, msg1
 444              	.LVL50:
 445 0380 0F94C0   		sete	%al	#, D.2269
 446 0383 0FB6C0   		movzbl	%al, %eax	# D.2269, D.2269
 447 0386 89442404 		movl	%eax, 4(%esp)	# D.2269,
 448 038a C7042412 		movl	$18, (%esp)	#,
 448      000000
 449 0391 E8FCFFFF 		call	_test_assert	#
 449      FF
 450              	.LVL51:
 451 0396 84C0     		testb	%al, %al	# D.2269
 452 0398 0F8500FD 		jne	.L1	#,
 452      FFFF
 453              		.loc 1 151 0
 454              	#APP
 455              	# 151 "../../../test/testmbox.c" 1
 456              		nop
 457              	# 0 "" 2
 458              	#NO_APP
 459 039f 31C0     		xorl	%eax, %eax	# D.2269
 460 03a1 833D2400 		cmpl	$5, mb1+36	#, mb1.mb_emptysem.s_cnt
 460      000005
 461 03a8 C7042413 		movl	$19, (%esp)	#,
 461      000000
 462 03af 0F94C0   		sete	%al	#, D.2269
 463 03b2 89442404 		movl	%eax, 4(%esp)	# D.2269,
 464 03b6 E8FCFFFF 		call	_test_assert	#
 464      FF
 465              	.LVL52:
 466 03bb 84C0     		testb	%al, %al	# D.2269
 467 03bd 0F85E7FD 		jne	.L25	#,
 467      FFFF
 468              		.loc 1 151 0 is_stmt 0 discriminator 2
 469              	#APP
 470              	# 151 "../../../test/testmbox.c" 1
 471              		nop
 472              	# 0 "" 2
 473              		.loc 1 152 0 is_stmt 1 discriminator 2
 474              	# 152 "../../../test/testmbox.c" 1
 475              		nop
 476              	# 0 "" 2
GAS LISTING /tmp/ccEKufMP.s 			page 15


 477              	#NO_APP
 478 03c5 31C0     		xorl	%eax, %eax	# D.2269
 479 03c7 833D1800 		cmpl	$0, mb1+24	#, mb1.mb_fullsem.s_cnt
 479      000000
 480 03ce C7042414 		movl	$20, (%esp)	#,
 480      000000
 481 03d5 0F94C0   		sete	%al	#, D.2269
 482 03d8 89442404 		movl	%eax, 4(%esp)	# D.2269,
 483 03dc E8FCFFFF 		call	_test_assert	#
 483      FF
 484              	.LVL53:
 485 03e1 84C0     		testb	%al, %al	# D.2269
 486 03e3 0F85C1FD 		jne	.L25	#,
 486      FFFF
 487              	#APP
 488              	# 152 "../../../test/testmbox.c" 1
 489              		nop
 490              	# 0 "" 2
 491              		.loc 1 153 0 discriminator 2
 492              	# 153 "../../../test/testmbox.c" 1
 493              		nop
 494              	# 0 "" 2
 495              	#NO_APP
 496 03eb A1080000 		movl	mb1+8, %eax	# mb1.mb_wrptr, tmp407
 496      00
 497 03f0 39050C00 		cmpl	%eax, mb1+12	# tmp407, mb1.mb_rdptr
 497      0000
 498 03f6 C7042415 		movl	$21, (%esp)	#,
 498      000000
 499 03fd 0F94C0   		sete	%al	#, D.2269
 500 0400 0FB6C0   		movzbl	%al, %eax	# D.2269, D.2269
 501 0403 89442404 		movl	%eax, 4(%esp)	# D.2269,
 502 0407 E8FCFFFF 		call	_test_assert	#
 502      FF
 503              	.LVL54:
 504 040c 84C0     		testb	%al, %al	# D.2269
 505 040e 0F8596FD 		jne	.L25	#,
 505      FFFF
 506              	#APP
 507              	# 153 "../../../test/testmbox.c" 1
 508              		nop
 509              	# 0 "" 2
 510              		.loc 1 158 0 discriminator 2
 511              	# 158 "../../../test/testmbox.c" 1
 512              		nop
 513              	# 0 "" 2
 514              		.loc 1 159 0 discriminator 2
 515              	#NO_APP
 516 0416 C7442404 		movl	$65, 4(%esp)	#,
 516      41000000 
 517 041e C7042400 		movl	$mb1, (%esp)	#,
 517      000000
 518 0425 E8FCFFFF 		call	chMBPostI	#
 518      FF
 519              	.LVL55:
 520              		.loc 1 160 0 discriminator 2
 521 042a C7042416 		movl	$22, (%esp)	#,
GAS LISTING /tmp/ccEKufMP.s 			page 16


 521      000000
 522 0431 85C0     		testl	%eax, %eax	# msg1
 523 0433 0F94C0   		sete	%al	#, D.2269
 524              	.LVL56:
 525 0436 0FB6C0   		movzbl	%al, %eax	# D.2269, D.2269
 526 0439 89442404 		movl	%eax, 4(%esp)	# D.2269,
 527 043d E8FCFFFF 		call	_test_assert	#
 527      FF
 528              	.LVL57:
 529 0442 84C0     		testb	%al, %al	# D.2269
 530 0444 0F8554FC 		jne	.L1	#,
 530      FFFF
 531              		.loc 1 161 0
 532 044a C7442404 		movl	$66, 4(%esp)	#,
 532      42000000 
 533 0452 C7042400 		movl	$mb1, (%esp)	#,
 533      000000
 534 0459 E8FCFFFF 		call	chMBPostI	#
 534      FF
 535              	.LVL58:
 536              		.loc 1 162 0
 537 045e C7042417 		movl	$23, (%esp)	#,
 537      000000
 538 0465 85C0     		testl	%eax, %eax	# msg1
 539 0467 0F94C0   		sete	%al	#, D.2269
 540              	.LVL59:
 541 046a 0FB6C0   		movzbl	%al, %eax	# D.2269, D.2269
 542 046d 89442404 		movl	%eax, 4(%esp)	# D.2269,
 543 0471 E8FCFFFF 		call	_test_assert	#
 543      FF
 544              	.LVL60:
 545 0476 84C0     		testb	%al, %al	# D.2269
 546 0478 0F8520FC 		jne	.L1	#,
 546      FFFF
 547              		.loc 1 163 0
 548 047e C7442404 		movl	$67, 4(%esp)	#,
 548      43000000 
 549 0486 C7042400 		movl	$mb1, (%esp)	#,
 549      000000
 550 048d E8FCFFFF 		call	chMBPostI	#
 550      FF
 551              	.LVL61:
 552              		.loc 1 164 0
 553 0492 C7042418 		movl	$24, (%esp)	#,
 553      000000
 554 0499 85C0     		testl	%eax, %eax	# msg1
 555 049b 0F94C0   		sete	%al	#, D.2269
 556              	.LVL62:
 557 049e 0FB6C0   		movzbl	%al, %eax	# D.2269, D.2269
 558 04a1 89442404 		movl	%eax, 4(%esp)	# D.2269,
 559 04a5 E8FCFFFF 		call	_test_assert	#
 559      FF
 560              	.LVL63:
 561 04aa 84C0     		testb	%al, %al	# D.2269
 562 04ac 0F85ECFB 		jne	.L1	#,
 562      FFFF
 563              		.loc 1 165 0
GAS LISTING /tmp/ccEKufMP.s 			page 17


 564 04b2 C7442404 		movl	$68, 4(%esp)	#,
 564      44000000 
 565 04ba C7042400 		movl	$mb1, (%esp)	#,
 565      000000
 566 04c1 E8FCFFFF 		call	chMBPostI	#
 566      FF
 567              	.LVL64:
 568              		.loc 1 166 0
 569 04c6 C7042419 		movl	$25, (%esp)	#,
 569      000000
 570 04cd 85C0     		testl	%eax, %eax	# msg1
 571 04cf 0F94C0   		sete	%al	#, D.2269
 572              	.LVL65:
 573 04d2 0FB6C0   		movzbl	%al, %eax	# D.2269, D.2269
 574 04d5 89442404 		movl	%eax, 4(%esp)	# D.2269,
 575 04d9 E8FCFFFF 		call	_test_assert	#
 575      FF
 576              	.LVL66:
 577 04de 84C0     		testb	%al, %al	# D.2269
 578 04e0 0F85B8FB 		jne	.L1	#,
 578      FFFF
 579              		.loc 1 167 0
 580 04e6 C7442404 		movl	$69, 4(%esp)	#,
 580      45000000 
 581 04ee C7042400 		movl	$mb1, (%esp)	#,
 581      000000
 582 04f5 E8FCFFFF 		call	chMBPostI	#
 582      FF
 583              	.LVL67:
 584              		.loc 1 168 0
 585              	#APP
 586              	# 168 "../../../test/testmbox.c" 1
 587              		nop
 588              	# 0 "" 2
 589              		.loc 1 169 0
 590              	#NO_APP
 591 04fb 85C0     		testl	%eax, %eax	# msg1
 592 04fd 0F94C0   		sete	%al	#, D.2269
 593              	.LVL68:
 594 0500 0FB6C0   		movzbl	%al, %eax	# D.2269, D.2269
 595 0503 89442404 		movl	%eax, 4(%esp)	# D.2269,
 596 0507 C704241A 		movl	$26, (%esp)	#,
 596      000000
 597 050e E8FCFFFF 		call	_test_assert	#
 597      FF
 598              	.LVL69:
 599 0513 84C0     		testb	%al, %al	# D.2269
 600 0515 0F8583FB 		jne	.L1	#,
 600      FFFF
 601              		.loc 1 170 0
 602 051b A1080000 		movl	mb1+8, %eax	# mb1.mb_wrptr, tmp408
 602      00
 603 0520 39050C00 		cmpl	%eax, mb1+12	# tmp408, mb1.mb_rdptr
 603      0000
 604 0526 C704241B 		movl	$27, (%esp)	#,
 604      000000
 605 052d 0F94C0   		sete	%al	#, D.2269
GAS LISTING /tmp/ccEKufMP.s 			page 18


 606 0530 0FB6C0   		movzbl	%al, %eax	# D.2269, D.2269
 607 0533 89442404 		movl	%eax, 4(%esp)	# D.2269,
 608 0537 E8FCFFFF 		call	_test_assert	#
 608      FF
 609              	.LVL70:
 610 053c 84C0     		testb	%al, %al	# D.2269
 611 053e 0F855AFB 		jne	.L1	#,
 611      FFFF
 612 0544 BE050000 		movl	$5, %esi	#, D.2267
 612      00
 613              	.LVL71:
 614              	.L15:
 615              		.loc 1 172 0
 616              	#APP
 617              	# 172 "../../../test/testmbox.c" 1
 618              		nop
 619              	# 0 "" 2
 620              		.loc 1 173 0
 621              	#NO_APP
 622 054a 895C2404 		movl	%ebx, 4(%esp)	# tmp403,
 623 054e C7042400 		movl	$mb1, (%esp)	#,
 623      000000
 624 0555 E8FCFFFF 		call	chMBFetchI	#
 624      FF
 625              	.LVL72:
 626              		.loc 1 174 0
 627              	#APP
 628              	# 174 "../../../test/testmbox.c" 1
 629              		nop
 630              	# 0 "" 2
 631              		.loc 1 175 0
 632              	#NO_APP
 633 055b 85C0     		testl	%eax, %eax	# msg1
 634 055d 0F94C0   		sete	%al	#, D.2269
 635              	.LVL73:
 636 0560 0FB6C0   		movzbl	%al, %eax	# D.2269, D.2269
 637 0563 89442404 		movl	%eax, 4(%esp)	# D.2269,
 638 0567 C704241C 		movl	$28, (%esp)	#,
 638      000000
 639 056e E8FCFFFF 		call	_test_assert	#
 639      FF
 640              	.LVL74:
 641 0573 84C0     		testb	%al, %al	# D.2269
 642 0575 0F8523FB 		jne	.L1	#,
 642      FFFF
 643              		.loc 1 176 0
 644 057b 0FBE4424 		movsbl	28(%esp), %eax	# msg2, msg2
 644      1C
 645 0580 890424   		movl	%eax, (%esp)	# msg2,
 646 0583 E8FCFFFF 		call	test_emit_token	#
 646      FF
 647              	.LVL75:
 648              		.loc 1 171 0
 649 0588 83EE01   		subl	$1, %esi	#, D.2267
 650              	.LVL76:
 651 058b 75BC     		jne	.L15	#,
 652              		.loc 1 178 0
GAS LISTING /tmp/ccEKufMP.s 			page 19


 653 058d C7442404 		movl	$.LC0, 4(%esp)	#,
 653      00000000 
 654 0595 C704241D 		movl	$29, (%esp)	#,
 654      000000
 655 059c E8FCFFFF 		call	_test_assert_sequence	#
 655      FF
 656              	.LVL77:
 657 05a1 84C0     		testb	%al, %al	# D.2269
 658 05a3 0F85F5FA 		jne	.L1	#,
 658      FFFF
 659              		.loc 1 179 0
 660              	#APP
 661              	# 179 "../../../test/testmbox.c" 1
 662              		nop
 663              	# 0 "" 2
 664              	#NO_APP
 665 05aa 31C0     		xorl	%eax, %eax	# D.2269
 666 05ac 833D2400 		cmpl	$5, mb1+36	#, mb1.mb_emptysem.s_cnt
 666      000005
 667 05b3 C704241E 		movl	$30, (%esp)	#,
 667      000000
 668 05ba 0F94C0   		sete	%al	#, D.2269
 669 05bd 89442404 		movl	%eax, 4(%esp)	# D.2269,
 670 05c1 E8FCFFFF 		call	_test_assert	#
 670      FF
 671              	.LVL78:
 672 05c6 84C0     		testb	%al, %al	# D.2269
 673 05c8 0F85DCFB 		jne	.L25	#,
 673      FFFF
 674              		.loc 1 179 0 is_stmt 0 discriminator 2
 675              	#APP
 676              	# 179 "../../../test/testmbox.c" 1
 677              		nop
 678              	# 0 "" 2
 679              		.loc 1 180 0 is_stmt 1 discriminator 2
 680              	# 180 "../../../test/testmbox.c" 1
 681              		nop
 682              	# 0 "" 2
 683              	#NO_APP
 684 05d0 31C0     		xorl	%eax, %eax	# D.2269
 685 05d2 833D1800 		cmpl	$0, mb1+24	#, mb1.mb_fullsem.s_cnt
 685      000000
 686 05d9 C704241F 		movl	$31, (%esp)	#,
 686      000000
 687 05e0 0F94C0   		sete	%al	#, D.2269
 688 05e3 89442404 		movl	%eax, 4(%esp)	# D.2269,
 689 05e7 E8FCFFFF 		call	_test_assert	#
 689      FF
 690              	.LVL79:
 691 05ec 84C0     		testb	%al, %al	# D.2269
 692 05ee 0F85B6FB 		jne	.L25	#,
 692      FFFF
 693              	#APP
 694              	# 180 "../../../test/testmbox.c" 1
 695              		nop
 696              	# 0 "" 2
 697              		.loc 1 181 0 discriminator 2
GAS LISTING /tmp/ccEKufMP.s 			page 20


 698              	#NO_APP
 699 05f5 A1080000 		movl	mb1+8, %eax	# mb1.mb_wrptr, tmp409
 699      00
 700 05fa 39050C00 		cmpl	%eax, mb1+12	# tmp409, mb1.mb_rdptr
 700      0000
 701 0600 C7042420 		movl	$32, (%esp)	#,
 701      000000
 702 0607 0F94C0   		sete	%al	#, D.2269
 703 060a 0FB6C0   		movzbl	%al, %eax	# D.2269, D.2269
 704 060d 89442404 		movl	%eax, 4(%esp)	# D.2269,
 705 0611 E8FCFFFF 		call	_test_assert	#
 705      FF
 706              	.LVL80:
 707 0616 84C0     		testb	%al, %al	# D.2269
 708 0618 0F8580FA 		jne	.L1	#,
 708      FFFF
 709              		.loc 1 183 0
 710              	#APP
 711              	# 183 "../../../test/testmbox.c" 1
 712              		nop
 713              	# 0 "" 2
 714              		.loc 1 184 0
 715              	#NO_APP
 716 061f C7442404 		movl	$69, 4(%esp)	#,
 716      45000000 
 717 0627 C7042400 		movl	$mb1, (%esp)	#,
 717      000000
 718 062e E8FCFFFF 		call	chMBPostAheadI	#
 718      FF
 719              	.LVL81:
 720              		.loc 1 185 0
 721 0633 C7042421 		movl	$33, (%esp)	#,
 721      000000
 722 063a 85C0     		testl	%eax, %eax	# msg1
 723 063c 0F94C0   		sete	%al	#, D.2269
 724              	.LVL82:
 725 063f 0FB6C0   		movzbl	%al, %eax	# D.2269, D.2269
 726 0642 89442404 		movl	%eax, 4(%esp)	# D.2269,
 727 0646 E8FCFFFF 		call	_test_assert	#
 727      FF
 728              	.LVL83:
 729 064b 84C0     		testb	%al, %al	# D.2269
 730 064d 0F854BFA 		jne	.L1	#,
 730      FFFF
 731              		.loc 1 186 0
 732 0653 C7442404 		movl	$68, 4(%esp)	#,
 732      44000000 
 733 065b C7042400 		movl	$mb1, (%esp)	#,
 733      000000
 734 0662 E8FCFFFF 		call	chMBPostAheadI	#
 734      FF
 735              	.LVL84:
 736              		.loc 1 187 0
 737 0667 C7042422 		movl	$34, (%esp)	#,
 737      000000
 738 066e 85C0     		testl	%eax, %eax	# msg1
 739 0670 0F94C0   		sete	%al	#, D.2269
GAS LISTING /tmp/ccEKufMP.s 			page 21


 740              	.LVL85:
 741 0673 0FB6C0   		movzbl	%al, %eax	# D.2269, D.2269
 742 0676 89442404 		movl	%eax, 4(%esp)	# D.2269,
 743 067a E8FCFFFF 		call	_test_assert	#
 743      FF
 744              	.LVL86:
 745 067f 84C0     		testb	%al, %al	# D.2269
 746 0681 0F8517FA 		jne	.L1	#,
 746      FFFF
 747              		.loc 1 188 0
 748 0687 C7442404 		movl	$67, 4(%esp)	#,
 748      43000000 
 749 068f C7042400 		movl	$mb1, (%esp)	#,
 749      000000
 750 0696 E8FCFFFF 		call	chMBPostAheadI	#
 750      FF
 751              	.LVL87:
 752              		.loc 1 189 0
 753 069b C7042423 		movl	$35, (%esp)	#,
 753      000000
 754 06a2 85C0     		testl	%eax, %eax	# msg1
 755 06a4 0F94C0   		sete	%al	#, D.2269
 756              	.LVL88:
 757 06a7 0FB6C0   		movzbl	%al, %eax	# D.2269, D.2269
 758 06aa 89442404 		movl	%eax, 4(%esp)	# D.2269,
 759 06ae E8FCFFFF 		call	_test_assert	#
 759      FF
 760              	.LVL89:
 761 06b3 84C0     		testb	%al, %al	# D.2269
 762 06b5 0F85E3F9 		jne	.L1	#,
 762      FFFF
 763              		.loc 1 190 0
 764 06bb C7442404 		movl	$66, 4(%esp)	#,
 764      42000000 
 765 06c3 C7042400 		movl	$mb1, (%esp)	#,
 765      000000
 766 06ca E8FCFFFF 		call	chMBPostAheadI	#
 766      FF
 767              	.LVL90:
 768              		.loc 1 191 0
 769 06cf C7042424 		movl	$36, (%esp)	#,
 769      000000
 770 06d6 85C0     		testl	%eax, %eax	# msg1
 771 06d8 0F94C0   		sete	%al	#, D.2269
 772              	.LVL91:
 773 06db 0FB6C0   		movzbl	%al, %eax	# D.2269, D.2269
 774 06de 89442404 		movl	%eax, 4(%esp)	# D.2269,
 775 06e2 E8FCFFFF 		call	_test_assert	#
 775      FF
 776              	.LVL92:
 777 06e7 84C0     		testb	%al, %al	# D.2269
 778 06e9 0F85AFF9 		jne	.L1	#,
 778      FFFF
 779              		.loc 1 192 0
 780 06ef C7442404 		movl	$65, 4(%esp)	#,
 780      41000000 
 781 06f7 C7042400 		movl	$mb1, (%esp)	#,
GAS LISTING /tmp/ccEKufMP.s 			page 22


 781      000000
 782 06fe E8FCFFFF 		call	chMBPostAheadI	#
 782      FF
 783              	.LVL93:
 784              		.loc 1 193 0
 785              	#APP
 786              	# 193 "../../../test/testmbox.c" 1
 787              		nop
 788              	# 0 "" 2
 789              		.loc 1 194 0
 790              	#NO_APP
 791 0704 85C0     		testl	%eax, %eax	# msg1
 792 0706 0F94C0   		sete	%al	#, D.2269
 793              	.LVL94:
 794 0709 0FB6C0   		movzbl	%al, %eax	# D.2269, D.2269
 795 070c 89442404 		movl	%eax, 4(%esp)	# D.2269,
 796 0710 C7042425 		movl	$37, (%esp)	#,
 796      000000
 797 0717 E8FCFFFF 		call	_test_assert	#
 797      FF
 798              	.LVL95:
 799 071c 84C0     		testb	%al, %al	# D.2269
 800 071e 0F857AF9 		jne	.L1	#,
 800      FFFF
 801              		.loc 1 195 0
 802 0724 A1080000 		movl	mb1+8, %eax	# mb1.mb_wrptr, tmp410
 802      00
 803 0729 39050C00 		cmpl	%eax, mb1+12	# tmp410, mb1.mb_rdptr
 803      0000
 804 072f C7042426 		movl	$38, (%esp)	#,
 804      000000
 805 0736 0F94C0   		sete	%al	#, D.2269
 806 0739 0FB6C0   		movzbl	%al, %eax	# D.2269, D.2269
 807 073c 89442404 		movl	%eax, 4(%esp)	# D.2269,
 808 0740 E8FCFFFF 		call	_test_assert	#
 808      FF
 809              	.LVL96:
 810 0745 84C0     		testb	%al, %al	# D.2269
 811 0747 0F8551F9 		jne	.L1	#,
 811      FFFF
 812 074d BE050000 		movl	$5, %esi	#, D.2267
 812      00
 813              	.LVL97:
 814              	.L19:
 815              		.loc 1 197 0
 816              	#APP
 817              	# 197 "../../../test/testmbox.c" 1
 818              		nop
 819              	# 0 "" 2
 820              		.loc 1 198 0
 821              	#NO_APP
 822 0753 895C2404 		movl	%ebx, 4(%esp)	# tmp403,
 823 0757 C7042400 		movl	$mb1, (%esp)	#,
 823      000000
 824 075e E8FCFFFF 		call	chMBFetchI	#
 824      FF
 825              	.LVL98:
GAS LISTING /tmp/ccEKufMP.s 			page 23


 826              		.loc 1 199 0
 827              	#APP
 828              	# 199 "../../../test/testmbox.c" 1
 829              		nop
 830              	# 0 "" 2
 831              		.loc 1 200 0
 832              	#NO_APP
 833 0764 85C0     		testl	%eax, %eax	# msg1
 834 0766 0F94C0   		sete	%al	#, D.2269
 835              	.LVL99:
 836 0769 0FB6C0   		movzbl	%al, %eax	# D.2269, D.2269
 837 076c 89442404 		movl	%eax, 4(%esp)	# D.2269,
 838 0770 C7042427 		movl	$39, (%esp)	#,
 838      000000
 839 0777 E8FCFFFF 		call	_test_assert	#
 839      FF
 840              	.LVL100:
 841 077c 84C0     		testb	%al, %al	# D.2269
 842 077e 0F851AF9 		jne	.L1	#,
 842      FFFF
 843              		.loc 1 201 0
 844 0784 0FBE4424 		movsbl	28(%esp), %eax	# msg2, msg2
 844      1C
 845 0789 890424   		movl	%eax, (%esp)	# msg2,
 846 078c E8FCFFFF 		call	test_emit_token	#
 846      FF
 847              	.LVL101:
 848              		.loc 1 196 0
 849 0791 83EE01   		subl	$1, %esi	#, D.2267
 850              	.LVL102:
 851 0794 75BC     		jne	.L19	#,
 852              		.loc 1 203 0
 853 0796 C7442404 		movl	$.LC0, 4(%esp)	#,
 853      00000000 
 854 079e C7042428 		movl	$40, (%esp)	#,
 854      000000
 855 07a5 E8FCFFFF 		call	_test_assert_sequence	#
 855      FF
 856              	.LVL103:
 857 07aa 84C0     		testb	%al, %al	# D.2269
 858 07ac 0F85ECF8 		jne	.L1	#,
 858      FFFF
 859              		.loc 1 204 0
 860              	#APP
 861              	# 204 "../../../test/testmbox.c" 1
 862              		nop
 863              	# 0 "" 2
 864              	#NO_APP
 865 07b3 31C0     		xorl	%eax, %eax	# D.2269
 866 07b5 833D2400 		cmpl	$5, mb1+36	#, mb1.mb_emptysem.s_cnt
 866      000005
 867 07bc C7042429 		movl	$41, (%esp)	#,
 867      000000
 868 07c3 0F94C0   		sete	%al	#, D.2269
 869 07c6 89442404 		movl	%eax, 4(%esp)	# D.2269,
 870 07ca E8FCFFFF 		call	_test_assert	#
 870      FF
GAS LISTING /tmp/ccEKufMP.s 			page 24


 871              	.LVL104:
 872 07cf 84C0     		testb	%al, %al	# D.2269
 873 07d1 0F85D3F9 		jne	.L25	#,
 873      FFFF
 874              		.loc 1 204 0 is_stmt 0 discriminator 2
 875              	#APP
 876              	# 204 "../../../test/testmbox.c" 1
 877              		nop
 878              	# 0 "" 2
 879              		.loc 1 205 0 is_stmt 1 discriminator 2
 880              	# 205 "../../../test/testmbox.c" 1
 881              		nop
 882              	# 0 "" 2
 883              	#NO_APP
 884 07d9 31C0     		xorl	%eax, %eax	# D.2269
 885 07db 833D1800 		cmpl	$0, mb1+24	#, mb1.mb_fullsem.s_cnt
 885      000000
 886 07e2 C704242A 		movl	$42, (%esp)	#,
 886      000000
 887 07e9 0F94C0   		sete	%al	#, D.2269
 888 07ec 89442404 		movl	%eax, 4(%esp)	# D.2269,
 889 07f0 E8FCFFFF 		call	_test_assert	#
 889      FF
 890              	.LVL105:
 891 07f5 84C0     		testb	%al, %al	# D.2269
 892 07f7 0F85ADF9 		jne	.L25	#,
 892      FFFF
 893              	#APP
 894              	# 205 "../../../test/testmbox.c" 1
 895              		nop
 896              	# 0 "" 2
 897              		.loc 1 206 0 discriminator 2
 898              	#NO_APP
 899 07fe A1080000 		movl	mb1+8, %eax	# mb1.mb_wrptr, tmp411
 899      00
 900 0803 39050C00 		cmpl	%eax, mb1+12	# tmp411, mb1.mb_rdptr
 900      0000
 901 0809 C704242B 		movl	$43, (%esp)	#,
 901      000000
 902 0810 0F94C0   		sete	%al	#, D.2269
 903 0813 0FB6C0   		movzbl	%al, %eax	# D.2269, D.2269
 904 0816 89442404 		movl	%eax, 4(%esp)	# D.2269,
 905 081a E8FCFFFF 		call	_test_assert	#
 905      FF
 906              	.LVL106:
 907 081f 84C0     		testb	%al, %al	# D.2269
 908 0821 0F8577F8 		jne	.L1	#,
 908      FFFF
 909              		.loc 1 211 0
 910 0827 C7042400 		movl	$mb1, (%esp)	#,
 910      000000
 911 082e E8FCFFFF 		call	chMBReset	#
 911      FF
 912              	.LVL107:
 913              		.loc 1 216 0
 914              	#APP
 915              	# 216 "../../../test/testmbox.c" 1
GAS LISTING /tmp/ccEKufMP.s 			page 25


 916              		nop
 917              	# 0 "" 2
 918              	#NO_APP
 919 0834 31C0     		xorl	%eax, %eax	# D.2269
 920 0836 833D2400 		cmpl	$5, mb1+36	#, mb1.mb_emptysem.s_cnt
 920      000005
 921 083d C704242C 		movl	$44, (%esp)	#,
 921      000000
 922 0844 0F94C0   		sete	%al	#, D.2269
 923 0847 89442404 		movl	%eax, 4(%esp)	# D.2269,
 924 084b E8FCFFFF 		call	_test_assert	#
 924      FF
 925              	.LVL108:
 926 0850 84C0     		testb	%al, %al	# D.2269
 927 0852 0F8552F9 		jne	.L25	#,
 927      FFFF
 928              		.loc 1 216 0 is_stmt 0 discriminator 2
 929              	#APP
 930              	# 216 "../../../test/testmbox.c" 1
 931              		nop
 932              	# 0 "" 2
 933              		.loc 1 217 0 is_stmt 1 discriminator 2
 934              	# 217 "../../../test/testmbox.c" 1
 935              		nop
 936              	# 0 "" 2
 937              	#NO_APP
 938 085a 31C0     		xorl	%eax, %eax	# D.2269
 939 085c 833D1800 		cmpl	$0, mb1+24	#, mb1.mb_fullsem.s_cnt
 939      000000
 940 0863 C704242D 		movl	$45, (%esp)	#,
 940      000000
 941 086a 0F94C0   		sete	%al	#, D.2269
 942 086d 89442404 		movl	%eax, 4(%esp)	# D.2269,
 943 0871 E8FCFFFF 		call	_test_assert	#
 943      FF
 944              	.LVL109:
 945 0876 84C0     		testb	%al, %al	# D.2269
 946 0878 0F852CF9 		jne	.L25	#,
 946      FFFF
 947              	#APP
 948              	# 217 "../../../test/testmbox.c" 1
 949              		nop
 950              	# 0 "" 2
 951              		.loc 1 218 0 discriminator 2
 952              	# 218 "../../../test/testmbox.c" 1
 953              		nop
 954              	# 0 "" 2
 955              	#NO_APP
 956 0880 A1080000 		movl	mb1+8, %eax	# mb1.mb_wrptr, tmp412
 956      00
 957 0885 39050000 		cmpl	%eax, mb1	# tmp412, mb1.mb_buffer
 957      0000
 958 088b C704242E 		movl	$46, (%esp)	#,
 958      000000
 959 0892 0F94C0   		sete	%al	#, D.2269
 960 0895 0FB6C0   		movzbl	%al, %eax	# D.2269, D.2269
 961 0898 89442404 		movl	%eax, 4(%esp)	# D.2269,
GAS LISTING /tmp/ccEKufMP.s 			page 26


 962 089c E8FCFFFF 		call	_test_assert	#
 962      FF
 963              	.LVL110:
 964 08a1 84C0     		testb	%al, %al	# D.2269
 965 08a3 0F8501F9 		jne	.L25	#,
 965      FFFF
 966              	#APP
 967              	# 218 "../../../test/testmbox.c" 1
 968              		nop
 969              	# 0 "" 2
 970              		.loc 1 219 0 discriminator 2
 971              	# 219 "../../../test/testmbox.c" 1
 972              		nop
 973              	# 0 "" 2
 974              	#NO_APP
 975 08ab A10C0000 		movl	mb1+12, %eax	# mb1.mb_rdptr, tmp413
 975      00
 976 08b0 39050000 		cmpl	%eax, mb1	# tmp413, mb1.mb_buffer
 976      0000
 977 08b6 C704242F 		movl	$47, (%esp)	#,
 977      000000
 978 08bd 0F94C0   		sete	%al	#, D.2269
 979 08c0 0FB6C0   		movzbl	%al, %eax	# D.2269, D.2269
 980 08c3 89442404 		movl	%eax, 4(%esp)	# D.2269,
 981 08c7 E8FCFFFF 		call	_test_assert	#
 981      FF
 982              	.LVL111:
 983 08cc E9D9F8FF 		jmp	.L25	#
 983      FF
 984              		.cfi_endproc
 985              	.LFE8:
 986              		.size	mbox1_execute, .-mbox1_execute
 987 08d1 EB0D9090 		.p2align 4,,15
 987      90909090 
 987      90909090 
 987      909090
 988              		.type	mbox1_setup, @function
 989              	mbox1_setup:
 990              	.LFB7:
 991              		.loc 1 71 0
 992              		.cfi_startproc
 993 08e0 83EC1C   		subl	$28, %esp	#,
 994              		.cfi_def_cfa_offset 32
 995              		.loc 1 73 0
 996 08e3 C7442408 		movl	$5, 8(%esp)	#,
 996      05000000 
 997 08eb C7442404 		movl	$test, 4(%esp)	#,
 997      00000000 
 998 08f3 C7042400 		movl	$mb1, (%esp)	#,
 998      000000
 999 08fa E8FCFFFF 		call	chMBInit	#
 999      FF
 1000              	.LVL112:
 1001              		.loc 1 74 0
 1002 08ff 83C41C   		addl	$28, %esp	#,
 1003              		.cfi_def_cfa_offset 4
 1004 0902 C3       		ret
GAS LISTING /tmp/ccEKufMP.s 			page 27


 1005              		.cfi_endproc
 1006              	.LFE7:
 1007              		.size	mbox1_setup, .-mbox1_setup
 1008              		.globl	patternmbox
 1009              		.section	.rodata
 1010              		.align 4
 1011              		.type	patternmbox, @object
 1012              		.size	patternmbox, 8
 1013              	patternmbox:
 1014 0000 00000000 		.long	testmbox1
 1015 0004 00000000 		.long	0
 1016              		.globl	testmbox1
 1017              		.section	.rodata.str1.4,"aMS",@progbits,1
 1018              		.align 4
 1019              	.LC1:
 1020 0000 4D61696C 		.string	"Mailboxes, queuing and timeouts"
 1020      626F7865 
 1020      732C2071 
 1020      75657569 
 1020      6E672061 
 1021              		.section	.rodata
 1022              		.align 4
 1023              		.type	testmbox1, @object
 1024              		.size	testmbox1, 16
 1025              	testmbox1:
 1026              	# name:
 1027 0008 00000000 		.long	.LC1
 1028              	# setup:
 1029 000c E0080000 		.long	mbox1_setup
 1030              	# teardown:
 1031 0010 00000000 		.long	0
 1032              	# execute:
 1033 0014 00000000 		.long	mbox1_execute
 1034              		.data
 1035              		.align 32
 1036              		.type	mb1, @object
 1037              		.size	mb1, 40
 1038              	mb1:
 1039              	# mb_buffer:
 1040 0000 00000000 		.long	test
 1041              	# mb_top:
 1042 0004 14000000 		.long	test+20
 1043              	# mb_wrptr:
 1044 0008 00000000 		.long	test
 1045              	# mb_rdptr:
 1046 000c 00000000 		.long	test
 1047              	# mb_fullsem:
 1048              	# s_queue:
 1049              	# p_next:
 1050 0010 10000000 		.long	mb1+16
 1051              	# p_prev:
 1052 0014 10000000 		.long	mb1+16
 1053              	# s_cnt:
 1054 0018 00000000 		.long	0
 1055              	# mb_emptysem:
 1056              	# s_queue:
 1057              	# p_next:
GAS LISTING /tmp/ccEKufMP.s 			page 28


 1058 001c 1C000000 		.long	mb1+28
 1059              	# p_prev:
 1060 0020 1C000000 		.long	mb1+28
 1061              	# s_cnt:
 1062 0024 05000000 		.long	5
 1063              		.text
 1064              	.Letext0:
 1065              		.file 2 "/usr/include/stdint.h"
 1066              		.file 3 "../../../os/ports/GCC/SIMIA32/chtypes.h"
 1067              		.file 4 "../../../os/kernel/include/chlists.h"
 1068              		.file 5 "../../../os/kernel/include/chthreads.h"
 1069              		.file 6 "../../../os/ports/GCC/SIMIA32/chcore.h"
 1070              		.file 7 "../../../os/kernel/include/chsem.h"
 1071              		.file 8 "../../../os/kernel/include/chmtx.h"
 1072              		.file 9 "../../../os/kernel/include/chmboxes.h"
 1073              		.file 10 "../../../test/test.h"
 3902              		.section	.note.GNU-stack,"",@progbits
GAS LISTING /tmp/ccEKufMP.s 			page 81

