GAS LISTING /tmp/ccnl8CWE.s 			page 1


   1              		.file	"testmtx.c"
   2              	# GNU C (Ubuntu 4.8.2-19ubuntu1) version 4.8.2 (x86_64-linux-gnu)
   3              	#	compiled by GNU C version 4.8.2, GMP version 5.1.3, MPFR version 3.1.2-p3, MPC version 1.0.1
   4              	# GGC heuristics: --param ggc-min-expand=97 --param ggc-min-heapsize=126309
   5              	# options passed:  -I . -I ../../../os/ports/GCC/SIMIA32
   6              	# -I ../../../os/kernel/include -I ../../../test -I ../../../os/hal/include
   7              	# -I ../../../os/hal/platforms/Posix -I ../../../boards/simulator
   8              	# -I ../../../os/various -imultilib 32 -imultiarch i386-linux-gnu
   9              	# -MD ../../../test/testmtx.d -MF .dep/testmtx.o.d -MP
  10              	# -MQ ../../../test/testmtx.o -D SIMULATOR -D SHELL_USE_IPRINTF=FALSE
  11              	# ../../../test/testmtx.c -m32 -mtune=generic -march=i686
  12              	# -auxbase-strip ../../../test/testmtx.o -ggdb -O2 -Wall -Wextra
  13              	# -Wstrict-prototypes -fomit-frame-pointer -fverbose-asm -fstack-protector
  14              	# -Wformat -Wformat-security
  15              	# options enabled:  -faggressive-loop-optimizations
  16              	# -fasynchronous-unwind-tables -fauto-inc-dec -fbranch-count-reg
  17              	# -fcaller-saves -fcombine-stack-adjustments -fcommon -fcompare-elim
  18              	# -fcprop-registers -fcrossjumping -fcse-follow-jumps -fdefer-pop
  19              	# -fdelete-null-pointer-checks -fdevirtualize -fdwarf2-cfi-asm
  20              	# -fearly-inlining -feliminate-unused-debug-types -fexpensive-optimizations
  21              	# -fforward-propagate -ffunction-cse -fgcse -fgcse-lm -fgnu-runtime
  22              	# -fguess-branch-probability -fhoist-adjacent-loads -fident -fif-conversion
  23              	# -fif-conversion2 -findirect-inlining -finline -finline-atomics
  24              	# -finline-functions-called-once -finline-small-functions -fipa-cp
  25              	# -fipa-profile -fipa-pure-const -fipa-reference -fipa-sra
  26              	# -fira-hoist-pressure -fira-share-save-slots -fira-share-spill-slots
  27              	# -fivopts -fkeep-static-consts -fleading-underscore -fmath-errno
  28              	# -fmerge-constants -fmerge-debug-strings -fmove-loop-invariants
  29              	# -fomit-frame-pointer -foptimize-register-move -foptimize-sibling-calls
  30              	# -foptimize-strlen -fpartial-inlining -fpcc-struct-return -fpeephole
  31              	# -fpeephole2 -fprefetch-loop-arrays -free -fregmove -freorder-blocks
  32              	# -freorder-functions -frerun-cse-after-loop
  33              	# -fsched-critical-path-heuristic -fsched-dep-count-heuristic
  34              	# -fsched-group-heuristic -fsched-interblock -fsched-last-insn-heuristic
  35              	# -fsched-rank-heuristic -fsched-spec -fsched-spec-insn-heuristic
  36              	# -fsched-stalled-insns-dep -fschedule-insns2 -fshow-column -fshrink-wrap
  37              	# -fsigned-zeros -fsplit-ivs-in-unroller -fsplit-wide-types
  38              	# -fstack-protector -fstrict-aliasing -fstrict-overflow
  39              	# -fstrict-volatile-bitfields -fsync-libcalls -fthread-jumps
  40              	# -ftoplevel-reorder -ftrapping-math -ftree-bit-ccp -ftree-builtin-call-dce
  41              	# -ftree-ccp -ftree-ch -ftree-coalesce-vars -ftree-copy-prop
  42              	# -ftree-copyrename -ftree-cselim -ftree-dce -ftree-dominator-opts
  43              	# -ftree-dse -ftree-forwprop -ftree-fre -ftree-loop-if-convert
  44              	# -ftree-loop-im -ftree-loop-ivcanon -ftree-loop-optimize
  45              	# -ftree-parallelize-loops= -ftree-phiprop -ftree-pre -ftree-pta
  46              	# -ftree-reassoc -ftree-scev-cprop -ftree-sink -ftree-slp-vectorize
  47              	# -ftree-slsr -ftree-sra -ftree-switch-conversion -ftree-tail-merge
  48              	# -ftree-ter -ftree-vect-loop-version -ftree-vrp -funit-at-a-time
  49              	# -funwind-tables -fvar-tracking -fvar-tracking-assignments -fverbose-asm
  50              	# -fzero-initialized-in-bss -m32 -m80387 -m96bit-long-double
  51              	# -maccumulate-outgoing-args -malign-stringops -mfancy-math-387
  52              	# -mfp-ret-in-387 -mglibc -mieee-fp -mlong-double-80 -mno-red-zone
  53              	# -mno-sse4 -mpush-args -msahf -mtls-direct-seg-refs
  54              	
  55              		.text
  56              	.Ltext0:
  57              		.section	.rodata.str1.1,"aMS",@progbits,1
GAS LISTING /tmp/ccnl8CWE.s 			page 2


  58              	.LC0:
  59 0000 4500     		.string	"E"
  60              	.LC1:
  61 0002 4400     		.string	"D"
  62              	.LC2:
  63 0004 4300     		.string	"C"
  64              	.LC3:
  65 0006 4200     		.string	"B"
  66              	.LC4:
  67 0008 4100     		.string	"A"
  68              	.LC5:
  69 000a 41424344 		.string	"ABCDE"
  69      4500
  70              		.text
  71              		.p2align 4,,15
  72              		.type	mtx1_execute, @function
  73              	mtx1_execute:
  74              	.LFB9:
  75              		.file 1 "../../../test/testmtx.c"
  76              		.loc 1 97 0
  77              		.cfi_startproc
  78 0000 53       		pushl	%ebx	#
  79              		.cfi_def_cfa_offset 8
  80              		.cfi_offset 3, -8
  81 0001 83EC28   		subl	$40, %esp	#,
  82              		.cfi_def_cfa_offset 48
  83              		.loc 1 99 0
  84 0004 A1180000 		movl	rlist+24, %eax	# rlist.r_current, rlist.r_current
  84      00
  85 0009 8B5808   		movl	8(%eax), %ebx	# _3->p_prio, prio
  86              	.LVL0:
  87              		.loc 1 100 0
  88 000c C7042418 		movl	$m1, (%esp)	#,
  88      000000
  89 0013 E8FCFFFF 		call	chMtxLock	#
  89      FF
  90              	.LVL1:
  91              		.loc 1 101 0
  92 0018 C7442410 		movl	$.LC0, 16(%esp)	#,
  92      00000000 
  93 0020 8D4301   		leal	1(%ebx), %eax	#, D.2476
  94 0023 89442408 		movl	%eax, 8(%esp)	# D.2476,
  95 0027 A1000000 		movl	wa, %eax	# wa, wa
  95      00
  96 002c C744240C 		movl	$thread1, 12(%esp)	#,
  96      60010000 
  97 0034 C7442404 		movl	$17008, 4(%esp)	#,
  97      70420000 
  98 003c 890424   		movl	%eax, (%esp)	# wa,
  99 003f E8FCFFFF 		call	chThdCreateStatic	#
  99      FF
 100              	.LVL2:
 101              		.loc 1 102 0
 102 0044 C7442410 		movl	$.LC1, 16(%esp)	#,
 102      02000000 
 103 004c C744240C 		movl	$thread1, 12(%esp)	#,
 103      60010000 
GAS LISTING /tmp/ccnl8CWE.s 			page 3


 104 0054 C7442404 		movl	$17008, 4(%esp)	#,
 104      70420000 
 105              		.loc 1 101 0
 106 005c A3000000 		movl	%eax, threads	# D.2475, threads
 106      00
 107              		.loc 1 102 0
 108 0061 8D4302   		leal	2(%ebx), %eax	#, D.2476
 109 0064 89442408 		movl	%eax, 8(%esp)	# D.2476,
 110 0068 A1040000 		movl	wa+4, %eax	# wa, wa
 110      00
 111 006d 890424   		movl	%eax, (%esp)	# wa,
 112 0070 E8FCFFFF 		call	chThdCreateStatic	#
 112      FF
 113              	.LVL3:
 114              		.loc 1 103 0
 115 0075 C7442410 		movl	$.LC2, 16(%esp)	#,
 115      04000000 
 116 007d C744240C 		movl	$thread1, 12(%esp)	#,
 116      60010000 
 117 0085 C7442404 		movl	$17008, 4(%esp)	#,
 117      70420000 
 118              		.loc 1 102 0
 119 008d A3040000 		movl	%eax, threads+4	# D.2475, threads
 119      00
 120              		.loc 1 103 0
 121 0092 8D4303   		leal	3(%ebx), %eax	#, D.2476
 122 0095 89442408 		movl	%eax, 8(%esp)	# D.2476,
 123 0099 A1080000 		movl	wa+8, %eax	# wa, wa
 123      00
 124 009e 890424   		movl	%eax, (%esp)	# wa,
 125 00a1 E8FCFFFF 		call	chThdCreateStatic	#
 125      FF
 126              	.LVL4:
 127              		.loc 1 104 0
 128 00a6 C7442410 		movl	$.LC3, 16(%esp)	#,
 128      06000000 
 129 00ae C744240C 		movl	$thread1, 12(%esp)	#,
 129      60010000 
 130 00b6 C7442404 		movl	$17008, 4(%esp)	#,
 130      70420000 
 131              		.loc 1 103 0
 132 00be A3080000 		movl	%eax, threads+8	# D.2475, threads
 132      00
 133              		.loc 1 104 0
 134 00c3 8D4304   		leal	4(%ebx), %eax	#, D.2476
 135 00c6 89442408 		movl	%eax, 8(%esp)	# D.2476,
 136 00ca A10C0000 		movl	wa+12, %eax	# wa, wa
 136      00
 137 00cf 890424   		movl	%eax, (%esp)	# wa,
 138 00d2 E8FCFFFF 		call	chThdCreateStatic	#
 138      FF
 139              	.LVL5:
 140              		.loc 1 105 0
 141 00d7 C7442410 		movl	$.LC4, 16(%esp)	#,
 141      08000000 
 142 00df C744240C 		movl	$thread1, 12(%esp)	#,
 142      60010000 
GAS LISTING /tmp/ccnl8CWE.s 			page 4


 143 00e7 C7442404 		movl	$17008, 4(%esp)	#,
 143      70420000 
 144              		.loc 1 104 0
 145 00ef A30C0000 		movl	%eax, threads+12	# D.2475, threads
 145      00
 146              		.loc 1 105 0
 147 00f4 8D4305   		leal	5(%ebx), %eax	#, D.2476
 148 00f7 89442408 		movl	%eax, 8(%esp)	# D.2476,
 149 00fb A1100000 		movl	wa+16, %eax	# wa, wa
 149      00
 150 0100 890424   		movl	%eax, (%esp)	# wa,
 151 0103 E8FCFFFF 		call	chThdCreateStatic	#
 151      FF
 152              	.LVL6:
 153 0108 A3100000 		movl	%eax, threads+16	# D.2475, threads
 153      00
 154              		.loc 1 106 0
 155 010d E8FCFFFF 		call	chMtxUnlock	#
 155      FF
 156              	.LVL7:
 157              		.loc 1 107 0
 158 0112 E8FCFFFF 		call	test_wait_threads	#
 158      FF
 159              	.LVL8:
 160              		.loc 1 108 0
 161 0117 A1180000 		movl	rlist+24, %eax	# rlist.r_current, rlist.r_current
 161      00
 162 011c 395808   		cmpl	%ebx, 8(%eax)	# prio, _33->p_prio
 163 011f C7042401 		movl	$1, (%esp)	#,
 163      000000
 164 0126 0F94C0   		sete	%al	#, D.2478
 165 0129 0FB6C0   		movzbl	%al, %eax	# D.2478, D.2478
 166 012c 89442404 		movl	%eax, 4(%esp)	# D.2478,
 167 0130 E8FCFFFF 		call	_test_assert	#
 167      FF
 168              	.LVL9:
 169 0135 84C0     		testb	%al, %al	# D.2478
 170 0137 7514     		jne	.L1	#,
 171              		.loc 1 109 0
 172 0139 C7442404 		movl	$.LC5, 4(%esp)	#,
 172      0A000000 
 173 0141 C7042402 		movl	$2, (%esp)	#,
 173      000000
 174 0148 E8FCFFFF 		call	_test_assert_sequence	#
 174      FF
 175              	.LVL10:
 176              	.L1:
 177              		.loc 1 110 0
 178 014d 83C428   		addl	$40, %esp	#,
 179              		.cfi_def_cfa_offset 8
 180 0150 5B       		popl	%ebx	#
 181              		.cfi_restore 3
 182              		.cfi_def_cfa_offset 4
 183              	.LVL11:
 184 0151 C3       		ret
 185              		.cfi_endproc
 186              	.LFE9:
GAS LISTING /tmp/ccnl8CWE.s 			page 5


 187              		.size	mtx1_execute, .-mtx1_execute
 188 0152 8DB42600 		.p2align 4,,15
 188      0000008D 
 188      BC270000 
 188      0000
 189              		.type	thread1, @function
 190              	thread1:
 191              	.LFB8:
 192              		.loc 1 89 0
 193              		.cfi_startproc
 194              	.LVL12:
 195 0160 83EC1C   		subl	$28, %esp	#,
 196              		.cfi_def_cfa_offset 32
 197              		.loc 1 91 0
 198 0163 C7042418 		movl	$m1, (%esp)	#,
 198      000000
 199 016a E8FCFFFF 		call	chMtxLock	#
 199      FF
 200              	.LVL13:
 201              		.loc 1 92 0
 202 016f 8B442420 		movl	32(%esp), %eax	# p, p
 203 0173 0FBE00   		movsbl	(%eax), %eax	# MEM[(char *)p_3(D)], MEM[(char *)p_3(D)]
 204 0176 890424   		movl	%eax, (%esp)	# MEM[(char *)p_3(D)],
 205 0179 E8FCFFFF 		call	test_emit_token	#
 205      FF
 206              	.LVL14:
 207              		.loc 1 93 0
 208 017e E8FCFFFF 		call	chMtxUnlock	#
 208      FF
 209              	.LVL15:
 210              		.loc 1 95 0
 211 0183 31C0     		xorl	%eax, %eax	#
 212 0185 83C41C   		addl	$28, %esp	#,
 213              		.cfi_def_cfa_offset 4
 214 0188 C3       		ret
 215              		.cfi_endproc
 216              	.LFE8:
 217              		.size	thread1, .-thread1
 218 0189 8DB42600 		.p2align 4,,15
 218      000000
 219              		.type	thread12, @function
 220              	thread12:
 221              	.LFB35:
 222              		.loc 1 588 0
 223              		.cfi_startproc
 224              	.LVL16:
 225 0190 83EC1C   		subl	$28, %esp	#,
 226              		.cfi_def_cfa_offset 32
 227              		.loc 1 590 0
 228 0193 C7042408 		movl	$m2, (%esp)	#,
 228      000000
 229 019a E8FCFFFF 		call	chMtxLock	#
 229      FF
 230              	.LVL17:
 231              		.loc 1 591 0
 232 019f 8B442420 		movl	32(%esp), %eax	# p, p
 233 01a3 0FBE00   		movsbl	(%eax), %eax	# MEM[(char *)p_3(D)], MEM[(char *)p_3(D)]
GAS LISTING /tmp/ccnl8CWE.s 			page 6


 234 01a6 890424   		movl	%eax, (%esp)	# MEM[(char *)p_3(D)],
 235 01a9 E8FCFFFF 		call	test_emit_token	#
 235      FF
 236              	.LVL18:
 237              		.loc 1 592 0
 238 01ae E8FCFFFF 		call	chMtxUnlock	#
 238      FF
 239              	.LVL19:
 240              		.loc 1 594 0
 241 01b3 31C0     		xorl	%eax, %eax	#
 242 01b5 83C41C   		addl	$28, %esp	#,
 243              		.cfi_def_cfa_offset 4
 244 01b8 C3       		ret
 245              		.cfi_endproc
 246              	.LFE35:
 247              		.size	thread12, .-thread12
 248 01b9 8DB42600 		.p2align 4,,15
 248      000000
 249              		.type	mtx1_setup, @function
 250              	mtx1_setup:
 251              	.LFB7:
 252              		.loc 1 84 0
 253              		.cfi_startproc
 254 01c0 83EC1C   		subl	$28, %esp	#,
 255              		.cfi_def_cfa_offset 32
 256              		.loc 1 86 0
 257 01c3 C7042418 		movl	$m1, (%esp)	#,
 257      000000
 258 01ca E8FCFFFF 		call	chMtxInit	#
 258      FF
 259              	.LVL20:
 260              		.loc 1 87 0
 261 01cf 83C41C   		addl	$28, %esp	#,
 262              		.cfi_def_cfa_offset 4
 263 01d2 C3       		ret
 264              		.cfi_endproc
 265              	.LFE7:
 266              		.size	mtx1_setup, .-mtx1_setup
 267 01d3 8DB60000 		.p2align 4,,15
 267      00008DBC 
 267      27000000 
 267      00
 268              		.type	mtx2_setup, @function
 269              	mtx2_setup:
 270              	.LFB10:
 271              		.loc 1 151 0
 272              		.cfi_startproc
 273 01e0 83EC1C   		subl	$28, %esp	#,
 274              		.cfi_def_cfa_offset 32
 275              		.loc 1 153 0
 276 01e3 C7042418 		movl	$m1, (%esp)	#,
 276      000000
 277 01ea E8FCFFFF 		call	chMtxInit	#
 277      FF
 278              	.LVL21:
 279              		.loc 1 154 0
 280 01ef 83C41C   		addl	$28, %esp	#,
GAS LISTING /tmp/ccnl8CWE.s 			page 7


 281              		.cfi_def_cfa_offset 4
 282 01f2 C3       		ret
 283              		.cfi_endproc
 284              	.LFE10:
 285              		.size	mtx2_setup, .-mtx2_setup
 286 01f3 8DB60000 		.p2align 4,,15
 286      00008DBC 
 286      27000000 
 286      00
 287              		.type	mtx3_setup, @function
 288              	mtx3_setup:
 289              	.LFB15:
 290              		.loc 1 241 0
 291              		.cfi_startproc
 292 0200 83EC1C   		subl	$28, %esp	#,
 293              		.cfi_def_cfa_offset 32
 294              		.loc 1 243 0
 295 0203 C7042418 		movl	$m1, (%esp)	#,
 295      000000
 296 020a E8FCFFFF 		call	chMtxInit	#
 296      FF
 297              	.LVL22:
 298              		.loc 1 244 0
 299 020f C7042408 		movl	$m2, (%esp)	#,
 299      000000
 300 0216 E8FCFFFF 		call	chMtxInit	#
 300      FF
 301              	.LVL23:
 302              		.loc 1 245 0
 303 021b 83C41C   		addl	$28, %esp	#,
 304              		.cfi_def_cfa_offset 4
 305 021e C3       		ret
 306              		.cfi_endproc
 307              	.LFE15:
 308              		.size	mtx3_setup, .-mtx3_setup
 309 021f 90       		.p2align 4,,15
 310              		.type	mtx4_setup, @function
 311              	mtx4_setup:
 312              	.LFB22:
 313              		.loc 1 341 0
 314              		.cfi_startproc
 315 0220 83EC1C   		subl	$28, %esp	#,
 316              		.cfi_def_cfa_offset 32
 317              		.loc 1 343 0
 318 0223 C7042418 		movl	$m1, (%esp)	#,
 318      000000
 319 022a E8FCFFFF 		call	chMtxInit	#
 319      FF
 320              	.LVL24:
 321              		.loc 1 344 0
 322 022f C7042408 		movl	$m2, (%esp)	#,
 322      000000
 323 0236 E8FCFFFF 		call	chMtxInit	#
 323      FF
 324              	.LVL25:
 325              		.loc 1 345 0
 326 023b 83C41C   		addl	$28, %esp	#,
GAS LISTING /tmp/ccnl8CWE.s 			page 8


 327              		.cfi_def_cfa_offset 4
 328 023e C3       		ret
 329              		.cfi_endproc
 330              	.LFE22:
 331              		.size	mtx4_setup, .-mtx4_setup
 332 023f 90       		.p2align 4,,15
 333              		.type	mtx5_setup, @function
 334              	mtx5_setup:
 335              	.LFB26:
 336              		.loc 1 429 0
 337              		.cfi_startproc
 338 0240 83EC1C   		subl	$28, %esp	#,
 339              		.cfi_def_cfa_offset 32
 340              		.loc 1 431 0
 341 0243 C7042418 		movl	$m1, (%esp)	#,
 341      000000
 342 024a E8FCFFFF 		call	chMtxInit	#
 342      FF
 343              	.LVL26:
 344              		.loc 1 432 0
 345 024f 83C41C   		addl	$28, %esp	#,
 346              		.cfi_def_cfa_offset 4
 347 0252 C3       		ret
 348              		.cfi_endproc
 349              	.LFE26:
 350              		.size	mtx5_setup, .-mtx5_setup
 351              		.section	.rodata.str1.1
 352              	.LC6:
 353 0010 41424300 		.string	"ABC"
 354              		.text
 355 0253 8DB60000 		.p2align 4,,15
 355      00008DBC 
 355      27000000 
 355      00
 356              		.type	mtx2_execute, @function
 357              	mtx2_execute:
 358              	.LFB14:
 359              		.loc 1 190 0
 360              		.cfi_startproc
 361 0260 53       		pushl	%ebx	#
 362              		.cfi_def_cfa_offset 8
 363              		.cfi_offset 3, -8
 364 0261 83EC28   		subl	$40, %esp	#,
 365              		.cfi_def_cfa_offset 48
 366              		.loc 1 193 0
 367 0264 E8FCFFFF 		call	test_wait_tick	#
 367      FF
 368              	.LVL27:
 369              		.loc 1 195 0
 370 0269 A1180000 		movl	rlist+24, %eax	# rlist.r_current, rlist.r_current
 370      00
 371 026e C7442410 		movl	$0, 16(%esp)	#,
 371      00000000 
 372              		.loc 1 194 0
 373 0276 8B1D0C00 		movl	vtlist+12, %ebx	# vtlist.vt_systime, time
 373      0000
 374              	.LVL28:
GAS LISTING /tmp/ccnl8CWE.s 			page 9


 375              		.loc 1 195 0
 376 027c C744240C 		movl	$thread2H, 12(%esp)	#,
 376      80050000 
 377 0284 8B4008   		movl	8(%eax), %eax	# _5->p_prio, _5->p_prio
 378 0287 C7442404 		movl	$17008, 4(%esp)	#,
 378      70420000 
 379 028f 83E801   		subl	$1, %eax	#, D.2507
 380 0292 89442408 		movl	%eax, 8(%esp)	# D.2507,
 381 0296 A1000000 		movl	wa, %eax	# wa, wa
 381      00
 382 029b 890424   		movl	%eax, (%esp)	# wa,
 383 029e E8FCFFFF 		call	chThdCreateStatic	#
 383      FF
 384              	.LVL29:
 385              		.loc 1 196 0
 386 02a3 C7442410 		movl	$0, 16(%esp)	#,
 386      00000000 
 387 02ab C744240C 		movl	$thread2M, 12(%esp)	#,
 387      50050000 
 388              		.loc 1 195 0
 389 02b3 A3000000 		movl	%eax, threads	# D.2506, threads
 389      00
 390              		.loc 1 196 0
 391 02b8 A1180000 		movl	rlist+24, %eax	# rlist.r_current, rlist.r_current
 391      00
 392 02bd 8B4008   		movl	8(%eax), %eax	# _12->p_prio, _12->p_prio
 393 02c0 C7442404 		movl	$17008, 4(%esp)	#,
 393      70420000 
 394 02c8 83E802   		subl	$2, %eax	#, D.2507
 395 02cb 89442408 		movl	%eax, 8(%esp)	# D.2507,
 396 02cf A1040000 		movl	wa+4, %eax	# wa, wa
 396      00
 397 02d4 890424   		movl	%eax, (%esp)	# wa,
 398 02d7 E8FCFFFF 		call	chThdCreateStatic	#
 398      FF
 399              	.LVL30:
 400              		.loc 1 197 0
 401 02dc C7442410 		movl	$0, 16(%esp)	#,
 401      00000000 
 402 02e4 C744240C 		movl	$thread2L, 12(%esp)	#,
 402      D0040000 
 403              		.loc 1 196 0
 404 02ec A3040000 		movl	%eax, threads+4	# D.2506, threads
 404      00
 405              		.loc 1 197 0
 406 02f1 A1180000 		movl	rlist+24, %eax	# rlist.r_current, rlist.r_current
 406      00
 407 02f6 8B4008   		movl	8(%eax), %eax	# _19->p_prio, _19->p_prio
 408 02f9 C7442404 		movl	$17008, 4(%esp)	#,
 408      70420000 
 409 0301 83E803   		subl	$3, %eax	#, D.2507
 410 0304 89442408 		movl	%eax, 8(%esp)	# D.2507,
 411 0308 A1080000 		movl	wa+8, %eax	# wa, wa
 411      00
 412 030d 890424   		movl	%eax, (%esp)	# wa,
 413 0310 E8FCFFFF 		call	chThdCreateStatic	#
 413      FF
GAS LISTING /tmp/ccnl8CWE.s 			page 10


 414              	.LVL31:
 415 0315 A3080000 		movl	%eax, threads+8	# D.2506, threads
 415      00
 416              		.loc 1 198 0
 417 031a E8FCFFFF 		call	test_wait_threads	#
 417      FF
 418              	.LVL32:
 419              		.loc 1 199 0
 420 031f C7442404 		movl	$.LC6, 4(%esp)	#,
 420      10000000 
 421 0327 C7042401 		movl	$1, (%esp)	#,
 421      000000
 422 032e E8FCFFFF 		call	_test_assert_sequence	#
 422      FF
 423              	.LVL33:
 424 0333 84C0     		testb	%al, %al	# D.2509
 425 0335 751A     		jne	.L19	#,
 426              		.loc 1 200 0
 427 0337 8D4369   		leal	105(%ebx), %eax	#, D.2507
 428 033a 83C364   		addl	$100, %ebx	#, D.2507
 429              	.LVL34:
 430 033d 89442408 		movl	%eax, 8(%esp)	# D.2507,
 431 0341 895C2404 		movl	%ebx, 4(%esp)	# D.2507,
 432 0345 C7042402 		movl	$2, (%esp)	#,
 432      000000
 433 034c E8FCFFFF 		call	_test_assert_time_window	#
 433      FF
 434              	.LVL35:
 435              	.L19:
 436              		.loc 1 201 0
 437 0351 83C428   		addl	$40, %esp	#,
 438              		.cfi_def_cfa_offset 8
 439 0354 5B       		popl	%ebx	#
 440              		.cfi_restore 3
 441              		.cfi_def_cfa_offset 4
 442 0355 C3       		ret
 443              		.cfi_endproc
 444              	.LFE14:
 445              		.size	mtx2_execute, .-mtx2_execute
 446 0356 8D76008D 		.p2align 4,,15
 446      BC270000 
 446      0000
 447              		.type	mtx3_execute, @function
 448              	mtx3_execute:
 449              	.LFB21:
 450              		.loc 1 308 0
 451              		.cfi_startproc
 452 0360 53       		pushl	%ebx	#
 453              		.cfi_def_cfa_offset 8
 454              		.cfi_offset 3, -8
 455 0361 83EC28   		subl	$40, %esp	#,
 456              		.cfi_def_cfa_offset 48
 457              		.loc 1 311 0
 458 0364 E8FCFFFF 		call	test_wait_tick	#
 458      FF
 459              	.LVL36:
 460              		.loc 1 313 0
GAS LISTING /tmp/ccnl8CWE.s 			page 11


 461 0369 A1180000 		movl	rlist+24, %eax	# rlist.r_current, rlist.r_current
 461      00
 462 036e C7442410 		movl	$0, 16(%esp)	#,
 462      00000000 
 463              		.loc 1 312 0
 464 0376 8B1D0C00 		movl	vtlist+12, %ebx	# vtlist.vt_systime, time
 464      0000
 465              	.LVL37:
 466              		.loc 1 313 0
 467 037c C744240C 		movl	$thread3LL, 12(%esp)	#,
 467      10050000 
 468 0384 8B4008   		movl	8(%eax), %eax	# _5->p_prio, _5->p_prio
 469 0387 C7442404 		movl	$17008, 4(%esp)	#,
 469      70420000 
 470 038f 83E805   		subl	$5, %eax	#, D.2514
 471 0392 89442408 		movl	%eax, 8(%esp)	# D.2514,
 472 0396 A1000000 		movl	wa, %eax	# wa, wa
 472      00
 473 039b 890424   		movl	%eax, (%esp)	# wa,
 474 039e E8FCFFFF 		call	chThdCreateStatic	#
 474      FF
 475              	.LVL38:
 476              		.loc 1 314 0
 477 03a3 C7442410 		movl	$0, 16(%esp)	#,
 477      00000000 
 478 03ab C744240C 		movl	$thread3L, 12(%esp)	#,
 478      70060000 
 479              		.loc 1 313 0
 480 03b3 A3000000 		movl	%eax, threads	# D.2513, threads
 480      00
 481              		.loc 1 314 0
 482 03b8 A1180000 		movl	rlist+24, %eax	# rlist.r_current, rlist.r_current
 482      00
 483 03bd 8B4008   		movl	8(%eax), %eax	# _12->p_prio, _12->p_prio
 484 03c0 C7442404 		movl	$17008, 4(%esp)	#,
 484      70420000 
 485 03c8 83E804   		subl	$4, %eax	#, D.2514
 486 03cb 89442408 		movl	%eax, 8(%esp)	# D.2514,
 487 03cf A1040000 		movl	wa+4, %eax	# wa, wa
 487      00
 488 03d4 890424   		movl	%eax, (%esp)	# wa,
 489 03d7 E8FCFFFF 		call	chThdCreateStatic	#
 489      FF
 490              	.LVL39:
 491              		.loc 1 315 0
 492 03dc C7442410 		movl	$0, 16(%esp)	#,
 492      00000000 
 493 03e4 C744240C 		movl	$thread3M, 12(%esp)	#,
 493      30060000 
 494              		.loc 1 314 0
 495 03ec A3040000 		movl	%eax, threads+4	# D.2513, threads
 495      00
 496              		.loc 1 315 0
 497 03f1 A1180000 		movl	rlist+24, %eax	# rlist.r_current, rlist.r_current
 497      00
 498 03f6 8B4008   		movl	8(%eax), %eax	# _19->p_prio, _19->p_prio
 499 03f9 C7442404 		movl	$17008, 4(%esp)	#,
GAS LISTING /tmp/ccnl8CWE.s 			page 12


 499      70420000 
 500 0401 83E803   		subl	$3, %eax	#, D.2514
 501 0404 89442408 		movl	%eax, 8(%esp)	# D.2514,
 502 0408 A1080000 		movl	wa+8, %eax	# wa, wa
 502      00
 503 040d 890424   		movl	%eax, (%esp)	# wa,
 504 0410 E8FCFFFF 		call	chThdCreateStatic	#
 504      FF
 505              	.LVL40:
 506              		.loc 1 316 0
 507 0415 C7442410 		movl	$0, 16(%esp)	#,
 507      00000000 
 508 041d C744240C 		movl	$thread3H, 12(%esp)	#,
 508      00060000 
 509              		.loc 1 315 0
 510 0425 A3080000 		movl	%eax, threads+8	# D.2513, threads
 510      00
 511              		.loc 1 316 0
 512 042a A1180000 		movl	rlist+24, %eax	# rlist.r_current, rlist.r_current
 512      00
 513 042f 8B4008   		movl	8(%eax), %eax	# _26->p_prio, _26->p_prio
 514 0432 C7442404 		movl	$17008, 4(%esp)	#,
 514      70420000 
 515 043a 83E802   		subl	$2, %eax	#, D.2514
 516 043d 89442408 		movl	%eax, 8(%esp)	# D.2514,
 517 0441 A10C0000 		movl	wa+12, %eax	# wa, wa
 517      00
 518 0446 890424   		movl	%eax, (%esp)	# wa,
 519 0449 E8FCFFFF 		call	chThdCreateStatic	#
 519      FF
 520              	.LVL41:
 521              		.loc 1 317 0
 522 044e C7442410 		movl	$0, 16(%esp)	#,
 522      00000000 
 523 0456 C744240C 		movl	$thread3HH, 12(%esp)	#,
 523      C0050000 
 524              		.loc 1 316 0
 525 045e A30C0000 		movl	%eax, threads+12	# D.2513, threads
 525      00
 526              		.loc 1 317 0
 527 0463 A1180000 		movl	rlist+24, %eax	# rlist.r_current, rlist.r_current
 527      00
 528 0468 8B4008   		movl	8(%eax), %eax	# _33->p_prio, _33->p_prio
 529 046b C7442404 		movl	$17008, 4(%esp)	#,
 529      70420000 
 530 0473 83E801   		subl	$1, %eax	#, D.2514
 531 0476 89442408 		movl	%eax, 8(%esp)	# D.2514,
 532 047a A1100000 		movl	wa+16, %eax	# wa, wa
 532      00
 533 047f 890424   		movl	%eax, (%esp)	# wa,
 534 0482 E8FCFFFF 		call	chThdCreateStatic	#
 534      FF
 535              	.LVL42:
 536 0487 A3100000 		movl	%eax, threads+16	# D.2513, threads
 536      00
 537              		.loc 1 318 0
 538 048c E8FCFFFF 		call	test_wait_threads	#
GAS LISTING /tmp/ccnl8CWE.s 			page 13


 538      FF
 539              	.LVL43:
 540              		.loc 1 319 0
 541 0491 C7442404 		movl	$.LC5, 4(%esp)	#,
 541      0A000000 
 542 0499 C7042401 		movl	$1, (%esp)	#,
 542      000000
 543 04a0 E8FCFFFF 		call	_test_assert_sequence	#
 543      FF
 544              	.LVL44:
 545 04a5 84C0     		testb	%al, %al	# D.2516
 546 04a7 751A     		jne	.L22	#,
 547              		.loc 1 320 0
 548 04a9 8D4373   		leal	115(%ebx), %eax	#, D.2514
 549 04ac 83C36E   		addl	$110, %ebx	#, D.2514
 550              	.LVL45:
 551 04af 89442408 		movl	%eax, 8(%esp)	# D.2514,
 552 04b3 895C2404 		movl	%ebx, 4(%esp)	# D.2514,
 553 04b7 C7042402 		movl	$2, (%esp)	#,
 553      000000
 554 04be E8FCFFFF 		call	_test_assert_time_window	#
 554      FF
 555              	.LVL46:
 556              	.L22:
 557              		.loc 1 321 0
 558 04c3 83C428   		addl	$40, %esp	#,
 559              		.cfi_def_cfa_offset 8
 560 04c6 5B       		popl	%ebx	#
 561              		.cfi_restore 3
 562              		.cfi_def_cfa_offset 4
 563 04c7 C3       		ret
 564              		.cfi_endproc
 565              	.LFE21:
 566              		.size	mtx3_execute, .-mtx3_execute
 567 04c8 908DB426 		.p2align 4,,15
 567      00000000 
 568              		.type	thread2L, @function
 569              	thread2L:
 570              	.LFB11:
 571              		.loc 1 157 0
 572              		.cfi_startproc
 573              	.LVL47:
 574 04d0 83EC1C   		subl	$28, %esp	#,
 575              		.cfi_def_cfa_offset 32
 576              		.loc 1 160 0
 577 04d3 C7042418 		movl	$m1, (%esp)	#,
 577      000000
 578 04da E8FCFFFF 		call	chMtxLock	#
 578      FF
 579              	.LVL48:
 580              		.loc 1 161 0
 581 04df C7042428 		movl	$40, (%esp)	#,
 581      000000
 582 04e6 E8FCFFFF 		call	test_cpu_pulse	#
 582      FF
 583              	.LVL49:
 584              		.loc 1 162 0
GAS LISTING /tmp/ccnl8CWE.s 			page 14


 585 04eb E8FCFFFF 		call	chMtxUnlock	#
 585      FF
 586              	.LVL50:
 587              		.loc 1 163 0
 588 04f0 C704240A 		movl	$10, (%esp)	#,
 588      000000
 589 04f7 E8FCFFFF 		call	test_cpu_pulse	#
 589      FF
 590              	.LVL51:
 591              		.loc 1 164 0
 592 04fc C7042443 		movl	$67, (%esp)	#,
 592      000000
 593 0503 E8FCFFFF 		call	test_emit_token	#
 593      FF
 594              	.LVL52:
 595              		.loc 1 166 0
 596 0508 31C0     		xorl	%eax, %eax	#
 597 050a 83C41C   		addl	$28, %esp	#,
 598              		.cfi_def_cfa_offset 4
 599 050d C3       		ret
 600              		.cfi_endproc
 601              	.LFE11:
 602              		.size	thread2L, .-thread2L
 603 050e 6690     		.p2align 4,,15
 604              		.type	thread3LL, @function
 605              	thread3LL:
 606              	.LFB16:
 607              		.loc 1 248 0
 608              		.cfi_startproc
 609              	.LVL53:
 610 0510 83EC1C   		subl	$28, %esp	#,
 611              		.cfi_def_cfa_offset 32
 612              		.loc 1 251 0
 613 0513 C7042418 		movl	$m1, (%esp)	#,
 613      000000
 614 051a E8FCFFFF 		call	chMtxLock	#
 614      FF
 615              	.LVL54:
 616              		.loc 1 252 0
 617 051f C704241E 		movl	$30, (%esp)	#,
 617      000000
 618 0526 E8FCFFFF 		call	test_cpu_pulse	#
 618      FF
 619              	.LVL55:
 620              		.loc 1 253 0
 621 052b E8FCFFFF 		call	chMtxUnlock	#
 621      FF
 622              	.LVL56:
 623              		.loc 1 254 0
 624 0530 C7042445 		movl	$69, (%esp)	#,
 624      000000
 625 0537 E8FCFFFF 		call	test_emit_token	#
 625      FF
 626              	.LVL57:
 627              		.loc 1 256 0
 628 053c 31C0     		xorl	%eax, %eax	#
 629 053e 83C41C   		addl	$28, %esp	#,
GAS LISTING /tmp/ccnl8CWE.s 			page 15


 630              		.cfi_def_cfa_offset 4
 631 0541 C3       		ret
 632              		.cfi_endproc
 633              	.LFE16:
 634              		.size	thread3LL, .-thread3LL
 635 0542 8DB42600 		.p2align 4,,15
 635      0000008D 
 635      BC270000 
 635      0000
 636              		.type	thread2M, @function
 637              	thread2M:
 638              	.LFB12:
 639              		.loc 1 169 0
 640              		.cfi_startproc
 641              	.LVL58:
 642 0550 83EC1C   		subl	$28, %esp	#,
 643              		.cfi_def_cfa_offset 32
 644              		.loc 1 172 0
 645 0553 C7042414 		movl	$20, (%esp)	#,
 645      000000
 646 055a E8FCFFFF 		call	chThdSleep	#
 646      FF
 647              	.LVL59:
 648              		.loc 1 173 0
 649 055f C7042428 		movl	$40, (%esp)	#,
 649      000000
 650 0566 E8FCFFFF 		call	test_cpu_pulse	#
 650      FF
 651              	.LVL60:
 652              		.loc 1 174 0
 653 056b C7042442 		movl	$66, (%esp)	#,
 653      000000
 654 0572 E8FCFFFF 		call	test_emit_token	#
 654      FF
 655              	.LVL61:
 656              		.loc 1 176 0
 657 0577 31C0     		xorl	%eax, %eax	#
 658 0579 83C41C   		addl	$28, %esp	#,
 659              		.cfi_def_cfa_offset 4
 660 057c C3       		ret
 661              		.cfi_endproc
 662              	.LFE12:
 663              		.size	thread2M, .-thread2M
 664 057d 8D7600   		.p2align 4,,15
 665              		.type	thread2H, @function
 666              	thread2H:
 667              	.LFB13:
 668              		.loc 1 179 0
 669              		.cfi_startproc
 670              	.LVL62:
 671 0580 83EC1C   		subl	$28, %esp	#,
 672              		.cfi_def_cfa_offset 32
 673              		.loc 1 182 0
 674 0583 C7042428 		movl	$40, (%esp)	#,
 674      000000
 675 058a E8FCFFFF 		call	chThdSleep	#
 675      FF
GAS LISTING /tmp/ccnl8CWE.s 			page 16


 676              	.LVL63:
 677              		.loc 1 183 0
 678 058f C7042418 		movl	$m1, (%esp)	#,
 678      000000
 679 0596 E8FCFFFF 		call	chMtxLock	#
 679      FF
 680              	.LVL64:
 681              		.loc 1 184 0
 682 059b C704240A 		movl	$10, (%esp)	#,
 682      000000
 683 05a2 E8FCFFFF 		call	test_cpu_pulse	#
 683      FF
 684              	.LVL65:
 685              		.loc 1 185 0
 686 05a7 E8FCFFFF 		call	chMtxUnlock	#
 686      FF
 687              	.LVL66:
 688              		.loc 1 186 0
 689 05ac C7042441 		movl	$65, (%esp)	#,
 689      000000
 690 05b3 E8FCFFFF 		call	test_emit_token	#
 690      FF
 691              	.LVL67:
 692              		.loc 1 188 0
 693 05b8 31C0     		xorl	%eax, %eax	#
 694 05ba 83C41C   		addl	$28, %esp	#,
 695              		.cfi_def_cfa_offset 4
 696 05bd C3       		ret
 697              		.cfi_endproc
 698              	.LFE13:
 699              		.size	thread2H, .-thread2H
 700 05be 6690     		.p2align 4,,15
 701              		.type	thread3HH, @function
 702              	thread3HH:
 703              	.LFB20:
 704              		.loc 1 297 0
 705              		.cfi_startproc
 706              	.LVL68:
 707 05c0 83EC1C   		subl	$28, %esp	#,
 708              		.cfi_def_cfa_offset 32
 709              		.loc 1 300 0
 710 05c3 C7042432 		movl	$50, (%esp)	#,
 710      000000
 711 05ca E8FCFFFF 		call	chThdSleep	#
 711      FF
 712              	.LVL69:
 713              		.loc 1 301 0
 714 05cf C7042408 		movl	$m2, (%esp)	#,
 714      000000
 715 05d6 E8FCFFFF 		call	chMtxLock	#
 715      FF
 716              	.LVL70:
 717              		.loc 1 302 0
 718 05db C704240A 		movl	$10, (%esp)	#,
 718      000000
 719 05e2 E8FCFFFF 		call	test_cpu_pulse	#
 719      FF
GAS LISTING /tmp/ccnl8CWE.s 			page 17


 720              	.LVL71:
 721              		.loc 1 303 0
 722 05e7 E8FCFFFF 		call	chMtxUnlock	#
 722      FF
 723              	.LVL72:
 724              		.loc 1 304 0
 725 05ec C7042441 		movl	$65, (%esp)	#,
 725      000000
 726 05f3 E8FCFFFF 		call	test_emit_token	#
 726      FF
 727              	.LVL73:
 728              		.loc 1 306 0
 729 05f8 31C0     		xorl	%eax, %eax	#
 730 05fa 83C41C   		addl	$28, %esp	#,
 731              		.cfi_def_cfa_offset 4
 732 05fd C3       		ret
 733              		.cfi_endproc
 734              	.LFE20:
 735              		.size	thread3HH, .-thread3HH
 736 05fe 6690     		.p2align 4,,15
 737              		.type	thread3H, @function
 738              	thread3H:
 739              	.LFB19:
 740              		.loc 1 287 0
 741              		.cfi_startproc
 742              	.LVL74:
 743 0600 83EC1C   		subl	$28, %esp	#,
 744              		.cfi_def_cfa_offset 32
 745              		.loc 1 290 0
 746 0603 C7042428 		movl	$40, (%esp)	#,
 746      000000
 747 060a E8FCFFFF 		call	chThdSleep	#
 747      FF
 748              	.LVL75:
 749              		.loc 1 291 0
 750 060f C7042414 		movl	$20, (%esp)	#,
 750      000000
 751 0616 E8FCFFFF 		call	test_cpu_pulse	#
 751      FF
 752              	.LVL76:
 753              		.loc 1 292 0
 754 061b C7042442 		movl	$66, (%esp)	#,
 754      000000
 755 0622 E8FCFFFF 		call	test_emit_token	#
 755      FF
 756              	.LVL77:
 757              		.loc 1 294 0
 758 0627 31C0     		xorl	%eax, %eax	#
 759 0629 83C41C   		addl	$28, %esp	#,
 760              		.cfi_def_cfa_offset 4
 761 062c C3       		ret
 762              		.cfi_endproc
 763              	.LFE19:
 764              		.size	thread3H, .-thread3H
 765 062d 8D7600   		.p2align 4,,15
 766              		.type	thread3M, @function
 767              	thread3M:
GAS LISTING /tmp/ccnl8CWE.s 			page 18


 768              	.LFB18:
 769              		.loc 1 275 0
 770              		.cfi_startproc
 771              	.LVL78:
 772 0630 83EC1C   		subl	$28, %esp	#,
 773              		.cfi_def_cfa_offset 32
 774              		.loc 1 278 0
 775 0633 C7042414 		movl	$20, (%esp)	#,
 775      000000
 776 063a E8FCFFFF 		call	chThdSleep	#
 776      FF
 777              	.LVL79:
 778              		.loc 1 279 0
 779 063f C7042408 		movl	$m2, (%esp)	#,
 779      000000
 780 0646 E8FCFFFF 		call	chMtxLock	#
 780      FF
 781              	.LVL80:
 782              		.loc 1 280 0
 783 064b C704240A 		movl	$10, (%esp)	#,
 783      000000
 784 0652 E8FCFFFF 		call	test_cpu_pulse	#
 784      FF
 785              	.LVL81:
 786              		.loc 1 281 0
 787 0657 E8FCFFFF 		call	chMtxUnlock	#
 787      FF
 788              	.LVL82:
 789              		.loc 1 282 0
 790 065c C7042443 		movl	$67, (%esp)	#,
 790      000000
 791 0663 E8FCFFFF 		call	test_emit_token	#
 791      FF
 792              	.LVL83:
 793              		.loc 1 284 0
 794 0668 31C0     		xorl	%eax, %eax	#
 795 066a 83C41C   		addl	$28, %esp	#,
 796              		.cfi_def_cfa_offset 4
 797 066d C3       		ret
 798              		.cfi_endproc
 799              	.LFE18:
 800              		.size	thread3M, .-thread3M
 801 066e 6690     		.p2align 4,,15
 802              		.type	thread3L, @function
 803              	thread3L:
 804              	.LFB17:
 805              		.loc 1 259 0
 806              		.cfi_startproc
 807              	.LVL84:
 808 0670 83EC1C   		subl	$28, %esp	#,
 809              		.cfi_def_cfa_offset 32
 810              		.loc 1 262 0
 811 0673 C704240A 		movl	$10, (%esp)	#,
 811      000000
 812 067a E8FCFFFF 		call	chThdSleep	#
 812      FF
 813              	.LVL85:
GAS LISTING /tmp/ccnl8CWE.s 			page 19


 814              		.loc 1 263 0
 815 067f C7042408 		movl	$m2, (%esp)	#,
 815      000000
 816 0686 E8FCFFFF 		call	chMtxLock	#
 816      FF
 817              	.LVL86:
 818              		.loc 1 264 0
 819 068b C7042414 		movl	$20, (%esp)	#,
 819      000000
 820 0692 E8FCFFFF 		call	test_cpu_pulse	#
 820      FF
 821              	.LVL87:
 822              		.loc 1 265 0
 823 0697 C7042418 		movl	$m1, (%esp)	#,
 823      000000
 824 069e E8FCFFFF 		call	chMtxLock	#
 824      FF
 825              	.LVL88:
 826              		.loc 1 266 0
 827 06a3 C704240A 		movl	$10, (%esp)	#,
 827      000000
 828 06aa E8FCFFFF 		call	test_cpu_pulse	#
 828      FF
 829              	.LVL89:
 830              		.loc 1 267 0
 831 06af E8FCFFFF 		call	chMtxUnlock	#
 831      FF
 832              	.LVL90:
 833              		.loc 1 268 0
 834 06b4 C704240A 		movl	$10, (%esp)	#,
 834      000000
 835 06bb E8FCFFFF 		call	test_cpu_pulse	#
 835      FF
 836              	.LVL91:
 837              		.loc 1 269 0
 838 06c0 E8FCFFFF 		call	chMtxUnlock	#
 838      FF
 839              	.LVL92:
 840              		.loc 1 270 0
 841 06c5 C7042444 		movl	$68, (%esp)	#,
 841      000000
 842 06cc E8FCFFFF 		call	test_emit_token	#
 842      FF
 843              	.LVL93:
 844              		.loc 1 272 0
 845 06d1 31C0     		xorl	%eax, %eax	#
 846 06d3 83C41C   		addl	$28, %esp	#,
 847              		.cfi_def_cfa_offset 4
 848 06d6 C3       		ret
 849              		.cfi_endproc
 850              	.LFE17:
 851              		.size	thread3L, .-thread3L
 852 06d7 89F68DBC 		.p2align 4,,15
 852      27000000 
 852      00
 853              		.type	thread4b, @function
 854              	thread4b:
GAS LISTING /tmp/ccnl8CWE.s 			page 20


 855              	.LFB24:
 856              		.loc 1 356 0
 857              		.cfi_startproc
 858              	.LVL94:
 859 06e0 83EC1C   		subl	$28, %esp	#,
 860              		.cfi_def_cfa_offset 32
 861              		.loc 1 359 0
 862 06e3 C7042496 		movl	$150, (%esp)	#,
 862      000000
 863 06ea E8FCFFFF 		call	chThdSleep	#
 863      FF
 864              	.LVL95:
 865              		.loc 1 360 0
 866 06ef C7042418 		movl	$m1, (%esp)	#,
 866      000000
 867 06f6 E8FCFFFF 		call	chMtxLock	#
 867      FF
 868              	.LVL96:
 869              		.loc 1 361 0
 870 06fb E8FCFFFF 		call	chMtxUnlock	#
 870      FF
 871              	.LVL97:
 872              		.loc 1 363 0
 873 0700 31C0     		xorl	%eax, %eax	#
 874 0702 83C41C   		addl	$28, %esp	#,
 875              		.cfi_def_cfa_offset 4
 876 0705 C3       		ret
 877              		.cfi_endproc
 878              	.LFE24:
 879              		.size	thread4b, .-thread4b
 880 0706 8D76008D 		.p2align 4,,15
 880      BC270000 
 880      0000
 881              		.type	thread4a, @function
 882              	thread4a:
 883              	.LFB23:
 884              		.loc 1 347 0
 885              		.cfi_startproc
 886              	.LVL98:
 887 0710 83EC1C   		subl	$28, %esp	#,
 888              		.cfi_def_cfa_offset 32
 889              		.loc 1 350 0
 890 0713 C7042432 		movl	$50, (%esp)	#,
 890      000000
 891 071a E8FCFFFF 		call	chThdSleep	#
 891      FF
 892              	.LVL99:
 893              		.loc 1 351 0
 894 071f C7042408 		movl	$m2, (%esp)	#,
 894      000000
 895 0726 E8FCFFFF 		call	chMtxLock	#
 895      FF
 896              	.LVL100:
 897              		.loc 1 352 0
 898 072b E8FCFFFF 		call	chMtxUnlock	#
 898      FF
 899              	.LVL101:
GAS LISTING /tmp/ccnl8CWE.s 			page 21


 900              		.loc 1 354 0
 901 0730 31C0     		xorl	%eax, %eax	#
 902 0732 83C41C   		addl	$28, %esp	#,
 903              		.cfi_def_cfa_offset 4
 904 0735 C3       		ret
 905              		.cfi_endproc
 906              	.LFE23:
 907              		.size	thread4a, .-thread4a
 908 0736 8D76008D 		.p2align 4,,15
 908      BC270000 
 908      0000
 909              		.type	mtx4_execute, @function
 910              	mtx4_execute:
 911              	.LFB25:
 912              		.loc 1 365 0
 913              		.cfi_startproc
 914 0740 55       		pushl	%ebp	#
 915              		.cfi_def_cfa_offset 8
 916              		.cfi_offset 5, -8
 917 0741 57       		pushl	%edi	#
 918              		.cfi_def_cfa_offset 12
 919              		.cfi_offset 7, -12
 920 0742 56       		pushl	%esi	#
 921              		.cfi_def_cfa_offset 16
 922              		.cfi_offset 6, -16
 923 0743 53       		pushl	%ebx	#
 924              		.cfi_def_cfa_offset 20
 925              		.cfi_offset 3, -20
 926 0744 83EC2C   		subl	$44, %esp	#,
 927              		.cfi_def_cfa_offset 64
 928              		.loc 1 368 0
 929 0747 A1180000 		movl	rlist+24, %eax	# rlist.r_current, rlist.r_current
 929      00
 930 074c 8B5808   		movl	8(%eax), %ebx	# _3->p_prio, p
 931              	.LVL102:
 932              		.loc 1 371 0
 933 074f A1000000 		movl	wa, %eax	# wa, tmp188
 933      00
 934 0754 C7442410 		movl	$.LC3, 16(%esp)	#,
 934      06000000 
 935 075c C744240C 		movl	$thread4a, 12(%esp)	#,
 935      10070000 
 936              		.loc 1 369 0
 937 0764 8D7301   		leal	1(%ebx), %esi	#, p1
 938              	.LVL103:
 939              		.loc 1 371 0
 940 0767 89742408 		movl	%esi, 8(%esp)	# p1,
 941              		.loc 1 370 0
 942 076b 8D7B02   		leal	2(%ebx), %edi	#, p2
 943              	.LVL104:
 944              		.loc 1 371 0
 945 076e C7442404 		movl	$17008, 4(%esp)	#,
 945      70420000 
 946 0776 890424   		movl	%eax, (%esp)	# tmp188,
 947 0779 E8FCFFFF 		call	chThdCreateStatic	#
 947      FF
 948              	.LVL105:
GAS LISTING /tmp/ccnl8CWE.s 			page 22


 949              		.loc 1 372 0
 950 077e 8B2D0400 		movl	wa+4, %ebp	# wa, D.2540
 950      0000
 951 0784 C7442410 		movl	$.LC4, 16(%esp)	#,
 951      08000000 
 952 078c C744240C 		movl	$thread4b, 12(%esp)	#,
 952      E0060000 
 953 0794 897C2408 		movl	%edi, 8(%esp)	# p2,
 954 0798 C7442404 		movl	$17008, 4(%esp)	#,
 954      70420000 
 955 07a0 892C24   		movl	%ebp, (%esp)	# D.2540,
 956              		.loc 1 371 0
 957 07a3 A3000000 		movl	%eax, threads	# D.2539, threads
 957      00
 958              		.loc 1 372 0
 959 07a8 E8FCFFFF 		call	chThdCreateStatic	#
 959      FF
 960              	.LVL106:
 961              		.loc 1 373 0
 962 07ad C7042408 		movl	$m2, (%esp)	#,
 962      000000
 963              		.loc 1 372 0
 964 07b4 A3040000 		movl	%eax, threads+4	# D.2539, threads
 964      00
 965              		.loc 1 373 0
 966 07b9 E8FCFFFF 		call	chMtxLock	#
 966      FF
 967              	.LVL107:
 968              		.loc 1 374 0
 969 07be A1180000 		movl	rlist+24, %eax	# rlist.r_current, rlist.r_current
 969      00
 970 07c3 395808   		cmpl	%ebx, 8(%eax)	# p, _16->p_prio
 971 07c6 C7042401 		movl	$1, (%esp)	#,
 971      000000
 972 07cd 0F94C0   		sete	%al	#, D.2542
 973 07d0 0FB6C0   		movzbl	%al, %eax	# D.2542, D.2542
 974 07d3 89442404 		movl	%eax, 4(%esp)	# D.2542,
 975 07d7 E8FCFFFF 		call	_test_assert	#
 975      FF
 976              	.LVL108:
 977 07dc 84C0     		testb	%al, %al	# D.2542
 978 07de 7408     		je	.L50	#,
 979              	.L45:
 980              		.loc 1 410 0
 981 07e0 83C42C   		addl	$44, %esp	#,
 982              		.cfi_remember_state
 983              		.cfi_def_cfa_offset 20
 984 07e3 5B       		popl	%ebx	#
 985              		.cfi_restore 3
 986              		.cfi_def_cfa_offset 16
 987              	.LVL109:
 988 07e4 5E       		popl	%esi	#
 989              		.cfi_restore 6
 990              		.cfi_def_cfa_offset 12
 991              	.LVL110:
 992 07e5 5F       		popl	%edi	#
 993              		.cfi_restore 7
GAS LISTING /tmp/ccnl8CWE.s 			page 23


 994              		.cfi_def_cfa_offset 8
 995              	.LVL111:
 996 07e6 5D       		popl	%ebp	#
 997              		.cfi_restore 5
 998              		.cfi_def_cfa_offset 4
 999 07e7 C3       		ret
 1000              	.LVL112:
 1001              		.p2align 4,,7
 1002              		.p2align 3
 1003              	.L50:
 1004              		.cfi_restore_state
 1005              		.loc 1 375 0
 1006 07e8 C7042464 		movl	$100, (%esp)	#,
 1006      000000
 1007 07ef E8FCFFFF 		call	chThdSleep	#
 1007      FF
 1008              	.LVL113:
 1009              		.loc 1 376 0
 1010 07f4 A1180000 		movl	rlist+24, %eax	# rlist.r_current, rlist.r_current
 1010      00
 1011 07f9 397008   		cmpl	%esi, 8(%eax)	# p1, _23->p_prio
 1012 07fc C7042402 		movl	$2, (%esp)	#,
 1012      000000
 1013 0803 0F94C0   		sete	%al	#, D.2542
 1014 0806 0FB6C0   		movzbl	%al, %eax	# D.2542, D.2542
 1015 0809 89442404 		movl	%eax, 4(%esp)	# D.2542,
 1016 080d E8FCFFFF 		call	_test_assert	#
 1016      FF
 1017              	.LVL114:
 1018 0812 84C0     		testb	%al, %al	# D.2542
 1019 0814 75CA     		jne	.L45	#,
 1020              		.loc 1 377 0
 1021 0816 C7042418 		movl	$m1, (%esp)	#,
 1021      000000
 1022 081d E8FCFFFF 		call	chMtxLock	#
 1022      FF
 1023              	.LVL115:
 1024              		.loc 1 378 0
 1025 0822 A1180000 		movl	rlist+24, %eax	# rlist.r_current, rlist.r_current
 1025      00
 1026 0827 397008   		cmpl	%esi, 8(%eax)	# p1, _30->p_prio
 1027 082a C7042403 		movl	$3, (%esp)	#,
 1027      000000
 1028 0831 0F94C0   		sete	%al	#, D.2542
 1029 0834 0FB6C0   		movzbl	%al, %eax	# D.2542, D.2542
 1030 0837 89442404 		movl	%eax, 4(%esp)	# D.2542,
 1031 083b E8FCFFFF 		call	_test_assert	#
 1031      FF
 1032              	.LVL116:
 1033 0840 84C0     		testb	%al, %al	# D.2542
 1034 0842 759C     		jne	.L45	#,
 1035              		.loc 1 379 0
 1036 0844 C7042464 		movl	$100, (%esp)	#,
 1036      000000
 1037 084b E8FCFFFF 		call	chThdSleep	#
 1037      FF
 1038              	.LVL117:
GAS LISTING /tmp/ccnl8CWE.s 			page 24


 1039              		.loc 1 380 0
 1040 0850 A1180000 		movl	rlist+24, %eax	# rlist.r_current, rlist.r_current
 1040      00
 1041 0855 397808   		cmpl	%edi, 8(%eax)	# p2, _37->p_prio
 1042 0858 C7042404 		movl	$4, (%esp)	#,
 1042      000000
 1043 085f 0F94C0   		sete	%al	#, D.2542
 1044 0862 0FB6C0   		movzbl	%al, %eax	# D.2542, D.2542
 1045 0865 89442404 		movl	%eax, 4(%esp)	# D.2542,
 1046 0869 E8FCFFFF 		call	_test_assert	#
 1046      FF
 1047              	.LVL118:
 1048 086e 84C0     		testb	%al, %al	# D.2542
 1049 0870 0F856AFF 		jne	.L45	#,
 1049      FFFF
 1050              		.loc 1 381 0
 1051 0876 E8FCFFFF 		call	chMtxUnlock	#
 1051      FF
 1052              	.LVL119:
 1053              		.loc 1 382 0
 1054 087b A1180000 		movl	rlist+24, %eax	# rlist.r_current, rlist.r_current
 1054      00
 1055 0880 397008   		cmpl	%esi, 8(%eax)	# p1, _44->p_prio
 1056 0883 C7042405 		movl	$5, (%esp)	#,
 1056      000000
 1057 088a 0F94C0   		sete	%al	#, D.2542
 1058 088d 0FB6C0   		movzbl	%al, %eax	# D.2542, D.2542
 1059 0890 89442404 		movl	%eax, 4(%esp)	# D.2542,
 1060 0894 E8FCFFFF 		call	_test_assert	#
 1060      FF
 1061              	.LVL120:
 1062 0899 84C0     		testb	%al, %al	# D.2542
 1063 089b 0F853FFF 		jne	.L45	#,
 1063      FFFF
 1064              		.loc 1 383 0
 1065 08a1 C7042464 		movl	$100, (%esp)	#,
 1065      000000
 1066 08a8 E8FCFFFF 		call	chThdSleep	#
 1066      FF
 1067              	.LVL121:
 1068              		.loc 1 384 0
 1069 08ad A1180000 		movl	rlist+24, %eax	# rlist.r_current, rlist.r_current
 1069      00
 1070 08b2 397008   		cmpl	%esi, 8(%eax)	# p1, _51->p_prio
 1071 08b5 C7042406 		movl	$6, (%esp)	#,
 1071      000000
 1072 08bc 0F94C0   		sete	%al	#, D.2542
 1073 08bf 0FB6C0   		movzbl	%al, %eax	# D.2542, D.2542
 1074 08c2 89442404 		movl	%eax, 4(%esp)	# D.2542,
 1075 08c6 E8FCFFFF 		call	_test_assert	#
 1075      FF
 1076              	.LVL122:
 1077 08cb 84C0     		testb	%al, %al	# D.2542
 1078 08cd 0F850DFF 		jne	.L45	#,
 1078      FFFF
 1079              		.loc 1 385 0
 1080 08d3 E8FCFFFF 		call	chMtxUnlockAll	#
GAS LISTING /tmp/ccnl8CWE.s 			page 25


 1080      FF
 1081              	.LVL123:
 1082              		.loc 1 386 0
 1083 08d8 A1180000 		movl	rlist+24, %eax	# rlist.r_current, rlist.r_current
 1083      00
 1084 08dd 395808   		cmpl	%ebx, 8(%eax)	# p, _58->p_prio
 1085 08e0 C7042407 		movl	$7, (%esp)	#,
 1085      000000
 1086 08e7 0F94C0   		sete	%al	#, D.2542
 1087 08ea 0FB6C0   		movzbl	%al, %eax	# D.2542, D.2542
 1088 08ed 89442404 		movl	%eax, 4(%esp)	# D.2542,
 1089 08f1 E8FCFFFF 		call	_test_assert	#
 1089      FF
 1090              	.LVL124:
 1091 08f6 84C0     		testb	%al, %al	# D.2542
 1092 08f8 0F85E2FE 		jne	.L45	#,
 1092      FFFF
 1093              		.loc 1 387 0
 1094 08fe E8FCFFFF 		call	test_wait_threads	#
 1094      FF
 1095              	.LVL125:
 1096              		.loc 1 390 0
 1097 0903 A1000000 		movl	wa, %eax	# wa, tmp189
 1097      00
 1098 0908 C7442410 		movl	$.LC1, 16(%esp)	#,
 1098      02000000 
 1099 0910 C744240C 		movl	$thread4a, 12(%esp)	#,
 1099      10070000 
 1100 0918 89742408 		movl	%esi, 8(%esp)	# p1,
 1101 091c C7442404 		movl	$17008, 4(%esp)	#,
 1101      70420000 
 1102 0924 890424   		movl	%eax, (%esp)	# tmp189,
 1103 0927 E8FCFFFF 		call	chThdCreateStatic	#
 1103      FF
 1104              	.LVL126:
 1105              		.loc 1 391 0
 1106 092c C7442410 		movl	$.LC2, 16(%esp)	#,
 1106      04000000 
 1107 0934 C744240C 		movl	$thread4b, 12(%esp)	#,
 1107      E0060000 
 1108 093c 897C2408 		movl	%edi, 8(%esp)	# p2,
 1109 0940 C7442404 		movl	$17008, 4(%esp)	#,
 1109      70420000 
 1110 0948 892C24   		movl	%ebp, (%esp)	# D.2540,
 1111              		.loc 1 390 0
 1112 094b A3000000 		movl	%eax, threads	# D.2539, threads
 1112      00
 1113              		.loc 1 391 0
 1114 0950 E8FCFFFF 		call	chThdCreateStatic	#
 1114      FF
 1115              	.LVL127:
 1116              		.loc 1 392 0
 1117 0955 C7042408 		movl	$m2, (%esp)	#,
 1117      000000
 1118              		.loc 1 391 0
 1119 095c A3040000 		movl	%eax, threads+4	# D.2539, threads
 1119      00
GAS LISTING /tmp/ccnl8CWE.s 			page 26


 1120              		.loc 1 392 0
 1121 0961 E8FCFFFF 		call	chMtxLock	#
 1121      FF
 1122              	.LVL128:
 1123              		.loc 1 393 0
 1124 0966 A1180000 		movl	rlist+24, %eax	# rlist.r_current, rlist.r_current
 1124      00
 1125 096b 395808   		cmpl	%ebx, 8(%eax)	# p, _72->p_prio
 1126 096e C7042408 		movl	$8, (%esp)	#,
 1126      000000
 1127 0975 0F94C0   		sete	%al	#, D.2542
 1128 0978 0FB6C0   		movzbl	%al, %eax	# D.2542, D.2542
 1129 097b 89442404 		movl	%eax, 4(%esp)	# D.2542,
 1130 097f E8FCFFFF 		call	_test_assert	#
 1130      FF
 1131              	.LVL129:
 1132 0984 84C0     		testb	%al, %al	# D.2542
 1133 0986 0F8554FE 		jne	.L45	#,
 1133      FFFF
 1134              		.loc 1 394 0
 1135 098c C7042464 		movl	$100, (%esp)	#,
 1135      000000
 1136 0993 E8FCFFFF 		call	chThdSleep	#
 1136      FF
 1137              	.LVL130:
 1138              		.loc 1 395 0
 1139 0998 A1180000 		movl	rlist+24, %eax	# rlist.r_current, rlist.r_current
 1139      00
 1140 099d 397008   		cmpl	%esi, 8(%eax)	# p1, _79->p_prio
 1141 09a0 C7042409 		movl	$9, (%esp)	#,
 1141      000000
 1142 09a7 0F94C0   		sete	%al	#, D.2542
 1143 09aa 0FB6C0   		movzbl	%al, %eax	# D.2542, D.2542
 1144 09ad 89442404 		movl	%eax, 4(%esp)	# D.2542,
 1145 09b1 E8FCFFFF 		call	_test_assert	#
 1145      FF
 1146              	.LVL131:
 1147 09b6 84C0     		testb	%al, %al	# D.2542
 1148 09b8 0F8522FE 		jne	.L45	#,
 1148      FFFF
 1149              		.loc 1 396 0
 1150 09be C7042418 		movl	$m1, (%esp)	#,
 1150      000000
 1151 09c5 E8FCFFFF 		call	chMtxLock	#
 1151      FF
 1152              	.LVL132:
 1153              		.loc 1 397 0
 1154 09ca A1180000 		movl	rlist+24, %eax	# rlist.r_current, rlist.r_current
 1154      00
 1155 09cf 397008   		cmpl	%esi, 8(%eax)	# p1, _86->p_prio
 1156 09d2 C704240A 		movl	$10, (%esp)	#,
 1156      000000
 1157 09d9 0F94C0   		sete	%al	#, D.2542
 1158 09dc 0FB6C0   		movzbl	%al, %eax	# D.2542, D.2542
 1159 09df 89442404 		movl	%eax, 4(%esp)	# D.2542,
 1160 09e3 E8FCFFFF 		call	_test_assert	#
 1160      FF
GAS LISTING /tmp/ccnl8CWE.s 			page 27


 1161              	.LVL133:
 1162 09e8 84C0     		testb	%al, %al	# D.2542
 1163 09ea 0F85F0FD 		jne	.L45	#,
 1163      FFFF
 1164              		.loc 1 398 0
 1165 09f0 C7042464 		movl	$100, (%esp)	#,
 1165      000000
 1166 09f7 E8FCFFFF 		call	chThdSleep	#
 1166      FF
 1167              	.LVL134:
 1168              		.loc 1 399 0
 1169 09fc A1180000 		movl	rlist+24, %eax	# rlist.r_current, rlist.r_current
 1169      00
 1170 0a01 397808   		cmpl	%edi, 8(%eax)	# p2, _93->p_prio
 1171 0a04 C704240B 		movl	$11, (%esp)	#,
 1171      000000
 1172 0a0b 0F94C0   		sete	%al	#, D.2542
 1173 0a0e 0FB6C0   		movzbl	%al, %eax	# D.2542, D.2542
 1174 0a11 89442404 		movl	%eax, 4(%esp)	# D.2542,
 1175 0a15 E8FCFFFF 		call	_test_assert	#
 1175      FF
 1176              	.LVL135:
 1177 0a1a 84C0     		testb	%al, %al	# D.2542
 1178 0a1c 0F85BEFD 		jne	.L45	#,
 1178      FFFF
 1179              		.loc 1 400 0
 1180              	#APP
 1181              	# 400 "../../../test/testmtx.c" 1
   1              	/*
   2              	    ChibiOS/RT - Copyright (C) 2006-2013 Giovanni Di Sirio
   3              	
   4              	    Licensed under the Apache License, Version 2.0 (the "License");
   5              	    you may not use this file except in compliance with the License.
   6              	    You may obtain a copy of the License at
   7              	
   8              	        http://www.apache.org/licenses/LICENSE-2.0
   9              	
  10              	    Unless required by applicable law or agreed to in writing, software
  11              	    distributed under the License is distributed on an "AS IS" BASIS,
  12              	    WITHOUT WARRANTIES OR CONDITIONS OF ANY KIND, either express or implied.
  13              	    See the License for the specific language governing permissions and
  14              	    limitations under the License.
  15              	*/
  16              	
  17              	#include "ch.h"
  18              	#include "test.h"
  19              	
  20              	/**
  21              	 * @page test_mtx Mutexes test
  22              	 *
  23              	 * File: @ref testmtx.c
  24              	 *
  25              	 * <h2>Description</h2>
  26              	 * This module implements the test sequence for the @ref mutexes and
  27              	 * @ref condvars subsystems.<br>
  28              	 * Tests on those subsystems are particularly critical because the system-wide
  29              	 * implications of the Priority Inheritance mechanism.
GAS LISTING /tmp/ccnl8CWE.s 			page 28


  30              	 *
  31              	 * <h2>Objective</h2>
  32              	 * Objective of the test module is to cover 100% of the subsystems code.
  33              	 *
  34              	 * <h2>Preconditions</h2>
  35              	 * The module requires the following kernel options:
  36              	 * - @p CH_USE_MUTEXES
  37              	 * - @p CH_USE_CONDVARS
  38              	 * - @p CH_DBG_THREADS_PROFILING
  39              	 * .
  40              	 * In case some of the required options are not enabled then some or all tests
  41              	 * may be skipped.
  42              	 *
  43              	 * <h2>Test Cases</h2>
  44              	 * - @subpage test_mtx_001
  45              	 * - @subpage test_mtx_002
  46              	 * - @subpage test_mtx_003
  47              	 * - @subpage test_mtx_004
  48              	 * - @subpage test_mtx_005
  49              	 * - @subpage test_mtx_006
  50              	 * - @subpage test_mtx_007
  51              	 * - @subpage test_mtx_008
  52              	 * .
  53              	 * @file testmtx.c
  54              	 * @brief Mutexes and CondVars test source file
  55              	 * @file testmtx.h
  56              	 * @brief Mutexes and CondVars test header file
  57              	 */
  58              	
  59              	#if CH_USE_MUTEXES || defined(__DOXYGEN__)
  60              	
  61              	#define ALLOWED_DELAY 5
  62              	
  63              	/*
  64              	 * Note, the static initializers are not really required because the
  65              	 * variables are explicitly initialized in each test case. It is done in order
  66              	 * to test the macros.
  67              	 */
  68              	static MUTEX_DECL(m1);
  69              	static MUTEX_DECL(m2);
  70              	#if CH_USE_CONDVARS || defined(__DOXYGEN__)
  71              	static CONDVAR_DECL(c1);
  72              	#endif
  73              	
  74              	/**
  75              	 * @page test_mtx_001 Priority enqueuing test
  76              	 *
  77              	 * <h2>Description</h2>
  78              	 * Five threads, with increasing priority, are enqueued on a locked mutex then
  79              	 * the mutex is unlocked.<br>
  80              	 * The test expects the threads to perform their operations in increasing
  81              	 * priority order regardless of the initial order.
  82              	 */
  83              	
  84              	static void mtx1_setup(void) {
  85              	
  86              	  chMtxInit(&m1);
GAS LISTING /tmp/ccnl8CWE.s 			page 29


  87              	}
  88              	
  89              	static msg_t thread1(void *p) {
  90              	
  91              	  chMtxLock(&m1);
  92              	  test_emit_token(*(char *)p);
  93              	  chMtxUnlock();
  94              	  return 0;
  95              	}
  96              	
  97              	static void mtx1_execute(void) {
  98              	
  99              	  tprio_t prio = chThdGetPriority(); /* Because priority inheritance.*/
 100              	  chMtxLock(&m1);
 101              	  threads[0] = chThdCreateStatic(wa[0], WA_SIZE, prio+1, thread1, "E");
 102              	  threads[1] = chThdCreateStatic(wa[1], WA_SIZE, prio+2, thread1, "D");
 103              	  threads[2] = chThdCreateStatic(wa[2], WA_SIZE, prio+3, thread1, "C");
 104              	  threads[3] = chThdCreateStatic(wa[3], WA_SIZE, prio+4, thread1, "B");
 105              	  threads[4] = chThdCreateStatic(wa[4], WA_SIZE, prio+5, thread1, "A");
 106              	  chMtxUnlock();
 107              	  test_wait_threads();
 108              	  test_assert(1, prio == chThdGetPriority(), "wrong priority level");
 109              	  test_assert_sequence(2, "ABCDE");
 110              	}
 111              	
 112              	ROMCONST struct testcase testmtx1 = {
 113              	  "Mutexes, priority enqueuing test",
 114              	  mtx1_setup,
 115              	  NULL,
 116              	  mtx1_execute
 117              	};
 118              	
 119              	#if CH_DBG_THREADS_PROFILING || defined(__DOXYGEN__)
 120              	/**
 121              	 * @page test_mtx_002 Priority inheritance, simple case
 122              	 *
 123              	 * <h2>Description</h2>
 124              	 * Three threads are involved in the classic priority inversion scenario, a
 125              	 * medium priority thread tries to starve an high priority thread by
 126              	 * blocking a low priority thread into a mutex lock zone.<br>
 127              	 * The test expects the threads to reach their goal in increasing priority
 128              	 * order by rearranging their priorities in order to avoid the priority
 129              	 * inversion trap.
 130              	 *
 131              	 * <h2>Scenario</h2>
 132              	 * This weird looking diagram should explain what happens in the test case:
 133              	 * @code
 134              	 * Time ----> 0     10    20    30    40    50    60    70    80    90    100
 135              	 *    0 ......AL++++++++++............2+++++++++++AU0---------------++++++G...
 136              	 *    1 ..................++++++++++++------------------++++++++++++G.........
 137              	 *    2  .............................AL..........++++++AUG...................
 138              	 *                                    ^           ^
 139              	 * Legend:
 140              	 *   0..2 - Priority levels
 141              	 *   +++  - Running
 142              	 *   ---  - Ready
 143              	 *   ...  - Waiting or Terminated
GAS LISTING /tmp/ccnl8CWE.s 			page 30


 144              	 *   xL   - Lock operation on mutex 'x'
 145              	 *   xUn  - Unlock operation on mutex 'x' with priority returning to level 'n'
 146              	 *   G    - Goal
 147              	 *   ^    - Priority transition (boost or return).
 148              	 * @endcode
 149              	 */
 150              	
 151              	static void mtx2_setup(void) {
 152              	
 153              	  chMtxInit(&m1);
 154              	}
 155              	
 156              	/* Low priority thread */
 157              	static msg_t thread2L(void *p) {
 158              	
 159              	  (void)p;
 160              	  chMtxLock(&m1);
 161              	  test_cpu_pulse(40);
 162              	  chMtxUnlock();
 163              	  test_cpu_pulse(10);
 164              	  test_emit_token('C');
 165              	  return 0;
 166              	}
 167              	
 168              	/* Medium priority thread */
 169              	static msg_t thread2M(void *p) {
 170              	
 171              	  (void)p;
 172              	  chThdSleepMilliseconds(20);
 173              	  test_cpu_pulse(40);
 174              	  test_emit_token('B');
 175              	  return 0;
 176              	}
 177              	
 178              	/* High priority thread */
 179              	static msg_t thread2H(void *p) {
 180              	
 181              	  (void)p;
 182              	  chThdSleepMilliseconds(40);
 183              	  chMtxLock(&m1);
 184              	  test_cpu_pulse(10);
 185              	  chMtxUnlock();
 186              	  test_emit_token('A');
 187              	  return 0;
 188              	}
 189              	
 190              	static void mtx2_execute(void) {
 191              	  systime_t time;
 192              	
 193              	  test_wait_tick();
 194              	  time = chTimeNow();
 195              	  threads[0] = chThdCreateStatic(wa[0], WA_SIZE, chThdGetPriority()-1, thread2H, 0);
 196              	  threads[1] = chThdCreateStatic(wa[1], WA_SIZE, chThdGetPriority()-2, thread2M, 0);
 197              	  threads[2] = chThdCreateStatic(wa[2], WA_SIZE, chThdGetPriority()-3, thread2L, 0);
 198              	  test_wait_threads();
 199              	  test_assert_sequence(1, "ABC");
 200              	  test_assert_time_window(2, time + MS2ST(100), time + MS2ST(100) + ALLOWED_DELAY);
GAS LISTING /tmp/ccnl8CWE.s 			page 31


 201              	}
 202              	
 203              	ROMCONST struct testcase testmtx2 = {
 204              	  "Mutexes, priority inheritance, simple case",
 205              	  mtx2_setup,
 206              	  NULL,
 207              	  mtx2_execute
 208              	};
 209              	
 210              	/**
 211              	 * @page test_mtx_003 Priority inheritance, complex case
 212              	 *
 213              	 * <h2>Description</h2>
 214              	 * Five threads are involved in the complex priority inversion scenario,
 215              	 * please refer to the diagram below for the complete scenario.<br>
 216              	 * The test expects the threads to perform their operations in increasing
 217              	 * priority order by rearranging their priorities in order to avoid the
 218              	 * priority inversion trap.
 219              	 *
 220              	 * <h2>Scenario</h2>
 221              	 * This weird looking diagram should explain what happens in the test case:
 222              	 * @code
 223              	 * Time ----> 0     10    20    30    40    50    60    70    80    90    100   110
 224              	 *    0 ......BL++++------------2+++++------4+++++BU0---------------------------G.....
 225              	 *    1 ............AL++++2+++++BL----------4-----++++++BU4+++AU1---------------G.....
 226              	 *    2 ..................AL----------------------------------------------++++++AUG...
 227              	 *    3 ..............................+++++++-----------------------++++++G...........
 228              	 *    4 ....................................AL................++++++AUG...............
 229              	 *                        ^     ^           ^     ^     ^     ^
 230              	 * Legend:
 231              	 *   0..4 - Priority levels
 232              	 *   +++  - Running
 233              	 *   ---  - Ready
 234              	 *   ...  - Waiting or Terminated
 235              	 *   xL   - Lock operation on mutex 'x'
 236              	 *   xUn  - Unlock operation on mutex 'x' with priority returning to level 'n'
 237              	 *   ^    - Priority transition (boost or return).
 238              	 * @endcode
 239              	 */
 240              	
 241              	static void mtx3_setup(void) {
 242              	
 243              	  chMtxInit(&m1); /* Mutex B.*/
 244              	  chMtxInit(&m2); /* Mutex A.*/
 245              	}
 246              	
 247              	/* Lowest priority thread */
 248              	static msg_t thread3LL(void *p) {
 249              	
 250              	  (void)p;
 251              	  chMtxLock(&m1);
 252              	  test_cpu_pulse(30);
 253              	  chMtxUnlock();
 254              	  test_emit_token('E');
 255              	  return 0;
 256              	}
 257              	
GAS LISTING /tmp/ccnl8CWE.s 			page 32


 258              	/* Low priority thread */
 259              	static msg_t thread3L(void *p) {
 260              	
 261              	  (void)p;
 262              	  chThdSleepMilliseconds(10);
 263              	  chMtxLock(&m2);
 264              	  test_cpu_pulse(20);
 265              	  chMtxLock(&m1);
 266              	  test_cpu_pulse(10);
 267              	  chMtxUnlock();
 268              	  test_cpu_pulse(10);
 269              	  chMtxUnlock();
 270              	  test_emit_token('D');
 271              	  return 0;
 272              	}
 273              	
 274              	/* Medium priority thread */
 275              	static msg_t thread3M(void *p) {
 276              	
 277              	  (void)p;
 278              	  chThdSleepMilliseconds(20);
 279              	  chMtxLock(&m2);
 280              	  test_cpu_pulse(10);
 281              	  chMtxUnlock();
 282              	  test_emit_token('C');
 283              	  return 0;
 284              	}
 285              	
 286              	/* High priority thread */
 287              	static msg_t thread3H(void *p) {
 288              	
 289              	  (void)p;
 290              	  chThdSleepMilliseconds(40);
 291              	  test_cpu_pulse(20);
 292              	  test_emit_token('B');
 293              	  return 0;
 294              	}
 295              	
 296              	/* Highest priority thread */
 297              	static msg_t thread3HH(void *p) {
 298              	
 299              	  (void)p;
 300              	  chThdSleepMilliseconds(50);
 301              	  chMtxLock(&m2);
 302              	  test_cpu_pulse(10);
 303              	  chMtxUnlock();
 304              	  test_emit_token('A');
 305              	  return 0;
 306              	}
 307              	
 308              	static void mtx3_execute(void) {
 309              	  systime_t time;
 310              	
 311              	  test_wait_tick();
 312              	  time = chTimeNow();
 313              	  threads[0] = chThdCreateStatic(wa[0], WA_SIZE, chThdGetPriority()-5, thread3LL, 0);
 314              	  threads[1] = chThdCreateStatic(wa[1], WA_SIZE, chThdGetPriority()-4, thread3L, 0);
GAS LISTING /tmp/ccnl8CWE.s 			page 33


 315              	  threads[2] = chThdCreateStatic(wa[2], WA_SIZE, chThdGetPriority()-3, thread3M, 0);
 316              	  threads[3] = chThdCreateStatic(wa[3], WA_SIZE, chThdGetPriority()-2, thread3H, 0);
 317              	  threads[4] = chThdCreateStatic(wa[4], WA_SIZE, chThdGetPriority()-1, thread3HH, 0);
 318              	  test_wait_threads();
 319              	  test_assert_sequence(1, "ABCDE");
 320              	  test_assert_time_window(2, time + MS2ST(110), time + MS2ST(110) + ALLOWED_DELAY);
 321              	}
 322              	
 323              	ROMCONST struct testcase testmtx3 = {
 324              	  "Mutexes, priority inheritance, complex case",
 325              	  mtx3_setup,
 326              	  NULL,
 327              	  mtx3_execute
 328              	};
 329              	#endif /* CH_DBG_THREADS_PROFILING */
 330              	
 331              	/**
 332              	 * @page test_mtx_004 Priority return verification
 333              	 *
 334              	 * <h2>Description</h2>
 335              	 * Two threads are spawned that try to lock the mutexes locked by the tester
 336              	 * thread with precise timing.<br>
 337              	 * The test expects that the priority changes caused by the priority
 338              	 * inheritance algorithm happen at the right moment and with the right values.
 339              	 */
 340              	
 341              	static void mtx4_setup(void) {
 342              	
 343              	  chMtxInit(&m1);
 344              	  chMtxInit(&m2);
 345              	}
 346              	
 347              	static msg_t thread4a(void *p) {
 348              	
 349              	  (void)p;
 350              	  chThdSleepMilliseconds(50);
 351              	  chMtxLock(&m2);
 352              	  chMtxUnlock();
 353              	  return 0;
 354              	}
 355              	
 356              	static msg_t thread4b(void *p) {
 357              	
 358              	  (void)p;
 359              	  chThdSleepMilliseconds(150);
 360              	  chMtxLock(&m1);
 361              	  chMtxUnlock();
 362              	  return 0;
 363              	}
 364              	
 365              	static void mtx4_execute(void) {
 366              	  tprio_t p, p1, p2;
 367              	
 368              	  p = chThdGetPriority();
 369              	  p1 = p + 1;
 370              	  p2 = p + 2;
 371              	  threads[0] = chThdCreateStatic(wa[0], WA_SIZE, p1, thread4a, "B");
GAS LISTING /tmp/ccnl8CWE.s 			page 34


 372              	  threads[1] = chThdCreateStatic(wa[1], WA_SIZE, p2, thread4b, "A");
 373              	  chMtxLock(&m2);
 374              	  test_assert(1, chThdGetPriority() == p, "wrong priority level");
 375              	  chThdSleepMilliseconds(100);
 376              	  test_assert(2, chThdGetPriority() == p1, "wrong priority level");
 377              	  chMtxLock(&m1);
 378              	  test_assert(3, chThdGetPriority() == p1, "wrong priority level");
 379              	  chThdSleepMilliseconds(100);
 380              	  test_assert(4, chThdGetPriority() == p2, "wrong priority level");
 381              	  chMtxUnlock();
 382              	  test_assert(5, chThdGetPriority() == p1, "wrong priority level");
 383              	  chThdSleepMilliseconds(100);
 384              	  test_assert(6, chThdGetPriority() == p1, "wrong priority level");
 385              	  chMtxUnlockAll();
 386              	  test_assert(7, chThdGetPriority() == p, "wrong priority level");
 387              	  test_wait_threads();
 388              	
 389              	  /* Test repeated in order to cover chMtxUnlockS().*/
 390              	  threads[0] = chThdCreateStatic(wa[0], WA_SIZE, p1, thread4a, "D");
 391              	  threads[1] = chThdCreateStatic(wa[1], WA_SIZE, p2, thread4b, "C");
 392              	  chMtxLock(&m2);
 393              	  test_assert(8, chThdGetPriority() == p, "wrong priority level");
 394              	  chThdSleepMilliseconds(100);
 395              	  test_assert(9, chThdGetPriority() == p1, "wrong priority level");
 396              	  chMtxLock(&m1);
 397              	  test_assert(10, chThdGetPriority() == p1, "wrong priority level");
 398              	  chThdSleepMilliseconds(100);
 399              	  test_assert(11, chThdGetPriority() == p2, "wrong priority level");
 400 0a22 90       	  chSysLock();
 401              	  chMtxUnlockS();
 1182              		nop
 1183              	# 0 "" 2
 1184              		.loc 1 401 0
 1185              	#NO_APP
 1186 0a23 E8FCFFFF 		call	chMtxUnlockS	#
 1186      FF
 1187              	.LVL136:
 1188              		.loc 1 402 0
 1189              		.p2align 4,,6
 1190 0a28 E8FCFFFF 		call	chSchRescheduleS	#
 1190      FF
 1191              	.LVL137:
 1192              		.loc 1 403 0
 1193              	#APP
 1194              	# 403 "../../../test/testmtx.c" 1
 402              	  chSchRescheduleS();
 403 0a2d 90       	  chSysUnlock();
 404              	  test_assert(12, chThdGetPriority() == p1, "wrong priority level");
 1195              		nop
 1196              	# 0 "" 2
 1197              		.loc 1 404 0
 1198              	#NO_APP
 1199 0a2e A1180000 		movl	rlist+24, %eax	# rlist.r_current, rlist.r_current
 1199      00
 1200 0a33 397008   		cmpl	%esi, 8(%eax)	# p1, _101->p_prio
 1201 0a36 C704240C 		movl	$12, (%esp)	#,
 1201      000000
GAS LISTING /tmp/ccnl8CWE.s 			page 35


 1202 0a3d 0F94C0   		sete	%al	#, D.2542
 1203 0a40 0FB6C0   		movzbl	%al, %eax	# D.2542, D.2542
 1204 0a43 89442404 		movl	%eax, 4(%esp)	# D.2542,
 1205 0a47 E8FCFFFF 		call	_test_assert	#
 1205      FF
 1206              	.LVL138:
 1207 0a4c 84C0     		testb	%al, %al	# D.2542
 1208 0a4e 0F858CFD 		jne	.L45	#,
 1208      FFFF
 1209              		.loc 1 405 0
 1210 0a54 C7042464 		movl	$100, (%esp)	#,
 1210      000000
 1211 0a5b E8FCFFFF 		call	chThdSleep	#
 1211      FF
 1212              	.LVL139:
 1213              		.loc 1 406 0
 1214 0a60 A1180000 		movl	rlist+24, %eax	# rlist.r_current, rlist.r_current
 1214      00
 1215 0a65 397008   		cmpl	%esi, 8(%eax)	# p1, _108->p_prio
 1216 0a68 C704240D 		movl	$13, (%esp)	#,
 1216      000000
 1217 0a6f 0F94C0   		sete	%al	#, D.2542
 1218 0a72 0FB6C0   		movzbl	%al, %eax	# D.2542, D.2542
 1219 0a75 89442404 		movl	%eax, 4(%esp)	# D.2542,
 1220 0a79 E8FCFFFF 		call	_test_assert	#
 1220      FF
 1221              	.LVL140:
 1222 0a7e 84C0     		testb	%al, %al	# D.2542
 1223 0a80 0F855AFD 		jne	.L45	#,
 1223      FFFF
 1224              		.loc 1 407 0
 1225 0a86 E8FCFFFF 		call	chMtxUnlockAll	#
 1225      FF
 1226              	.LVL141:
 1227              		.loc 1 408 0
 1228 0a8b A1180000 		movl	rlist+24, %eax	# rlist.r_current, rlist.r_current
 1228      00
 1229 0a90 395808   		cmpl	%ebx, 8(%eax)	# p, _115->p_prio
 1230 0a93 C704240E 		movl	$14, (%esp)	#,
 1230      000000
 1231 0a9a 0F94C0   		sete	%al	#, D.2542
 1232 0a9d 0FB6C0   		movzbl	%al, %eax	# D.2542, D.2542
 1233 0aa0 89442404 		movl	%eax, 4(%esp)	# D.2542,
 1234 0aa4 E8FCFFFF 		call	_test_assert	#
 1234      FF
 1235              	.LVL142:
 1236 0aa9 84C0     		testb	%al, %al	# D.2542
 1237 0aab 0F852FFD 		jne	.L45	#,
 1237      FFFF
 1238              		.loc 1 410 0
 1239 0ab1 83C42C   		addl	$44, %esp	#,
 1240              		.cfi_def_cfa_offset 20
 1241 0ab4 5B       		popl	%ebx	#
 1242              		.cfi_restore 3
 1243              		.cfi_def_cfa_offset 16
 1244              	.LVL143:
 1245 0ab5 5E       		popl	%esi	#
GAS LISTING /tmp/ccnl8CWE.s 			page 36


 1246              		.cfi_restore 6
 1247              		.cfi_def_cfa_offset 12
 1248              	.LVL144:
 1249 0ab6 5F       		popl	%edi	#
 1250              		.cfi_restore 7
 1251              		.cfi_def_cfa_offset 8
 1252              	.LVL145:
 1253 0ab7 5D       		popl	%ebp	#
 1254              		.cfi_restore 5
 1255              		.cfi_def_cfa_offset 4
 1256              		.loc 1 409 0
 1257 0ab8 E9FCFFFF 		jmp	test_wait_threads	#
 1257      FF
 1258              	.LVL146:
 1259              		.cfi_endproc
 1260              	.LFE25:
 1261              		.size	mtx4_execute, .-mtx4_execute
 1262 0abd 8D7600   		.p2align 4,,15
 1263              		.type	mtx5_execute, @function
 1264              	mtx5_execute:
 1265              	.LFB27:
 1266              		.loc 1 434 0
 1267              		.cfi_startproc
 1268 0ac0 53       		pushl	%ebx	#
 1269              		.cfi_def_cfa_offset 8
 1270              		.cfi_offset 3, -8
 1271 0ac1 83EC18   		subl	$24, %esp	#,
 1272              		.cfi_def_cfa_offset 32
 1273              		.loc 1 438 0
 1274 0ac4 A1180000 		movl	rlist+24, %eax	# rlist.r_current, rlist.r_current
 1274      00
 1275 0ac9 8B5808   		movl	8(%eax), %ebx	# _3->p_prio, prio
 1276              	.LVL147:
 1277              		.loc 1 440 0
 1278 0acc C7042418 		movl	$m1, (%esp)	#,
 1278      000000
 1279 0ad3 E8FCFFFF 		call	chMtxTryLock	#
 1279      FF
 1280              	.LVL148:
 1281              		.loc 1 441 0
 1282 0ad8 C7042401 		movl	$1, (%esp)	#,
 1282      000000
 1283 0adf 0FB6C0   		movzbl	%al, %eax	# b, b
 1284 0ae2 89442404 		movl	%eax, 4(%esp)	# b,
 1285 0ae6 E8FCFFFF 		call	_test_assert	#
 1285      FF
 1286              	.LVL149:
 1287 0aeb 84C0     		testb	%al, %al	# D.2548
 1288 0aed 7409     		je	.L56	#,
 1289              	.L51:
 1290              		.loc 1 458 0
 1291 0aef 83C418   		addl	$24, %esp	#,
 1292              		.cfi_remember_state
 1293              		.cfi_def_cfa_offset 8
 1294 0af2 5B       		popl	%ebx	#
 1295              		.cfi_restore 3
 1296              		.cfi_def_cfa_offset 4
GAS LISTING /tmp/ccnl8CWE.s 			page 37


 1297              	.LVL150:
 1298 0af3 C3       		ret
 1299              	.LVL151:
 1300              		.p2align 4,,7
 1301 0af4 8D742600 		.p2align 3
 1302              	.L56:
 1303              		.cfi_restore_state
 1304              		.loc 1 443 0
 1305 0af8 C7042418 		movl	$m1, (%esp)	#,
 1305      000000
 1306 0aff E8FCFFFF 		call	chMtxTryLock	#
 1306      FF
 1307              	.LVL152:
 1308              		.loc 1 444 0
 1309 0b04 C7042402 		movl	$2, (%esp)	#,
 1309      000000
 1310 0b0b 83F001   		xorl	$1, %eax	#, D.2548
 1311              	.LVL153:
 1312 0b0e 0FB6C0   		movzbl	%al, %eax	# D.2548, D.2548
 1313 0b11 89442404 		movl	%eax, 4(%esp)	# D.2548,
 1314 0b15 E8FCFFFF 		call	_test_assert	#
 1314      FF
 1315              	.LVL154:
 1316 0b1a 84C0     		testb	%al, %al	# D.2548
 1317 0b1c 75D1     		jne	.L51	#,
 1318              		.loc 1 446 0
 1319              	#APP
 1320              	# 446 "../../../test/testmtx.c" 1
 405              	  chThdSleepMilliseconds(100);
 406              	  test_assert(13, chThdGetPriority() == p1, "wrong priority level");
 407              	  chMtxUnlockAll();
 408              	  test_assert(14, chThdGetPriority() == p, "wrong priority level");
 409              	  test_wait_threads();
 410              	}
 411              	
 412              	ROMCONST struct testcase testmtx4 = {
 413              	  "Mutexes, priority return",
 414              	  mtx4_setup,
 415              	  NULL,
 416              	  mtx4_execute
 417              	};
 418              	
 419              	/**
 420              	 * @page test_mtx_005 Mutex status
 421              	 *
 422              	 * <h2>Description</h2>
 423              	 * Various tests on the mutex structure status after performing some lock and
 424              	 * unlock operations.<br>
 425              	 * The test expects that the internal mutex status is consistent after each
 426              	 * operation.
 427              	 */
 428              	
 429              	static void mtx5_setup(void) {
 430              	
 431              	  chMtxInit(&m1);
 432              	}
 433              	
GAS LISTING /tmp/ccnl8CWE.s 			page 38


 434              	static void mtx5_execute(void) {
 435              	  bool_t b;
 436              	  tprio_t prio;
 437              	
 438              	  prio = chThdGetPriority();
 439              	
 440              	  b = chMtxTryLock(&m1);
 441              	  test_assert(1, b, "already locked");
 442              	
 443              	  b = chMtxTryLock(&m1);
 444              	  test_assert(2, !b, "not locked");
 445              	
 446 0b1e 90       	  chSysLock();
 447              	  chMtxUnlockS();
 1321              		nop
 1322              	# 0 "" 2
 1323              		.loc 1 447 0
 1324              	#NO_APP
 1325 0b1f E8FCFFFF 		call	chMtxUnlockS	#
 1325      FF
 1326              	.LVL155:
 1327              		.loc 1 448 0
 1328              	#APP
 1329              	# 448 "../../../test/testmtx.c" 1
 448 0b24 90       	  chSysUnlock();
 449              	
 1330              		nop
 1331              	# 0 "" 2
 1332              		.loc 1 450 0
 1333              	#NO_APP
 1334 0b25 31C0     		xorl	%eax, %eax	# D.2548
 1335 0b27 813D1800 		cmpl	$m1, m1	#, m1.m_queue.p_next
 1335      00001800 
 1335      0000
 1336 0b31 C7042403 		movl	$3, (%esp)	#,
 1336      000000
 1337 0b38 0F94C0   		sete	%al	#, D.2548
 1338 0b3b 89442404 		movl	%eax, 4(%esp)	# D.2548,
 1339 0b3f E8FCFFFF 		call	_test_assert	#
 1339      FF
 1340              	.LVL156:
 1341 0b44 84C0     		testb	%al, %al	# D.2548
 1342 0b46 75A7     		jne	.L51	#,
 1343              		.loc 1 451 0
 1344 0b48 8B0D2000 		movl	m1+8, %ecx	# m1.m_owner,
 1344      0000
 1345 0b4e 31C0     		xorl	%eax, %eax	# D.2548
 1346 0b50 C7042404 		movl	$4, (%esp)	#,
 1346      000000
 1347 0b57 85C9     		testl	%ecx, %ecx	#
 1348 0b59 0F94C0   		sete	%al	#, D.2548
 1349 0b5c 89442404 		movl	%eax, 4(%esp)	# D.2548,
 1350 0b60 E8FCFFFF 		call	_test_assert	#
 1350      FF
 1351              	.LVL157:
 1352 0b65 84C0     		testb	%al, %al	# D.2548
 1353 0b67 7586     		jne	.L51	#,
GAS LISTING /tmp/ccnl8CWE.s 			page 39


 1354              		.loc 1 452 0
 1355 0b69 A1180000 		movl	rlist+24, %eax	# rlist.r_current, rlist.r_current
 1355      00
 1356 0b6e 395808   		cmpl	%ebx, 8(%eax)	# prio, _27->p_prio
 1357 0b71 C7042405 		movl	$5, (%esp)	#,
 1357      000000
 1358 0b78 0F94C0   		sete	%al	#, D.2548
 1359 0b7b 0FB6C0   		movzbl	%al, %eax	# D.2548, D.2548
 1360 0b7e 89442404 		movl	%eax, 4(%esp)	# D.2548,
 1361 0b82 E8FCFFFF 		call	_test_assert	#
 1361      FF
 1362              	.LVL158:
 1363 0b87 84C0     		testb	%al, %al	# D.2548
 1364 0b89 0F8560FF 		jne	.L51	#,
 1364      FFFF
 1365              		.loc 1 454 0
 1366 0b8f C7042418 		movl	$m1, (%esp)	#,
 1366      000000
 1367 0b96 E8FCFFFF 		call	chMtxLock	#
 1367      FF
 1368              	.LVL159:
 1369              		.loc 1 455 0
 1370 0b9b E8FCFFFF 		call	chMtxUnlockAll	#
 1370      FF
 1371              	.LVL160:
 1372              		.loc 1 456 0
 1373 0ba0 31C0     		xorl	%eax, %eax	# D.2548
 1374 0ba2 813D1800 		cmpl	$m1, m1	#, m1.m_queue.p_next
 1374      00001800 
 1374      0000
 1375 0bac C7042406 		movl	$6, (%esp)	#,
 1375      000000
 1376 0bb3 0F94C0   		sete	%al	#, D.2548
 1377 0bb6 89442404 		movl	%eax, 4(%esp)	# D.2548,
 1378 0bba E8FCFFFF 		call	_test_assert	#
 1378      FF
 1379              	.LVL161:
 1380 0bbf 84C0     		testb	%al, %al	# D.2548
 1381 0bc1 0F8528FF 		jne	.L51	#,
 1381      FFFF
 1382              		.loc 1 457 0
 1383 0bc7 8B152000 		movl	m1+8, %edx	# m1.m_owner,
 1383      0000
 1384 0bcd 31C0     		xorl	%eax, %eax	# D.2548
 1385 0bcf C7042407 		movl	$7, (%esp)	#,
 1385      000000
 1386 0bd6 85D2     		testl	%edx, %edx	#
 1387 0bd8 0F94C0   		sete	%al	#, D.2548
 1388 0bdb 89442404 		movl	%eax, 4(%esp)	# D.2548,
 1389 0bdf E8FCFFFF 		call	_test_assert	#
 1389      FF
 1390              	.LVL162:
 1391 0be4 E906FFFF 		jmp	.L51	#
 1391      FF
 1392              		.cfi_endproc
 1393              	.LFE27:
 1394              		.size	mtx5_execute, .-mtx5_execute
GAS LISTING /tmp/ccnl8CWE.s 			page 40


 1395 0be9 8DB42600 		.p2align 4,,15
 1395      000000
 1396              		.type	mtx6_execute, @function
 1397              	mtx6_execute:
 1398              	.LFB30:
 1399              		.loc 1 494 0
 1400              		.cfi_startproc
 1401 0bf0 53       		pushl	%ebx	#
 1402              		.cfi_def_cfa_offset 8
 1403              		.cfi_offset 3, -8
 1404 0bf1 83EC28   		subl	$40, %esp	#,
 1405              		.cfi_def_cfa_offset 48
 1406              		.loc 1 496 0
 1407 0bf4 A1180000 		movl	rlist+24, %eax	# rlist.r_current, rlist.r_current
 1407      00
 1408 0bf9 8B5808   		movl	8(%eax), %ebx	# _2->p_prio, prio
 1409              	.LVL163:
 1410              		.loc 1 497 0
 1411 0bfc C7442410 		movl	$.LC0, 16(%esp)	#,
 1411      00000000 
 1412 0c04 C744240C 		movl	$thread10, 12(%esp)	#,
 1412      600D0000 
 1413 0c0c C7442404 		movl	$17008, 4(%esp)	#,
 1413      70420000 
 1414 0c14 8D4301   		leal	1(%ebx), %eax	#, D.2553
 1415 0c17 89442408 		movl	%eax, 8(%esp)	# D.2553,
 1416 0c1b A1000000 		movl	wa, %eax	# wa, wa
 1416      00
 1417 0c20 890424   		movl	%eax, (%esp)	# wa,
 1418 0c23 E8FCFFFF 		call	chThdCreateStatic	#
 1418      FF
 1419              	.LVL164:
 1420              		.loc 1 498 0
 1421 0c28 C7442410 		movl	$.LC1, 16(%esp)	#,
 1421      02000000 
 1422 0c30 C744240C 		movl	$thread10, 12(%esp)	#,
 1422      600D0000 
 1423 0c38 C7442404 		movl	$17008, 4(%esp)	#,
 1423      70420000 
 1424              		.loc 1 497 0
 1425 0c40 A3000000 		movl	%eax, threads	# D.2552, threads
 1425      00
 1426              		.loc 1 498 0
 1427 0c45 8D4302   		leal	2(%ebx), %eax	#, D.2553
 1428 0c48 89442408 		movl	%eax, 8(%esp)	# D.2553,
 1429 0c4c A1040000 		movl	wa+4, %eax	# wa, wa
 1429      00
 1430 0c51 890424   		movl	%eax, (%esp)	# wa,
 1431 0c54 E8FCFFFF 		call	chThdCreateStatic	#
 1431      FF
 1432              	.LVL165:
 1433              		.loc 1 499 0
 1434 0c59 C7442410 		movl	$.LC2, 16(%esp)	#,
 1434      04000000 
 1435 0c61 C744240C 		movl	$thread10, 12(%esp)	#,
 1435      600D0000 
 1436 0c69 C7442404 		movl	$17008, 4(%esp)	#,
GAS LISTING /tmp/ccnl8CWE.s 			page 41


 1436      70420000 
 1437              		.loc 1 498 0
 1438 0c71 A3040000 		movl	%eax, threads+4	# D.2552, threads
 1438      00
 1439              		.loc 1 499 0
 1440 0c76 8D4303   		leal	3(%ebx), %eax	#, D.2553
 1441 0c79 89442408 		movl	%eax, 8(%esp)	# D.2553,
 1442 0c7d A1080000 		movl	wa+8, %eax	# wa, wa
 1442      00
 1443 0c82 890424   		movl	%eax, (%esp)	# wa,
 1444 0c85 E8FCFFFF 		call	chThdCreateStatic	#
 1444      FF
 1445              	.LVL166:
 1446              		.loc 1 500 0
 1447 0c8a C7442410 		movl	$.LC3, 16(%esp)	#,
 1447      06000000 
 1448 0c92 C744240C 		movl	$thread10, 12(%esp)	#,
 1448      600D0000 
 1449 0c9a C7442404 		movl	$17008, 4(%esp)	#,
 1449      70420000 
 1450              		.loc 1 499 0
 1451 0ca2 A3080000 		movl	%eax, threads+8	# D.2552, threads
 1451      00
 1452              		.loc 1 500 0
 1453 0ca7 8D4304   		leal	4(%ebx), %eax	#, D.2553
 1454              		.loc 1 501 0
 1455 0caa 83C305   		addl	$5, %ebx	#, D.2553
 1456              	.LVL167:
 1457              		.loc 1 500 0
 1458 0cad 89442408 		movl	%eax, 8(%esp)	# D.2553,
 1459 0cb1 A10C0000 		movl	wa+12, %eax	# wa, wa
 1459      00
 1460 0cb6 890424   		movl	%eax, (%esp)	# wa,
 1461 0cb9 E8FCFFFF 		call	chThdCreateStatic	#
 1461      FF
 1462              	.LVL168:
 1463              		.loc 1 501 0
 1464 0cbe C7442410 		movl	$.LC4, 16(%esp)	#,
 1464      08000000 
 1465 0cc6 C744240C 		movl	$thread10, 12(%esp)	#,
 1465      600D0000 
 1466 0cce 895C2408 		movl	%ebx, 8(%esp)	# D.2553,
 1467 0cd2 C7442404 		movl	$17008, 4(%esp)	#,
 1467      70420000 
 1468              		.loc 1 500 0
 1469 0cda A30C0000 		movl	%eax, threads+12	# D.2552, threads
 1469      00
 1470              		.loc 1 501 0
 1471 0cdf A1100000 		movl	wa+16, %eax	# wa, wa
 1471      00
 1472 0ce4 890424   		movl	%eax, (%esp)	# wa,
 1473 0ce7 E8FCFFFF 		call	chThdCreateStatic	#
 1473      FF
 1474              	.LVL169:
 1475 0cec A3100000 		movl	%eax, threads+16	# D.2552, threads
 1475      00
 1476              		.loc 1 502 0
GAS LISTING /tmp/ccnl8CWE.s 			page 42


 1477              	#APP
 1478              	# 502 "../../../test/testmtx.c" 1
 450              	  test_assert(3, isempty(&m1.m_queue), "queue not empty");
 451              	  test_assert(4, m1.m_owner == NULL, "still owned");
 452              	  test_assert(5, chThdGetPriority() == prio, "wrong priority level");
 453              	  
 454              	  chMtxLock(&m1);
 455              	  chMtxUnlockAll();
 456              	  test_assert(6, isempty(&m1.m_queue), "queue not empty");
 457              	  test_assert(7, m1.m_owner == NULL, "still owned");
 458              	}
 459              	
 460              	ROMCONST struct testcase testmtx5 = {
 461              	  "Mutexes, status",
 462              	  mtx5_setup,
 463              	  NULL,
 464              	  mtx5_execute
 465              	};
 466              	
 467              	#if CH_USE_CONDVARS || defined(__DOXYGEN__)
 468              	/**
 469              	 * @page test_mtx_006 Condition Variable signal test
 470              	 *
 471              	 * <h2>Description</h2>
 472              	 * Five threads take a mutex and then enter a conditional variable queue, the
 473              	 * tester thread then proceeds to signal the conditional variable five times
 474              	 * atomically.<br>
 475              	 * The test expects the threads to reach their goal in increasing priority
 476              	 * order regardless of the initial order.
 477              	 */
 478              	
 479              	static void mtx6_setup(void) {
 480              	
 481              	  chCondInit(&c1);
 482              	  chMtxInit(&m1);
 483              	}
 484              	
 485              	static msg_t thread10(void *p) {
 486              	
 487              	  chMtxLock(&m1);
 488              	  chCondWait(&c1);
 489              	  test_emit_token(*(char *)p);
 490              	  chMtxUnlock();
 491              	  return 0;
 492              	}
 493              	
 494              	static void mtx6_execute(void) {
 495              	
 496              	  tprio_t prio = chThdGetPriority();
 497              	  threads[0] = chThdCreateStatic(wa[0], WA_SIZE, prio+1, thread10, "E");
 498              	  threads[1] = chThdCreateStatic(wa[1], WA_SIZE, prio+2, thread10, "D");
 499              	  threads[2] = chThdCreateStatic(wa[2], WA_SIZE, prio+3, thread10, "C");
 500              	  threads[3] = chThdCreateStatic(wa[3], WA_SIZE, prio+4, thread10, "B");
 501              	  threads[4] = chThdCreateStatic(wa[4], WA_SIZE, prio+5, thread10, "A");
 502 0cf1 90       	  chSysLock();
 503              	  chCondSignalI(&c1);
 1479              		nop
GAS LISTING /tmp/ccnl8CWE.s 			page 43


 1480              	# 0 "" 2
 1481              		.loc 1 503 0
 1482              	#NO_APP
 1483 0cf2 C7042400 		movl	$c1, (%esp)	#,
 1483      000000
 1484 0cf9 E8FCFFFF 		call	chCondSignalI	#
 1484      FF
 1485              	.LVL170:
 1486              		.loc 1 504 0
 1487 0cfe C7042400 		movl	$c1, (%esp)	#,
 1487      000000
 1488 0d05 E8FCFFFF 		call	chCondSignalI	#
 1488      FF
 1489              	.LVL171:
 1490              		.loc 1 505 0
 1491 0d0a C7042400 		movl	$c1, (%esp)	#,
 1491      000000
 1492 0d11 E8FCFFFF 		call	chCondSignalI	#
 1492      FF
 1493              	.LVL172:
 1494              		.loc 1 506 0
 1495 0d16 C7042400 		movl	$c1, (%esp)	#,
 1495      000000
 1496 0d1d E8FCFFFF 		call	chCondSignalI	#
 1496      FF
 1497              	.LVL173:
 1498              		.loc 1 507 0
 1499 0d22 C7042400 		movl	$c1, (%esp)	#,
 1499      000000
 1500 0d29 E8FCFFFF 		call	chCondSignalI	#
 1500      FF
 1501              	.LVL174:
 1502              		.loc 1 508 0
 1503 0d2e E8FCFFFF 		call	chSchRescheduleS	#
 1503      FF
 1504              	.LVL175:
 1505              		.loc 1 509 0
 1506              	#APP
 1507              	# 509 "../../../test/testmtx.c" 1
 504              	  chCondSignalI(&c1);
 505              	  chCondSignalI(&c1);
 506              	  chCondSignalI(&c1);
 507              	  chCondSignalI(&c1);
 508              	  chSchRescheduleS();
 509 0d33 90       	  chSysUnlock();
 510              	  test_wait_threads();
 1508              		nop
 1509              	# 0 "" 2
 1510              		.loc 1 510 0
 1511              	#NO_APP
 1512 0d34 E8FCFFFF 		call	test_wait_threads	#
 1512      FF
 1513              	.LVL176:
 1514              		.loc 1 511 0
 1515 0d39 C7442404 		movl	$.LC5, 4(%esp)	#,
 1515      0A000000 
 1516 0d41 C7042401 		movl	$1, (%esp)	#,
GAS LISTING /tmp/ccnl8CWE.s 			page 44


 1516      000000
 1517 0d48 E8FCFFFF 		call	_test_assert_sequence	#
 1517      FF
 1518              	.LVL177:
 1519              		.loc 1 512 0
 1520 0d4d 83C428   		addl	$40, %esp	#,
 1521              		.cfi_def_cfa_offset 8
 1522 0d50 5B       		popl	%ebx	#
 1523              		.cfi_restore 3
 1524              		.cfi_def_cfa_offset 4
 1525              	.LVL178:
 1526 0d51 C3       		ret
 1527              		.cfi_endproc
 1528              	.LFE30:
 1529              		.size	mtx6_execute, .-mtx6_execute
 1530 0d52 8DB42600 		.p2align 4,,15
 1530      0000008D 
 1530      BC270000 
 1530      0000
 1531              		.type	thread10, @function
 1532              	thread10:
 1533              	.LFB29:
 1534              		.loc 1 485 0
 1535              		.cfi_startproc
 1536              	.LVL179:
 1537 0d60 83EC1C   		subl	$28, %esp	#,
 1538              		.cfi_def_cfa_offset 32
 1539              		.loc 1 487 0
 1540 0d63 C7042418 		movl	$m1, (%esp)	#,
 1540      000000
 1541 0d6a E8FCFFFF 		call	chMtxLock	#
 1541      FF
 1542              	.LVL180:
 1543              		.loc 1 488 0
 1544 0d6f C7042400 		movl	$c1, (%esp)	#,
 1544      000000
 1545 0d76 E8FCFFFF 		call	chCondWait	#
 1545      FF
 1546              	.LVL181:
 1547              		.loc 1 489 0
 1548 0d7b 8B442420 		movl	32(%esp), %eax	# p, p
 1549 0d7f 0FBE00   		movsbl	(%eax), %eax	# MEM[(char *)p_4(D)], MEM[(char *)p_4(D)]
 1550 0d82 890424   		movl	%eax, (%esp)	# MEM[(char *)p_4(D)],
 1551 0d85 E8FCFFFF 		call	test_emit_token	#
 1551      FF
 1552              	.LVL182:
 1553              		.loc 1 490 0
 1554 0d8a E8FCFFFF 		call	chMtxUnlock	#
 1554      FF
 1555              	.LVL183:
 1556              		.loc 1 492 0
 1557 0d8f 31C0     		xorl	%eax, %eax	#
 1558 0d91 83C41C   		addl	$28, %esp	#,
 1559              		.cfi_def_cfa_offset 4
 1560 0d94 C3       		ret
 1561              		.cfi_endproc
 1562              	.LFE29:
GAS LISTING /tmp/ccnl8CWE.s 			page 45


 1563              		.size	thread10, .-thread10
 1564 0d95 8D742600 		.p2align 4,,15
 1564      8DBC2700 
 1564      000000
 1565              		.type	mtx6_setup, @function
 1566              	mtx6_setup:
 1567              	.LFB28:
 1568              		.loc 1 479 0
 1569              		.cfi_startproc
 1570 0da0 83EC1C   		subl	$28, %esp	#,
 1571              		.cfi_def_cfa_offset 32
 1572              		.loc 1 481 0
 1573 0da3 C7042400 		movl	$c1, (%esp)	#,
 1573      000000
 1574 0daa E8FCFFFF 		call	chCondInit	#
 1574      FF
 1575              	.LVL184:
 1576              		.loc 1 482 0
 1577 0daf C7042418 		movl	$m1, (%esp)	#,
 1577      000000
 1578 0db6 E8FCFFFF 		call	chMtxInit	#
 1578      FF
 1579              	.LVL185:
 1580              		.loc 1 483 0
 1581 0dbb 83C41C   		addl	$28, %esp	#,
 1582              		.cfi_def_cfa_offset 4
 1583 0dbe C3       		ret
 1584              		.cfi_endproc
 1585              	.LFE28:
 1586              		.size	mtx6_setup, .-mtx6_setup
 1587 0dbf 90       		.p2align 4,,15
 1588              		.type	mtx7_setup, @function
 1589              	mtx7_setup:
 1590              	.LFB31:
 1591              		.loc 1 531 0
 1592              		.cfi_startproc
 1593 0dc0 83EC1C   		subl	$28, %esp	#,
 1594              		.cfi_def_cfa_offset 32
 1595              		.loc 1 533 0
 1596 0dc3 C7042400 		movl	$c1, (%esp)	#,
 1596      000000
 1597 0dca E8FCFFFF 		call	chCondInit	#
 1597      FF
 1598              	.LVL186:
 1599              		.loc 1 534 0
 1600 0dcf C7042418 		movl	$m1, (%esp)	#,
 1600      000000
 1601 0dd6 E8FCFFFF 		call	chMtxInit	#
 1601      FF
 1602              	.LVL187:
 1603              		.loc 1 535 0
 1604 0ddb 83C41C   		addl	$28, %esp	#,
 1605              		.cfi_def_cfa_offset 4
 1606 0dde C3       		ret
 1607              		.cfi_endproc
 1608              	.LFE31:
 1609              		.size	mtx7_setup, .-mtx7_setup
GAS LISTING /tmp/ccnl8CWE.s 			page 46


 1610 0ddf 90       		.p2align 4,,15
 1611              		.type	mtx8_setup, @function
 1612              	mtx8_setup:
 1613              	.LFB33:
 1614              		.loc 1 566 0
 1615              		.cfi_startproc
 1616 0de0 83EC1C   		subl	$28, %esp	#,
 1617              		.cfi_def_cfa_offset 32
 1618              		.loc 1 568 0
 1619 0de3 C7042400 		movl	$c1, (%esp)	#,
 1619      000000
 1620 0dea E8FCFFFF 		call	chCondInit	#
 1620      FF
 1621              	.LVL188:
 1622              		.loc 1 569 0
 1623 0def C7042418 		movl	$m1, (%esp)	#,
 1623      000000
 1624 0df6 E8FCFFFF 		call	chMtxInit	#
 1624      FF
 1625              	.LVL189:
 1626              		.loc 1 570 0
 1627 0dfb C7042408 		movl	$m2, (%esp)	#,
 1627      000000
 1628 0e02 E8FCFFFF 		call	chMtxInit	#
 1628      FF
 1629              	.LVL190:
 1630              		.loc 1 571 0
 1631 0e07 83C41C   		addl	$28, %esp	#,
 1632              		.cfi_def_cfa_offset 4
 1633 0e0a C3       		ret
 1634              		.cfi_endproc
 1635              	.LFE33:
 1636              		.size	mtx8_setup, .-mtx8_setup
 1637 0e0b 908D7426 		.p2align 4,,15
 1637      00
 1638              		.type	mtx7_execute, @function
 1639              	mtx7_execute:
 1640              	.LFB32:
 1641              		.loc 1 537 0
 1642              		.cfi_startproc
 1643 0e10 53       		pushl	%ebx	#
 1644              		.cfi_def_cfa_offset 8
 1645              		.cfi_offset 3, -8
 1646 0e11 83EC28   		subl	$40, %esp	#,
 1647              		.cfi_def_cfa_offset 48
 1648              		.loc 1 539 0
 1649 0e14 A1180000 		movl	rlist+24, %eax	# rlist.r_current, rlist.r_current
 1649      00
 1650 0e19 8B5808   		movl	8(%eax), %ebx	# _2->p_prio, prio
 1651              	.LVL191:
 1652              		.loc 1 540 0
 1653 0e1c C7442410 		movl	$.LC0, 16(%esp)	#,
 1653      00000000 
 1654 0e24 C744240C 		movl	$thread10, 12(%esp)	#,
 1654      600D0000 
 1655 0e2c C7442404 		movl	$17008, 4(%esp)	#,
 1655      70420000 
GAS LISTING /tmp/ccnl8CWE.s 			page 47


 1656 0e34 8D4301   		leal	1(%ebx), %eax	#, D.2568
 1657 0e37 89442408 		movl	%eax, 8(%esp)	# D.2568,
 1658 0e3b A1000000 		movl	wa, %eax	# wa, wa
 1658      00
 1659 0e40 890424   		movl	%eax, (%esp)	# wa,
 1660 0e43 E8FCFFFF 		call	chThdCreateStatic	#
 1660      FF
 1661              	.LVL192:
 1662              		.loc 1 541 0
 1663 0e48 C7442410 		movl	$.LC1, 16(%esp)	#,
 1663      02000000 
 1664 0e50 C744240C 		movl	$thread10, 12(%esp)	#,
 1664      600D0000 
 1665 0e58 C7442404 		movl	$17008, 4(%esp)	#,
 1665      70420000 
 1666              		.loc 1 540 0
 1667 0e60 A3000000 		movl	%eax, threads	# D.2567, threads
 1667      00
 1668              		.loc 1 541 0
 1669 0e65 8D4302   		leal	2(%ebx), %eax	#, D.2568
 1670 0e68 89442408 		movl	%eax, 8(%esp)	# D.2568,
 1671 0e6c A1040000 		movl	wa+4, %eax	# wa, wa
 1671      00
 1672 0e71 890424   		movl	%eax, (%esp)	# wa,
 1673 0e74 E8FCFFFF 		call	chThdCreateStatic	#
 1673      FF
 1674              	.LVL193:
 1675              		.loc 1 542 0
 1676 0e79 C7442410 		movl	$.LC2, 16(%esp)	#,
 1676      04000000 
 1677 0e81 C744240C 		movl	$thread10, 12(%esp)	#,
 1677      600D0000 
 1678 0e89 C7442404 		movl	$17008, 4(%esp)	#,
 1678      70420000 
 1679              		.loc 1 541 0
 1680 0e91 A3040000 		movl	%eax, threads+4	# D.2567, threads
 1680      00
 1681              		.loc 1 542 0
 1682 0e96 8D4303   		leal	3(%ebx), %eax	#, D.2568
 1683 0e99 89442408 		movl	%eax, 8(%esp)	# D.2568,
 1684 0e9d A1080000 		movl	wa+8, %eax	# wa, wa
 1684      00
 1685 0ea2 890424   		movl	%eax, (%esp)	# wa,
 1686 0ea5 E8FCFFFF 		call	chThdCreateStatic	#
 1686      FF
 1687              	.LVL194:
 1688              		.loc 1 543 0
 1689 0eaa C7442410 		movl	$.LC3, 16(%esp)	#,
 1689      06000000 
 1690 0eb2 C744240C 		movl	$thread10, 12(%esp)	#,
 1690      600D0000 
 1691 0eba C7442404 		movl	$17008, 4(%esp)	#,
 1691      70420000 
 1692              		.loc 1 542 0
 1693 0ec2 A3080000 		movl	%eax, threads+8	# D.2567, threads
 1693      00
 1694              		.loc 1 543 0
GAS LISTING /tmp/ccnl8CWE.s 			page 48


 1695 0ec7 8D4304   		leal	4(%ebx), %eax	#, D.2568
 1696              		.loc 1 544 0
 1697 0eca 83C305   		addl	$5, %ebx	#, D.2568
 1698              	.LVL195:
 1699              		.loc 1 543 0
 1700 0ecd 89442408 		movl	%eax, 8(%esp)	# D.2568,
 1701 0ed1 A10C0000 		movl	wa+12, %eax	# wa, wa
 1701      00
 1702 0ed6 890424   		movl	%eax, (%esp)	# wa,
 1703 0ed9 E8FCFFFF 		call	chThdCreateStatic	#
 1703      FF
 1704              	.LVL196:
 1705              		.loc 1 544 0
 1706 0ede 895C2408 		movl	%ebx, 8(%esp)	# D.2568,
 1707 0ee2 C7442410 		movl	$.LC4, 16(%esp)	#,
 1707      08000000 
 1708 0eea C744240C 		movl	$thread10, 12(%esp)	#,
 1708      600D0000 
 1709 0ef2 C7442404 		movl	$17008, 4(%esp)	#,
 1709      70420000 
 1710              		.loc 1 543 0
 1711 0efa A30C0000 		movl	%eax, threads+12	# D.2567, threads
 1711      00
 1712              		.loc 1 544 0
 1713 0eff A1100000 		movl	wa+16, %eax	# wa, wa
 1713      00
 1714 0f04 890424   		movl	%eax, (%esp)	# wa,
 1715 0f07 E8FCFFFF 		call	chThdCreateStatic	#
 1715      FF
 1716              	.LVL197:
 1717              		.loc 1 545 0
 1718 0f0c C7042400 		movl	$c1, (%esp)	#,
 1718      000000
 1719              		.loc 1 544 0
 1720 0f13 A3100000 		movl	%eax, threads+16	# D.2567, threads
 1720      00
 1721              		.loc 1 545 0
 1722 0f18 E8FCFFFF 		call	chCondBroadcast	#
 1722      FF
 1723              	.LVL198:
 1724              		.loc 1 546 0
 1725 0f1d E8FCFFFF 		call	test_wait_threads	#
 1725      FF
 1726              	.LVL199:
 1727              		.loc 1 547 0
 1728 0f22 C7442404 		movl	$.LC5, 4(%esp)	#,
 1728      0A000000 
 1729 0f2a C7042401 		movl	$1, (%esp)	#,
 1729      000000
 1730 0f31 E8FCFFFF 		call	_test_assert_sequence	#
 1730      FF
 1731              	.LVL200:
 1732              		.loc 1 548 0
 1733 0f36 83C428   		addl	$40, %esp	#,
 1734              		.cfi_def_cfa_offset 8
 1735 0f39 5B       		popl	%ebx	#
 1736              		.cfi_restore 3
GAS LISTING /tmp/ccnl8CWE.s 			page 49


 1737              		.cfi_def_cfa_offset 4
 1738              	.LVL201:
 1739 0f3a C3       		ret
 1740              		.cfi_endproc
 1741              	.LFE32:
 1742              		.size	mtx7_execute, .-mtx7_execute
 1743 0f3b 908D7426 		.p2align 4,,15
 1743      00
 1744              		.type	mtx8_execute, @function
 1745              	mtx8_execute:
 1746              	.LFB36:
 1747              		.loc 1 596 0
 1748              		.cfi_startproc
 1749 0f40 53       		pushl	%ebx	#
 1750              		.cfi_def_cfa_offset 8
 1751              		.cfi_offset 3, -8
 1752 0f41 83EC28   		subl	$40, %esp	#,
 1753              		.cfi_def_cfa_offset 48
 1754              		.loc 1 598 0
 1755 0f44 A1180000 		movl	rlist+24, %eax	# rlist.r_current, rlist.r_current
 1755      00
 1756 0f49 8B5808   		movl	8(%eax), %ebx	# _2->p_prio, prio
 1757              	.LVL202:
 1758              		.loc 1 599 0
 1759 0f4c C7442410 		movl	$.LC4, 16(%esp)	#,
 1759      08000000 
 1760 0f54 C744240C 		movl	$thread11, 12(%esp)	#,
 1760      20100000 
 1761 0f5c C7442404 		movl	$17008, 4(%esp)	#,
 1761      70420000 
 1762 0f64 8D4301   		leal	1(%ebx), %eax	#, D.2573
 1763 0f67 89442408 		movl	%eax, 8(%esp)	# D.2573,
 1764 0f6b A1000000 		movl	wa, %eax	# wa, wa
 1764      00
 1765 0f70 890424   		movl	%eax, (%esp)	# wa,
 1766 0f73 E8FCFFFF 		call	chThdCreateStatic	#
 1766      FF
 1767              	.LVL203:
 1768              		.loc 1 600 0
 1769 0f78 C7442410 		movl	$.LC2, 16(%esp)	#,
 1769      04000000 
 1770 0f80 C744240C 		movl	$thread10, 12(%esp)	#,
 1770      600D0000 
 1771 0f88 C7442404 		movl	$17008, 4(%esp)	#,
 1771      70420000 
 1772              		.loc 1 599 0
 1773 0f90 A3000000 		movl	%eax, threads	# D.2572, threads
 1773      00
 1774              		.loc 1 600 0
 1775 0f95 8D4302   		leal	2(%ebx), %eax	#, D.2573
 1776              		.loc 1 601 0
 1777 0f98 83C303   		addl	$3, %ebx	#, D.2573
 1778              	.LVL204:
 1779              		.loc 1 600 0
 1780 0f9b 89442408 		movl	%eax, 8(%esp)	# D.2573,
 1781 0f9f A1040000 		movl	wa+4, %eax	# wa, wa
 1781      00
GAS LISTING /tmp/ccnl8CWE.s 			page 50


 1782 0fa4 890424   		movl	%eax, (%esp)	# wa,
 1783 0fa7 E8FCFFFF 		call	chThdCreateStatic	#
 1783      FF
 1784              	.LVL205:
 1785              		.loc 1 601 0
 1786 0fac 895C2408 		movl	%ebx, 8(%esp)	# D.2573,
 1787 0fb0 C7442410 		movl	$.LC3, 16(%esp)	#,
 1787      06000000 
 1788 0fb8 C744240C 		movl	$thread12, 12(%esp)	#,
 1788      90010000 
 1789 0fc0 C7442404 		movl	$17008, 4(%esp)	#,
 1789      70420000 
 1790              		.loc 1 600 0
 1791 0fc8 A3040000 		movl	%eax, threads+4	# D.2572, threads
 1791      00
 1792              		.loc 1 601 0
 1793 0fcd A1080000 		movl	wa+8, %eax	# wa, wa
 1793      00
 1794 0fd2 890424   		movl	%eax, (%esp)	# wa,
 1795 0fd5 E8FCFFFF 		call	chThdCreateStatic	#
 1795      FF
 1796              	.LVL206:
 1797              		.loc 1 602 0
 1798 0fda C7042400 		movl	$c1, (%esp)	#,
 1798      000000
 1799              		.loc 1 601 0
 1800 0fe1 A3080000 		movl	%eax, threads+8	# D.2572, threads
 1800      00
 1801              		.loc 1 602 0
 1802 0fe6 E8FCFFFF 		call	chCondSignal	#
 1802      FF
 1803              	.LVL207:
 1804              		.loc 1 603 0
 1805 0feb C7042400 		movl	$c1, (%esp)	#,
 1805      000000
 1806 0ff2 E8FCFFFF 		call	chCondSignal	#
 1806      FF
 1807              	.LVL208:
 1808              		.loc 1 604 0
 1809 0ff7 E8FCFFFF 		call	test_wait_threads	#
 1809      FF
 1810              	.LVL209:
 1811              		.loc 1 605 0
 1812 0ffc C7442404 		movl	$.LC6, 4(%esp)	#,
 1812      10000000 
 1813 1004 C7042401 		movl	$1, (%esp)	#,
 1813      000000
 1814 100b E8FCFFFF 		call	_test_assert_sequence	#
 1814      FF
 1815              	.LVL210:
 1816              		.loc 1 606 0
 1817 1010 83C428   		addl	$40, %esp	#,
 1818              		.cfi_def_cfa_offset 8
 1819 1013 5B       		popl	%ebx	#
 1820              		.cfi_restore 3
 1821              		.cfi_def_cfa_offset 4
 1822              	.LVL211:
GAS LISTING /tmp/ccnl8CWE.s 			page 51


 1823 1014 C3       		ret
 1824              		.cfi_endproc
 1825              	.LFE36:
 1826              		.size	mtx8_execute, .-mtx8_execute
 1827 1015 8D742600 		.p2align 4,,15
 1827      8DBC2700 
 1827      000000
 1828              		.type	thread11, @function
 1829              	thread11:
 1830              	.LFB34:
 1831              		.loc 1 573 0
 1832              		.cfi_startproc
 1833              	.LVL212:
 1834 1020 83EC1C   		subl	$28, %esp	#,
 1835              		.cfi_def_cfa_offset 32
 1836              		.loc 1 575 0
 1837 1023 C7042408 		movl	$m2, (%esp)	#,
 1837      000000
 1838 102a E8FCFFFF 		call	chMtxLock	#
 1838      FF
 1839              	.LVL213:
 1840              		.loc 1 576 0
 1841 102f C7042418 		movl	$m1, (%esp)	#,
 1841      000000
 1842 1036 E8FCFFFF 		call	chMtxLock	#
 1842      FF
 1843              	.LVL214:
 1844              		.loc 1 578 0
 1845 103b C7442404 		movl	$-1, 4(%esp)	#,
 1845      FFFFFFFF 
 1846 1043 C7042400 		movl	$c1, (%esp)	#,
 1846      000000
 1847 104a E8FCFFFF 		call	chCondWaitTimeout	#
 1847      FF
 1848              	.LVL215:
 1849              		.loc 1 582 0
 1850 104f 8B442420 		movl	32(%esp), %eax	# p, p
 1851 1053 0FBE00   		movsbl	(%eax), %eax	# MEM[(char *)p_5(D)], MEM[(char *)p_5(D)]
 1852 1056 890424   		movl	%eax, (%esp)	# MEM[(char *)p_5(D)],
 1853 1059 E8FCFFFF 		call	test_emit_token	#
 1853      FF
 1854              	.LVL216:
 1855              		.loc 1 583 0
 1856 105e E8FCFFFF 		call	chMtxUnlock	#
 1856      FF
 1857              	.LVL217:
 1858              		.loc 1 584 0
 1859 1063 E8FCFFFF 		call	chMtxUnlock	#
 1859      FF
 1860              	.LVL218:
 1861              		.loc 1 586 0
 1862 1068 31C0     		xorl	%eax, %eax	#
 1863 106a 83C41C   		addl	$28, %esp	#,
 1864              		.cfi_def_cfa_offset 4
 1865 106d C3       		ret
 1866              		.cfi_endproc
 1867              	.LFE34:
GAS LISTING /tmp/ccnl8CWE.s 			page 52


 1868              		.size	thread11, .-thread11
 1869              		.globl	patternmtx
 1870              		.section	.rodata
 1871              		.align 32
 1872              		.type	patternmtx, @object
 1873              		.size	patternmtx, 36
 1874              	patternmtx:
 1875 0000 00000000 		.long	testmtx1
 1876 0004 00000000 		.long	testmtx2
 1877 0008 00000000 		.long	testmtx3
 1878 000c 00000000 		.long	testmtx4
 1879 0010 00000000 		.long	testmtx5
 1880 0014 00000000 		.long	testmtx6
 1881 0018 00000000 		.long	testmtx7
 1882 001c 00000000 		.long	testmtx8
 1883 0020 00000000 		.long	0
 1884              		.globl	testmtx8
 1885              		.section	.rodata.str1.1
 1886              	.LC7:
 1887 0014 436F6E64 		.string	"CondVar, boost test"
 1887      5661722C 
 1887      20626F6F 
 1887      73742074 
 1887      65737400 
 1888              		.section	.rodata
 1889              		.align 4
 1890              		.type	testmtx8, @object
 1891              		.size	testmtx8, 16
 1892              	testmtx8:
 1893              	# name:
 1894 0024 14000000 		.long	.LC7
 1895              	# setup:
 1896 0028 E00D0000 		.long	mtx8_setup
 1897              	# teardown:
 1898 002c 00000000 		.long	0
 1899              	# execute:
 1900 0030 400F0000 		.long	mtx8_execute
 1901              		.globl	testmtx7
 1902              		.section	.rodata.str1.1
 1903              	.LC8:
 1904 0028 436F6E64 		.string	"CondVar, broadcast test"
 1904      5661722C 
 1904      2062726F 
 1904      61646361 
 1904      73742074 
 1905              		.section	.rodata
 1906              		.align 4
 1907              		.type	testmtx7, @object
 1908              		.size	testmtx7, 16
 1909              	testmtx7:
 1910              	# name:
 1911 0034 28000000 		.long	.LC8
 1912              	# setup:
 1913 0038 C00D0000 		.long	mtx7_setup
 1914              	# teardown:
 1915 003c 00000000 		.long	0
 1916              	# execute:
GAS LISTING /tmp/ccnl8CWE.s 			page 53


 1917 0040 100E0000 		.long	mtx7_execute
 1918              		.globl	testmtx6
 1919              		.section	.rodata.str1.1
 1920              	.LC9:
 1921 0040 436F6E64 		.string	"CondVar, signal test"
 1921      5661722C 
 1921      20736967 
 1921      6E616C20 
 1921      74657374 
 1922              		.section	.rodata
 1923              		.align 4
 1924              		.type	testmtx6, @object
 1925              		.size	testmtx6, 16
 1926              	testmtx6:
 1927              	# name:
 1928 0044 40000000 		.long	.LC9
 1929              	# setup:
 1930 0048 A00D0000 		.long	mtx6_setup
 1931              	# teardown:
 1932 004c 00000000 		.long	0
 1933              	# execute:
 1934 0050 F00B0000 		.long	mtx6_execute
 1935              		.globl	testmtx5
 1936              		.section	.rodata.str1.1
 1937              	.LC10:
 1938 0055 4D757465 		.string	"Mutexes, status"
 1938      7865732C 
 1938      20737461 
 1938      74757300 
 1939              		.section	.rodata
 1940              		.align 4
 1941              		.type	testmtx5, @object
 1942              		.size	testmtx5, 16
 1943              	testmtx5:
 1944              	# name:
 1945 0054 55000000 		.long	.LC10
 1946              	# setup:
 1947 0058 40020000 		.long	mtx5_setup
 1948              	# teardown:
 1949 005c 00000000 		.long	0
 1950              	# execute:
 1951 0060 C00A0000 		.long	mtx5_execute
 1952              		.globl	testmtx4
 1953              		.section	.rodata.str1.1
 1954              	.LC11:
 1955 0065 4D757465 		.string	"Mutexes, priority return"
 1955      7865732C 
 1955      20707269 
 1955      6F726974 
 1955      79207265 
 1956              		.section	.rodata
 1957              		.align 4
 1958              		.type	testmtx4, @object
 1959              		.size	testmtx4, 16
 1960              	testmtx4:
 1961              	# name:
 1962 0064 65000000 		.long	.LC11
GAS LISTING /tmp/ccnl8CWE.s 			page 54


 1963              	# setup:
 1964 0068 20020000 		.long	mtx4_setup
 1965              	# teardown:
 1966 006c 00000000 		.long	0
 1967              	# execute:
 1968 0070 40070000 		.long	mtx4_execute
 1969              		.globl	testmtx3
 1970              		.section	.rodata.str1.4,"aMS",@progbits,1
 1971              		.align 4
 1972              	.LC12:
 1973 0000 4D757465 		.string	"Mutexes, priority inheritance, complex case"
 1973      7865732C 
 1973      20707269 
 1973      6F726974 
 1973      7920696E 
 1974              		.section	.rodata
 1975              		.align 4
 1976              		.type	testmtx3, @object
 1977              		.size	testmtx3, 16
 1978              	testmtx3:
 1979              	# name:
 1980 0074 00000000 		.long	.LC12
 1981              	# setup:
 1982 0078 00020000 		.long	mtx3_setup
 1983              	# teardown:
 1984 007c 00000000 		.long	0
 1985              	# execute:
 1986 0080 60030000 		.long	mtx3_execute
 1987              		.globl	testmtx2
 1988              		.section	.rodata.str1.4
 1989              		.align 4
 1990              	.LC13:
 1991 002c 4D757465 		.string	"Mutexes, priority inheritance, simple case"
 1991      7865732C 
 1991      20707269 
 1991      6F726974 
 1991      7920696E 
 1992              		.section	.rodata
 1993              		.align 4
 1994              		.type	testmtx2, @object
 1995              		.size	testmtx2, 16
 1996              	testmtx2:
 1997              	# name:
 1998 0084 2C000000 		.long	.LC13
 1999              	# setup:
 2000 0088 E0010000 		.long	mtx2_setup
 2001              	# teardown:
 2002 008c 00000000 		.long	0
 2003              	# execute:
 2004 0090 60020000 		.long	mtx2_execute
 2005              		.globl	testmtx1
 2006              		.section	.rodata.str1.4
 2007 0057 00       		.align 4
 2008              	.LC14:
 2009 0058 4D757465 		.string	"Mutexes, priority enqueuing test"
 2009      7865732C 
 2009      20707269 
GAS LISTING /tmp/ccnl8CWE.s 			page 55


 2009      6F726974 
 2009      7920656E 
 2010              		.section	.rodata
 2011              		.align 4
 2012              		.type	testmtx1, @object
 2013              		.size	testmtx1, 16
 2014              	testmtx1:
 2015              	# name:
 2016 0094 58000000 		.long	.LC14
 2017              	# setup:
 2018 0098 C0010000 		.long	mtx1_setup
 2019              	# teardown:
 2020 009c 00000000 		.long	0
 2021              	# execute:
 2022 00a0 00000000 		.long	mtx1_execute
 2023              		.data
 2024              		.align 4
 2025              		.type	c1, @object
 2026              		.size	c1, 8
 2027              	c1:
 2028              	# c_queue:
 2029              	# p_next:
 2030 0000 00000000 		.long	c1
 2031              	# p_prev:
 2032 0004 00000000 		.long	c1
 2033              		.align 4
 2034              		.type	m2, @object
 2035              		.size	m2, 16
 2036              	m2:
 2037              	# m_queue:
 2038              	# p_next:
 2039 0008 08000000 		.long	m2
 2040              	# p_prev:
 2041 000c 08000000 		.long	m2
 2042              	# m_owner:
 2043 0010 00000000 		.long	0
 2044              	# m_next:
 2045 0014 00000000 		.long	0
 2046              		.align 4
 2047              		.type	m1, @object
 2048              		.size	m1, 16
 2049              	m1:
 2050              	# m_queue:
 2051              	# p_next:
 2052 0018 18000000 		.long	m1
 2053              	# p_prev:
 2054 001c 18000000 		.long	m1
 2055              	# m_owner:
 2056 0020 00000000 		.long	0
 2057              	# m_next:
 2058 0024 00000000 		.long	0
 2059              		.text
 2060              	.Letext0:
 2061              		.file 2 "/usr/lib/gcc/x86_64-linux-gnu/4.8/include/stddef.h"
 2062              		.file 3 "/usr/include/stdint.h"
 2063              		.file 4 "../../../os/ports/GCC/SIMIA32/chtypes.h"
 2064              		.file 5 "../../../os/kernel/include/chlists.h"
GAS LISTING /tmp/ccnl8CWE.s 			page 56


 2065              		.file 6 "../../../os/kernel/include/chthreads.h"
 2066              		.file 7 "../../../os/ports/GCC/SIMIA32/chcore.h"
 2067              		.file 8 "../../../os/kernel/include/chvt.h"
 2068              		.file 9 "../../../os/kernel/include/chschd.h"
 2069              		.file 10 "../../../os/kernel/include/chmtx.h"
 2070              		.file 11 "../../../os/kernel/include/chcond.h"
 2071              		.file 12 "../../../test/test.h"
 2072              		.section	.debug_info,"",@progbits
 2073              	.Ldebug_info0:
 2074 0000 261C0000 		.long	0x1c26
 2075 0004 0400     		.value	0x4
 2076 0006 00000000 		.long	.Ldebug_abbrev0
 2077 000a 04       		.byte	0x4
 2078 000b 01       		.uleb128 0x1
 2079 000c E9030000 		.long	.LASF147
 2080 0010 01       		.byte	0x1
 2081 0011 24020000 		.long	.LASF148
 2082 0015 F6000000 		.long	.LASF149
 2083 0019 00000000 		.long	.Ltext0
 2084 001d 6E100000 		.long	.Letext0-.Ltext0
 2085 0021 00000000 		.long	.Ldebug_line0
 2086 0025 02       		.uleb128 0x2
 2087 0026 04       		.byte	0x4
 2088 0027 05       		.byte	0x5
 2089 0028 696E7400 		.string	"int"
 2090 002c 03       		.uleb128 0x3
 2091 002d 2F000000 		.long	.LASF4
 2092 0031 02       		.byte	0x2
 2093 0032 D4       		.byte	0xd4
 2094 0033 37000000 		.long	0x37
 2095 0037 04       		.uleb128 0x4
 2096 0038 04       		.byte	0x4
 2097 0039 07       		.byte	0x7
 2098 003a C6010000 		.long	.LASF0
 2099 003e 04       		.uleb128 0x4
 2100 003f 04       		.byte	0x4
 2101 0040 05       		.byte	0x5
 2102 0041 40010000 		.long	.LASF1
 2103 0045 04       		.uleb128 0x4
 2104 0046 01       		.byte	0x1
 2105 0047 06       		.byte	0x6
 2106 0048 D3000000 		.long	.LASF2
 2107 004c 04       		.uleb128 0x4
 2108 004d 02       		.byte	0x2
 2109 004e 05       		.byte	0x5
 2110 004f 6A040000 		.long	.LASF3
 2111 0053 03       		.uleb128 0x3
 2112 0054 D3030000 		.long	.LASF5
 2113 0058 03       		.byte	0x3
 2114 0059 26       		.byte	0x26
 2115 005a 25000000 		.long	0x25
 2116 005e 04       		.uleb128 0x4
 2117 005f 08       		.byte	0x8
 2118 0060 05       		.byte	0x5
 2119 0061 C5000000 		.long	.LASF6
 2120 0065 03       		.uleb128 0x3
 2121 0066 D8050000 		.long	.LASF7
GAS LISTING /tmp/ccnl8CWE.s 			page 57


 2122 006a 03       		.byte	0x3
 2123 006b 30       		.byte	0x30
 2124 006c 70000000 		.long	0x70
 2125 0070 04       		.uleb128 0x4
 2126 0071 01       		.byte	0x1
 2127 0072 08       		.byte	0x8
 2128 0073 DB030000 		.long	.LASF8
 2129 0077 04       		.uleb128 0x4
 2130 0078 02       		.byte	0x2
 2131 0079 07       		.byte	0x7
 2132 007a 11020000 		.long	.LASF9
 2133 007e 03       		.uleb128 0x3
 2134 007f CE040000 		.long	.LASF10
 2135 0083 03       		.byte	0x3
 2136 0084 33       		.byte	0x33
 2137 0085 37000000 		.long	0x37
 2138 0089 04       		.uleb128 0x4
 2139 008a 08       		.byte	0x8
 2140 008b 07       		.byte	0x7
 2141 008c 7C000000 		.long	.LASF11
 2142 0090 03       		.uleb128 0x3
 2143 0091 E7000000 		.long	.LASF12
 2144 0095 04       		.byte	0x4
 2145 0096 23       		.byte	0x23
 2146 0097 9B000000 		.long	0x9b
 2147 009b 04       		.uleb128 0x4
 2148 009c 01       		.byte	0x1
 2149 009d 02       		.byte	0x2
 2150 009e CD030000 		.long	.LASF13
 2151 00a2 03       		.uleb128 0x3
 2152 00a3 6B020000 		.long	.LASF14
 2153 00a7 04       		.byte	0x4
 2154 00a8 24       		.byte	0x24
 2155 00a9 65000000 		.long	0x65
 2156 00ad 03       		.uleb128 0x3
 2157 00ae 49010000 		.long	.LASF15
 2158 00b2 04       		.byte	0x4
 2159 00b3 25       		.byte	0x25
 2160 00b4 65000000 		.long	0x65
 2161 00b8 03       		.uleb128 0x3
 2162 00b9 A0030000 		.long	.LASF16
 2163 00bd 04       		.byte	0x4
 2164 00be 26       		.byte	0x26
 2165 00bf 65000000 		.long	0x65
 2166 00c3 03       		.uleb128 0x3
 2167 00c4 2E010000 		.long	.LASF17
 2168 00c8 04       		.byte	0x4
 2169 00c9 27       		.byte	0x27
 2170 00ca 65000000 		.long	0x65
 2171 00ce 03       		.uleb128 0x3
 2172 00cf B7030000 		.long	.LASF18
 2173 00d3 04       		.byte	0x4
 2174 00d4 28       		.byte	0x28
 2175 00d5 7E000000 		.long	0x7e
 2176 00d9 03       		.uleb128 0x3
 2177 00da 3C020000 		.long	.LASF19
 2178 00de 04       		.byte	0x4
GAS LISTING /tmp/ccnl8CWE.s 			page 58


 2179 00df 29       		.byte	0x29
 2180 00e0 53000000 		.long	0x53
 2181 00e4 03       		.uleb128 0x3
 2182 00e5 7F020000 		.long	.LASF20
 2183 00e9 04       		.byte	0x4
 2184 00ea 2B       		.byte	0x2b
 2185 00eb 7E000000 		.long	0x7e
 2186 00ef 03       		.uleb128 0x3
 2187 00f0 42050000 		.long	.LASF21
 2188 00f4 04       		.byte	0x4
 2189 00f5 2D       		.byte	0x2d
 2190 00f6 7E000000 		.long	0x7e
 2191 00fa 03       		.uleb128 0x3
 2192 00fb AB040000 		.long	.LASF22
 2193 00ff 05       		.byte	0x5
 2194 0100 2A       		.byte	0x2a
 2195 0101 05010000 		.long	0x105
 2196 0105 05       		.uleb128 0x5
 2197 0106 AB040000 		.long	.LASF22
 2198 010a 48       		.byte	0x48
 2199 010b 06       		.byte	0x6
 2200 010c 5E       		.byte	0x5e
 2201 010d 02020000 		.long	0x202
 2202 0111 06       		.uleb128 0x6
 2203 0112 9C040000 		.long	.LASF23
 2204 0116 06       		.byte	0x6
 2205 0117 5F       		.byte	0x5f
 2206 0118 23020000 		.long	0x223
 2207 011c 00       		.byte	0
 2208 011d 06       		.uleb128 0x6
 2209 011e A8030000 		.long	.LASF24
 2210 0122 06       		.byte	0x6
 2211 0123 61       		.byte	0x61
 2212 0124 23020000 		.long	0x223
 2213 0128 04       		.byte	0x4
 2214 0129 06       		.uleb128 0x6
 2215 012a BE000000 		.long	.LASF25
 2216 012e 06       		.byte	0x6
 2217 012f 63       		.byte	0x63
 2218 0130 CE000000 		.long	0xce
 2219 0134 08       		.byte	0x8
 2220 0135 06       		.uleb128 0x6
 2221 0136 4B060000 		.long	.LASF26
 2222 013a 06       		.byte	0x6
 2223 013b 64       		.byte	0x64
 2224 013c B1020000 		.long	0x2b1
 2225 0140 0C       		.byte	0xc
 2226 0141 06       		.uleb128 0x6
 2227 0142 76010000 		.long	.LASF27
 2228 0146 06       		.byte	0x6
 2229 0147 66       		.byte	0x66
 2230 0148 23020000 		.long	0x223
 2231 014c 10       		.byte	0x10
 2232 014d 06       		.uleb128 0x6
 2233 014e FA020000 		.long	.LASF28
 2234 0152 06       		.byte	0x6
 2235 0153 67       		.byte	0x67
GAS LISTING /tmp/ccnl8CWE.s 			page 59


 2236 0154 23020000 		.long	0x223
 2237 0158 14       		.byte	0x14
 2238 0159 06       		.uleb128 0x6
 2239 015a 04060000 		.long	.LASF29
 2240 015e 06       		.byte	0x6
 2241 015f 6E       		.byte	0x6e
 2242 0160 8B040000 		.long	0x48b
 2243 0164 18       		.byte	0x18
 2244 0165 06       		.uleb128 0x6
 2245 0166 74040000 		.long	.LASF30
 2246 016a 06       		.byte	0x6
 2247 016b 79       		.byte	0x79
 2248 016c AD000000 		.long	0xad
 2249 0170 1C       		.byte	0x1c
 2250 0171 06       		.uleb128 0x6
 2251 0172 A3040000 		.long	.LASF31
 2252 0176 06       		.byte	0x6
 2253 0177 7D       		.byte	0x7d
 2254 0178 A2000000 		.long	0xa2
 2255 017c 1D       		.byte	0x1d
 2256 017d 06       		.uleb128 0x6
 2257 017e B8050000 		.long	.LASF32
 2258 0182 06       		.byte	0x6
 2259 0183 82       		.byte	0x82
 2260 0184 B8000000 		.long	0xb8
 2261 0188 1E       		.byte	0x1e
 2262 0189 06       		.uleb128 0x6
 2263 018a 7C040000 		.long	.LASF33
 2264 018e 06       		.byte	0x6
 2265 018f 88       		.byte	0x88
 2266 0190 C3000000 		.long	0xc3
 2267 0194 1F       		.byte	0x1f
 2268 0195 06       		.uleb128 0x6
 2269 0196 81050000 		.long	.LASF34
 2270 019a 06       		.byte	0x6
 2271 019b 8F       		.byte	0x8f
 2272 019c 84030000 		.long	0x384
 2273 01a0 20       		.byte	0x20
 2274 01a1 07       		.uleb128 0x7
 2275 01a2 705F7500 		.string	"p_u"
 2276 01a6 06       		.byte	0x6
 2277 01a7 B4       		.byte	0xb4
 2278 01a8 56040000 		.long	0x456
 2279 01ac 24       		.byte	0x24
 2280 01ad 06       		.uleb128 0x6
 2281 01ae 51060000 		.long	.LASF35
 2282 01b2 06       		.byte	0x6
 2283 01b3 B9       		.byte	0xb9
 2284 01b4 49020000 		.long	0x249
 2285 01b8 28       		.byte	0x28
 2286 01b9 06       		.uleb128 0x6
 2287 01ba E6010000 		.long	.LASF36
 2288 01be 06       		.byte	0x6
 2289 01bf BF       		.byte	0xbf
 2290 01c0 29020000 		.long	0x229
 2291 01c4 2C       		.byte	0x2c
 2292 01c5 06       		.uleb128 0x6
GAS LISTING /tmp/ccnl8CWE.s 			page 60


 2293 01c6 22000000 		.long	.LASF37
 2294 01ca 06       		.byte	0x6
 2295 01cb C3       		.byte	0xc3
 2296 01cc D9000000 		.long	0xd9
 2297 01d0 34       		.byte	0x34
 2298 01d1 06       		.uleb128 0x6
 2299 01d2 C3040000 		.long	.LASF38
 2300 01d6 06       		.byte	0x6
 2301 01d7 C9       		.byte	0xc9
 2302 01d8 E4000000 		.long	0xe4
 2303 01dc 38       		.byte	0x38
 2304 01dd 06       		.uleb128 0x6
 2305 01de 60040000 		.long	.LASF39
 2306 01e2 06       		.byte	0x6
 2307 01e3 D0       		.byte	0xd0
 2308 01e4 9D040000 		.long	0x49d
 2309 01e8 3C       		.byte	0x3c
 2310 01e9 06       		.uleb128 0x6
 2311 01ea 4C050000 		.long	.LASF40
 2312 01ee 06       		.byte	0x6
 2313 01ef D4       		.byte	0xd4
 2314 01f0 CE000000 		.long	0xce
 2315 01f4 40       		.byte	0x40
 2316 01f5 06       		.uleb128 0x6
 2317 01f6 DF000000 		.long	.LASF41
 2318 01fa 06       		.byte	0x6
 2319 01fb DA       		.byte	0xda
 2320 01fc 66020000 		.long	0x266
 2321 0200 44       		.byte	0x44
 2322 0201 00       		.byte	0
 2323 0202 08       		.uleb128 0x8
 2324 0203 08       		.byte	0x8
 2325 0204 05       		.byte	0x5
 2326 0205 61       		.byte	0x61
 2327 0206 23020000 		.long	0x223
 2328 020a 06       		.uleb128 0x6
 2329 020b 9C040000 		.long	.LASF23
 2330 020f 05       		.byte	0x5
 2331 0210 62       		.byte	0x62
 2332 0211 23020000 		.long	0x223
 2333 0215 00       		.byte	0
 2334 0216 06       		.uleb128 0x6
 2335 0217 A8030000 		.long	.LASF24
 2336 021b 05       		.byte	0x5
 2337 021c 64       		.byte	0x64
 2338 021d 23020000 		.long	0x223
 2339 0221 04       		.byte	0x4
 2340 0222 00       		.byte	0
 2341 0223 09       		.uleb128 0x9
 2342 0224 04       		.byte	0x4
 2343 0225 FA000000 		.long	0xfa
 2344 0229 03       		.uleb128 0x3
 2345 022a 10030000 		.long	.LASF42
 2346 022e 05       		.byte	0x5
 2347 022f 66       		.byte	0x66
 2348 0230 02020000 		.long	0x202
 2349 0234 08       		.uleb128 0x8
GAS LISTING /tmp/ccnl8CWE.s 			page 61


 2350 0235 04       		.byte	0x4
 2351 0236 05       		.byte	0x5
 2352 0237 6B       		.byte	0x6b
 2353 0238 49020000 		.long	0x249
 2354 023c 06       		.uleb128 0x6
 2355 023d 9C040000 		.long	.LASF23
 2356 0241 05       		.byte	0x5
 2357 0242 6D       		.byte	0x6d
 2358 0243 23020000 		.long	0x223
 2359 0247 00       		.byte	0
 2360 0248 00       		.byte	0
 2361 0249 03       		.uleb128 0x3
 2362 024a 73020000 		.long	.LASF43
 2363 024e 05       		.byte	0x5
 2364 024f 70       		.byte	0x70
 2365 0250 34020000 		.long	0x234
 2366 0254 04       		.uleb128 0x4
 2367 0255 04       		.byte	0x4
 2368 0256 07       		.byte	0x7
 2369 0257 C2020000 		.long	.LASF44
 2370 025b 03       		.uleb128 0x3
 2371 025c 35060000 		.long	.LASF45
 2372 0260 07       		.byte	0x7
 2373 0261 4B       		.byte	0x4b
 2374 0262 66020000 		.long	0x266
 2375 0266 0A       		.uleb128 0xa
 2376 0267 04       		.byte	0x4
 2377 0268 05       		.uleb128 0x5
 2378 0269 88050000 		.long	.LASF46
 2379 026d 14       		.byte	0x14
 2380 026e 07       		.byte	0x7
 2381 026f 59       		.byte	0x59
 2382 0270 B1020000 		.long	0x2b1
 2383 0274 07       		.uleb128 0x7
 2384 0275 65627800 		.string	"ebx"
 2385 0279 07       		.byte	0x7
 2386 027a 5A       		.byte	0x5a
 2387 027b 5B020000 		.long	0x25b
 2388 027f 00       		.byte	0
 2389 0280 07       		.uleb128 0x7
 2390 0281 65646900 		.string	"edi"
 2391 0285 07       		.byte	0x7
 2392 0286 5B       		.byte	0x5b
 2393 0287 5B020000 		.long	0x25b
 2394 028b 04       		.byte	0x4
 2395 028c 07       		.uleb128 0x7
 2396 028d 65736900 		.string	"esi"
 2397 0291 07       		.byte	0x7
 2398 0292 5C       		.byte	0x5c
 2399 0293 5B020000 		.long	0x25b
 2400 0297 08       		.byte	0x8
 2401 0298 07       		.uleb128 0x7
 2402 0299 65627000 		.string	"ebp"
 2403 029d 07       		.byte	0x7
 2404 029e 5D       		.byte	0x5d
 2405 029f 5B020000 		.long	0x25b
 2406 02a3 0C       		.byte	0xc
GAS LISTING /tmp/ccnl8CWE.s 			page 62


 2407 02a4 07       		.uleb128 0x7
 2408 02a5 65697000 		.string	"eip"
 2409 02a9 07       		.byte	0x7
 2410 02aa 5E       		.byte	0x5e
 2411 02ab 5B020000 		.long	0x25b
 2412 02af 10       		.byte	0x10
 2413 02b0 00       		.byte	0
 2414 02b1 05       		.uleb128 0x5
 2415 02b2 FF010000 		.long	.LASF47
 2416 02b6 04       		.byte	0x4
 2417 02b7 07       		.byte	0x7
 2418 02b8 66       		.byte	0x66
 2419 02b9 CA020000 		.long	0x2ca
 2420 02bd 07       		.uleb128 0x7
 2421 02be 65737000 		.string	"esp"
 2422 02c2 07       		.byte	0x7
 2423 02c3 67       		.byte	0x67
 2424 02c4 CA020000 		.long	0x2ca
 2425 02c8 00       		.byte	0
 2426 02c9 00       		.byte	0
 2427 02ca 09       		.uleb128 0x9
 2428 02cb 04       		.byte	0x4
 2429 02cc D0020000 		.long	0x2d0
 2430 02d0 0B       		.uleb128 0xb
 2431 02d1 68020000 		.long	0x268
 2432 02d5 03       		.uleb128 0x3
 2433 02d6 57050000 		.long	.LASF48
 2434 02da 08       		.byte	0x8
 2435 02db 58       		.byte	0x58
 2436 02dc E0020000 		.long	0x2e0
 2437 02e0 09       		.uleb128 0x9
 2438 02e1 04       		.byte	0x4
 2439 02e2 E6020000 		.long	0x2e6
 2440 02e6 0C       		.uleb128 0xc
 2441 02e7 F1020000 		.long	0x2f1
 2442 02eb 0D       		.uleb128 0xd
 2443 02ec 66020000 		.long	0x266
 2444 02f0 00       		.byte	0
 2445 02f1 03       		.uleb128 0x3
 2446 02f2 DF040000 		.long	.LASF49
 2447 02f6 08       		.byte	0x8
 2448 02f7 5D       		.byte	0x5d
 2449 02f8 FC020000 		.long	0x2fc
 2450 02fc 05       		.uleb128 0x5
 2451 02fd DF040000 		.long	.LASF49
 2452 0301 14       		.byte	0x14
 2453 0302 08       		.byte	0x8
 2454 0303 64       		.byte	0x64
 2455 0304 45030000 		.long	0x345
 2456 0308 06       		.uleb128 0x6
 2457 0309 D3010000 		.long	.LASF50
 2458 030d 08       		.byte	0x8
 2459 030e 65       		.byte	0x65
 2460 030f 45030000 		.long	0x345
 2461 0313 00       		.byte	0
 2462 0314 06       		.uleb128 0x6
 2463 0315 A4010000 		.long	.LASF51
GAS LISTING /tmp/ccnl8CWE.s 			page 63


 2464 0319 08       		.byte	0x8
 2465 031a 67       		.byte	0x67
 2466 031b 45030000 		.long	0x345
 2467 031f 04       		.byte	0x4
 2468 0320 06       		.uleb128 0x6
 2469 0321 BA020000 		.long	.LASF52
 2470 0325 08       		.byte	0x8
 2471 0326 69       		.byte	0x69
 2472 0327 EF000000 		.long	0xef
 2473 032b 08       		.byte	0x8
 2474 032c 06       		.uleb128 0x6
 2475 032d CB020000 		.long	.LASF53
 2476 0331 08       		.byte	0x8
 2477 0332 6A       		.byte	0x6a
 2478 0333 D5020000 		.long	0x2d5
 2479 0337 0C       		.byte	0xc
 2480 0338 06       		.uleb128 0x6
 2481 0339 8F050000 		.long	.LASF54
 2482 033d 08       		.byte	0x8
 2483 033e 6C       		.byte	0x6c
 2484 033f 66020000 		.long	0x266
 2485 0343 10       		.byte	0x10
 2486 0344 00       		.byte	0
 2487 0345 09       		.uleb128 0x9
 2488 0346 04       		.byte	0x4
 2489 0347 F1020000 		.long	0x2f1
 2490 034b 08       		.uleb128 0x8
 2491 034c 10       		.byte	0x10
 2492 034d 08       		.byte	0x8
 2493 034e 76       		.byte	0x76
 2494 034f 84030000 		.long	0x384
 2495 0353 06       		.uleb128 0x6
 2496 0354 D3010000 		.long	.LASF50
 2497 0358 08       		.byte	0x8
 2498 0359 77       		.byte	0x77
 2499 035a 45030000 		.long	0x345
 2500 035e 00       		.byte	0
 2501 035f 06       		.uleb128 0x6
 2502 0360 A4010000 		.long	.LASF51
 2503 0364 08       		.byte	0x8
 2504 0365 79       		.byte	0x79
 2505 0366 45030000 		.long	0x345
 2506 036a 04       		.byte	0x4
 2507 036b 06       		.uleb128 0x6
 2508 036c BA020000 		.long	.LASF52
 2509 0370 08       		.byte	0x8
 2510 0371 7B       		.byte	0x7b
 2511 0372 EF000000 		.long	0xef
 2512 0376 08       		.byte	0x8
 2513 0377 06       		.uleb128 0x6
 2514 0378 2A060000 		.long	.LASF55
 2515 037c 08       		.byte	0x8
 2516 037d 7C       		.byte	0x7c
 2517 037e 84030000 		.long	0x384
 2518 0382 0C       		.byte	0xc
 2519 0383 00       		.byte	0
 2520 0384 0B       		.uleb128 0xb
GAS LISTING /tmp/ccnl8CWE.s 			page 64


 2521 0385 EF000000 		.long	0xef
 2522 0389 03       		.uleb128 0x3
 2523 038a 3C060000 		.long	.LASF56
 2524 038e 08       		.byte	0x8
 2525 038f 7D       		.byte	0x7d
 2526 0390 4B030000 		.long	0x34b
 2527 0394 08       		.uleb128 0x8
 2528 0395 1C       		.byte	0x1c
 2529 0396 09       		.byte	0x9
 2530 0397 5E       		.byte	0x5e
 2531 0398 E5030000 		.long	0x3e5
 2532 039c 06       		.uleb128 0x6
 2533 039d D7040000 		.long	.LASF57
 2534 03a1 09       		.byte	0x9
 2535 03a2 5F       		.byte	0x5f
 2536 03a3 29020000 		.long	0x229
 2537 03a7 00       		.byte	0
 2538 03a8 06       		.uleb128 0x6
 2539 03a9 8E040000 		.long	.LASF58
 2540 03ad 09       		.byte	0x9
 2541 03ae 60       		.byte	0x60
 2542 03af CE000000 		.long	0xce
 2543 03b3 08       		.byte	0x8
 2544 03b4 06       		.uleb128 0x6
 2545 03b5 0A030000 		.long	.LASF59
 2546 03b9 09       		.byte	0x9
 2547 03ba 62       		.byte	0x62
 2548 03bb B1020000 		.long	0x2b1
 2549 03bf 0C       		.byte	0xc
 2550 03c0 06       		.uleb128 0x6
 2551 03c1 9C010000 		.long	.LASF60
 2552 03c5 09       		.byte	0x9
 2553 03c6 65       		.byte	0x65
 2554 03c7 23020000 		.long	0x223
 2555 03cb 10       		.byte	0x10
 2556 03cc 06       		.uleb128 0x6
 2557 03cd 55030000 		.long	.LASF61
 2558 03d1 09       		.byte	0x9
 2559 03d2 66       		.byte	0x66
 2560 03d3 23020000 		.long	0x223
 2561 03d7 14       		.byte	0x14
 2562 03d8 06       		.uleb128 0x6
 2563 03d9 4B030000 		.long	.LASF62
 2564 03dd 09       		.byte	0x9
 2565 03de 69       		.byte	0x69
 2566 03df 23020000 		.long	0x223
 2567 03e3 18       		.byte	0x18
 2568 03e4 00       		.byte	0
 2569 03e5 03       		.uleb128 0x3
 2570 03e6 BF050000 		.long	.LASF63
 2571 03ea 09       		.byte	0x9
 2572 03eb 6B       		.byte	0x6b
 2573 03ec 94030000 		.long	0x394
 2574 03f0 05       		.uleb128 0x5
 2575 03f1 98020000 		.long	.LASF64
 2576 03f5 10       		.byte	0x10
 2577 03f6 0A       		.byte	0xa
GAS LISTING /tmp/ccnl8CWE.s 			page 65


 2578 03f7 2C       		.byte	0x2c
 2579 03f8 21040000 		.long	0x421
 2580 03fc 06       		.uleb128 0x6
 2581 03fd EE000000 		.long	.LASF65
 2582 0401 0A       		.byte	0xa
 2583 0402 2D       		.byte	0x2d
 2584 0403 29020000 		.long	0x229
 2585 0407 00       		.byte	0
 2586 0408 06       		.uleb128 0x6
 2587 0409 43060000 		.long	.LASF66
 2588 040d 0A       		.byte	0xa
 2589 040e 2F       		.byte	0x2f
 2590 040f 23020000 		.long	0x223
 2591 0413 08       		.byte	0x8
 2592 0414 06       		.uleb128 0x6
 2593 0415 28000000 		.long	.LASF67
 2594 0419 0A       		.byte	0xa
 2595 041a 31       		.byte	0x31
 2596 041b 21040000 		.long	0x421
 2597 041f 0C       		.byte	0xc
 2598 0420 00       		.byte	0
 2599 0421 09       		.uleb128 0x9
 2600 0422 04       		.byte	0x4
 2601 0423 F0030000 		.long	0x3f0
 2602 0427 03       		.uleb128 0x3
 2603 0428 98020000 		.long	.LASF64
 2604 042c 0A       		.byte	0xa
 2605 042d 33       		.byte	0x33
 2606 042e F0030000 		.long	0x3f0
 2607 0432 05       		.uleb128 0x5
 2608 0433 38010000 		.long	.LASF68
 2609 0437 08       		.byte	0x8
 2610 0438 0B       		.byte	0xb
 2611 0439 36       		.byte	0x36
 2612 043a 4B040000 		.long	0x44b
 2613 043e 06       		.uleb128 0x6
 2614 043f B2040000 		.long	.LASF69
 2615 0443 0B       		.byte	0xb
 2616 0444 37       		.byte	0x37
 2617 0445 29020000 		.long	0x229
 2618 0449 00       		.byte	0
 2619 044a 00       		.byte	0
 2620 044b 03       		.uleb128 0x3
 2621 044c 38010000 		.long	.LASF68
 2622 0450 0B       		.byte	0xb
 2623 0451 38       		.byte	0x38
 2624 0452 32040000 		.long	0x432
 2625 0456 0E       		.uleb128 0xe
 2626 0457 04       		.byte	0x4
 2627 0458 06       		.byte	0x6
 2628 0459 96       		.byte	0x96
 2629 045a 8B040000 		.long	0x48b
 2630 045e 0F       		.uleb128 0xf
 2631 045f 3B000000 		.long	.LASF70
 2632 0463 06       		.byte	0x6
 2633 0464 9D       		.byte	0x9d
 2634 0465 D9000000 		.long	0xd9
GAS LISTING /tmp/ccnl8CWE.s 			page 66


 2635 0469 0F       		.uleb128 0xf
 2636 046a 9F000000 		.long	.LASF71
 2637 046e 06       		.byte	0x6
 2638 046f A4       		.byte	0xa4
 2639 0470 D9000000 		.long	0xd9
 2640 0474 0F       		.uleb128 0xf
 2641 0475 FD050000 		.long	.LASF72
 2642 0479 06       		.byte	0x6
 2643 047a AB       		.byte	0xab
 2644 047b 66020000 		.long	0x266
 2645 047f 0F       		.uleb128 0xf
 2646 0480 95040000 		.long	.LASF73
 2647 0484 06       		.byte	0x6
 2648 0485 B2       		.byte	0xb2
 2649 0486 E4000000 		.long	0xe4
 2650 048a 00       		.byte	0
 2651 048b 09       		.uleb128 0x9
 2652 048c 04       		.byte	0x4
 2653 048d 91040000 		.long	0x491
 2654 0491 10       		.uleb128 0x10
 2655 0492 96040000 		.long	0x496
 2656 0496 04       		.uleb128 0x4
 2657 0497 01       		.byte	0x1
 2658 0498 06       		.byte	0x6
 2659 0499 22050000 		.long	.LASF74
 2660 049d 09       		.uleb128 0x9
 2661 049e 04       		.byte	0x4
 2662 049f 27040000 		.long	0x427
 2663 04a3 03       		.uleb128 0x3
 2664 04a4 0F000000 		.long	.LASF75
 2665 04a8 06       		.byte	0x6
 2666 04a9 E5       		.byte	0xe5
 2667 04aa AE040000 		.long	0x4ae
 2668 04ae 09       		.uleb128 0x9
 2669 04af 04       		.byte	0x4
 2670 04b0 B4040000 		.long	0x4b4
 2671 04b4 11       		.uleb128 0x11
 2672 04b5 D9000000 		.long	0xd9
 2673 04b9 C3040000 		.long	0x4c3
 2674 04bd 0D       		.uleb128 0xd
 2675 04be 66020000 		.long	0x266
 2676 04c2 00       		.byte	0
 2677 04c3 05       		.uleb128 0x5
 2678 04c4 BA040000 		.long	.LASF76
 2679 04c8 10       		.byte	0x10
 2680 04c9 0C       		.byte	0xc
 2681 04ca 3B       		.byte	0x3b
 2682 04cb 00050000 		.long	0x500
 2683 04cf 06       		.uleb128 0x6
 2684 04d0 FA010000 		.long	.LASF77
 2685 04d4 0C       		.byte	0xc
 2686 04d5 3C       		.byte	0x3c
 2687 04d6 8B040000 		.long	0x48b
 2688 04da 00       		.byte	0
 2689 04db 06       		.uleb128 0x6
 2690 04dc 1D030000 		.long	.LASF78
 2691 04e0 0C       		.byte	0xc
GAS LISTING /tmp/ccnl8CWE.s 			page 67


 2692 04e1 3D       		.byte	0x3d
 2693 04e2 01050000 		.long	0x501
 2694 04e6 04       		.byte	0x4
 2695 04e7 06       		.uleb128 0x6
 2696 04e8 F1010000 		.long	.LASF79
 2697 04ec 0C       		.byte	0xc
 2698 04ed 3E       		.byte	0x3e
 2699 04ee 01050000 		.long	0x501
 2700 04f2 08       		.byte	0x8
 2701 04f3 06       		.uleb128 0x6
 2702 04f4 AF030000 		.long	.LASF80
 2703 04f8 0C       		.byte	0xc
 2704 04f9 3F       		.byte	0x3f
 2705 04fa 01050000 		.long	0x501
 2706 04fe 0C       		.byte	0xc
 2707 04ff 00       		.byte	0
 2708 0500 12       		.uleb128 0x12
 2709 0501 09       		.uleb128 0x9
 2710 0502 04       		.byte	0x4
 2711 0503 00050000 		.long	0x500
 2712 0507 13       		.uleb128 0x13
 2713 0508 B1000000 		.long	.LASF83
 2714 050c 01       		.byte	0x1
 2715 050d 61       		.byte	0x61
 2716 050e 00000000 		.long	.LFB9
 2717 0512 52010000 		.long	.LFE9-.LFB9
 2718 0516 01       		.uleb128 0x1
 2719 0517 9C       		.byte	0x9c
 2720 0518 79060000 		.long	0x679
 2721 051c 14       		.uleb128 0x14
 2722 051d 36000000 		.long	.LASF90
 2723 0521 01       		.byte	0x1
 2724 0522 63       		.byte	0x63
 2725 0523 CE000000 		.long	0xce
 2726 0527 00000000 		.long	.LLST0
 2727 052b 15       		.uleb128 0x15
 2728 052c 18000000 		.long	.LVL1
 2729 0530 901A0000 		.long	0x1a90
 2730 0534 43050000 		.long	0x543
 2731 0538 16       		.uleb128 0x16
 2732 0539 02       		.uleb128 0x2
 2733 053a 74       		.byte	0x74
 2734 053b 00       		.sleb128 0
 2735 053c 05       		.uleb128 0x5
 2736 053d 03       		.byte	0x3
 2737 053e 18000000 		.long	m1
 2738 0542 00       		.byte	0
 2739 0543 15       		.uleb128 0x15
 2740 0544 44000000 		.long	.LVL2
 2741 0548 A11A0000 		.long	0x1aa1
 2742 054c 74050000 		.long	0x574
 2743 0550 16       		.uleb128 0x16
 2744 0551 02       		.uleb128 0x2
 2745 0552 74       		.byte	0x74
 2746 0553 04       		.sleb128 4
 2747 0554 03       		.uleb128 0x3
 2748 0555 0A       		.byte	0xa
GAS LISTING /tmp/ccnl8CWE.s 			page 68


 2749 0556 7042     		.value	0x4270
 2750 0558 16       		.uleb128 0x16
 2751 0559 02       		.uleb128 0x2
 2752 055a 74       		.byte	0x74
 2753 055b 08       		.sleb128 8
 2754 055c 02       		.uleb128 0x2
 2755 055d 73       		.byte	0x73
 2756 055e 01       		.sleb128 1
 2757 055f 16       		.uleb128 0x16
 2758 0560 02       		.uleb128 0x2
 2759 0561 74       		.byte	0x74
 2760 0562 0C       		.sleb128 12
 2761 0563 05       		.uleb128 0x5
 2762 0564 03       		.byte	0x3
 2763 0565 60010000 		.long	thread1
 2764 0569 16       		.uleb128 0x16
 2765 056a 02       		.uleb128 0x2
 2766 056b 74       		.byte	0x74
 2767 056c 10       		.sleb128 16
 2768 056d 05       		.uleb128 0x5
 2769 056e 03       		.byte	0x3
 2770 056f 00000000 		.long	.LC0
 2771 0573 00       		.byte	0
 2772 0574 15       		.uleb128 0x15
 2773 0575 75000000 		.long	.LVL3
 2774 0579 A11A0000 		.long	0x1aa1
 2775 057d A5050000 		.long	0x5a5
 2776 0581 16       		.uleb128 0x16
 2777 0582 02       		.uleb128 0x2
 2778 0583 74       		.byte	0x74
 2779 0584 04       		.sleb128 4
 2780 0585 03       		.uleb128 0x3
 2781 0586 0A       		.byte	0xa
 2782 0587 7042     		.value	0x4270
 2783 0589 16       		.uleb128 0x16
 2784 058a 02       		.uleb128 0x2
 2785 058b 74       		.byte	0x74
 2786 058c 08       		.sleb128 8
 2787 058d 02       		.uleb128 0x2
 2788 058e 73       		.byte	0x73
 2789 058f 02       		.sleb128 2
 2790 0590 16       		.uleb128 0x16
 2791 0591 02       		.uleb128 0x2
 2792 0592 74       		.byte	0x74
 2793 0593 0C       		.sleb128 12
 2794 0594 05       		.uleb128 0x5
 2795 0595 03       		.byte	0x3
 2796 0596 60010000 		.long	thread1
 2797 059a 16       		.uleb128 0x16
 2798 059b 02       		.uleb128 0x2
 2799 059c 74       		.byte	0x74
 2800 059d 10       		.sleb128 16
 2801 059e 05       		.uleb128 0x5
 2802 059f 03       		.byte	0x3
 2803 05a0 02000000 		.long	.LC1
 2804 05a4 00       		.byte	0
 2805 05a5 15       		.uleb128 0x15
GAS LISTING /tmp/ccnl8CWE.s 			page 69


 2806 05a6 A6000000 		.long	.LVL4
 2807 05aa A11A0000 		.long	0x1aa1
 2808 05ae D6050000 		.long	0x5d6
 2809 05b2 16       		.uleb128 0x16
 2810 05b3 02       		.uleb128 0x2
 2811 05b4 74       		.byte	0x74
 2812 05b5 04       		.sleb128 4
 2813 05b6 03       		.uleb128 0x3
 2814 05b7 0A       		.byte	0xa
 2815 05b8 7042     		.value	0x4270
 2816 05ba 16       		.uleb128 0x16
 2817 05bb 02       		.uleb128 0x2
 2818 05bc 74       		.byte	0x74
 2819 05bd 08       		.sleb128 8
 2820 05be 02       		.uleb128 0x2
 2821 05bf 73       		.byte	0x73
 2822 05c0 03       		.sleb128 3
 2823 05c1 16       		.uleb128 0x16
 2824 05c2 02       		.uleb128 0x2
 2825 05c3 74       		.byte	0x74
 2826 05c4 0C       		.sleb128 12
 2827 05c5 05       		.uleb128 0x5
 2828 05c6 03       		.byte	0x3
 2829 05c7 60010000 		.long	thread1
 2830 05cb 16       		.uleb128 0x16
 2831 05cc 02       		.uleb128 0x2
 2832 05cd 74       		.byte	0x74
 2833 05ce 10       		.sleb128 16
 2834 05cf 05       		.uleb128 0x5
 2835 05d0 03       		.byte	0x3
 2836 05d1 04000000 		.long	.LC2
 2837 05d5 00       		.byte	0
 2838 05d6 15       		.uleb128 0x15
 2839 05d7 D7000000 		.long	.LVL5
 2840 05db A11A0000 		.long	0x1aa1
 2841 05df 07060000 		.long	0x607
 2842 05e3 16       		.uleb128 0x16
 2843 05e4 02       		.uleb128 0x2
 2844 05e5 74       		.byte	0x74
 2845 05e6 04       		.sleb128 4
 2846 05e7 03       		.uleb128 0x3
 2847 05e8 0A       		.byte	0xa
 2848 05e9 7042     		.value	0x4270
 2849 05eb 16       		.uleb128 0x16
 2850 05ec 02       		.uleb128 0x2
 2851 05ed 74       		.byte	0x74
 2852 05ee 08       		.sleb128 8
 2853 05ef 02       		.uleb128 0x2
 2854 05f0 73       		.byte	0x73
 2855 05f1 04       		.sleb128 4
 2856 05f2 16       		.uleb128 0x16
 2857 05f3 02       		.uleb128 0x2
 2858 05f4 74       		.byte	0x74
 2859 05f5 0C       		.sleb128 12
 2860 05f6 05       		.uleb128 0x5
 2861 05f7 03       		.byte	0x3
 2862 05f8 60010000 		.long	thread1
GAS LISTING /tmp/ccnl8CWE.s 			page 70


 2863 05fc 16       		.uleb128 0x16
 2864 05fd 02       		.uleb128 0x2
 2865 05fe 74       		.byte	0x74
 2866 05ff 10       		.sleb128 16
 2867 0600 05       		.uleb128 0x5
 2868 0601 03       		.byte	0x3
 2869 0602 06000000 		.long	.LC3
 2870 0606 00       		.byte	0
 2871 0607 15       		.uleb128 0x15
 2872 0608 08010000 		.long	.LVL6
 2873 060c A11A0000 		.long	0x1aa1
 2874 0610 38060000 		.long	0x638
 2875 0614 16       		.uleb128 0x16
 2876 0615 02       		.uleb128 0x2
 2877 0616 74       		.byte	0x74
 2878 0617 04       		.sleb128 4
 2879 0618 03       		.uleb128 0x3
 2880 0619 0A       		.byte	0xa
 2881 061a 7042     		.value	0x4270
 2882 061c 16       		.uleb128 0x16
 2883 061d 02       		.uleb128 0x2
 2884 061e 74       		.byte	0x74
 2885 061f 08       		.sleb128 8
 2886 0620 02       		.uleb128 0x2
 2887 0621 73       		.byte	0x73
 2888 0622 05       		.sleb128 5
 2889 0623 16       		.uleb128 0x16
 2890 0624 02       		.uleb128 0x2
 2891 0625 74       		.byte	0x74
 2892 0626 0C       		.sleb128 12
 2893 0627 05       		.uleb128 0x5
 2894 0628 03       		.byte	0x3
 2895 0629 60010000 		.long	thread1
 2896 062d 16       		.uleb128 0x16
 2897 062e 02       		.uleb128 0x2
 2898 062f 74       		.byte	0x74
 2899 0630 10       		.sleb128 16
 2900 0631 05       		.uleb128 0x5
 2901 0632 03       		.byte	0x3
 2902 0633 08000000 		.long	.LC4
 2903 0637 00       		.byte	0
 2904 0638 17       		.uleb128 0x17
 2905 0639 12010000 		.long	.LVL7
 2906 063d CB1A0000 		.long	0x1acb
 2907 0641 17       		.uleb128 0x17
 2908 0642 17010000 		.long	.LVL8
 2909 0646 D61A0000 		.long	0x1ad6
 2910 064a 15       		.uleb128 0x15
 2911 064b 35010000 		.long	.LVL9
 2912 064f DD1A0000 		.long	0x1add
 2913 0653 5E060000 		.long	0x65e
 2914 0657 16       		.uleb128 0x16
 2915 0658 02       		.uleb128 0x2
 2916 0659 74       		.byte	0x74
 2917 065a 00       		.sleb128 0
 2918 065b 01       		.uleb128 0x1
 2919 065c 31       		.byte	0x31
GAS LISTING /tmp/ccnl8CWE.s 			page 71


 2920 065d 00       		.byte	0
 2921 065e 18       		.uleb128 0x18
 2922 065f 4D010000 		.long	.LVL10
 2923 0663 F71A0000 		.long	0x1af7
 2924 0667 16       		.uleb128 0x16
 2925 0668 02       		.uleb128 0x2
 2926 0669 74       		.byte	0x74
 2927 066a 00       		.sleb128 0
 2928 066b 01       		.uleb128 0x1
 2929 066c 32       		.byte	0x32
 2930 066d 16       		.uleb128 0x16
 2931 066e 02       		.uleb128 0x2
 2932 066f 74       		.byte	0x74
 2933 0670 04       		.sleb128 4
 2934 0671 05       		.uleb128 0x5
 2935 0672 03       		.byte	0x3
 2936 0673 0A000000 		.long	.LC5
 2937 0677 00       		.byte	0
 2938 0678 00       		.byte	0
 2939 0679 19       		.uleb128 0x19
 2940 067a 02030000 		.long	.LASF81
 2941 067e 01       		.byte	0x1
 2942 067f 59       		.byte	0x59
 2943 0680 D9000000 		.long	0xd9
 2944 0684 60010000 		.long	.LFB8
 2945 0688 29000000 		.long	.LFE8-.LFB8
 2946 068c 01       		.uleb128 0x1
 2947 068d 9C       		.byte	0x9c
 2948 068e C9060000 		.long	0x6c9
 2949 0692 1A       		.uleb128 0x1a
 2950 0693 7000     		.string	"p"
 2951 0695 01       		.byte	0x1
 2952 0696 59       		.byte	0x59
 2953 0697 66020000 		.long	0x266
 2954 069b 02       		.uleb128 0x2
 2955 069c 91       		.byte	0x91
 2956 069d 00       		.sleb128 0
 2957 069e 15       		.uleb128 0x15
 2958 069f 6F010000 		.long	.LVL13
 2959 06a3 901A0000 		.long	0x1a90
 2960 06a7 B6060000 		.long	0x6b6
 2961 06ab 16       		.uleb128 0x16
 2962 06ac 02       		.uleb128 0x2
 2963 06ad 74       		.byte	0x74
 2964 06ae 00       		.sleb128 0
 2965 06af 05       		.uleb128 0x5
 2966 06b0 03       		.byte	0x3
 2967 06b1 18000000 		.long	m1
 2968 06b5 00       		.byte	0
 2969 06b6 17       		.uleb128 0x17
 2970 06b7 7E010000 		.long	.LVL14
 2971 06bb 171B0000 		.long	0x1b17
 2972 06bf 17       		.uleb128 0x17
 2973 06c0 83010000 		.long	.LVL15
 2974 06c4 CB1A0000 		.long	0x1acb
 2975 06c8 00       		.byte	0
 2976 06c9 1B       		.uleb128 0x1b
GAS LISTING /tmp/ccnl8CWE.s 			page 72


 2977 06ca 97030000 		.long	.LASF82
 2978 06ce 01       		.byte	0x1
 2979 06cf 4C02     		.value	0x24c
 2980 06d1 D9000000 		.long	0xd9
 2981 06d5 90010000 		.long	.LFB35
 2982 06d9 29000000 		.long	.LFE35-.LFB35
 2983 06dd 01       		.uleb128 0x1
 2984 06de 9C       		.byte	0x9c
 2985 06df 1B070000 		.long	0x71b
 2986 06e3 1C       		.uleb128 0x1c
 2987 06e4 7000     		.string	"p"
 2988 06e6 01       		.byte	0x1
 2989 06e7 4C02     		.value	0x24c
 2990 06e9 66020000 		.long	0x266
 2991 06ed 02       		.uleb128 0x2
 2992 06ee 91       		.byte	0x91
 2993 06ef 00       		.sleb128 0
 2994 06f0 15       		.uleb128 0x15
 2995 06f1 9F010000 		.long	.LVL17
 2996 06f5 901A0000 		.long	0x1a90
 2997 06f9 08070000 		.long	0x708
 2998 06fd 16       		.uleb128 0x16
 2999 06fe 02       		.uleb128 0x2
 3000 06ff 74       		.byte	0x74
 3001 0700 00       		.sleb128 0
 3002 0701 05       		.uleb128 0x5
 3003 0702 03       		.byte	0x3
 3004 0703 08000000 		.long	m2
 3005 0707 00       		.byte	0
 3006 0708 17       		.uleb128 0x17
 3007 0709 AE010000 		.long	.LVL18
 3008 070d 171B0000 		.long	0x1b17
 3009 0711 17       		.uleb128 0x17
 3010 0712 B3010000 		.long	.LVL19
 3011 0716 CB1A0000 		.long	0x1acb
 3012 071a 00       		.byte	0
 3013 071b 13       		.uleb128 0x13
 3014 071c 6B010000 		.long	.LASF84
 3015 0720 01       		.byte	0x1
 3016 0721 54       		.byte	0x54
 3017 0722 C0010000 		.long	.LFB7
 3018 0726 13000000 		.long	.LFE7-.LFB7
 3019 072a 01       		.uleb128 0x1
 3020 072b 9C       		.byte	0x9c
 3021 072c 45070000 		.long	0x745
 3022 0730 18       		.uleb128 0x18
 3023 0731 CF010000 		.long	.LVL20
 3024 0735 281B0000 		.long	0x1b28
 3025 0739 16       		.uleb128 0x16
 3026 073a 02       		.uleb128 0x2
 3027 073b 74       		.byte	0x74
 3028 073c 00       		.sleb128 0
 3029 073d 05       		.uleb128 0x5
 3030 073e 03       		.byte	0x3
 3031 073f 18000000 		.long	m1
 3032 0743 00       		.byte	0
 3033 0744 00       		.byte	0
GAS LISTING /tmp/ccnl8CWE.s 			page 73


 3034 0745 13       		.uleb128 0x13
 3035 0746 D3020000 		.long	.LASF85
 3036 074a 01       		.byte	0x1
 3037 074b 97       		.byte	0x97
 3038 074c E0010000 		.long	.LFB10
 3039 0750 13000000 		.long	.LFE10-.LFB10
 3040 0754 01       		.uleb128 0x1
 3041 0755 9C       		.byte	0x9c
 3042 0756 6F070000 		.long	0x76f
 3043 075a 18       		.uleb128 0x18
 3044 075b EF010000 		.long	.LVL21
 3045 075f 281B0000 		.long	0x1b28
 3046 0763 16       		.uleb128 0x16
 3047 0764 02       		.uleb128 0x2
 3048 0765 74       		.byte	0x74
 3049 0766 00       		.sleb128 0
 3050 0767 05       		.uleb128 0x5
 3051 0768 03       		.byte	0x3
 3052 0769 18000000 		.long	m1
 3053 076d 00       		.byte	0
 3054 076e 00       		.byte	0
 3055 076f 13       		.uleb128 0x13
 3056 0770 42000000 		.long	.LASF86
 3057 0774 01       		.byte	0x1
 3058 0775 F1       		.byte	0xf1
 3059 0776 00020000 		.long	.LFB15
 3060 077a 1F000000 		.long	.LFE15-.LFB15
 3061 077e 01       		.uleb128 0x1
 3062 077f 9C       		.byte	0x9c
 3063 0780 B1070000 		.long	0x7b1
 3064 0784 15       		.uleb128 0x15
 3065 0785 0F020000 		.long	.LVL22
 3066 0789 281B0000 		.long	0x1b28
 3067 078d 9C070000 		.long	0x79c
 3068 0791 16       		.uleb128 0x16
 3069 0792 02       		.uleb128 0x2
 3070 0793 74       		.byte	0x74
 3071 0794 00       		.sleb128 0
 3072 0795 05       		.uleb128 0x5
 3073 0796 03       		.byte	0x3
 3074 0797 18000000 		.long	m1
 3075 079b 00       		.byte	0
 3076 079c 18       		.uleb128 0x18
 3077 079d 1B020000 		.long	.LVL23
 3078 07a1 281B0000 		.long	0x1b28
 3079 07a5 16       		.uleb128 0x16
 3080 07a6 02       		.uleb128 0x2
 3081 07a7 74       		.byte	0x74
 3082 07a8 00       		.sleb128 0
 3083 07a9 05       		.uleb128 0x5
 3084 07aa 03       		.byte	0x3
 3085 07ab 08000000 		.long	m2
 3086 07af 00       		.byte	0
 3087 07b0 00       		.byte	0
 3088 07b1 1D       		.uleb128 0x1d
 3089 07b2 DB010000 		.long	.LASF87
 3090 07b6 01       		.byte	0x1
GAS LISTING /tmp/ccnl8CWE.s 			page 74


 3091 07b7 5501     		.value	0x155
 3092 07b9 20020000 		.long	.LFB22
 3093 07bd 1F000000 		.long	.LFE22-.LFB22
 3094 07c1 01       		.uleb128 0x1
 3095 07c2 9C       		.byte	0x9c
 3096 07c3 F4070000 		.long	0x7f4
 3097 07c7 15       		.uleb128 0x15
 3098 07c8 2F020000 		.long	.LVL24
 3099 07cc 281B0000 		.long	0x1b28
 3100 07d0 DF070000 		.long	0x7df
 3101 07d4 16       		.uleb128 0x16
 3102 07d5 02       		.uleb128 0x2
 3103 07d6 74       		.byte	0x74
 3104 07d7 00       		.sleb128 0
 3105 07d8 05       		.uleb128 0x5
 3106 07d9 03       		.byte	0x3
 3107 07da 18000000 		.long	m1
 3108 07de 00       		.byte	0
 3109 07df 18       		.uleb128 0x18
 3110 07e0 3B020000 		.long	.LVL25
 3111 07e4 281B0000 		.long	0x1b28
 3112 07e8 16       		.uleb128 0x16
 3113 07e9 02       		.uleb128 0x2
 3114 07ea 74       		.byte	0x74
 3115 07eb 00       		.sleb128 0
 3116 07ec 05       		.uleb128 0x5
 3117 07ed 03       		.byte	0x3
 3118 07ee 08000000 		.long	m2
 3119 07f2 00       		.byte	0
 3120 07f3 00       		.byte	0
 3121 07f4 1D       		.uleb128 0x1d
 3122 07f5 5F000000 		.long	.LASF88
 3123 07f9 01       		.byte	0x1
 3124 07fa AD01     		.value	0x1ad
 3125 07fc 40020000 		.long	.LFB26
 3126 0800 13000000 		.long	.LFE26-.LFB26
 3127 0804 01       		.uleb128 0x1
 3128 0805 9C       		.byte	0x9c
 3129 0806 1F080000 		.long	0x81f
 3130 080a 18       		.uleb128 0x18
 3131 080b 4F020000 		.long	.LVL26
 3132 080f 281B0000 		.long	0x1b28
 3133 0813 16       		.uleb128 0x16
 3134 0814 02       		.uleb128 0x2
 3135 0815 74       		.byte	0x74
 3136 0816 00       		.sleb128 0
 3137 0817 05       		.uleb128 0x5
 3138 0818 03       		.byte	0x3
 3139 0819 18000000 		.long	m1
 3140 081d 00       		.byte	0
 3141 081e 00       		.byte	0
 3142 081f 13       		.uleb128 0x13
 3143 0820 7E010000 		.long	.LASF89
 3144 0824 01       		.byte	0x1
 3145 0825 BE       		.byte	0xbe
 3146 0826 60020000 		.long	.LFB14
 3147 082a F6000000 		.long	.LFE14-.LFB14
GAS LISTING /tmp/ccnl8CWE.s 			page 75


 3148 082e 01       		.uleb128 0x1
 3149 082f 9C       		.byte	0x9c
 3150 0830 04090000 		.long	0x904
 3151 0834 14       		.uleb128 0x14
 3152 0835 39030000 		.long	.LASF91
 3153 0839 01       		.byte	0x1
 3154 083a BF       		.byte	0xbf
 3155 083b EF000000 		.long	0xef
 3156 083f 13000000 		.long	.LLST1
 3157 0843 17       		.uleb128 0x17
 3158 0844 69020000 		.long	.LVL27
 3159 0848 391B0000 		.long	0x1b39
 3160 084c 15       		.uleb128 0x15
 3161 084d A3020000 		.long	.LVL29
 3162 0851 A11A0000 		.long	0x1aa1
 3163 0855 72080000 		.long	0x872
 3164 0859 16       		.uleb128 0x16
 3165 085a 02       		.uleb128 0x2
 3166 085b 74       		.byte	0x74
 3167 085c 04       		.sleb128 4
 3168 085d 03       		.uleb128 0x3
 3169 085e 0A       		.byte	0xa
 3170 085f 7042     		.value	0x4270
 3171 0861 16       		.uleb128 0x16
 3172 0862 02       		.uleb128 0x2
 3173 0863 74       		.byte	0x74
 3174 0864 0C       		.sleb128 12
 3175 0865 05       		.uleb128 0x5
 3176 0866 03       		.byte	0x3
 3177 0867 80050000 		.long	thread2H
 3178 086b 16       		.uleb128 0x16
 3179 086c 02       		.uleb128 0x2
 3180 086d 74       		.byte	0x74
 3181 086e 10       		.sleb128 16
 3182 086f 01       		.uleb128 0x1
 3183 0870 30       		.byte	0x30
 3184 0871 00       		.byte	0
 3185 0872 15       		.uleb128 0x15
 3186 0873 DC020000 		.long	.LVL30
 3187 0877 A11A0000 		.long	0x1aa1
 3188 087b 98080000 		.long	0x898
 3189 087f 16       		.uleb128 0x16
 3190 0880 02       		.uleb128 0x2
 3191 0881 74       		.byte	0x74
 3192 0882 04       		.sleb128 4
 3193 0883 03       		.uleb128 0x3
 3194 0884 0A       		.byte	0xa
 3195 0885 7042     		.value	0x4270
 3196 0887 16       		.uleb128 0x16
 3197 0888 02       		.uleb128 0x2
 3198 0889 74       		.byte	0x74
 3199 088a 0C       		.sleb128 12
 3200 088b 05       		.uleb128 0x5
 3201 088c 03       		.byte	0x3
 3202 088d 50050000 		.long	thread2M
 3203 0891 16       		.uleb128 0x16
 3204 0892 02       		.uleb128 0x2
GAS LISTING /tmp/ccnl8CWE.s 			page 76


 3205 0893 74       		.byte	0x74
 3206 0894 10       		.sleb128 16
 3207 0895 01       		.uleb128 0x1
 3208 0896 30       		.byte	0x30
 3209 0897 00       		.byte	0
 3210 0898 15       		.uleb128 0x15
 3211 0899 15030000 		.long	.LVL31
 3212 089d A11A0000 		.long	0x1aa1
 3213 08a1 BE080000 		.long	0x8be
 3214 08a5 16       		.uleb128 0x16
 3215 08a6 02       		.uleb128 0x2
 3216 08a7 74       		.byte	0x74
 3217 08a8 04       		.sleb128 4
 3218 08a9 03       		.uleb128 0x3
 3219 08aa 0A       		.byte	0xa
 3220 08ab 7042     		.value	0x4270
 3221 08ad 16       		.uleb128 0x16
 3222 08ae 02       		.uleb128 0x2
 3223 08af 74       		.byte	0x74
 3224 08b0 0C       		.sleb128 12
 3225 08b1 05       		.uleb128 0x5
 3226 08b2 03       		.byte	0x3
 3227 08b3 D0040000 		.long	thread2L
 3228 08b7 16       		.uleb128 0x16
 3229 08b8 02       		.uleb128 0x2
 3230 08b9 74       		.byte	0x74
 3231 08ba 10       		.sleb128 16
 3232 08bb 01       		.uleb128 0x1
 3233 08bc 30       		.byte	0x30
 3234 08bd 00       		.byte	0
 3235 08be 17       		.uleb128 0x17
 3236 08bf 1F030000 		.long	.LVL32
 3237 08c3 D61A0000 		.long	0x1ad6
 3238 08c7 15       		.uleb128 0x15
 3239 08c8 33030000 		.long	.LVL33
 3240 08cc F71A0000 		.long	0x1af7
 3241 08d0 E5080000 		.long	0x8e5
 3242 08d4 16       		.uleb128 0x16
 3243 08d5 02       		.uleb128 0x2
 3244 08d6 74       		.byte	0x74
 3245 08d7 00       		.sleb128 0
 3246 08d8 01       		.uleb128 0x1
 3247 08d9 31       		.byte	0x31
 3248 08da 16       		.uleb128 0x16
 3249 08db 02       		.uleb128 0x2
 3250 08dc 74       		.byte	0x74
 3251 08dd 04       		.sleb128 4
 3252 08de 05       		.uleb128 0x5
 3253 08df 03       		.byte	0x3
 3254 08e0 10000000 		.long	.LC6
 3255 08e4 00       		.byte	0
 3256 08e5 18       		.uleb128 0x18
 3257 08e6 51030000 		.long	.LVL35
 3258 08ea 441B0000 		.long	0x1b44
 3259 08ee 16       		.uleb128 0x16
 3260 08ef 02       		.uleb128 0x2
 3261 08f0 74       		.byte	0x74
GAS LISTING /tmp/ccnl8CWE.s 			page 77


 3262 08f1 00       		.sleb128 0
 3263 08f2 01       		.uleb128 0x1
 3264 08f3 32       		.byte	0x32
 3265 08f4 16       		.uleb128 0x16
 3266 08f5 02       		.uleb128 0x2
 3267 08f6 74       		.byte	0x74
 3268 08f7 04       		.sleb128 4
 3269 08f8 02       		.uleb128 0x2
 3270 08f9 73       		.byte	0x73
 3271 08fa 00       		.sleb128 0
 3272 08fb 16       		.uleb128 0x16
 3273 08fc 02       		.uleb128 0x2
 3274 08fd 74       		.byte	0x74
 3275 08fe 08       		.sleb128 8
 3276 08ff 02       		.uleb128 0x2
 3277 0900 73       		.byte	0x73
 3278 0901 05       		.sleb128 5
 3279 0902 00       		.byte	0
 3280 0903 00       		.byte	0
 3281 0904 1D       		.uleb128 0x1d
 3282 0905 4F020000 		.long	.LASF92
 3283 0909 01       		.byte	0x1
 3284 090a 3401     		.value	0x134
 3285 090c 60030000 		.long	.LFB21
 3286 0910 68010000 		.long	.LFE21-.LFB21
 3287 0914 01       		.uleb128 0x1
 3288 0915 9C       		.byte	0x9c
 3289 0916 370A0000 		.long	0xa37
 3290 091a 1E       		.uleb128 0x1e
 3291 091b 39030000 		.long	.LASF91
 3292 091f 01       		.byte	0x1
 3293 0920 3501     		.value	0x135
 3294 0922 EF000000 		.long	0xef
 3295 0926 34000000 		.long	.LLST2
 3296 092a 17       		.uleb128 0x17
 3297 092b 69030000 		.long	.LVL36
 3298 092f 391B0000 		.long	0x1b39
 3299 0933 15       		.uleb128 0x15
 3300 0934 A3030000 		.long	.LVL38
 3301 0938 A11A0000 		.long	0x1aa1
 3302 093c 59090000 		.long	0x959
 3303 0940 16       		.uleb128 0x16
 3304 0941 02       		.uleb128 0x2
 3305 0942 74       		.byte	0x74
 3306 0943 04       		.sleb128 4
 3307 0944 03       		.uleb128 0x3
 3308 0945 0A       		.byte	0xa
 3309 0946 7042     		.value	0x4270
 3310 0948 16       		.uleb128 0x16
 3311 0949 02       		.uleb128 0x2
 3312 094a 74       		.byte	0x74
 3313 094b 0C       		.sleb128 12
 3314 094c 05       		.uleb128 0x5
 3315 094d 03       		.byte	0x3
 3316 094e 10050000 		.long	thread3LL
 3317 0952 16       		.uleb128 0x16
 3318 0953 02       		.uleb128 0x2
GAS LISTING /tmp/ccnl8CWE.s 			page 78


 3319 0954 74       		.byte	0x74
 3320 0955 10       		.sleb128 16
 3321 0956 01       		.uleb128 0x1
 3322 0957 30       		.byte	0x30
 3323 0958 00       		.byte	0
 3324 0959 15       		.uleb128 0x15
 3325 095a DC030000 		.long	.LVL39
 3326 095e A11A0000 		.long	0x1aa1
 3327 0962 7F090000 		.long	0x97f
 3328 0966 16       		.uleb128 0x16
 3329 0967 02       		.uleb128 0x2
 3330 0968 74       		.byte	0x74
 3331 0969 04       		.sleb128 4
 3332 096a 03       		.uleb128 0x3
 3333 096b 0A       		.byte	0xa
 3334 096c 7042     		.value	0x4270
 3335 096e 16       		.uleb128 0x16
 3336 096f 02       		.uleb128 0x2
 3337 0970 74       		.byte	0x74
 3338 0971 0C       		.sleb128 12
 3339 0972 05       		.uleb128 0x5
 3340 0973 03       		.byte	0x3
 3341 0974 70060000 		.long	thread3L
 3342 0978 16       		.uleb128 0x16
 3343 0979 02       		.uleb128 0x2
 3344 097a 74       		.byte	0x74
 3345 097b 10       		.sleb128 16
 3346 097c 01       		.uleb128 0x1
 3347 097d 30       		.byte	0x30
 3348 097e 00       		.byte	0
 3349 097f 15       		.uleb128 0x15
 3350 0980 15040000 		.long	.LVL40
 3351 0984 A11A0000 		.long	0x1aa1
 3352 0988 A5090000 		.long	0x9a5
 3353 098c 16       		.uleb128 0x16
 3354 098d 02       		.uleb128 0x2
 3355 098e 74       		.byte	0x74
 3356 098f 04       		.sleb128 4
 3357 0990 03       		.uleb128 0x3
 3358 0991 0A       		.byte	0xa
 3359 0992 7042     		.value	0x4270
 3360 0994 16       		.uleb128 0x16
 3361 0995 02       		.uleb128 0x2
 3362 0996 74       		.byte	0x74
 3363 0997 0C       		.sleb128 12
 3364 0998 05       		.uleb128 0x5
 3365 0999 03       		.byte	0x3
 3366 099a 30060000 		.long	thread3M
 3367 099e 16       		.uleb128 0x16
 3368 099f 02       		.uleb128 0x2
 3369 09a0 74       		.byte	0x74
 3370 09a1 10       		.sleb128 16
 3371 09a2 01       		.uleb128 0x1
 3372 09a3 30       		.byte	0x30
 3373 09a4 00       		.byte	0
 3374 09a5 15       		.uleb128 0x15
 3375 09a6 4E040000 		.long	.LVL41
GAS LISTING /tmp/ccnl8CWE.s 			page 79


 3376 09aa A11A0000 		.long	0x1aa1
 3377 09ae CB090000 		.long	0x9cb
 3378 09b2 16       		.uleb128 0x16
 3379 09b3 02       		.uleb128 0x2
 3380 09b4 74       		.byte	0x74
 3381 09b5 04       		.sleb128 4
 3382 09b6 03       		.uleb128 0x3
 3383 09b7 0A       		.byte	0xa
 3384 09b8 7042     		.value	0x4270
 3385 09ba 16       		.uleb128 0x16
 3386 09bb 02       		.uleb128 0x2
 3387 09bc 74       		.byte	0x74
 3388 09bd 0C       		.sleb128 12
 3389 09be 05       		.uleb128 0x5
 3390 09bf 03       		.byte	0x3
 3391 09c0 00060000 		.long	thread3H
 3392 09c4 16       		.uleb128 0x16
 3393 09c5 02       		.uleb128 0x2
 3394 09c6 74       		.byte	0x74
 3395 09c7 10       		.sleb128 16
 3396 09c8 01       		.uleb128 0x1
 3397 09c9 30       		.byte	0x30
 3398 09ca 00       		.byte	0
 3399 09cb 15       		.uleb128 0x15
 3400 09cc 87040000 		.long	.LVL42
 3401 09d0 A11A0000 		.long	0x1aa1
 3402 09d4 F1090000 		.long	0x9f1
 3403 09d8 16       		.uleb128 0x16
 3404 09d9 02       		.uleb128 0x2
 3405 09da 74       		.byte	0x74
 3406 09db 04       		.sleb128 4
 3407 09dc 03       		.uleb128 0x3
 3408 09dd 0A       		.byte	0xa
 3409 09de 7042     		.value	0x4270
 3410 09e0 16       		.uleb128 0x16
 3411 09e1 02       		.uleb128 0x2
 3412 09e2 74       		.byte	0x74
 3413 09e3 0C       		.sleb128 12
 3414 09e4 05       		.uleb128 0x5
 3415 09e5 03       		.byte	0x3
 3416 09e6 C0050000 		.long	thread3HH
 3417 09ea 16       		.uleb128 0x16
 3418 09eb 02       		.uleb128 0x2
 3419 09ec 74       		.byte	0x74
 3420 09ed 10       		.sleb128 16
 3421 09ee 01       		.uleb128 0x1
 3422 09ef 30       		.byte	0x30
 3423 09f0 00       		.byte	0
 3424 09f1 17       		.uleb128 0x17
 3425 09f2 91040000 		.long	.LVL43
 3426 09f6 D61A0000 		.long	0x1ad6
 3427 09fa 15       		.uleb128 0x15
 3428 09fb A5040000 		.long	.LVL44
 3429 09ff F71A0000 		.long	0x1af7
 3430 0a03 180A0000 		.long	0xa18
 3431 0a07 16       		.uleb128 0x16
 3432 0a08 02       		.uleb128 0x2
GAS LISTING /tmp/ccnl8CWE.s 			page 80


 3433 0a09 74       		.byte	0x74
 3434 0a0a 00       		.sleb128 0
 3435 0a0b 01       		.uleb128 0x1
 3436 0a0c 31       		.byte	0x31
 3437 0a0d 16       		.uleb128 0x16
 3438 0a0e 02       		.uleb128 0x2
 3439 0a0f 74       		.byte	0x74
 3440 0a10 04       		.sleb128 4
 3441 0a11 05       		.uleb128 0x5
 3442 0a12 03       		.byte	0x3
 3443 0a13 0A000000 		.long	.LC5
 3444 0a17 00       		.byte	0
 3445 0a18 18       		.uleb128 0x18
 3446 0a19 C3040000 		.long	.LVL46
 3447 0a1d 441B0000 		.long	0x1b44
 3448 0a21 16       		.uleb128 0x16
 3449 0a22 02       		.uleb128 0x2
 3450 0a23 74       		.byte	0x74
 3451 0a24 00       		.sleb128 0
 3452 0a25 01       		.uleb128 0x1
 3453 0a26 32       		.byte	0x32
 3454 0a27 16       		.uleb128 0x16
 3455 0a28 02       		.uleb128 0x2
 3456 0a29 74       		.byte	0x74
 3457 0a2a 04       		.sleb128 4
 3458 0a2b 02       		.uleb128 0x2
 3459 0a2c 73       		.byte	0x73
 3460 0a2d 00       		.sleb128 0
 3461 0a2e 16       		.uleb128 0x16
 3462 0a2f 02       		.uleb128 0x2
 3463 0a30 74       		.byte	0x74
 3464 0a31 08       		.sleb128 8
 3465 0a32 02       		.uleb128 0x2
 3466 0a33 73       		.byte	0x73
 3467 0a34 05       		.sleb128 5
 3468 0a35 00       		.byte	0
 3469 0a36 00       		.byte	0
 3470 0a37 19       		.uleb128 0x19
 3471 0a38 30050000 		.long	.LASF93
 3472 0a3c 01       		.byte	0x1
 3473 0a3d 9D       		.byte	0x9d
 3474 0a3e D9000000 		.long	0xd9
 3475 0a42 D0040000 		.long	.LFB11
 3476 0a46 3E000000 		.long	.LFE11-.LFB11
 3477 0a4a 01       		.uleb128 0x1
 3478 0a4b 9C       		.byte	0x9c
 3479 0a4c B80A0000 		.long	0xab8
 3480 0a50 1A       		.uleb128 0x1a
 3481 0a51 7000     		.string	"p"
 3482 0a53 01       		.byte	0x1
 3483 0a54 9D       		.byte	0x9d
 3484 0a55 66020000 		.long	0x266
 3485 0a59 02       		.uleb128 0x2
 3486 0a5a 91       		.byte	0x91
 3487 0a5b 00       		.sleb128 0
 3488 0a5c 15       		.uleb128 0x15
 3489 0a5d DF040000 		.long	.LVL48
GAS LISTING /tmp/ccnl8CWE.s 			page 81


 3490 0a61 901A0000 		.long	0x1a90
 3491 0a65 740A0000 		.long	0xa74
 3492 0a69 16       		.uleb128 0x16
 3493 0a6a 02       		.uleb128 0x2
 3494 0a6b 74       		.byte	0x74
 3495 0a6c 00       		.sleb128 0
 3496 0a6d 05       		.uleb128 0x5
 3497 0a6e 03       		.byte	0x3
 3498 0a6f 18000000 		.long	m1
 3499 0a73 00       		.byte	0
 3500 0a74 15       		.uleb128 0x15
 3501 0a75 EB040000 		.long	.LVL49
 3502 0a79 631B0000 		.long	0x1b63
 3503 0a7d 890A0000 		.long	0xa89
 3504 0a81 16       		.uleb128 0x16
 3505 0a82 02       		.uleb128 0x2
 3506 0a83 74       		.byte	0x74
 3507 0a84 00       		.sleb128 0
 3508 0a85 02       		.uleb128 0x2
 3509 0a86 08       		.byte	0x8
 3510 0a87 28       		.byte	0x28
 3511 0a88 00       		.byte	0
 3512 0a89 17       		.uleb128 0x17
 3513 0a8a F0040000 		.long	.LVL50
 3514 0a8e CB1A0000 		.long	0x1acb
 3515 0a92 15       		.uleb128 0x15
 3516 0a93 FC040000 		.long	.LVL51
 3517 0a97 631B0000 		.long	0x1b63
 3518 0a9b A60A0000 		.long	0xaa6
 3519 0a9f 16       		.uleb128 0x16
 3520 0aa0 02       		.uleb128 0x2
 3521 0aa1 74       		.byte	0x74
 3522 0aa2 00       		.sleb128 0
 3523 0aa3 01       		.uleb128 0x1
 3524 0aa4 3A       		.byte	0x3a
 3525 0aa5 00       		.byte	0
 3526 0aa6 18       		.uleb128 0x18
 3527 0aa7 08050000 		.long	.LVL52
 3528 0aab 171B0000 		.long	0x1b17
 3529 0aaf 16       		.uleb128 0x16
 3530 0ab0 02       		.uleb128 0x2
 3531 0ab1 74       		.byte	0x74
 3532 0ab2 00       		.sleb128 0
 3533 0ab3 02       		.uleb128 0x2
 3534 0ab4 08       		.byte	0x8
 3535 0ab5 43       		.byte	0x43
 3536 0ab6 00       		.byte	0
 3537 0ab7 00       		.byte	0
 3538 0ab8 19       		.uleb128 0x19
 3539 0ab9 9E020000 		.long	.LASF94
 3540 0abd 01       		.byte	0x1
 3541 0abe F8       		.byte	0xf8
 3542 0abf D9000000 		.long	0xd9
 3543 0ac3 10050000 		.long	.LFB16
 3544 0ac7 32000000 		.long	.LFE16-.LFB16
 3545 0acb 01       		.uleb128 0x1
 3546 0acc 9C       		.byte	0x9c
GAS LISTING /tmp/ccnl8CWE.s 			page 82


 3547 0acd 240B0000 		.long	0xb24
 3548 0ad1 1A       		.uleb128 0x1a
 3549 0ad2 7000     		.string	"p"
 3550 0ad4 01       		.byte	0x1
 3551 0ad5 F8       		.byte	0xf8
 3552 0ad6 66020000 		.long	0x266
 3553 0ada 02       		.uleb128 0x2
 3554 0adb 91       		.byte	0x91
 3555 0adc 00       		.sleb128 0
 3556 0add 15       		.uleb128 0x15
 3557 0ade 1F050000 		.long	.LVL54
 3558 0ae2 901A0000 		.long	0x1a90
 3559 0ae6 F50A0000 		.long	0xaf5
 3560 0aea 16       		.uleb128 0x16
 3561 0aeb 02       		.uleb128 0x2
 3562 0aec 74       		.byte	0x74
 3563 0aed 00       		.sleb128 0
 3564 0aee 05       		.uleb128 0x5
 3565 0aef 03       		.byte	0x3
 3566 0af0 18000000 		.long	m1
 3567 0af4 00       		.byte	0
 3568 0af5 15       		.uleb128 0x15
 3569 0af6 2B050000 		.long	.LVL55
 3570 0afa 631B0000 		.long	0x1b63
 3571 0afe 090B0000 		.long	0xb09
 3572 0b02 16       		.uleb128 0x16
 3573 0b03 02       		.uleb128 0x2
 3574 0b04 74       		.byte	0x74
 3575 0b05 00       		.sleb128 0
 3576 0b06 01       		.uleb128 0x1
 3577 0b07 4E       		.byte	0x4e
 3578 0b08 00       		.byte	0
 3579 0b09 17       		.uleb128 0x17
 3580 0b0a 30050000 		.long	.LVL56
 3581 0b0e CB1A0000 		.long	0x1acb
 3582 0b12 18       		.uleb128 0x18
 3583 0b13 3C050000 		.long	.LVL57
 3584 0b17 171B0000 		.long	0x1b17
 3585 0b1b 16       		.uleb128 0x16
 3586 0b1c 02       		.uleb128 0x2
 3587 0b1d 74       		.byte	0x74
 3588 0b1e 00       		.sleb128 0
 3589 0b1f 02       		.uleb128 0x2
 3590 0b20 08       		.byte	0x8
 3591 0b21 45       		.byte	0x45
 3592 0b22 00       		.byte	0
 3593 0b23 00       		.byte	0
 3594 0b24 19       		.uleb128 0x19
 3595 0b25 39050000 		.long	.LASF95
 3596 0b29 01       		.byte	0x1
 3597 0b2a A9       		.byte	0xa9
 3598 0b2b D9000000 		.long	0xd9
 3599 0b2f 50050000 		.long	.LFB12
 3600 0b33 2D000000 		.long	.LFE12-.LFB12
 3601 0b37 01       		.uleb128 0x1
 3602 0b38 9C       		.byte	0x9c
 3603 0b39 840B0000 		.long	0xb84
GAS LISTING /tmp/ccnl8CWE.s 			page 83


 3604 0b3d 1A       		.uleb128 0x1a
 3605 0b3e 7000     		.string	"p"
 3606 0b40 01       		.byte	0x1
 3607 0b41 A9       		.byte	0xa9
 3608 0b42 66020000 		.long	0x266
 3609 0b46 02       		.uleb128 0x2
 3610 0b47 91       		.byte	0x91
 3611 0b48 00       		.sleb128 0
 3612 0b49 15       		.uleb128 0x15
 3613 0b4a 5F050000 		.long	.LVL59
 3614 0b4e 741B0000 		.long	0x1b74
 3615 0b52 5D0B0000 		.long	0xb5d
 3616 0b56 16       		.uleb128 0x16
 3617 0b57 02       		.uleb128 0x2
 3618 0b58 74       		.byte	0x74
 3619 0b59 00       		.sleb128 0
 3620 0b5a 01       		.uleb128 0x1
 3621 0b5b 44       		.byte	0x44
 3622 0b5c 00       		.byte	0
 3623 0b5d 15       		.uleb128 0x15
 3624 0b5e 6B050000 		.long	.LVL60
 3625 0b62 631B0000 		.long	0x1b63
 3626 0b66 720B0000 		.long	0xb72
 3627 0b6a 16       		.uleb128 0x16
 3628 0b6b 02       		.uleb128 0x2
 3629 0b6c 74       		.byte	0x74
 3630 0b6d 00       		.sleb128 0
 3631 0b6e 02       		.uleb128 0x2
 3632 0b6f 08       		.byte	0x8
 3633 0b70 28       		.byte	0x28
 3634 0b71 00       		.byte	0
 3635 0b72 18       		.uleb128 0x18
 3636 0b73 77050000 		.long	.LVL61
 3637 0b77 171B0000 		.long	0x1b17
 3638 0b7b 16       		.uleb128 0x16
 3639 0b7c 02       		.uleb128 0x2
 3640 0b7d 74       		.byte	0x74
 3641 0b7e 00       		.sleb128 0
 3642 0b7f 02       		.uleb128 0x2
 3643 0b80 08       		.byte	0x8
 3644 0b81 42       		.byte	0x42
 3645 0b82 00       		.byte	0
 3646 0b83 00       		.byte	0
 3647 0b84 19       		.uleb128 0x19
 3648 0b85 27050000 		.long	.LASF96
 3649 0b89 01       		.byte	0x1
 3650 0b8a B3       		.byte	0xb3
 3651 0b8b D9000000 		.long	0xd9
 3652 0b8f 80050000 		.long	.LFB13
 3653 0b93 3E000000 		.long	.LFE13-.LFB13
 3654 0b97 01       		.uleb128 0x1
 3655 0b98 9C       		.byte	0x9c
 3656 0b99 050C0000 		.long	0xc05
 3657 0b9d 1A       		.uleb128 0x1a
 3658 0b9e 7000     		.string	"p"
 3659 0ba0 01       		.byte	0x1
 3660 0ba1 B3       		.byte	0xb3
GAS LISTING /tmp/ccnl8CWE.s 			page 84


 3661 0ba2 66020000 		.long	0x266
 3662 0ba6 02       		.uleb128 0x2
 3663 0ba7 91       		.byte	0x91
 3664 0ba8 00       		.sleb128 0
 3665 0ba9 15       		.uleb128 0x15
 3666 0baa 8F050000 		.long	.LVL63
 3667 0bae 741B0000 		.long	0x1b74
 3668 0bb2 BE0B0000 		.long	0xbbe
 3669 0bb6 16       		.uleb128 0x16
 3670 0bb7 02       		.uleb128 0x2
 3671 0bb8 74       		.byte	0x74
 3672 0bb9 00       		.sleb128 0
 3673 0bba 02       		.uleb128 0x2
 3674 0bbb 08       		.byte	0x8
 3675 0bbc 28       		.byte	0x28
 3676 0bbd 00       		.byte	0
 3677 0bbe 15       		.uleb128 0x15
 3678 0bbf 9B050000 		.long	.LVL64
 3679 0bc3 901A0000 		.long	0x1a90
 3680 0bc7 D60B0000 		.long	0xbd6
 3681 0bcb 16       		.uleb128 0x16
 3682 0bcc 02       		.uleb128 0x2
 3683 0bcd 74       		.byte	0x74
 3684 0bce 00       		.sleb128 0
 3685 0bcf 05       		.uleb128 0x5
 3686 0bd0 03       		.byte	0x3
 3687 0bd1 18000000 		.long	m1
 3688 0bd5 00       		.byte	0
 3689 0bd6 15       		.uleb128 0x15
 3690 0bd7 A7050000 		.long	.LVL65
 3691 0bdb 631B0000 		.long	0x1b63
 3692 0bdf EA0B0000 		.long	0xbea
 3693 0be3 16       		.uleb128 0x16
 3694 0be4 02       		.uleb128 0x2
 3695 0be5 74       		.byte	0x74
 3696 0be6 00       		.sleb128 0
 3697 0be7 01       		.uleb128 0x1
 3698 0be8 3A       		.byte	0x3a
 3699 0be9 00       		.byte	0
 3700 0bea 17       		.uleb128 0x17
 3701 0beb AC050000 		.long	.LVL66
 3702 0bef CB1A0000 		.long	0x1acb
 3703 0bf3 18       		.uleb128 0x18
 3704 0bf4 B8050000 		.long	.LVL67
 3705 0bf8 171B0000 		.long	0x1b17
 3706 0bfc 16       		.uleb128 0x16
 3707 0bfd 02       		.uleb128 0x2
 3708 0bfe 74       		.byte	0x74
 3709 0bff 00       		.sleb128 0
 3710 0c00 02       		.uleb128 0x2
 3711 0c01 08       		.byte	0x8
 3712 0c02 41       		.byte	0x41
 3713 0c03 00       		.byte	0
 3714 0c04 00       		.byte	0
 3715 0c05 1B       		.uleb128 0x1b
 3716 0c06 07020000 		.long	.LASF97
 3717 0c0a 01       		.byte	0x1
GAS LISTING /tmp/ccnl8CWE.s 			page 85


 3718 0c0b 2901     		.value	0x129
 3719 0c0d D9000000 		.long	0xd9
 3720 0c11 C0050000 		.long	.LFB20
 3721 0c15 3E000000 		.long	.LFE20-.LFB20
 3722 0c19 01       		.uleb128 0x1
 3723 0c1a 9C       		.byte	0x9c
 3724 0c1b 880C0000 		.long	0xc88
 3725 0c1f 1C       		.uleb128 0x1c
 3726 0c20 7000     		.string	"p"
 3727 0c22 01       		.byte	0x1
 3728 0c23 2901     		.value	0x129
 3729 0c25 66020000 		.long	0x266
 3730 0c29 02       		.uleb128 0x2
 3731 0c2a 91       		.byte	0x91
 3732 0c2b 00       		.sleb128 0
 3733 0c2c 15       		.uleb128 0x15
 3734 0c2d CF050000 		.long	.LVL69
 3735 0c31 741B0000 		.long	0x1b74
 3736 0c35 410C0000 		.long	0xc41
 3737 0c39 16       		.uleb128 0x16
 3738 0c3a 02       		.uleb128 0x2
 3739 0c3b 74       		.byte	0x74
 3740 0c3c 00       		.sleb128 0
 3741 0c3d 02       		.uleb128 0x2
 3742 0c3e 08       		.byte	0x8
 3743 0c3f 32       		.byte	0x32
 3744 0c40 00       		.byte	0
 3745 0c41 15       		.uleb128 0x15
 3746 0c42 DB050000 		.long	.LVL70
 3747 0c46 901A0000 		.long	0x1a90
 3748 0c4a 590C0000 		.long	0xc59
 3749 0c4e 16       		.uleb128 0x16
 3750 0c4f 02       		.uleb128 0x2
 3751 0c50 74       		.byte	0x74
 3752 0c51 00       		.sleb128 0
 3753 0c52 05       		.uleb128 0x5
 3754 0c53 03       		.byte	0x3
 3755 0c54 08000000 		.long	m2
 3756 0c58 00       		.byte	0
 3757 0c59 15       		.uleb128 0x15
 3758 0c5a E7050000 		.long	.LVL71
 3759 0c5e 631B0000 		.long	0x1b63
 3760 0c62 6D0C0000 		.long	0xc6d
 3761 0c66 16       		.uleb128 0x16
 3762 0c67 02       		.uleb128 0x2
 3763 0c68 74       		.byte	0x74
 3764 0c69 00       		.sleb128 0
 3765 0c6a 01       		.uleb128 0x1
 3766 0c6b 3A       		.byte	0x3a
 3767 0c6c 00       		.byte	0
 3768 0c6d 17       		.uleb128 0x17
 3769 0c6e EC050000 		.long	.LVL72
 3770 0c72 CB1A0000 		.long	0x1acb
 3771 0c76 18       		.uleb128 0x18
 3772 0c77 F8050000 		.long	.LVL73
 3773 0c7b 171B0000 		.long	0x1b17
 3774 0c7f 16       		.uleb128 0x16
GAS LISTING /tmp/ccnl8CWE.s 			page 86


 3775 0c80 02       		.uleb128 0x2
 3776 0c81 74       		.byte	0x74
 3777 0c82 00       		.sleb128 0
 3778 0c83 02       		.uleb128 0x2
 3779 0c84 08       		.byte	0x8
 3780 0c85 41       		.byte	0x41
 3781 0c86 00       		.byte	0
 3782 0c87 00       		.byte	0
 3783 0c88 1B       		.uleb128 0x1b
 3784 0c89 A8000000 		.long	.LASF98
 3785 0c8d 01       		.byte	0x1
 3786 0c8e 1F01     		.value	0x11f
 3787 0c90 D9000000 		.long	0xd9
 3788 0c94 00060000 		.long	.LFB19
 3789 0c98 2D000000 		.long	.LFE19-.LFB19
 3790 0c9c 01       		.uleb128 0x1
 3791 0c9d 9C       		.byte	0x9c
 3792 0c9e EA0C0000 		.long	0xcea
 3793 0ca2 1C       		.uleb128 0x1c
 3794 0ca3 7000     		.string	"p"
 3795 0ca5 01       		.byte	0x1
 3796 0ca6 1F01     		.value	0x11f
 3797 0ca8 66020000 		.long	0x266
 3798 0cac 02       		.uleb128 0x2
 3799 0cad 91       		.byte	0x91
 3800 0cae 00       		.sleb128 0
 3801 0caf 15       		.uleb128 0x15
 3802 0cb0 0F060000 		.long	.LVL75
 3803 0cb4 741B0000 		.long	0x1b74
 3804 0cb8 C40C0000 		.long	0xcc4
 3805 0cbc 16       		.uleb128 0x16
 3806 0cbd 02       		.uleb128 0x2
 3807 0cbe 74       		.byte	0x74
 3808 0cbf 00       		.sleb128 0
 3809 0cc0 02       		.uleb128 0x2
 3810 0cc1 08       		.byte	0x8
 3811 0cc2 28       		.byte	0x28
 3812 0cc3 00       		.byte	0
 3813 0cc4 15       		.uleb128 0x15
 3814 0cc5 1B060000 		.long	.LVL76
 3815 0cc9 631B0000 		.long	0x1b63
 3816 0ccd D80C0000 		.long	0xcd8
 3817 0cd1 16       		.uleb128 0x16
 3818 0cd2 02       		.uleb128 0x2
 3819 0cd3 74       		.byte	0x74
 3820 0cd4 00       		.sleb128 0
 3821 0cd5 01       		.uleb128 0x1
 3822 0cd6 44       		.byte	0x44
 3823 0cd7 00       		.byte	0
 3824 0cd8 18       		.uleb128 0x18
 3825 0cd9 27060000 		.long	.LVL77
 3826 0cdd 171B0000 		.long	0x1b17
 3827 0ce1 16       		.uleb128 0x16
 3828 0ce2 02       		.uleb128 0x2
 3829 0ce3 74       		.byte	0x74
 3830 0ce4 00       		.sleb128 0
 3831 0ce5 02       		.uleb128 0x2
GAS LISTING /tmp/ccnl8CWE.s 			page 87


 3832 0ce6 08       		.byte	0x8
 3833 0ce7 42       		.byte	0x42
 3834 0ce8 00       		.byte	0
 3835 0ce9 00       		.byte	0
 3836 0cea 1B       		.uleb128 0x1b
 3837 0ceb E9050000 		.long	.LASF99
 3838 0cef 01       		.byte	0x1
 3839 0cf0 1301     		.value	0x113
 3840 0cf2 D9000000 		.long	0xd9
 3841 0cf6 30060000 		.long	.LFB18
 3842 0cfa 3E000000 		.long	.LFE18-.LFB18
 3843 0cfe 01       		.uleb128 0x1
 3844 0cff 9C       		.byte	0x9c
 3845 0d00 6C0D0000 		.long	0xd6c
 3846 0d04 1C       		.uleb128 0x1c
 3847 0d05 7000     		.string	"p"
 3848 0d07 01       		.byte	0x1
 3849 0d08 1301     		.value	0x113
 3850 0d0a 66020000 		.long	0x266
 3851 0d0e 02       		.uleb128 0x2
 3852 0d0f 91       		.byte	0x91
 3853 0d10 00       		.sleb128 0
 3854 0d11 15       		.uleb128 0x15
 3855 0d12 3F060000 		.long	.LVL79
 3856 0d16 741B0000 		.long	0x1b74
 3857 0d1a 250D0000 		.long	0xd25
 3858 0d1e 16       		.uleb128 0x16
 3859 0d1f 02       		.uleb128 0x2
 3860 0d20 74       		.byte	0x74
 3861 0d21 00       		.sleb128 0
 3862 0d22 01       		.uleb128 0x1
 3863 0d23 44       		.byte	0x44
 3864 0d24 00       		.byte	0
 3865 0d25 15       		.uleb128 0x15
 3866 0d26 4B060000 		.long	.LVL80
 3867 0d2a 901A0000 		.long	0x1a90
 3868 0d2e 3D0D0000 		.long	0xd3d
 3869 0d32 16       		.uleb128 0x16
 3870 0d33 02       		.uleb128 0x2
 3871 0d34 74       		.byte	0x74
 3872 0d35 00       		.sleb128 0
 3873 0d36 05       		.uleb128 0x5
 3874 0d37 03       		.byte	0x3
 3875 0d38 08000000 		.long	m2
 3876 0d3c 00       		.byte	0
 3877 0d3d 15       		.uleb128 0x15
 3878 0d3e 57060000 		.long	.LVL81
 3879 0d42 631B0000 		.long	0x1b63
 3880 0d46 510D0000 		.long	0xd51
 3881 0d4a 16       		.uleb128 0x16
 3882 0d4b 02       		.uleb128 0x2
 3883 0d4c 74       		.byte	0x74
 3884 0d4d 00       		.sleb128 0
 3885 0d4e 01       		.uleb128 0x1
 3886 0d4f 3A       		.byte	0x3a
 3887 0d50 00       		.byte	0
 3888 0d51 17       		.uleb128 0x17
GAS LISTING /tmp/ccnl8CWE.s 			page 88


 3889 0d52 5C060000 		.long	.LVL82
 3890 0d56 CB1A0000 		.long	0x1acb
 3891 0d5a 18       		.uleb128 0x18
 3892 0d5b 68060000 		.long	.LVL83
 3893 0d5f 171B0000 		.long	0x1b17
 3894 0d63 16       		.uleb128 0x16
 3895 0d64 02       		.uleb128 0x2
 3896 0d65 74       		.byte	0x74
 3897 0d66 00       		.sleb128 0
 3898 0d67 02       		.uleb128 0x2
 3899 0d68 08       		.byte	0x8
 3900 0d69 43       		.byte	0x43
 3901 0d6a 00       		.byte	0
 3902 0d6b 00       		.byte	0
 3903 0d6c 1B       		.uleb128 0x1b
 3904 0d6d E0050000 		.long	.LASF100
 3905 0d71 01       		.byte	0x1
 3906 0d72 0301     		.value	0x103
 3907 0d74 D9000000 		.long	0xd9
 3908 0d78 70060000 		.long	.LFB17
 3909 0d7c 67000000 		.long	.LFE17-.LFB17
 3910 0d80 01       		.uleb128 0x1
 3911 0d81 9C       		.byte	0x9c
 3912 0d82 370E0000 		.long	0xe37
 3913 0d86 1C       		.uleb128 0x1c
 3914 0d87 7000     		.string	"p"
 3915 0d89 01       		.byte	0x1
 3916 0d8a 0301     		.value	0x103
 3917 0d8c 66020000 		.long	0x266
 3918 0d90 02       		.uleb128 0x2
 3919 0d91 91       		.byte	0x91
 3920 0d92 00       		.sleb128 0
 3921 0d93 15       		.uleb128 0x15
 3922 0d94 7F060000 		.long	.LVL85
 3923 0d98 741B0000 		.long	0x1b74
 3924 0d9c A70D0000 		.long	0xda7
 3925 0da0 16       		.uleb128 0x16
 3926 0da1 02       		.uleb128 0x2
 3927 0da2 74       		.byte	0x74
 3928 0da3 00       		.sleb128 0
 3929 0da4 01       		.uleb128 0x1
 3930 0da5 3A       		.byte	0x3a
 3931 0da6 00       		.byte	0
 3932 0da7 15       		.uleb128 0x15
 3933 0da8 8B060000 		.long	.LVL86
 3934 0dac 901A0000 		.long	0x1a90
 3935 0db0 BF0D0000 		.long	0xdbf
 3936 0db4 16       		.uleb128 0x16
 3937 0db5 02       		.uleb128 0x2
 3938 0db6 74       		.byte	0x74
 3939 0db7 00       		.sleb128 0
 3940 0db8 05       		.uleb128 0x5
 3941 0db9 03       		.byte	0x3
 3942 0dba 08000000 		.long	m2
 3943 0dbe 00       		.byte	0
 3944 0dbf 15       		.uleb128 0x15
 3945 0dc0 97060000 		.long	.LVL87
GAS LISTING /tmp/ccnl8CWE.s 			page 89


 3946 0dc4 631B0000 		.long	0x1b63
 3947 0dc8 D30D0000 		.long	0xdd3
 3948 0dcc 16       		.uleb128 0x16
 3949 0dcd 02       		.uleb128 0x2
 3950 0dce 74       		.byte	0x74
 3951 0dcf 00       		.sleb128 0
 3952 0dd0 01       		.uleb128 0x1
 3953 0dd1 44       		.byte	0x44
 3954 0dd2 00       		.byte	0
 3955 0dd3 15       		.uleb128 0x15
 3956 0dd4 A3060000 		.long	.LVL88
 3957 0dd8 901A0000 		.long	0x1a90
 3958 0ddc EB0D0000 		.long	0xdeb
 3959 0de0 16       		.uleb128 0x16
 3960 0de1 02       		.uleb128 0x2
 3961 0de2 74       		.byte	0x74
 3962 0de3 00       		.sleb128 0
 3963 0de4 05       		.uleb128 0x5
 3964 0de5 03       		.byte	0x3
 3965 0de6 18000000 		.long	m1
 3966 0dea 00       		.byte	0
 3967 0deb 15       		.uleb128 0x15
 3968 0dec AF060000 		.long	.LVL89
 3969 0df0 631B0000 		.long	0x1b63
 3970 0df4 FF0D0000 		.long	0xdff
 3971 0df8 16       		.uleb128 0x16
 3972 0df9 02       		.uleb128 0x2
 3973 0dfa 74       		.byte	0x74
 3974 0dfb 00       		.sleb128 0
 3975 0dfc 01       		.uleb128 0x1
 3976 0dfd 3A       		.byte	0x3a
 3977 0dfe 00       		.byte	0
 3978 0dff 17       		.uleb128 0x17
 3979 0e00 B4060000 		.long	.LVL90
 3980 0e04 CB1A0000 		.long	0x1acb
 3981 0e08 15       		.uleb128 0x15
 3982 0e09 C0060000 		.long	.LVL91
 3983 0e0d 631B0000 		.long	0x1b63
 3984 0e11 1C0E0000 		.long	0xe1c
 3985 0e15 16       		.uleb128 0x16
 3986 0e16 02       		.uleb128 0x2
 3987 0e17 74       		.byte	0x74
 3988 0e18 00       		.sleb128 0
 3989 0e19 01       		.uleb128 0x1
 3990 0e1a 3A       		.byte	0x3a
 3991 0e1b 00       		.byte	0
 3992 0e1c 17       		.uleb128 0x17
 3993 0e1d C5060000 		.long	.LVL92
 3994 0e21 CB1A0000 		.long	0x1acb
 3995 0e25 18       		.uleb128 0x18
 3996 0e26 D1060000 		.long	.LVL93
 3997 0e2a 171B0000 		.long	0x1b17
 3998 0e2e 16       		.uleb128 0x16
 3999 0e2f 02       		.uleb128 0x2
 4000 0e30 74       		.byte	0x74
 4001 0e31 00       		.sleb128 0
 4002 0e32 02       		.uleb128 0x2
GAS LISTING /tmp/ccnl8CWE.s 			page 90


 4003 0e33 08       		.byte	0x8
 4004 0e34 44       		.byte	0x44
 4005 0e35 00       		.byte	0
 4006 0e36 00       		.byte	0
 4007 0e37 1B       		.uleb128 0x1b
 4008 0e38 73000000 		.long	.LASF101
 4009 0e3c 01       		.byte	0x1
 4010 0e3d 6401     		.value	0x164
 4011 0e3f D9000000 		.long	0xd9
 4012 0e43 E0060000 		.long	.LFB24
 4013 0e47 26000000 		.long	.LFE24-.LFB24
 4014 0e4b 01       		.uleb128 0x1
 4015 0e4c 9C       		.byte	0x9c
 4016 0e4d 950E0000 		.long	0xe95
 4017 0e51 1C       		.uleb128 0x1c
 4018 0e52 7000     		.string	"p"
 4019 0e54 01       		.byte	0x1
 4020 0e55 6401     		.value	0x164
 4021 0e57 66020000 		.long	0x266
 4022 0e5b 02       		.uleb128 0x2
 4023 0e5c 91       		.byte	0x91
 4024 0e5d 00       		.sleb128 0
 4025 0e5e 15       		.uleb128 0x15
 4026 0e5f EF060000 		.long	.LVL95
 4027 0e63 741B0000 		.long	0x1b74
 4028 0e67 730E0000 		.long	0xe73
 4029 0e6b 16       		.uleb128 0x16
 4030 0e6c 02       		.uleb128 0x2
 4031 0e6d 74       		.byte	0x74
 4032 0e6e 00       		.sleb128 0
 4033 0e6f 02       		.uleb128 0x2
 4034 0e70 08       		.byte	0x8
 4035 0e71 96       		.byte	0x96
 4036 0e72 00       		.byte	0
 4037 0e73 15       		.uleb128 0x15
 4038 0e74 FB060000 		.long	.LVL96
 4039 0e78 901A0000 		.long	0x1a90
 4040 0e7c 8B0E0000 		.long	0xe8b
 4041 0e80 16       		.uleb128 0x16
 4042 0e81 02       		.uleb128 0x2
 4043 0e82 74       		.byte	0x74
 4044 0e83 00       		.sleb128 0
 4045 0e84 05       		.uleb128 0x5
 4046 0e85 03       		.byte	0x3
 4047 0e86 18000000 		.long	m1
 4048 0e8a 00       		.byte	0
 4049 0e8b 17       		.uleb128 0x17
 4050 0e8c 00070000 		.long	.LVL97
 4051 0e90 CB1A0000 		.long	0x1acb
 4052 0e94 00       		.byte	0
 4053 0e95 1B       		.uleb128 0x1b
 4054 0e96 6A000000 		.long	.LASF102
 4055 0e9a 01       		.byte	0x1
 4056 0e9b 5B01     		.value	0x15b
 4057 0e9d D9000000 		.long	0xd9
 4058 0ea1 10070000 		.long	.LFB23
 4059 0ea5 26000000 		.long	.LFE23-.LFB23
GAS LISTING /tmp/ccnl8CWE.s 			page 91


 4060 0ea9 01       		.uleb128 0x1
 4061 0eaa 9C       		.byte	0x9c
 4062 0eab F30E0000 		.long	0xef3
 4063 0eaf 1C       		.uleb128 0x1c
 4064 0eb0 7000     		.string	"p"
 4065 0eb2 01       		.byte	0x1
 4066 0eb3 5B01     		.value	0x15b
 4067 0eb5 66020000 		.long	0x266
 4068 0eb9 02       		.uleb128 0x2
 4069 0eba 91       		.byte	0x91
 4070 0ebb 00       		.sleb128 0
 4071 0ebc 15       		.uleb128 0x15
 4072 0ebd 1F070000 		.long	.LVL99
 4073 0ec1 741B0000 		.long	0x1b74
 4074 0ec5 D10E0000 		.long	0xed1
 4075 0ec9 16       		.uleb128 0x16
 4076 0eca 02       		.uleb128 0x2
 4077 0ecb 74       		.byte	0x74
 4078 0ecc 00       		.sleb128 0
 4079 0ecd 02       		.uleb128 0x2
 4080 0ece 08       		.byte	0x8
 4081 0ecf 32       		.byte	0x32
 4082 0ed0 00       		.byte	0
 4083 0ed1 15       		.uleb128 0x15
 4084 0ed2 2B070000 		.long	.LVL100
 4085 0ed6 901A0000 		.long	0x1a90
 4086 0eda E90E0000 		.long	0xee9
 4087 0ede 16       		.uleb128 0x16
 4088 0edf 02       		.uleb128 0x2
 4089 0ee0 74       		.byte	0x74
 4090 0ee1 00       		.sleb128 0
 4091 0ee2 05       		.uleb128 0x5
 4092 0ee3 03       		.byte	0x3
 4093 0ee4 08000000 		.long	m2
 4094 0ee8 00       		.byte	0
 4095 0ee9 17       		.uleb128 0x17
 4096 0eea 30070000 		.long	.LVL101
 4097 0eee CB1A0000 		.long	0x1acb
 4098 0ef2 00       		.byte	0
 4099 0ef3 1D       		.uleb128 0x1d
 4100 0ef4 3E030000 		.long	.LASF103
 4101 0ef8 01       		.byte	0x1
 4102 0ef9 6D01     		.value	0x16d
 4103 0efb 40070000 		.long	.LFB25
 4104 0eff 7D030000 		.long	.LFE25-.LFB25
 4105 0f03 01       		.uleb128 0x1
 4106 0f04 9C       		.byte	0x9c
 4107 0f05 3D120000 		.long	0x123d
 4108 0f09 1F       		.uleb128 0x1f
 4109 0f0a 7000     		.string	"p"
 4110 0f0c 01       		.byte	0x1
 4111 0f0d 6E01     		.value	0x16e
 4112 0f0f CE000000 		.long	0xce
 4113 0f13 55000000 		.long	.LLST3
 4114 0f17 1F       		.uleb128 0x1f
 4115 0f18 703100   		.string	"p1"
 4116 0f1b 01       		.byte	0x1
GAS LISTING /tmp/ccnl8CWE.s 			page 92


 4117 0f1c 6E01     		.value	0x16e
 4118 0f1e CE000000 		.long	0xce
 4119 0f22 8D000000 		.long	.LLST4
 4120 0f26 1F       		.uleb128 0x1f
 4121 0f27 703200   		.string	"p2"
 4122 0f2a 01       		.byte	0x1
 4123 0f2b 6E01     		.value	0x16e
 4124 0f2d CE000000 		.long	0xce
 4125 0f31 C5000000 		.long	.LLST5
 4126 0f35 15       		.uleb128 0x15
 4127 0f36 7E070000 		.long	.LVL105
 4128 0f3a A11A0000 		.long	0x1aa1
 4129 0f3e 660F0000 		.long	0xf66
 4130 0f42 16       		.uleb128 0x16
 4131 0f43 02       		.uleb128 0x2
 4132 0f44 74       		.byte	0x74
 4133 0f45 04       		.sleb128 4
 4134 0f46 03       		.uleb128 0x3
 4135 0f47 0A       		.byte	0xa
 4136 0f48 7042     		.value	0x4270
 4137 0f4a 16       		.uleb128 0x16
 4138 0f4b 02       		.uleb128 0x2
 4139 0f4c 74       		.byte	0x74
 4140 0f4d 08       		.sleb128 8
 4141 0f4e 02       		.uleb128 0x2
 4142 0f4f 76       		.byte	0x76
 4143 0f50 00       		.sleb128 0
 4144 0f51 16       		.uleb128 0x16
 4145 0f52 02       		.uleb128 0x2
 4146 0f53 74       		.byte	0x74
 4147 0f54 0C       		.sleb128 12
 4148 0f55 05       		.uleb128 0x5
 4149 0f56 03       		.byte	0x3
 4150 0f57 10070000 		.long	thread4a
 4151 0f5b 16       		.uleb128 0x16
 4152 0f5c 02       		.uleb128 0x2
 4153 0f5d 74       		.byte	0x74
 4154 0f5e 10       		.sleb128 16
 4155 0f5f 05       		.uleb128 0x5
 4156 0f60 03       		.byte	0x3
 4157 0f61 06000000 		.long	.LC3
 4158 0f65 00       		.byte	0
 4159 0f66 15       		.uleb128 0x15
 4160 0f67 AD070000 		.long	.LVL106
 4161 0f6b A11A0000 		.long	0x1aa1
 4162 0f6f 9E0F0000 		.long	0xf9e
 4163 0f73 16       		.uleb128 0x16
 4164 0f74 02       		.uleb128 0x2
 4165 0f75 74       		.byte	0x74
 4166 0f76 00       		.sleb128 0
 4167 0f77 02       		.uleb128 0x2
 4168 0f78 75       		.byte	0x75
 4169 0f79 00       		.sleb128 0
 4170 0f7a 16       		.uleb128 0x16
 4171 0f7b 02       		.uleb128 0x2
 4172 0f7c 74       		.byte	0x74
 4173 0f7d 04       		.sleb128 4
GAS LISTING /tmp/ccnl8CWE.s 			page 93


 4174 0f7e 03       		.uleb128 0x3
 4175 0f7f 0A       		.byte	0xa
 4176 0f80 7042     		.value	0x4270
 4177 0f82 16       		.uleb128 0x16
 4178 0f83 02       		.uleb128 0x2
 4179 0f84 74       		.byte	0x74
 4180 0f85 08       		.sleb128 8
 4181 0f86 02       		.uleb128 0x2
 4182 0f87 77       		.byte	0x77
 4183 0f88 00       		.sleb128 0
 4184 0f89 16       		.uleb128 0x16
 4185 0f8a 02       		.uleb128 0x2
 4186 0f8b 74       		.byte	0x74
 4187 0f8c 0C       		.sleb128 12
 4188 0f8d 05       		.uleb128 0x5
 4189 0f8e 03       		.byte	0x3
 4190 0f8f E0060000 		.long	thread4b
 4191 0f93 16       		.uleb128 0x16
 4192 0f94 02       		.uleb128 0x2
 4193 0f95 74       		.byte	0x74
 4194 0f96 10       		.sleb128 16
 4195 0f97 05       		.uleb128 0x5
 4196 0f98 03       		.byte	0x3
 4197 0f99 08000000 		.long	.LC4
 4198 0f9d 00       		.byte	0
 4199 0f9e 15       		.uleb128 0x15
 4200 0f9f BE070000 		.long	.LVL107
 4201 0fa3 901A0000 		.long	0x1a90
 4202 0fa7 B60F0000 		.long	0xfb6
 4203 0fab 16       		.uleb128 0x16
 4204 0fac 02       		.uleb128 0x2
 4205 0fad 74       		.byte	0x74
 4206 0fae 00       		.sleb128 0
 4207 0faf 05       		.uleb128 0x5
 4208 0fb0 03       		.byte	0x3
 4209 0fb1 08000000 		.long	m2
 4210 0fb5 00       		.byte	0
 4211 0fb6 15       		.uleb128 0x15
 4212 0fb7 DC070000 		.long	.LVL108
 4213 0fbb DD1A0000 		.long	0x1add
 4214 0fbf CA0F0000 		.long	0xfca
 4215 0fc3 16       		.uleb128 0x16
 4216 0fc4 02       		.uleb128 0x2
 4217 0fc5 74       		.byte	0x74
 4218 0fc6 00       		.sleb128 0
 4219 0fc7 01       		.uleb128 0x1
 4220 0fc8 31       		.byte	0x31
 4221 0fc9 00       		.byte	0
 4222 0fca 15       		.uleb128 0x15
 4223 0fcb F4070000 		.long	.LVL113
 4224 0fcf 741B0000 		.long	0x1b74
 4225 0fd3 DF0F0000 		.long	0xfdf
 4226 0fd7 16       		.uleb128 0x16
 4227 0fd8 02       		.uleb128 0x2
 4228 0fd9 74       		.byte	0x74
 4229 0fda 00       		.sleb128 0
 4230 0fdb 02       		.uleb128 0x2
GAS LISTING /tmp/ccnl8CWE.s 			page 94


 4231 0fdc 08       		.byte	0x8
 4232 0fdd 64       		.byte	0x64
 4233 0fde 00       		.byte	0
 4234 0fdf 15       		.uleb128 0x15
 4235 0fe0 12080000 		.long	.LVL114
 4236 0fe4 DD1A0000 		.long	0x1add
 4237 0fe8 F30F0000 		.long	0xff3
 4238 0fec 16       		.uleb128 0x16
 4239 0fed 02       		.uleb128 0x2
 4240 0fee 74       		.byte	0x74
 4241 0fef 00       		.sleb128 0
 4242 0ff0 01       		.uleb128 0x1
 4243 0ff1 32       		.byte	0x32
 4244 0ff2 00       		.byte	0
 4245 0ff3 15       		.uleb128 0x15
 4246 0ff4 22080000 		.long	.LVL115
 4247 0ff8 901A0000 		.long	0x1a90
 4248 0ffc 0B100000 		.long	0x100b
 4249 1000 16       		.uleb128 0x16
 4250 1001 02       		.uleb128 0x2
 4251 1002 74       		.byte	0x74
 4252 1003 00       		.sleb128 0
 4253 1004 05       		.uleb128 0x5
 4254 1005 03       		.byte	0x3
 4255 1006 18000000 		.long	m1
 4256 100a 00       		.byte	0
 4257 100b 15       		.uleb128 0x15
 4258 100c 40080000 		.long	.LVL116
 4259 1010 DD1A0000 		.long	0x1add
 4260 1014 1F100000 		.long	0x101f
 4261 1018 16       		.uleb128 0x16
 4262 1019 02       		.uleb128 0x2
 4263 101a 74       		.byte	0x74
 4264 101b 00       		.sleb128 0
 4265 101c 01       		.uleb128 0x1
 4266 101d 33       		.byte	0x33
 4267 101e 00       		.byte	0
 4268 101f 15       		.uleb128 0x15
 4269 1020 50080000 		.long	.LVL117
 4270 1024 741B0000 		.long	0x1b74
 4271 1028 34100000 		.long	0x1034
 4272 102c 16       		.uleb128 0x16
 4273 102d 02       		.uleb128 0x2
 4274 102e 74       		.byte	0x74
 4275 102f 00       		.sleb128 0
 4276 1030 02       		.uleb128 0x2
 4277 1031 08       		.byte	0x8
 4278 1032 64       		.byte	0x64
 4279 1033 00       		.byte	0
 4280 1034 15       		.uleb128 0x15
 4281 1035 6E080000 		.long	.LVL118
 4282 1039 DD1A0000 		.long	0x1add
 4283 103d 48100000 		.long	0x1048
 4284 1041 16       		.uleb128 0x16
 4285 1042 02       		.uleb128 0x2
 4286 1043 74       		.byte	0x74
 4287 1044 00       		.sleb128 0
GAS LISTING /tmp/ccnl8CWE.s 			page 95


 4288 1045 01       		.uleb128 0x1
 4289 1046 34       		.byte	0x34
 4290 1047 00       		.byte	0
 4291 1048 17       		.uleb128 0x17
 4292 1049 7B080000 		.long	.LVL119
 4293 104d CB1A0000 		.long	0x1acb
 4294 1051 15       		.uleb128 0x15
 4295 1052 99080000 		.long	.LVL120
 4296 1056 DD1A0000 		.long	0x1add
 4297 105a 65100000 		.long	0x1065
 4298 105e 16       		.uleb128 0x16
 4299 105f 02       		.uleb128 0x2
 4300 1060 74       		.byte	0x74
 4301 1061 00       		.sleb128 0
 4302 1062 01       		.uleb128 0x1
 4303 1063 35       		.byte	0x35
 4304 1064 00       		.byte	0
 4305 1065 15       		.uleb128 0x15
 4306 1066 AD080000 		.long	.LVL121
 4307 106a 741B0000 		.long	0x1b74
 4308 106e 7A100000 		.long	0x107a
 4309 1072 16       		.uleb128 0x16
 4310 1073 02       		.uleb128 0x2
 4311 1074 74       		.byte	0x74
 4312 1075 00       		.sleb128 0
 4313 1076 02       		.uleb128 0x2
 4314 1077 08       		.byte	0x8
 4315 1078 64       		.byte	0x64
 4316 1079 00       		.byte	0
 4317 107a 15       		.uleb128 0x15
 4318 107b CB080000 		.long	.LVL122
 4319 107f DD1A0000 		.long	0x1add
 4320 1083 8E100000 		.long	0x108e
 4321 1087 16       		.uleb128 0x16
 4322 1088 02       		.uleb128 0x2
 4323 1089 74       		.byte	0x74
 4324 108a 00       		.sleb128 0
 4325 108b 01       		.uleb128 0x1
 4326 108c 36       		.byte	0x36
 4327 108d 00       		.byte	0
 4328 108e 17       		.uleb128 0x17
 4329 108f D8080000 		.long	.LVL123
 4330 1093 861B0000 		.long	0x1b86
 4331 1097 15       		.uleb128 0x15
 4332 1098 F6080000 		.long	.LVL124
 4333 109c DD1A0000 		.long	0x1add
 4334 10a0 AB100000 		.long	0x10ab
 4335 10a4 16       		.uleb128 0x16
 4336 10a5 02       		.uleb128 0x2
 4337 10a6 74       		.byte	0x74
 4338 10a7 00       		.sleb128 0
 4339 10a8 01       		.uleb128 0x1
 4340 10a9 37       		.byte	0x37
 4341 10aa 00       		.byte	0
 4342 10ab 17       		.uleb128 0x17
 4343 10ac 03090000 		.long	.LVL125
 4344 10b0 D61A0000 		.long	0x1ad6
GAS LISTING /tmp/ccnl8CWE.s 			page 96


 4345 10b4 15       		.uleb128 0x15
 4346 10b5 2C090000 		.long	.LVL126
 4347 10b9 A11A0000 		.long	0x1aa1
 4348 10bd E5100000 		.long	0x10e5
 4349 10c1 16       		.uleb128 0x16
 4350 10c2 02       		.uleb128 0x2
 4351 10c3 74       		.byte	0x74
 4352 10c4 04       		.sleb128 4
 4353 10c5 03       		.uleb128 0x3
 4354 10c6 0A       		.byte	0xa
 4355 10c7 7042     		.value	0x4270
 4356 10c9 16       		.uleb128 0x16
 4357 10ca 02       		.uleb128 0x2
 4358 10cb 74       		.byte	0x74
 4359 10cc 08       		.sleb128 8
 4360 10cd 02       		.uleb128 0x2
 4361 10ce 76       		.byte	0x76
 4362 10cf 00       		.sleb128 0
 4363 10d0 16       		.uleb128 0x16
 4364 10d1 02       		.uleb128 0x2
 4365 10d2 74       		.byte	0x74
 4366 10d3 0C       		.sleb128 12
 4367 10d4 05       		.uleb128 0x5
 4368 10d5 03       		.byte	0x3
 4369 10d6 10070000 		.long	thread4a
 4370 10da 16       		.uleb128 0x16
 4371 10db 02       		.uleb128 0x2
 4372 10dc 74       		.byte	0x74
 4373 10dd 10       		.sleb128 16
 4374 10de 05       		.uleb128 0x5
 4375 10df 03       		.byte	0x3
 4376 10e0 02000000 		.long	.LC1
 4377 10e4 00       		.byte	0
 4378 10e5 15       		.uleb128 0x15
 4379 10e6 55090000 		.long	.LVL127
 4380 10ea A11A0000 		.long	0x1aa1
 4381 10ee 1D110000 		.long	0x111d
 4382 10f2 16       		.uleb128 0x16
 4383 10f3 02       		.uleb128 0x2
 4384 10f4 74       		.byte	0x74
 4385 10f5 00       		.sleb128 0
 4386 10f6 02       		.uleb128 0x2
 4387 10f7 75       		.byte	0x75
 4388 10f8 00       		.sleb128 0
 4389 10f9 16       		.uleb128 0x16
 4390 10fa 02       		.uleb128 0x2
 4391 10fb 74       		.byte	0x74
 4392 10fc 04       		.sleb128 4
 4393 10fd 03       		.uleb128 0x3
 4394 10fe 0A       		.byte	0xa
 4395 10ff 7042     		.value	0x4270
 4396 1101 16       		.uleb128 0x16
 4397 1102 02       		.uleb128 0x2
 4398 1103 74       		.byte	0x74
 4399 1104 08       		.sleb128 8
 4400 1105 02       		.uleb128 0x2
 4401 1106 77       		.byte	0x77
GAS LISTING /tmp/ccnl8CWE.s 			page 97


 4402 1107 00       		.sleb128 0
 4403 1108 16       		.uleb128 0x16
 4404 1109 02       		.uleb128 0x2
 4405 110a 74       		.byte	0x74
 4406 110b 0C       		.sleb128 12
 4407 110c 05       		.uleb128 0x5
 4408 110d 03       		.byte	0x3
 4409 110e E0060000 		.long	thread4b
 4410 1112 16       		.uleb128 0x16
 4411 1113 02       		.uleb128 0x2
 4412 1114 74       		.byte	0x74
 4413 1115 10       		.sleb128 16
 4414 1116 05       		.uleb128 0x5
 4415 1117 03       		.byte	0x3
 4416 1118 04000000 		.long	.LC2
 4417 111c 00       		.byte	0
 4418 111d 15       		.uleb128 0x15
 4419 111e 66090000 		.long	.LVL128
 4420 1122 901A0000 		.long	0x1a90
 4421 1126 35110000 		.long	0x1135
 4422 112a 16       		.uleb128 0x16
 4423 112b 02       		.uleb128 0x2
 4424 112c 74       		.byte	0x74
 4425 112d 00       		.sleb128 0
 4426 112e 05       		.uleb128 0x5
 4427 112f 03       		.byte	0x3
 4428 1130 08000000 		.long	m2
 4429 1134 00       		.byte	0
 4430 1135 15       		.uleb128 0x15
 4431 1136 84090000 		.long	.LVL129
 4432 113a DD1A0000 		.long	0x1add
 4433 113e 49110000 		.long	0x1149
 4434 1142 16       		.uleb128 0x16
 4435 1143 02       		.uleb128 0x2
 4436 1144 74       		.byte	0x74
 4437 1145 00       		.sleb128 0
 4438 1146 01       		.uleb128 0x1
 4439 1147 38       		.byte	0x38
 4440 1148 00       		.byte	0
 4441 1149 15       		.uleb128 0x15
 4442 114a 98090000 		.long	.LVL130
 4443 114e 741B0000 		.long	0x1b74
 4444 1152 5E110000 		.long	0x115e
 4445 1156 16       		.uleb128 0x16
 4446 1157 02       		.uleb128 0x2
 4447 1158 74       		.byte	0x74
 4448 1159 00       		.sleb128 0
 4449 115a 02       		.uleb128 0x2
 4450 115b 08       		.byte	0x8
 4451 115c 64       		.byte	0x64
 4452 115d 00       		.byte	0
 4453 115e 15       		.uleb128 0x15
 4454 115f B6090000 		.long	.LVL131
 4455 1163 DD1A0000 		.long	0x1add
 4456 1167 72110000 		.long	0x1172
 4457 116b 16       		.uleb128 0x16
 4458 116c 02       		.uleb128 0x2
GAS LISTING /tmp/ccnl8CWE.s 			page 98


 4459 116d 74       		.byte	0x74
 4460 116e 00       		.sleb128 0
 4461 116f 01       		.uleb128 0x1
 4462 1170 39       		.byte	0x39
 4463 1171 00       		.byte	0
 4464 1172 15       		.uleb128 0x15
 4465 1173 CA090000 		.long	.LVL132
 4466 1177 901A0000 		.long	0x1a90
 4467 117b 8A110000 		.long	0x118a
 4468 117f 16       		.uleb128 0x16
 4469 1180 02       		.uleb128 0x2
 4470 1181 74       		.byte	0x74
 4471 1182 00       		.sleb128 0
 4472 1183 05       		.uleb128 0x5
 4473 1184 03       		.byte	0x3
 4474 1185 18000000 		.long	m1
 4475 1189 00       		.byte	0
 4476 118a 15       		.uleb128 0x15
 4477 118b E8090000 		.long	.LVL133
 4478 118f DD1A0000 		.long	0x1add
 4479 1193 9E110000 		.long	0x119e
 4480 1197 16       		.uleb128 0x16
 4481 1198 02       		.uleb128 0x2
 4482 1199 74       		.byte	0x74
 4483 119a 00       		.sleb128 0
 4484 119b 01       		.uleb128 0x1
 4485 119c 3A       		.byte	0x3a
 4486 119d 00       		.byte	0
 4487 119e 15       		.uleb128 0x15
 4488 119f FC090000 		.long	.LVL134
 4489 11a3 741B0000 		.long	0x1b74
 4490 11a7 B3110000 		.long	0x11b3
 4491 11ab 16       		.uleb128 0x16
 4492 11ac 02       		.uleb128 0x2
 4493 11ad 74       		.byte	0x74
 4494 11ae 00       		.sleb128 0
 4495 11af 02       		.uleb128 0x2
 4496 11b0 08       		.byte	0x8
 4497 11b1 64       		.byte	0x64
 4498 11b2 00       		.byte	0
 4499 11b3 15       		.uleb128 0x15
 4500 11b4 1A0A0000 		.long	.LVL135
 4501 11b8 DD1A0000 		.long	0x1add
 4502 11bc C7110000 		.long	0x11c7
 4503 11c0 16       		.uleb128 0x16
 4504 11c1 02       		.uleb128 0x2
 4505 11c2 74       		.byte	0x74
 4506 11c3 00       		.sleb128 0
 4507 11c4 01       		.uleb128 0x1
 4508 11c5 3B       		.byte	0x3b
 4509 11c6 00       		.byte	0
 4510 11c7 17       		.uleb128 0x17
 4511 11c8 280A0000 		.long	.LVL136
 4512 11cc 8D1B0000 		.long	0x1b8d
 4513 11d0 17       		.uleb128 0x17
 4514 11d1 2D0A0000 		.long	.LVL137
 4515 11d5 981B0000 		.long	0x1b98
GAS LISTING /tmp/ccnl8CWE.s 			page 99


 4516 11d9 15       		.uleb128 0x15
 4517 11da 4C0A0000 		.long	.LVL138
 4518 11de DD1A0000 		.long	0x1add
 4519 11e2 ED110000 		.long	0x11ed
 4520 11e6 16       		.uleb128 0x16
 4521 11e7 02       		.uleb128 0x2
 4522 11e8 74       		.byte	0x74
 4523 11e9 00       		.sleb128 0
 4524 11ea 01       		.uleb128 0x1
 4525 11eb 3C       		.byte	0x3c
 4526 11ec 00       		.byte	0
 4527 11ed 15       		.uleb128 0x15
 4528 11ee 600A0000 		.long	.LVL139
 4529 11f2 741B0000 		.long	0x1b74
 4530 11f6 02120000 		.long	0x1202
 4531 11fa 16       		.uleb128 0x16
 4532 11fb 02       		.uleb128 0x2
 4533 11fc 74       		.byte	0x74
 4534 11fd 00       		.sleb128 0
 4535 11fe 02       		.uleb128 0x2
 4536 11ff 08       		.byte	0x8
 4537 1200 64       		.byte	0x64
 4538 1201 00       		.byte	0
 4539 1202 15       		.uleb128 0x15
 4540 1203 7E0A0000 		.long	.LVL140
 4541 1207 DD1A0000 		.long	0x1add
 4542 120b 16120000 		.long	0x1216
 4543 120f 16       		.uleb128 0x16
 4544 1210 02       		.uleb128 0x2
 4545 1211 74       		.byte	0x74
 4546 1212 00       		.sleb128 0
 4547 1213 01       		.uleb128 0x1
 4548 1214 3D       		.byte	0x3d
 4549 1215 00       		.byte	0
 4550 1216 17       		.uleb128 0x17
 4551 1217 8B0A0000 		.long	.LVL141
 4552 121b 861B0000 		.long	0x1b86
 4553 121f 15       		.uleb128 0x15
 4554 1220 A90A0000 		.long	.LVL142
 4555 1224 DD1A0000 		.long	0x1add
 4556 1228 33120000 		.long	0x1233
 4557 122c 16       		.uleb128 0x16
 4558 122d 02       		.uleb128 0x2
 4559 122e 74       		.byte	0x74
 4560 122f 00       		.sleb128 0
 4561 1230 01       		.uleb128 0x1
 4562 1231 3E       		.byte	0x3e
 4563 1232 00       		.byte	0
 4564 1233 20       		.uleb128 0x20
 4565 1234 BD0A0000 		.long	.LVL146
 4566 1238 D61A0000 		.long	0x1ad6
 4567 123c 00       		.byte	0
 4568 123d 1D       		.uleb128 0x1d
 4569 123e 6D030000 		.long	.LASF104
 4570 1242 01       		.byte	0x1
 4571 1243 B201     		.value	0x1b2
 4572 1245 C00A0000 		.long	.LFB27
GAS LISTING /tmp/ccnl8CWE.s 			page 100


 4573 1249 29010000 		.long	.LFE27-.LFB27
 4574 124d 01       		.uleb128 0x1
 4575 124e 9C       		.byte	0x9c
 4576 124f 54130000 		.long	0x1354
 4577 1253 1F       		.uleb128 0x1f
 4578 1254 6200     		.string	"b"
 4579 1256 01       		.byte	0x1
 4580 1257 B301     		.value	0x1b3
 4581 1259 90000000 		.long	0x90
 4582 125d E3000000 		.long	.LLST6
 4583 1261 1E       		.uleb128 0x1e
 4584 1262 36000000 		.long	.LASF90
 4585 1266 01       		.byte	0x1
 4586 1267 B401     		.value	0x1b4
 4587 1269 CE000000 		.long	0xce
 4588 126d 01010000 		.long	.LLST7
 4589 1271 15       		.uleb128 0x15
 4590 1272 D80A0000 		.long	.LVL148
 4591 1276 9F1B0000 		.long	0x1b9f
 4592 127a 89120000 		.long	0x1289
 4593 127e 16       		.uleb128 0x16
 4594 127f 02       		.uleb128 0x2
 4595 1280 74       		.byte	0x74
 4596 1281 00       		.sleb128 0
 4597 1282 05       		.uleb128 0x5
 4598 1283 03       		.byte	0x3
 4599 1284 18000000 		.long	m1
 4600 1288 00       		.byte	0
 4601 1289 15       		.uleb128 0x15
 4602 128a EB0A0000 		.long	.LVL149
 4603 128e DD1A0000 		.long	0x1add
 4604 1292 9D120000 		.long	0x129d
 4605 1296 16       		.uleb128 0x16
 4606 1297 02       		.uleb128 0x2
 4607 1298 74       		.byte	0x74
 4608 1299 00       		.sleb128 0
 4609 129a 01       		.uleb128 0x1
 4610 129b 31       		.byte	0x31
 4611 129c 00       		.byte	0
 4612 129d 15       		.uleb128 0x15
 4613 129e 040B0000 		.long	.LVL152
 4614 12a2 9F1B0000 		.long	0x1b9f
 4615 12a6 B5120000 		.long	0x12b5
 4616 12aa 16       		.uleb128 0x16
 4617 12ab 02       		.uleb128 0x2
 4618 12ac 74       		.byte	0x74
 4619 12ad 00       		.sleb128 0
 4620 12ae 05       		.uleb128 0x5
 4621 12af 03       		.byte	0x3
 4622 12b0 18000000 		.long	m1
 4623 12b4 00       		.byte	0
 4624 12b5 15       		.uleb128 0x15
 4625 12b6 1A0B0000 		.long	.LVL154
 4626 12ba DD1A0000 		.long	0x1add
 4627 12be C9120000 		.long	0x12c9
 4628 12c2 16       		.uleb128 0x16
 4629 12c3 02       		.uleb128 0x2
GAS LISTING /tmp/ccnl8CWE.s 			page 101


 4630 12c4 74       		.byte	0x74
 4631 12c5 00       		.sleb128 0
 4632 12c6 01       		.uleb128 0x1
 4633 12c7 32       		.byte	0x32
 4634 12c8 00       		.byte	0
 4635 12c9 17       		.uleb128 0x17
 4636 12ca 240B0000 		.long	.LVL155
 4637 12ce 8D1B0000 		.long	0x1b8d
 4638 12d2 15       		.uleb128 0x15
 4639 12d3 440B0000 		.long	.LVL156
 4640 12d7 DD1A0000 		.long	0x1add
 4641 12db E6120000 		.long	0x12e6
 4642 12df 16       		.uleb128 0x16
 4643 12e0 02       		.uleb128 0x2
 4644 12e1 74       		.byte	0x74
 4645 12e2 00       		.sleb128 0
 4646 12e3 01       		.uleb128 0x1
 4647 12e4 33       		.byte	0x33
 4648 12e5 00       		.byte	0
 4649 12e6 15       		.uleb128 0x15
 4650 12e7 650B0000 		.long	.LVL157
 4651 12eb DD1A0000 		.long	0x1add
 4652 12ef FA120000 		.long	0x12fa
 4653 12f3 16       		.uleb128 0x16
 4654 12f4 02       		.uleb128 0x2
 4655 12f5 74       		.byte	0x74
 4656 12f6 00       		.sleb128 0
 4657 12f7 01       		.uleb128 0x1
 4658 12f8 34       		.byte	0x34
 4659 12f9 00       		.byte	0
 4660 12fa 15       		.uleb128 0x15
 4661 12fb 870B0000 		.long	.LVL158
 4662 12ff DD1A0000 		.long	0x1add
 4663 1303 0E130000 		.long	0x130e
 4664 1307 16       		.uleb128 0x16
 4665 1308 02       		.uleb128 0x2
 4666 1309 74       		.byte	0x74
 4667 130a 00       		.sleb128 0
 4668 130b 01       		.uleb128 0x1
 4669 130c 35       		.byte	0x35
 4670 130d 00       		.byte	0
 4671 130e 15       		.uleb128 0x15
 4672 130f 9B0B0000 		.long	.LVL159
 4673 1313 901A0000 		.long	0x1a90
 4674 1317 26130000 		.long	0x1326
 4675 131b 16       		.uleb128 0x16
 4676 131c 02       		.uleb128 0x2
 4677 131d 74       		.byte	0x74
 4678 131e 00       		.sleb128 0
 4679 131f 05       		.uleb128 0x5
 4680 1320 03       		.byte	0x3
 4681 1321 18000000 		.long	m1
 4682 1325 00       		.byte	0
 4683 1326 17       		.uleb128 0x17
 4684 1327 A00B0000 		.long	.LVL160
 4685 132b 861B0000 		.long	0x1b86
 4686 132f 15       		.uleb128 0x15
GAS LISTING /tmp/ccnl8CWE.s 			page 102


 4687 1330 BF0B0000 		.long	.LVL161
 4688 1334 DD1A0000 		.long	0x1add
 4689 1338 43130000 		.long	0x1343
 4690 133c 16       		.uleb128 0x16
 4691 133d 02       		.uleb128 0x2
 4692 133e 74       		.byte	0x74
 4693 133f 00       		.sleb128 0
 4694 1340 01       		.uleb128 0x1
 4695 1341 36       		.byte	0x36
 4696 1342 00       		.byte	0
 4697 1343 18       		.uleb128 0x18
 4698 1344 E40B0000 		.long	.LVL162
 4699 1348 DD1A0000 		.long	0x1add
 4700 134c 16       		.uleb128 0x16
 4701 134d 02       		.uleb128 0x2
 4702 134e 74       		.byte	0x74
 4703 134f 00       		.sleb128 0
 4704 1350 01       		.uleb128 0x1
 4705 1351 37       		.byte	0x37
 4706 1352 00       		.byte	0
 4707 1353 00       		.byte	0
 4708 1354 1D       		.uleb128 0x1d
 4709 1355 A0050000 		.long	.LASF105
 4710 1359 01       		.byte	0x1
 4711 135a EE01     		.value	0x1ee
 4712 135c F00B0000 		.long	.LFB30
 4713 1360 62010000 		.long	.LFE30-.LFB30
 4714 1364 01       		.uleb128 0x1
 4715 1365 9C       		.byte	0x9c
 4716 1366 14150000 		.long	0x1514
 4717 136a 1E       		.uleb128 0x1e
 4718 136b 36000000 		.long	.LASF90
 4719 136f 01       		.byte	0x1
 4720 1370 F001     		.value	0x1f0
 4721 1372 CE000000 		.long	0xce
 4722 1376 1F010000 		.long	.LLST8
 4723 137a 15       		.uleb128 0x15
 4724 137b 280C0000 		.long	.LVL164
 4725 137f A11A0000 		.long	0x1aa1
 4726 1383 AB130000 		.long	0x13ab
 4727 1387 16       		.uleb128 0x16
 4728 1388 02       		.uleb128 0x2
 4729 1389 74       		.byte	0x74
 4730 138a 04       		.sleb128 4
 4731 138b 03       		.uleb128 0x3
 4732 138c 0A       		.byte	0xa
 4733 138d 7042     		.value	0x4270
 4734 138f 16       		.uleb128 0x16
 4735 1390 02       		.uleb128 0x2
 4736 1391 74       		.byte	0x74
 4737 1392 08       		.sleb128 8
 4738 1393 02       		.uleb128 0x2
 4739 1394 73       		.byte	0x73
 4740 1395 01       		.sleb128 1
 4741 1396 16       		.uleb128 0x16
 4742 1397 02       		.uleb128 0x2
 4743 1398 74       		.byte	0x74
GAS LISTING /tmp/ccnl8CWE.s 			page 103


 4744 1399 0C       		.sleb128 12
 4745 139a 05       		.uleb128 0x5
 4746 139b 03       		.byte	0x3
 4747 139c 600D0000 		.long	thread10
 4748 13a0 16       		.uleb128 0x16
 4749 13a1 02       		.uleb128 0x2
 4750 13a2 74       		.byte	0x74
 4751 13a3 10       		.sleb128 16
 4752 13a4 05       		.uleb128 0x5
 4753 13a5 03       		.byte	0x3
 4754 13a6 00000000 		.long	.LC0
 4755 13aa 00       		.byte	0
 4756 13ab 15       		.uleb128 0x15
 4757 13ac 590C0000 		.long	.LVL165
 4758 13b0 A11A0000 		.long	0x1aa1
 4759 13b4 DC130000 		.long	0x13dc
 4760 13b8 16       		.uleb128 0x16
 4761 13b9 02       		.uleb128 0x2
 4762 13ba 74       		.byte	0x74
 4763 13bb 04       		.sleb128 4
 4764 13bc 03       		.uleb128 0x3
 4765 13bd 0A       		.byte	0xa
 4766 13be 7042     		.value	0x4270
 4767 13c0 16       		.uleb128 0x16
 4768 13c1 02       		.uleb128 0x2
 4769 13c2 74       		.byte	0x74
 4770 13c3 08       		.sleb128 8
 4771 13c4 02       		.uleb128 0x2
 4772 13c5 73       		.byte	0x73
 4773 13c6 02       		.sleb128 2
 4774 13c7 16       		.uleb128 0x16
 4775 13c8 02       		.uleb128 0x2
 4776 13c9 74       		.byte	0x74
 4777 13ca 0C       		.sleb128 12
 4778 13cb 05       		.uleb128 0x5
 4779 13cc 03       		.byte	0x3
 4780 13cd 600D0000 		.long	thread10
 4781 13d1 16       		.uleb128 0x16
 4782 13d2 02       		.uleb128 0x2
 4783 13d3 74       		.byte	0x74
 4784 13d4 10       		.sleb128 16
 4785 13d5 05       		.uleb128 0x5
 4786 13d6 03       		.byte	0x3
 4787 13d7 02000000 		.long	.LC1
 4788 13db 00       		.byte	0
 4789 13dc 15       		.uleb128 0x15
 4790 13dd 8A0C0000 		.long	.LVL166
 4791 13e1 A11A0000 		.long	0x1aa1
 4792 13e5 0D140000 		.long	0x140d
 4793 13e9 16       		.uleb128 0x16
 4794 13ea 02       		.uleb128 0x2
 4795 13eb 74       		.byte	0x74
 4796 13ec 04       		.sleb128 4
 4797 13ed 03       		.uleb128 0x3
 4798 13ee 0A       		.byte	0xa
 4799 13ef 7042     		.value	0x4270
 4800 13f1 16       		.uleb128 0x16
GAS LISTING /tmp/ccnl8CWE.s 			page 104


 4801 13f2 02       		.uleb128 0x2
 4802 13f3 74       		.byte	0x74
 4803 13f4 08       		.sleb128 8
 4804 13f5 02       		.uleb128 0x2
 4805 13f6 73       		.byte	0x73
 4806 13f7 03       		.sleb128 3
 4807 13f8 16       		.uleb128 0x16
 4808 13f9 02       		.uleb128 0x2
 4809 13fa 74       		.byte	0x74
 4810 13fb 0C       		.sleb128 12
 4811 13fc 05       		.uleb128 0x5
 4812 13fd 03       		.byte	0x3
 4813 13fe 600D0000 		.long	thread10
 4814 1402 16       		.uleb128 0x16
 4815 1403 02       		.uleb128 0x2
 4816 1404 74       		.byte	0x74
 4817 1405 10       		.sleb128 16
 4818 1406 05       		.uleb128 0x5
 4819 1407 03       		.byte	0x3
 4820 1408 04000000 		.long	.LC2
 4821 140c 00       		.byte	0
 4822 140d 15       		.uleb128 0x15
 4823 140e BE0C0000 		.long	.LVL168
 4824 1412 A11A0000 		.long	0x1aa1
 4825 1416 3E140000 		.long	0x143e
 4826 141a 16       		.uleb128 0x16
 4827 141b 02       		.uleb128 0x2
 4828 141c 74       		.byte	0x74
 4829 141d 04       		.sleb128 4
 4830 141e 03       		.uleb128 0x3
 4831 141f 0A       		.byte	0xa
 4832 1420 7042     		.value	0x4270
 4833 1422 16       		.uleb128 0x16
 4834 1423 02       		.uleb128 0x2
 4835 1424 74       		.byte	0x74
 4836 1425 08       		.sleb128 8
 4837 1426 02       		.uleb128 0x2
 4838 1427 73       		.byte	0x73
 4839 1428 7F       		.sleb128 -1
 4840 1429 16       		.uleb128 0x16
 4841 142a 02       		.uleb128 0x2
 4842 142b 74       		.byte	0x74
 4843 142c 0C       		.sleb128 12
 4844 142d 05       		.uleb128 0x5
 4845 142e 03       		.byte	0x3
 4846 142f 600D0000 		.long	thread10
 4847 1433 16       		.uleb128 0x16
 4848 1434 02       		.uleb128 0x2
 4849 1435 74       		.byte	0x74
 4850 1436 10       		.sleb128 16
 4851 1437 05       		.uleb128 0x5
 4852 1438 03       		.byte	0x3
 4853 1439 06000000 		.long	.LC3
 4854 143d 00       		.byte	0
 4855 143e 15       		.uleb128 0x15
 4856 143f EC0C0000 		.long	.LVL169
 4857 1443 A11A0000 		.long	0x1aa1
GAS LISTING /tmp/ccnl8CWE.s 			page 105


 4858 1447 6F140000 		.long	0x146f
 4859 144b 16       		.uleb128 0x16
 4860 144c 02       		.uleb128 0x2
 4861 144d 74       		.byte	0x74
 4862 144e 04       		.sleb128 4
 4863 144f 03       		.uleb128 0x3
 4864 1450 0A       		.byte	0xa
 4865 1451 7042     		.value	0x4270
 4866 1453 16       		.uleb128 0x16
 4867 1454 02       		.uleb128 0x2
 4868 1455 74       		.byte	0x74
 4869 1456 08       		.sleb128 8
 4870 1457 02       		.uleb128 0x2
 4871 1458 73       		.byte	0x73
 4872 1459 00       		.sleb128 0
 4873 145a 16       		.uleb128 0x16
 4874 145b 02       		.uleb128 0x2
 4875 145c 74       		.byte	0x74
 4876 145d 0C       		.sleb128 12
 4877 145e 05       		.uleb128 0x5
 4878 145f 03       		.byte	0x3
 4879 1460 600D0000 		.long	thread10
 4880 1464 16       		.uleb128 0x16
 4881 1465 02       		.uleb128 0x2
 4882 1466 74       		.byte	0x74
 4883 1467 10       		.sleb128 16
 4884 1468 05       		.uleb128 0x5
 4885 1469 03       		.byte	0x3
 4886 146a 08000000 		.long	.LC4
 4887 146e 00       		.byte	0
 4888 146f 15       		.uleb128 0x15
 4889 1470 FE0C0000 		.long	.LVL170
 4890 1474 B41B0000 		.long	0x1bb4
 4891 1478 87140000 		.long	0x1487
 4892 147c 16       		.uleb128 0x16
 4893 147d 02       		.uleb128 0x2
 4894 147e 74       		.byte	0x74
 4895 147f 00       		.sleb128 0
 4896 1480 05       		.uleb128 0x5
 4897 1481 03       		.byte	0x3
 4898 1482 00000000 		.long	c1
 4899 1486 00       		.byte	0
 4900 1487 15       		.uleb128 0x15
 4901 1488 0A0D0000 		.long	.LVL171
 4902 148c B41B0000 		.long	0x1bb4
 4903 1490 9F140000 		.long	0x149f
 4904 1494 16       		.uleb128 0x16
 4905 1495 02       		.uleb128 0x2
 4906 1496 74       		.byte	0x74
 4907 1497 00       		.sleb128 0
 4908 1498 05       		.uleb128 0x5
 4909 1499 03       		.byte	0x3
 4910 149a 00000000 		.long	c1
 4911 149e 00       		.byte	0
 4912 149f 15       		.uleb128 0x15
 4913 14a0 160D0000 		.long	.LVL172
 4914 14a4 B41B0000 		.long	0x1bb4
GAS LISTING /tmp/ccnl8CWE.s 			page 106


 4915 14a8 B7140000 		.long	0x14b7
 4916 14ac 16       		.uleb128 0x16
 4917 14ad 02       		.uleb128 0x2
 4918 14ae 74       		.byte	0x74
 4919 14af 00       		.sleb128 0
 4920 14b0 05       		.uleb128 0x5
 4921 14b1 03       		.byte	0x3
 4922 14b2 00000000 		.long	c1
 4923 14b6 00       		.byte	0
 4924 14b7 15       		.uleb128 0x15
 4925 14b8 220D0000 		.long	.LVL173
 4926 14bc B41B0000 		.long	0x1bb4
 4927 14c0 CF140000 		.long	0x14cf
 4928 14c4 16       		.uleb128 0x16
 4929 14c5 02       		.uleb128 0x2
 4930 14c6 74       		.byte	0x74
 4931 14c7 00       		.sleb128 0
 4932 14c8 05       		.uleb128 0x5
 4933 14c9 03       		.byte	0x3
 4934 14ca 00000000 		.long	c1
 4935 14ce 00       		.byte	0
 4936 14cf 15       		.uleb128 0x15
 4937 14d0 2E0D0000 		.long	.LVL174
 4938 14d4 B41B0000 		.long	0x1bb4
 4939 14d8 E7140000 		.long	0x14e7
 4940 14dc 16       		.uleb128 0x16
 4941 14dd 02       		.uleb128 0x2
 4942 14de 74       		.byte	0x74
 4943 14df 00       		.sleb128 0
 4944 14e0 05       		.uleb128 0x5
 4945 14e1 03       		.byte	0x3
 4946 14e2 00000000 		.long	c1
 4947 14e6 00       		.byte	0
 4948 14e7 17       		.uleb128 0x17
 4949 14e8 330D0000 		.long	.LVL175
 4950 14ec 981B0000 		.long	0x1b98
 4951 14f0 17       		.uleb128 0x17
 4952 14f1 390D0000 		.long	.LVL176
 4953 14f5 D61A0000 		.long	0x1ad6
 4954 14f9 18       		.uleb128 0x18
 4955 14fa 4D0D0000 		.long	.LVL177
 4956 14fe F71A0000 		.long	0x1af7
 4957 1502 16       		.uleb128 0x16
 4958 1503 02       		.uleb128 0x2
 4959 1504 74       		.byte	0x74
 4960 1505 00       		.sleb128 0
 4961 1506 01       		.uleb128 0x1
 4962 1507 31       		.byte	0x31
 4963 1508 16       		.uleb128 0x16
 4964 1509 02       		.uleb128 0x2
 4965 150a 74       		.byte	0x74
 4966 150b 04       		.sleb128 4
 4967 150c 05       		.uleb128 0x5
 4968 150d 03       		.byte	0x3
 4969 150e 0A000000 		.long	.LC5
 4970 1512 00       		.byte	0
 4971 1513 00       		.byte	0
GAS LISTING /tmp/ccnl8CWE.s 			page 107


 4972 1514 1B       		.uleb128 0x1b
 4973 1515 85030000 		.long	.LASF106
 4974 1519 01       		.byte	0x1
 4975 151a E501     		.value	0x1e5
 4976 151c D9000000 		.long	0xd9
 4977 1520 600D0000 		.long	.LFB29
 4978 1524 35000000 		.long	.LFE29-.LFB29
 4979 1528 01       		.uleb128 0x1
 4980 1529 9C       		.byte	0x9c
 4981 152a 7E150000 		.long	0x157e
 4982 152e 1C       		.uleb128 0x1c
 4983 152f 7000     		.string	"p"
 4984 1531 01       		.byte	0x1
 4985 1532 E501     		.value	0x1e5
 4986 1534 66020000 		.long	0x266
 4987 1538 02       		.uleb128 0x2
 4988 1539 91       		.byte	0x91
 4989 153a 00       		.sleb128 0
 4990 153b 15       		.uleb128 0x15
 4991 153c 6F0D0000 		.long	.LVL180
 4992 1540 901A0000 		.long	0x1a90
 4993 1544 53150000 		.long	0x1553
 4994 1548 16       		.uleb128 0x16
 4995 1549 02       		.uleb128 0x2
 4996 154a 74       		.byte	0x74
 4997 154b 00       		.sleb128 0
 4998 154c 05       		.uleb128 0x5
 4999 154d 03       		.byte	0x3
 5000 154e 18000000 		.long	m1
 5001 1552 00       		.byte	0
 5002 1553 15       		.uleb128 0x15
 5003 1554 7B0D0000 		.long	.LVL181
 5004 1558 CB1B0000 		.long	0x1bcb
 5005 155c 6B150000 		.long	0x156b
 5006 1560 16       		.uleb128 0x16
 5007 1561 02       		.uleb128 0x2
 5008 1562 74       		.byte	0x74
 5009 1563 00       		.sleb128 0
 5010 1564 05       		.uleb128 0x5
 5011 1565 03       		.byte	0x3
 5012 1566 00000000 		.long	c1
 5013 156a 00       		.byte	0
 5014 156b 17       		.uleb128 0x17
 5015 156c 8A0D0000 		.long	.LVL182
 5016 1570 171B0000 		.long	0x1b17
 5017 1574 17       		.uleb128 0x17
 5018 1575 8F0D0000 		.long	.LVL183
 5019 1579 CB1A0000 		.long	0x1acb
 5020 157d 00       		.byte	0
 5021 157e 1D       		.uleb128 0x1d
 5022 157f 7A030000 		.long	.LASF107
 5023 1583 01       		.byte	0x1
 5024 1584 DF01     		.value	0x1df
 5025 1586 A00D0000 		.long	.LFB28
 5026 158a 1F000000 		.long	.LFE28-.LFB28
 5027 158e 01       		.uleb128 0x1
 5028 158f 9C       		.byte	0x9c
GAS LISTING /tmp/ccnl8CWE.s 			page 108


 5029 1590 C1150000 		.long	0x15c1
 5030 1594 15       		.uleb128 0x15
 5031 1595 AF0D0000 		.long	.LVL184
 5032 1599 E01B0000 		.long	0x1be0
 5033 159d AC150000 		.long	0x15ac
 5034 15a1 16       		.uleb128 0x16
 5035 15a2 02       		.uleb128 0x2
 5036 15a3 74       		.byte	0x74
 5037 15a4 00       		.sleb128 0
 5038 15a5 05       		.uleb128 0x5
 5039 15a6 03       		.byte	0x3
 5040 15a7 00000000 		.long	c1
 5041 15ab 00       		.byte	0
 5042 15ac 18       		.uleb128 0x18
 5043 15ad BB0D0000 		.long	.LVL185
 5044 15b1 281B0000 		.long	0x1b28
 5045 15b5 16       		.uleb128 0x16
 5046 15b6 02       		.uleb128 0x2
 5047 15b7 74       		.byte	0x74
 5048 15b8 00       		.sleb128 0
 5049 15b9 05       		.uleb128 0x5
 5050 15ba 03       		.byte	0x3
 5051 15bb 18000000 		.long	m1
 5052 15bf 00       		.byte	0
 5053 15c0 00       		.byte	0
 5054 15c1 1D       		.uleb128 0x1d
 5055 15c2 54000000 		.long	.LASF108
 5056 15c6 01       		.byte	0x1
 5057 15c7 1302     		.value	0x213
 5058 15c9 C00D0000 		.long	.LFB31
 5059 15cd 1F000000 		.long	.LFE31-.LFB31
 5060 15d1 01       		.uleb128 0x1
 5061 15d2 9C       		.byte	0x9c
 5062 15d3 04160000 		.long	0x1604
 5063 15d7 15       		.uleb128 0x15
 5064 15d8 CF0D0000 		.long	.LVL186
 5065 15dc E01B0000 		.long	0x1be0
 5066 15e0 EF150000 		.long	0x15ef
 5067 15e4 16       		.uleb128 0x16
 5068 15e5 02       		.uleb128 0x2
 5069 15e6 74       		.byte	0x74
 5070 15e7 00       		.sleb128 0
 5071 15e8 05       		.uleb128 0x5
 5072 15e9 03       		.byte	0x3
 5073 15ea 00000000 		.long	c1
 5074 15ee 00       		.byte	0
 5075 15ef 18       		.uleb128 0x18
 5076 15f0 DB0D0000 		.long	.LVL187
 5077 15f4 281B0000 		.long	0x1b28
 5078 15f8 16       		.uleb128 0x16
 5079 15f9 02       		.uleb128 0x2
 5080 15fa 74       		.byte	0x74
 5081 15fb 00       		.sleb128 0
 5082 15fc 05       		.uleb128 0x5
 5083 15fd 03       		.byte	0x3
 5084 15fe 18000000 		.long	m1
 5085 1602 00       		.byte	0
GAS LISTING /tmp/ccnl8CWE.s 			page 109


 5086 1603 00       		.byte	0
 5087 1604 1D       		.uleb128 0x1d
 5088 1605 F2050000 		.long	.LASF109
 5089 1609 01       		.byte	0x1
 5090 160a 3602     		.value	0x236
 5091 160c E00D0000 		.long	.LFB33
 5092 1610 2B000000 		.long	.LFE33-.LFB33
 5093 1614 01       		.uleb128 0x1
 5094 1615 9C       		.byte	0x9c
 5095 1616 5F160000 		.long	0x165f
 5096 161a 15       		.uleb128 0x15
 5097 161b EF0D0000 		.long	.LVL188
 5098 161f E01B0000 		.long	0x1be0
 5099 1623 32160000 		.long	0x1632
 5100 1627 16       		.uleb128 0x16
 5101 1628 02       		.uleb128 0x2
 5102 1629 74       		.byte	0x74
 5103 162a 00       		.sleb128 0
 5104 162b 05       		.uleb128 0x5
 5105 162c 03       		.byte	0x3
 5106 162d 00000000 		.long	c1
 5107 1631 00       		.byte	0
 5108 1632 15       		.uleb128 0x15
 5109 1633 FB0D0000 		.long	.LVL189
 5110 1637 281B0000 		.long	0x1b28
 5111 163b 4A160000 		.long	0x164a
 5112 163f 16       		.uleb128 0x16
 5113 1640 02       		.uleb128 0x2
 5114 1641 74       		.byte	0x74
 5115 1642 00       		.sleb128 0
 5116 1643 05       		.uleb128 0x5
 5117 1644 03       		.byte	0x3
 5118 1645 18000000 		.long	m1
 5119 1649 00       		.byte	0
 5120 164a 18       		.uleb128 0x18
 5121 164b 070E0000 		.long	.LVL190
 5122 164f 281B0000 		.long	0x1b28
 5123 1653 16       		.uleb128 0x16
 5124 1654 02       		.uleb128 0x2
 5125 1655 74       		.byte	0x74
 5126 1656 00       		.sleb128 0
 5127 1657 05       		.uleb128 0x5
 5128 1658 03       		.byte	0x3
 5129 1659 08000000 		.long	m2
 5130 165d 00       		.byte	0
 5131 165e 00       		.byte	0
 5132 165f 1D       		.uleb128 0x1d
 5133 1660 60050000 		.long	.LASF110
 5134 1664 01       		.byte	0x1
 5135 1665 1902     		.value	0x219
 5136 1667 100E0000 		.long	.LFB32
 5137 166b 2B010000 		.long	.LFE32-.LFB32
 5138 166f 01       		.uleb128 0x1
 5139 1670 9C       		.byte	0x9c
 5140 1671 B6170000 		.long	0x17b6
 5141 1675 1E       		.uleb128 0x1e
 5142 1676 36000000 		.long	.LASF90
GAS LISTING /tmp/ccnl8CWE.s 			page 110


 5143 167a 01       		.byte	0x1
 5144 167b 1B02     		.value	0x21b
 5145 167d CE000000 		.long	0xce
 5146 1681 3F010000 		.long	.LLST9
 5147 1685 15       		.uleb128 0x15
 5148 1686 480E0000 		.long	.LVL192
 5149 168a A11A0000 		.long	0x1aa1
 5150 168e B6160000 		.long	0x16b6
 5151 1692 16       		.uleb128 0x16
 5152 1693 02       		.uleb128 0x2
 5153 1694 74       		.byte	0x74
 5154 1695 04       		.sleb128 4
 5155 1696 03       		.uleb128 0x3
 5156 1697 0A       		.byte	0xa
 5157 1698 7042     		.value	0x4270
 5158 169a 16       		.uleb128 0x16
 5159 169b 02       		.uleb128 0x2
 5160 169c 74       		.byte	0x74
 5161 169d 08       		.sleb128 8
 5162 169e 02       		.uleb128 0x2
 5163 169f 73       		.byte	0x73
 5164 16a0 01       		.sleb128 1
 5165 16a1 16       		.uleb128 0x16
 5166 16a2 02       		.uleb128 0x2
 5167 16a3 74       		.byte	0x74
 5168 16a4 0C       		.sleb128 12
 5169 16a5 05       		.uleb128 0x5
 5170 16a6 03       		.byte	0x3
 5171 16a7 600D0000 		.long	thread10
 5172 16ab 16       		.uleb128 0x16
 5173 16ac 02       		.uleb128 0x2
 5174 16ad 74       		.byte	0x74
 5175 16ae 10       		.sleb128 16
 5176 16af 05       		.uleb128 0x5
 5177 16b0 03       		.byte	0x3
 5178 16b1 00000000 		.long	.LC0
 5179 16b5 00       		.byte	0
 5180 16b6 15       		.uleb128 0x15
 5181 16b7 790E0000 		.long	.LVL193
 5182 16bb A11A0000 		.long	0x1aa1
 5183 16bf E7160000 		.long	0x16e7
 5184 16c3 16       		.uleb128 0x16
 5185 16c4 02       		.uleb128 0x2
 5186 16c5 74       		.byte	0x74
 5187 16c6 04       		.sleb128 4
 5188 16c7 03       		.uleb128 0x3
 5189 16c8 0A       		.byte	0xa
 5190 16c9 7042     		.value	0x4270
 5191 16cb 16       		.uleb128 0x16
 5192 16cc 02       		.uleb128 0x2
 5193 16cd 74       		.byte	0x74
 5194 16ce 08       		.sleb128 8
 5195 16cf 02       		.uleb128 0x2
 5196 16d0 73       		.byte	0x73
 5197 16d1 02       		.sleb128 2
 5198 16d2 16       		.uleb128 0x16
 5199 16d3 02       		.uleb128 0x2
GAS LISTING /tmp/ccnl8CWE.s 			page 111


 5200 16d4 74       		.byte	0x74
 5201 16d5 0C       		.sleb128 12
 5202 16d6 05       		.uleb128 0x5
 5203 16d7 03       		.byte	0x3
 5204 16d8 600D0000 		.long	thread10
 5205 16dc 16       		.uleb128 0x16
 5206 16dd 02       		.uleb128 0x2
 5207 16de 74       		.byte	0x74
 5208 16df 10       		.sleb128 16
 5209 16e0 05       		.uleb128 0x5
 5210 16e1 03       		.byte	0x3
 5211 16e2 02000000 		.long	.LC1
 5212 16e6 00       		.byte	0
 5213 16e7 15       		.uleb128 0x15
 5214 16e8 AA0E0000 		.long	.LVL194
 5215 16ec A11A0000 		.long	0x1aa1
 5216 16f0 18170000 		.long	0x1718
 5217 16f4 16       		.uleb128 0x16
 5218 16f5 02       		.uleb128 0x2
 5219 16f6 74       		.byte	0x74
 5220 16f7 04       		.sleb128 4
 5221 16f8 03       		.uleb128 0x3
 5222 16f9 0A       		.byte	0xa
 5223 16fa 7042     		.value	0x4270
 5224 16fc 16       		.uleb128 0x16
 5225 16fd 02       		.uleb128 0x2
 5226 16fe 74       		.byte	0x74
 5227 16ff 08       		.sleb128 8
 5228 1700 02       		.uleb128 0x2
 5229 1701 73       		.byte	0x73
 5230 1702 03       		.sleb128 3
 5231 1703 16       		.uleb128 0x16
 5232 1704 02       		.uleb128 0x2
 5233 1705 74       		.byte	0x74
 5234 1706 0C       		.sleb128 12
 5235 1707 05       		.uleb128 0x5
 5236 1708 03       		.byte	0x3
 5237 1709 600D0000 		.long	thread10
 5238 170d 16       		.uleb128 0x16
 5239 170e 02       		.uleb128 0x2
 5240 170f 74       		.byte	0x74
 5241 1710 10       		.sleb128 16
 5242 1711 05       		.uleb128 0x5
 5243 1712 03       		.byte	0x3
 5244 1713 04000000 		.long	.LC2
 5245 1717 00       		.byte	0
 5246 1718 15       		.uleb128 0x15
 5247 1719 DE0E0000 		.long	.LVL196
 5248 171d A11A0000 		.long	0x1aa1
 5249 1721 49170000 		.long	0x1749
 5250 1725 16       		.uleb128 0x16
 5251 1726 02       		.uleb128 0x2
 5252 1727 74       		.byte	0x74
 5253 1728 04       		.sleb128 4
 5254 1729 03       		.uleb128 0x3
 5255 172a 0A       		.byte	0xa
 5256 172b 7042     		.value	0x4270
GAS LISTING /tmp/ccnl8CWE.s 			page 112


 5257 172d 16       		.uleb128 0x16
 5258 172e 02       		.uleb128 0x2
 5259 172f 74       		.byte	0x74
 5260 1730 08       		.sleb128 8
 5261 1731 02       		.uleb128 0x2
 5262 1732 73       		.byte	0x73
 5263 1733 7F       		.sleb128 -1
 5264 1734 16       		.uleb128 0x16
 5265 1735 02       		.uleb128 0x2
 5266 1736 74       		.byte	0x74
 5267 1737 0C       		.sleb128 12
 5268 1738 05       		.uleb128 0x5
 5269 1739 03       		.byte	0x3
 5270 173a 600D0000 		.long	thread10
 5271 173e 16       		.uleb128 0x16
 5272 173f 02       		.uleb128 0x2
 5273 1740 74       		.byte	0x74
 5274 1741 10       		.sleb128 16
 5275 1742 05       		.uleb128 0x5
 5276 1743 03       		.byte	0x3
 5277 1744 06000000 		.long	.LC3
 5278 1748 00       		.byte	0
 5279 1749 15       		.uleb128 0x15
 5280 174a 0C0F0000 		.long	.LVL197
 5281 174e A11A0000 		.long	0x1aa1
 5282 1752 7A170000 		.long	0x177a
 5283 1756 16       		.uleb128 0x16
 5284 1757 02       		.uleb128 0x2
 5285 1758 74       		.byte	0x74
 5286 1759 04       		.sleb128 4
 5287 175a 03       		.uleb128 0x3
 5288 175b 0A       		.byte	0xa
 5289 175c 7042     		.value	0x4270
 5290 175e 16       		.uleb128 0x16
 5291 175f 02       		.uleb128 0x2
 5292 1760 74       		.byte	0x74
 5293 1761 08       		.sleb128 8
 5294 1762 02       		.uleb128 0x2
 5295 1763 73       		.byte	0x73
 5296 1764 00       		.sleb128 0
 5297 1765 16       		.uleb128 0x16
 5298 1766 02       		.uleb128 0x2
 5299 1767 74       		.byte	0x74
 5300 1768 0C       		.sleb128 12
 5301 1769 05       		.uleb128 0x5
 5302 176a 03       		.byte	0x3
 5303 176b 600D0000 		.long	thread10
 5304 176f 16       		.uleb128 0x16
 5305 1770 02       		.uleb128 0x2
 5306 1771 74       		.byte	0x74
 5307 1772 10       		.sleb128 16
 5308 1773 05       		.uleb128 0x5
 5309 1774 03       		.byte	0x3
 5310 1775 08000000 		.long	.LC4
 5311 1779 00       		.byte	0
 5312 177a 15       		.uleb128 0x15
 5313 177b 1D0F0000 		.long	.LVL198
GAS LISTING /tmp/ccnl8CWE.s 			page 113


 5314 177f F11B0000 		.long	0x1bf1
 5315 1783 92170000 		.long	0x1792
 5316 1787 16       		.uleb128 0x16
 5317 1788 02       		.uleb128 0x2
 5318 1789 74       		.byte	0x74
 5319 178a 00       		.sleb128 0
 5320 178b 05       		.uleb128 0x5
 5321 178c 03       		.byte	0x3
 5322 178d 00000000 		.long	c1
 5323 1791 00       		.byte	0
 5324 1792 17       		.uleb128 0x17
 5325 1793 220F0000 		.long	.LVL199
 5326 1797 D61A0000 		.long	0x1ad6
 5327 179b 18       		.uleb128 0x18
 5328 179c 360F0000 		.long	.LVL200
 5329 17a0 F71A0000 		.long	0x1af7
 5330 17a4 16       		.uleb128 0x16
 5331 17a5 02       		.uleb128 0x2
 5332 17a6 74       		.byte	0x74
 5333 17a7 00       		.sleb128 0
 5334 17a8 01       		.uleb128 0x1
 5335 17a9 31       		.byte	0x31
 5336 17aa 16       		.uleb128 0x16
 5337 17ab 02       		.uleb128 0x2
 5338 17ac 74       		.byte	0x74
 5339 17ad 04       		.sleb128 4
 5340 17ae 05       		.uleb128 0x5
 5341 17af 03       		.byte	0x3
 5342 17b0 0A000000 		.long	.LC5
 5343 17b4 00       		.byte	0
 5344 17b5 00       		.byte	0
 5345 17b6 1D       		.uleb128 0x1d
 5346 17b7 42020000 		.long	.LASF111
 5347 17bb 01       		.byte	0x1
 5348 17bc 5402     		.value	0x254
 5349 17be 400F0000 		.long	.LFB36
 5350 17c2 D5000000 		.long	.LFE36-.LFB36
 5351 17c6 01       		.uleb128 0x1
 5352 17c7 9C       		.byte	0x9c
 5353 17c8 C3180000 		.long	0x18c3
 5354 17cc 1E       		.uleb128 0x1e
 5355 17cd 36000000 		.long	.LASF90
 5356 17d1 01       		.byte	0x1
 5357 17d2 5602     		.value	0x256
 5358 17d4 CE000000 		.long	0xce
 5359 17d8 5F010000 		.long	.LLST10
 5360 17dc 15       		.uleb128 0x15
 5361 17dd 780F0000 		.long	.LVL203
 5362 17e1 A11A0000 		.long	0x1aa1
 5363 17e5 0D180000 		.long	0x180d
 5364 17e9 16       		.uleb128 0x16
 5365 17ea 02       		.uleb128 0x2
 5366 17eb 74       		.byte	0x74
 5367 17ec 04       		.sleb128 4
 5368 17ed 03       		.uleb128 0x3
 5369 17ee 0A       		.byte	0xa
 5370 17ef 7042     		.value	0x4270
GAS LISTING /tmp/ccnl8CWE.s 			page 114


 5371 17f1 16       		.uleb128 0x16
 5372 17f2 02       		.uleb128 0x2
 5373 17f3 74       		.byte	0x74
 5374 17f4 08       		.sleb128 8
 5375 17f5 02       		.uleb128 0x2
 5376 17f6 73       		.byte	0x73
 5377 17f7 01       		.sleb128 1
 5378 17f8 16       		.uleb128 0x16
 5379 17f9 02       		.uleb128 0x2
 5380 17fa 74       		.byte	0x74
 5381 17fb 0C       		.sleb128 12
 5382 17fc 05       		.uleb128 0x5
 5383 17fd 03       		.byte	0x3
 5384 17fe 20100000 		.long	thread11
 5385 1802 16       		.uleb128 0x16
 5386 1803 02       		.uleb128 0x2
 5387 1804 74       		.byte	0x74
 5388 1805 10       		.sleb128 16
 5389 1806 05       		.uleb128 0x5
 5390 1807 03       		.byte	0x3
 5391 1808 08000000 		.long	.LC4
 5392 180c 00       		.byte	0
 5393 180d 15       		.uleb128 0x15
 5394 180e AC0F0000 		.long	.LVL205
 5395 1812 A11A0000 		.long	0x1aa1
 5396 1816 3E180000 		.long	0x183e
 5397 181a 16       		.uleb128 0x16
 5398 181b 02       		.uleb128 0x2
 5399 181c 74       		.byte	0x74
 5400 181d 04       		.sleb128 4
 5401 181e 03       		.uleb128 0x3
 5402 181f 0A       		.byte	0xa
 5403 1820 7042     		.value	0x4270
 5404 1822 16       		.uleb128 0x16
 5405 1823 02       		.uleb128 0x2
 5406 1824 74       		.byte	0x74
 5407 1825 08       		.sleb128 8
 5408 1826 02       		.uleb128 0x2
 5409 1827 73       		.byte	0x73
 5410 1828 7F       		.sleb128 -1
 5411 1829 16       		.uleb128 0x16
 5412 182a 02       		.uleb128 0x2
 5413 182b 74       		.byte	0x74
 5414 182c 0C       		.sleb128 12
 5415 182d 05       		.uleb128 0x5
 5416 182e 03       		.byte	0x3
 5417 182f 600D0000 		.long	thread10
 5418 1833 16       		.uleb128 0x16
 5419 1834 02       		.uleb128 0x2
 5420 1835 74       		.byte	0x74
 5421 1836 10       		.sleb128 16
 5422 1837 05       		.uleb128 0x5
 5423 1838 03       		.byte	0x3
 5424 1839 04000000 		.long	.LC2
 5425 183d 00       		.byte	0
 5426 183e 15       		.uleb128 0x15
 5427 183f DA0F0000 		.long	.LVL206
GAS LISTING /tmp/ccnl8CWE.s 			page 115


 5428 1843 A11A0000 		.long	0x1aa1
 5429 1847 6F180000 		.long	0x186f
 5430 184b 16       		.uleb128 0x16
 5431 184c 02       		.uleb128 0x2
 5432 184d 74       		.byte	0x74
 5433 184e 04       		.sleb128 4
 5434 184f 03       		.uleb128 0x3
 5435 1850 0A       		.byte	0xa
 5436 1851 7042     		.value	0x4270
 5437 1853 16       		.uleb128 0x16
 5438 1854 02       		.uleb128 0x2
 5439 1855 74       		.byte	0x74
 5440 1856 08       		.sleb128 8
 5441 1857 02       		.uleb128 0x2
 5442 1858 73       		.byte	0x73
 5443 1859 00       		.sleb128 0
 5444 185a 16       		.uleb128 0x16
 5445 185b 02       		.uleb128 0x2
 5446 185c 74       		.byte	0x74
 5447 185d 0C       		.sleb128 12
 5448 185e 05       		.uleb128 0x5
 5449 185f 03       		.byte	0x3
 5450 1860 90010000 		.long	thread12
 5451 1864 16       		.uleb128 0x16
 5452 1865 02       		.uleb128 0x2
 5453 1866 74       		.byte	0x74
 5454 1867 10       		.sleb128 16
 5455 1868 05       		.uleb128 0x5
 5456 1869 03       		.byte	0x3
 5457 186a 06000000 		.long	.LC3
 5458 186e 00       		.byte	0
 5459 186f 15       		.uleb128 0x15
 5460 1870 EB0F0000 		.long	.LVL207
 5461 1874 021C0000 		.long	0x1c02
 5462 1878 87180000 		.long	0x1887
 5463 187c 16       		.uleb128 0x16
 5464 187d 02       		.uleb128 0x2
 5465 187e 74       		.byte	0x74
 5466 187f 00       		.sleb128 0
 5467 1880 05       		.uleb128 0x5
 5468 1881 03       		.byte	0x3
 5469 1882 00000000 		.long	c1
 5470 1886 00       		.byte	0
 5471 1887 15       		.uleb128 0x15
 5472 1888 F70F0000 		.long	.LVL208
 5473 188c 021C0000 		.long	0x1c02
 5474 1890 9F180000 		.long	0x189f
 5475 1894 16       		.uleb128 0x16
 5476 1895 02       		.uleb128 0x2
 5477 1896 74       		.byte	0x74
 5478 1897 00       		.sleb128 0
 5479 1898 05       		.uleb128 0x5
 5480 1899 03       		.byte	0x3
 5481 189a 00000000 		.long	c1
 5482 189e 00       		.byte	0
 5483 189f 17       		.uleb128 0x17
 5484 18a0 FC0F0000 		.long	.LVL209
GAS LISTING /tmp/ccnl8CWE.s 			page 116


 5485 18a4 D61A0000 		.long	0x1ad6
 5486 18a8 18       		.uleb128 0x18
 5487 18a9 10100000 		.long	.LVL210
 5488 18ad F71A0000 		.long	0x1af7
 5489 18b1 16       		.uleb128 0x16
 5490 18b2 02       		.uleb128 0x2
 5491 18b3 74       		.byte	0x74
 5492 18b4 00       		.sleb128 0
 5493 18b5 01       		.uleb128 0x1
 5494 18b6 31       		.byte	0x31
 5495 18b7 16       		.uleb128 0x16
 5496 18b8 02       		.uleb128 0x2
 5497 18b9 74       		.byte	0x74
 5498 18ba 04       		.sleb128 4
 5499 18bb 05       		.uleb128 0x5
 5500 18bc 03       		.byte	0x3
 5501 18bd 10000000 		.long	.LC6
 5502 18c1 00       		.byte	0
 5503 18c2 00       		.byte	0
 5504 18c3 1B       		.uleb128 0x1b
 5505 18c4 8E030000 		.long	.LASF112
 5506 18c8 01       		.byte	0x1
 5507 18c9 3D02     		.value	0x23d
 5508 18cb D9000000 		.long	0xd9
 5509 18cf 20100000 		.long	.LFB34
 5510 18d3 4E000000 		.long	.LFE34-.LFB34
 5511 18d7 01       		.uleb128 0x1
 5512 18d8 9C       		.byte	0x9c
 5513 18d9 55190000 		.long	0x1955
 5514 18dd 1C       		.uleb128 0x1c
 5515 18de 7000     		.string	"p"
 5516 18e0 01       		.byte	0x1
 5517 18e1 3D02     		.value	0x23d
 5518 18e3 66020000 		.long	0x266
 5519 18e7 02       		.uleb128 0x2
 5520 18e8 91       		.byte	0x91
 5521 18e9 00       		.sleb128 0
 5522 18ea 15       		.uleb128 0x15
 5523 18eb 2F100000 		.long	.LVL213
 5524 18ef 901A0000 		.long	0x1a90
 5525 18f3 02190000 		.long	0x1902
 5526 18f7 16       		.uleb128 0x16
 5527 18f8 02       		.uleb128 0x2
 5528 18f9 74       		.byte	0x74
 5529 18fa 00       		.sleb128 0
 5530 18fb 05       		.uleb128 0x5
 5531 18fc 03       		.byte	0x3
 5532 18fd 08000000 		.long	m2
 5533 1901 00       		.byte	0
 5534 1902 15       		.uleb128 0x15
 5535 1903 3B100000 		.long	.LVL214
 5536 1907 901A0000 		.long	0x1a90
 5537 190b 1A190000 		.long	0x191a
 5538 190f 16       		.uleb128 0x16
 5539 1910 02       		.uleb128 0x2
 5540 1911 74       		.byte	0x74
 5541 1912 00       		.sleb128 0
GAS LISTING /tmp/ccnl8CWE.s 			page 117


 5542 1913 05       		.uleb128 0x5
 5543 1914 03       		.byte	0x3
 5544 1915 18000000 		.long	m1
 5545 1919 00       		.byte	0
 5546 191a 15       		.uleb128 0x15
 5547 191b 4F100000 		.long	.LVL215
 5548 191f 131C0000 		.long	0x1c13
 5549 1923 39190000 		.long	0x1939
 5550 1927 16       		.uleb128 0x16
 5551 1928 02       		.uleb128 0x2
 5552 1929 74       		.byte	0x74
 5553 192a 00       		.sleb128 0
 5554 192b 05       		.uleb128 0x5
 5555 192c 03       		.byte	0x3
 5556 192d 00000000 		.long	c1
 5557 1931 16       		.uleb128 0x16
 5558 1932 02       		.uleb128 0x2
 5559 1933 74       		.byte	0x74
 5560 1934 04       		.sleb128 4
 5561 1935 02       		.uleb128 0x2
 5562 1936 09       		.byte	0x9
 5563 1937 FF       		.byte	0xff
 5564 1938 00       		.byte	0
 5565 1939 17       		.uleb128 0x17
 5566 193a 5E100000 		.long	.LVL216
 5567 193e 171B0000 		.long	0x1b17
 5568 1942 17       		.uleb128 0x17
 5569 1943 63100000 		.long	.LVL217
 5570 1947 CB1A0000 		.long	0x1acb
 5571 194b 17       		.uleb128 0x17
 5572 194c 68100000 		.long	.LVL218
 5573 1950 CB1A0000 		.long	0x1acb
 5574 1954 00       		.byte	0
 5575 1955 21       		.uleb128 0x21
 5576 1956 6D3100   		.string	"m1"
 5577 1959 01       		.byte	0x1
 5578 195a 44       		.byte	0x44
 5579 195b 27040000 		.long	0x427
 5580 195f 05       		.uleb128 0x5
 5581 1960 03       		.byte	0x3
 5582 1961 18000000 		.long	m1
 5583 1965 21       		.uleb128 0x21
 5584 1966 6D3200   		.string	"m2"
 5585 1969 01       		.byte	0x1
 5586 196a 45       		.byte	0x45
 5587 196b 27040000 		.long	0x427
 5588 196f 05       		.uleb128 0x5
 5589 1970 03       		.byte	0x3
 5590 1971 08000000 		.long	m2
 5591 1975 21       		.uleb128 0x21
 5592 1976 633100   		.string	"c1"
 5593 1979 01       		.byte	0x1
 5594 197a 47       		.byte	0x47
 5595 197b 4B040000 		.long	0x44b
 5596 197f 05       		.uleb128 0x5
 5597 1980 03       		.byte	0x3
 5598 1981 00000000 		.long	c1
GAS LISTING /tmp/ccnl8CWE.s 			page 118


 5599 1985 22       		.uleb128 0x22
 5600 1986 4D000000 		.long	.LASF113
 5601 198a 08       		.byte	0x8
 5602 198b F5       		.byte	0xf5
 5603 198c 89030000 		.long	0x389
 5604 1990 22       		.uleb128 0x22
 5605 1991 D2050000 		.long	.LASF114
 5606 1995 09       		.byte	0x9
 5607 1996 6F       		.byte	0x6f
 5608 1997 E5030000 		.long	0x3e5
 5609 199b 23       		.uleb128 0x23
 5610 199c 23020000 		.long	0x223
 5611 19a0 AB190000 		.long	0x19ab
 5612 19a4 24       		.uleb128 0x24
 5613 19a5 54020000 		.long	0x254
 5614 19a9 04       		.byte	0x4
 5615 19aa 00       		.byte	0
 5616 19ab 22       		.uleb128 0x22
 5617 19ac 86040000 		.long	.LASF115
 5618 19b0 0C       		.byte	0xc
 5619 19b1 A5       		.byte	0xa5
 5620 19b2 9B190000 		.long	0x199b
 5621 19b6 23       		.uleb128 0x23
 5622 19b7 66020000 		.long	0x266
 5623 19bb C1190000 		.long	0x19c1
 5624 19bf 25       		.uleb128 0x25
 5625 19c0 00       		.byte	0
 5626 19c1 26       		.uleb128 0x26
 5627 19c2 776100   		.string	"wa"
 5628 19c5 0C       		.byte	0xc
 5629 19c6 A7       		.byte	0xa7
 5630 19c7 CB190000 		.long	0x19cb
 5631 19cb 10       		.uleb128 0x10
 5632 19cc B6190000 		.long	0x19b6
 5633 19d0 27       		.uleb128 0x27
 5634 19d1 6D050000 		.long	.LASF116
 5635 19d5 01       		.byte	0x1
 5636 19d6 70       		.byte	0x70
 5637 19d7 E1190000 		.long	0x19e1
 5638 19db 05       		.uleb128 0x5
 5639 19dc 03       		.byte	0x3
 5640 19dd 00000000 		.long	testmtx1
 5641 19e1 10       		.uleb128 0x10
 5642 19e2 C3040000 		.long	0x4c3
 5643 19e6 27       		.uleb128 0x27
 5644 19e7 C9050000 		.long	.LASF117
 5645 19eb 01       		.byte	0x1
 5646 19ec CB       		.byte	0xcb
 5647 19ed E1190000 		.long	0x19e1
 5648 19f1 05       		.uleb128 0x5
 5649 19f2 03       		.byte	0x3
 5650 19f3 00000000 		.long	testmtx2
 5651 19f7 28       		.uleb128 0x28
 5652 19f8 EC040000 		.long	.LASF118
 5653 19fc 01       		.byte	0x1
 5654 19fd 4301     		.value	0x143
 5655 19ff E1190000 		.long	0x19e1
GAS LISTING /tmp/ccnl8CWE.s 			page 119


 5656 1a03 05       		.uleb128 0x5
 5657 1a04 03       		.byte	0x3
 5658 1a05 00000000 		.long	testmtx3
 5659 1a09 28       		.uleb128 0x28
 5660 1a0a F5040000 		.long	.LASF119
 5661 1a0e 01       		.byte	0x1
 5662 1a0f 9C01     		.value	0x19c
 5663 1a11 E1190000 		.long	0x19e1
 5664 1a15 05       		.uleb128 0x5
 5665 1a16 03       		.byte	0x3
 5666 1a17 00000000 		.long	testmtx4
 5667 1a1b 28       		.uleb128 0x28
 5668 1a1c FE040000 		.long	.LASF120
 5669 1a20 01       		.byte	0x1
 5670 1a21 CC01     		.value	0x1cc
 5671 1a23 E1190000 		.long	0x19e1
 5672 1a27 05       		.uleb128 0x5
 5673 1a28 03       		.byte	0x3
 5674 1a29 00000000 		.long	testmtx5
 5675 1a2d 28       		.uleb128 0x28
 5676 1a2e 07050000 		.long	.LASF121
 5677 1a32 01       		.byte	0x1
 5678 1a33 0202     		.value	0x202
 5679 1a35 E1190000 		.long	0x19e1
 5680 1a39 05       		.uleb128 0x5
 5681 1a3a 03       		.byte	0x3
 5682 1a3b 00000000 		.long	testmtx6
 5683 1a3f 28       		.uleb128 0x28
 5684 1a40 10050000 		.long	.LASF122
 5685 1a44 01       		.byte	0x1
 5686 1a45 2602     		.value	0x226
 5687 1a47 E1190000 		.long	0x19e1
 5688 1a4b 05       		.uleb128 0x5
 5689 1a4c 03       		.byte	0x3
 5690 1a4d 00000000 		.long	testmtx7
 5691 1a51 28       		.uleb128 0x28
 5692 1a52 19050000 		.long	.LASF123
 5693 1a56 01       		.byte	0x1
 5694 1a57 6002     		.value	0x260
 5695 1a59 E1190000 		.long	0x19e1
 5696 1a5d 05       		.uleb128 0x5
 5697 1a5e 03       		.byte	0x3
 5698 1a5f 00000000 		.long	testmtx8
 5699 1a63 23       		.uleb128 0x23
 5700 1a64 731A0000 		.long	0x1a73
 5701 1a68 731A0000 		.long	0x1a73
 5702 1a6c 24       		.uleb128 0x24
 5703 1a6d 54020000 		.long	0x254
 5704 1a71 08       		.byte	0x8
 5705 1a72 00       		.byte	0
 5706 1a73 09       		.uleb128 0x9
 5707 1a74 04       		.byte	0x4
 5708 1a75 E1190000 		.long	0x19e1
 5709 1a79 28       		.uleb128 0x28
 5710 1a7a 55040000 		.long	.LASF124
 5711 1a7e 01       		.byte	0x1
 5712 1a7f 6C02     		.value	0x26c
GAS LISTING /tmp/ccnl8CWE.s 			page 120


 5713 1a81 8B1A0000 		.long	0x1a8b
 5714 1a85 05       		.uleb128 0x5
 5715 1a86 03       		.byte	0x3
 5716 1a87 00000000 		.long	patternmtx
 5717 1a8b 10       		.uleb128 0x10
 5718 1a8c 631A0000 		.long	0x1a63
 5719 1a90 29       		.uleb128 0x29
 5720 1a91 DE020000 		.long	.LASF128
 5721 1a95 0A       		.byte	0xa
 5722 1a96 39       		.byte	0x39
 5723 1a97 A11A0000 		.long	0x1aa1
 5724 1a9b 0D       		.uleb128 0xd
 5725 1a9c 9D040000 		.long	0x49d
 5726 1aa0 00       		.byte	0
 5727 1aa1 2A       		.uleb128 0x2a
 5728 1aa2 A8020000 		.long	.LASF125
 5729 1aa6 06       		.byte	0x6
 5730 1aa7 7001     		.value	0x170
 5731 1aa9 23020000 		.long	0x223
 5732 1aad CB1A0000 		.long	0x1acb
 5733 1ab1 0D       		.uleb128 0xd
 5734 1ab2 66020000 		.long	0x266
 5735 1ab6 0D       		.uleb128 0xd
 5736 1ab7 2C000000 		.long	0x2c
 5737 1abb 0D       		.uleb128 0xd
 5738 1abc CE000000 		.long	0xce
 5739 1ac0 0D       		.uleb128 0xd
 5740 1ac1 A3040000 		.long	0x4a3
 5741 1ac5 0D       		.uleb128 0xd
 5742 1ac6 66020000 		.long	0x266
 5743 1aca 00       		.byte	0
 5744 1acb 2B       		.uleb128 0x2b
 5745 1acc 93000000 		.long	.LASF131
 5746 1ad0 0A       		.byte	0xa
 5747 1ad1 3D       		.byte	0x3d
 5748 1ad2 9D040000 		.long	0x49d
 5749 1ad6 2C       		.uleb128 0x2c
 5750 1ad7 E8020000 		.long	.LASF136
 5751 1adb 0C       		.byte	0xc
 5752 1adc 5C       		.byte	0x5c
 5753 1add 2D       		.uleb128 0x2d
 5754 1ade 1D060000 		.long	.LASF126
 5755 1ae2 0C       		.byte	0xc
 5756 1ae3 58       		.byte	0x58
 5757 1ae4 90000000 		.long	0x90
 5758 1ae8 F71A0000 		.long	0x1af7
 5759 1aec 0D       		.uleb128 0xd
 5760 1aed 37000000 		.long	0x37
 5761 1af1 0D       		.uleb128 0xd
 5762 1af2 90000000 		.long	0x90
 5763 1af6 00       		.byte	0
 5764 1af7 2D       		.uleb128 0x2d
 5765 1af8 23030000 		.long	.LASF127
 5766 1afc 0C       		.byte	0xc
 5767 1afd 59       		.byte	0x59
 5768 1afe 90000000 		.long	0x90
 5769 1b02 111B0000 		.long	0x1b11
GAS LISTING /tmp/ccnl8CWE.s 			page 121


 5770 1b06 0D       		.uleb128 0xd
 5771 1b07 37000000 		.long	0x37
 5772 1b0b 0D       		.uleb128 0xd
 5773 1b0c 111B0000 		.long	0x1b11
 5774 1b10 00       		.byte	0
 5775 1b11 09       		.uleb128 0x9
 5776 1b12 04       		.byte	0x4
 5777 1b13 96040000 		.long	0x496
 5778 1b17 29       		.uleb128 0x29
 5779 1b18 1E010000 		.long	.LASF129
 5780 1b1c 0C       		.byte	0xc
 5781 1b1d 56       		.byte	0x56
 5782 1b1e 281B0000 		.long	0x1b28
 5783 1b22 0D       		.uleb128 0xd
 5784 1b23 96040000 		.long	0x496
 5785 1b27 00       		.byte	0
 5786 1b28 29       		.uleb128 0x29
 5787 1b29 96050000 		.long	.LASF130
 5788 1b2d 0A       		.byte	0xa
 5789 1b2e 38       		.byte	0x38
 5790 1b2f 391B0000 		.long	0x1b39
 5791 1b33 0D       		.uleb128 0xd
 5792 1b34 9D040000 		.long	0x49d
 5793 1b38 00       		.byte	0
 5794 1b39 2B       		.uleb128 0x2b
 5795 1b3a 46040000 		.long	.LASF132
 5796 1b3e 0C       		.byte	0xc
 5797 1b3f 5D       		.byte	0x5d
 5798 1b40 EF000000 		.long	0xef
 5799 1b44 2D       		.uleb128 0x2d
 5800 1b45 52010000 		.long	.LASF133
 5801 1b49 0C       		.byte	0xc
 5802 1b4a 5A       		.byte	0x5a
 5803 1b4b 90000000 		.long	0x90
 5804 1b4f 631B0000 		.long	0x1b63
 5805 1b53 0D       		.uleb128 0xd
 5806 1b54 37000000 		.long	0x37
 5807 1b58 0D       		.uleb128 0xd
 5808 1b59 EF000000 		.long	0xef
 5809 1b5d 0D       		.uleb128 0xd
 5810 1b5e EF000000 		.long	0xef
 5811 1b62 00       		.byte	0
 5812 1b63 29       		.uleb128 0x29
 5813 1b64 00000000 		.long	.LASF134
 5814 1b68 0C       		.byte	0xc
 5815 1b69 60       		.byte	0x60
 5816 1b6a 741B0000 		.long	0x1b74
 5817 1b6e 0D       		.uleb128 0xd
 5818 1b6f 37000000 		.long	0x37
 5819 1b73 00       		.byte	0
 5820 1b74 2E       		.uleb128 0x2e
 5821 1b75 AD050000 		.long	.LASF135
 5822 1b79 06       		.byte	0x6
 5823 1b7a 7501     		.value	0x175
 5824 1b7c 861B0000 		.long	0x1b86
 5825 1b80 0D       		.uleb128 0xd
 5826 1b81 EF000000 		.long	0xef
GAS LISTING /tmp/ccnl8CWE.s 			page 122


 5827 1b85 00       		.byte	0
 5828 1b86 2C       		.uleb128 0x2c
 5829 1b87 5C020000 		.long	.LASF137
 5830 1b8b 0A       		.byte	0xa
 5831 1b8c 3F       		.byte	0x3f
 5832 1b8d 2B       		.uleb128 0x2b
 5833 1b8e B9010000 		.long	.LASF138
 5834 1b92 0A       		.byte	0xa
 5835 1b93 3E       		.byte	0x3e
 5836 1b94 9D040000 		.long	0x49d
 5837 1b98 2C       		.uleb128 0x2c
 5838 1b99 8B010000 		.long	.LASF139
 5839 1b9d 09       		.byte	0x9
 5840 1b9e 9C       		.byte	0x9c
 5841 1b9f 2D       		.uleb128 0x2d
 5842 1ba0 8B020000 		.long	.LASF140
 5843 1ba4 0A       		.byte	0xa
 5844 1ba5 3B       		.byte	0x3b
 5845 1ba6 90000000 		.long	0x90
 5846 1baa B41B0000 		.long	0x1bb4
 5847 1bae 0D       		.uleb128 0xd
 5848 1baf 9D040000 		.long	0x49d
 5849 1bb3 00       		.byte	0
 5850 1bb4 29       		.uleb128 0x29
 5851 1bb5 BF030000 		.long	.LASF141
 5852 1bb9 0B       		.byte	0xb
 5853 1bba 3F       		.byte	0x3f
 5854 1bbb C51B0000 		.long	0x1bc5
 5855 1bbf 0D       		.uleb128 0xd
 5856 1bc0 C51B0000 		.long	0x1bc5
 5857 1bc4 00       		.byte	0
 5858 1bc5 09       		.uleb128 0x9
 5859 1bc6 04       		.byte	0x4
 5860 1bc7 4B040000 		.long	0x44b
 5861 1bcb 2D       		.uleb128 0x2d
 5862 1bcc 76050000 		.long	.LASF142
 5863 1bd0 0B       		.byte	0xb
 5864 1bd1 42       		.byte	0x42
 5865 1bd2 D9000000 		.long	0xd9
 5866 1bd6 E01B0000 		.long	0x1be0
 5867 1bda 0D       		.uleb128 0xd
 5868 1bdb C51B0000 		.long	0x1bc5
 5869 1bdf 00       		.byte	0
 5870 1be0 29       		.uleb128 0x29
 5871 1be1 17000000 		.long	.LASF143
 5872 1be5 0B       		.byte	0xb
 5873 1be6 3D       		.byte	0x3d
 5874 1be7 F11B0000 		.long	0x1bf1
 5875 1beb 0D       		.uleb128 0xd
 5876 1bec C51B0000 		.long	0x1bc5
 5877 1bf0 00       		.byte	0
 5878 1bf1 29       		.uleb128 0x29
 5879 1bf2 5D030000 		.long	.LASF144
 5880 1bf6 0B       		.byte	0xb
 5881 1bf7 40       		.byte	0x40
 5882 1bf8 021C0000 		.long	0x1c02
 5883 1bfc 0D       		.uleb128 0xd
GAS LISTING /tmp/ccnl8CWE.s 			page 123


 5884 1bfd C51B0000 		.long	0x1bc5
 5885 1c01 00       		.byte	0
 5886 1c02 29       		.uleb128 0x29
 5887 1c03 AC010000 		.long	.LASF145
 5888 1c07 0B       		.byte	0xb
 5889 1c08 3E       		.byte	0x3e
 5890 1c09 131C0000 		.long	0x1c13
 5891 1c0d 0D       		.uleb128 0xd
 5892 1c0e C51B0000 		.long	0x1bc5
 5893 1c12 00       		.byte	0
 5894 1c13 2F       		.uleb128 0x2f
 5895 1c14 0B060000 		.long	.LASF146
 5896 1c18 0B       		.byte	0xb
 5897 1c19 45       		.byte	0x45
 5898 1c1a D9000000 		.long	0xd9
 5899 1c1e 0D       		.uleb128 0xd
 5900 1c1f C51B0000 		.long	0x1bc5
 5901 1c23 0D       		.uleb128 0xd
 5902 1c24 EF000000 		.long	0xef
 5903 1c28 00       		.byte	0
 5904 1c29 00       		.byte	0
 5905              		.section	.debug_abbrev,"",@progbits
 5906              	.Ldebug_abbrev0:
 5907 0000 01       		.uleb128 0x1
 5908 0001 11       		.uleb128 0x11
 5909 0002 01       		.byte	0x1
 5910 0003 25       		.uleb128 0x25
 5911 0004 0E       		.uleb128 0xe
 5912 0005 13       		.uleb128 0x13
 5913 0006 0B       		.uleb128 0xb
 5914 0007 03       		.uleb128 0x3
 5915 0008 0E       		.uleb128 0xe
 5916 0009 1B       		.uleb128 0x1b
 5917 000a 0E       		.uleb128 0xe
 5918 000b 11       		.uleb128 0x11
 5919 000c 01       		.uleb128 0x1
 5920 000d 12       		.uleb128 0x12
 5921 000e 06       		.uleb128 0x6
 5922 000f 10       		.uleb128 0x10
 5923 0010 17       		.uleb128 0x17
 5924 0011 00       		.byte	0
 5925 0012 00       		.byte	0
 5926 0013 02       		.uleb128 0x2
 5927 0014 24       		.uleb128 0x24
 5928 0015 00       		.byte	0
 5929 0016 0B       		.uleb128 0xb
 5930 0017 0B       		.uleb128 0xb
 5931 0018 3E       		.uleb128 0x3e
 5932 0019 0B       		.uleb128 0xb
 5933 001a 03       		.uleb128 0x3
 5934 001b 08       		.uleb128 0x8
 5935 001c 00       		.byte	0
 5936 001d 00       		.byte	0
 5937 001e 03       		.uleb128 0x3
 5938 001f 16       		.uleb128 0x16
 5939 0020 00       		.byte	0
 5940 0021 03       		.uleb128 0x3
GAS LISTING /tmp/ccnl8CWE.s 			page 124


 5941 0022 0E       		.uleb128 0xe
 5942 0023 3A       		.uleb128 0x3a
 5943 0024 0B       		.uleb128 0xb
 5944 0025 3B       		.uleb128 0x3b
 5945 0026 0B       		.uleb128 0xb
 5946 0027 49       		.uleb128 0x49
 5947 0028 13       		.uleb128 0x13
 5948 0029 00       		.byte	0
 5949 002a 00       		.byte	0
 5950 002b 04       		.uleb128 0x4
 5951 002c 24       		.uleb128 0x24
 5952 002d 00       		.byte	0
 5953 002e 0B       		.uleb128 0xb
 5954 002f 0B       		.uleb128 0xb
 5955 0030 3E       		.uleb128 0x3e
 5956 0031 0B       		.uleb128 0xb
 5957 0032 03       		.uleb128 0x3
 5958 0033 0E       		.uleb128 0xe
 5959 0034 00       		.byte	0
 5960 0035 00       		.byte	0
 5961 0036 05       		.uleb128 0x5
 5962 0037 13       		.uleb128 0x13
 5963 0038 01       		.byte	0x1
 5964 0039 03       		.uleb128 0x3
 5965 003a 0E       		.uleb128 0xe
 5966 003b 0B       		.uleb128 0xb
 5967 003c 0B       		.uleb128 0xb
 5968 003d 3A       		.uleb128 0x3a
 5969 003e 0B       		.uleb128 0xb
 5970 003f 3B       		.uleb128 0x3b
 5971 0040 0B       		.uleb128 0xb
 5972 0041 01       		.uleb128 0x1
 5973 0042 13       		.uleb128 0x13
 5974 0043 00       		.byte	0
 5975 0044 00       		.byte	0
 5976 0045 06       		.uleb128 0x6
 5977 0046 0D       		.uleb128 0xd
 5978 0047 00       		.byte	0
 5979 0048 03       		.uleb128 0x3
 5980 0049 0E       		.uleb128 0xe
 5981 004a 3A       		.uleb128 0x3a
 5982 004b 0B       		.uleb128 0xb
 5983 004c 3B       		.uleb128 0x3b
 5984 004d 0B       		.uleb128 0xb
 5985 004e 49       		.uleb128 0x49
 5986 004f 13       		.uleb128 0x13
 5987 0050 38       		.uleb128 0x38
 5988 0051 0B       		.uleb128 0xb
 5989 0052 00       		.byte	0
 5990 0053 00       		.byte	0
 5991 0054 07       		.uleb128 0x7
 5992 0055 0D       		.uleb128 0xd
 5993 0056 00       		.byte	0
 5994 0057 03       		.uleb128 0x3
 5995 0058 08       		.uleb128 0x8
 5996 0059 3A       		.uleb128 0x3a
 5997 005a 0B       		.uleb128 0xb
GAS LISTING /tmp/ccnl8CWE.s 			page 125


 5998 005b 3B       		.uleb128 0x3b
 5999 005c 0B       		.uleb128 0xb
 6000 005d 49       		.uleb128 0x49
 6001 005e 13       		.uleb128 0x13
 6002 005f 38       		.uleb128 0x38
 6003 0060 0B       		.uleb128 0xb
 6004 0061 00       		.byte	0
 6005 0062 00       		.byte	0
 6006 0063 08       		.uleb128 0x8
 6007 0064 13       		.uleb128 0x13
 6008 0065 01       		.byte	0x1
 6009 0066 0B       		.uleb128 0xb
 6010 0067 0B       		.uleb128 0xb
 6011 0068 3A       		.uleb128 0x3a
 6012 0069 0B       		.uleb128 0xb
 6013 006a 3B       		.uleb128 0x3b
 6014 006b 0B       		.uleb128 0xb
 6015 006c 01       		.uleb128 0x1
 6016 006d 13       		.uleb128 0x13
 6017 006e 00       		.byte	0
 6018 006f 00       		.byte	0
 6019 0070 09       		.uleb128 0x9
 6020 0071 0F       		.uleb128 0xf
 6021 0072 00       		.byte	0
 6022 0073 0B       		.uleb128 0xb
 6023 0074 0B       		.uleb128 0xb
 6024 0075 49       		.uleb128 0x49
 6025 0076 13       		.uleb128 0x13
 6026 0077 00       		.byte	0
 6027 0078 00       		.byte	0
 6028 0079 0A       		.uleb128 0xa
 6029 007a 0F       		.uleb128 0xf
 6030 007b 00       		.byte	0
 6031 007c 0B       		.uleb128 0xb
 6032 007d 0B       		.uleb128 0xb
 6033 007e 00       		.byte	0
 6034 007f 00       		.byte	0
 6035 0080 0B       		.uleb128 0xb
 6036 0081 35       		.uleb128 0x35
 6037 0082 00       		.byte	0
 6038 0083 49       		.uleb128 0x49
 6039 0084 13       		.uleb128 0x13
 6040 0085 00       		.byte	0
 6041 0086 00       		.byte	0
 6042 0087 0C       		.uleb128 0xc
 6043 0088 15       		.uleb128 0x15
 6044 0089 01       		.byte	0x1
 6045 008a 27       		.uleb128 0x27
 6046 008b 19       		.uleb128 0x19
 6047 008c 01       		.uleb128 0x1
 6048 008d 13       		.uleb128 0x13
 6049 008e 00       		.byte	0
 6050 008f 00       		.byte	0
 6051 0090 0D       		.uleb128 0xd
 6052 0091 05       		.uleb128 0x5
 6053 0092 00       		.byte	0
 6054 0093 49       		.uleb128 0x49
GAS LISTING /tmp/ccnl8CWE.s 			page 126


 6055 0094 13       		.uleb128 0x13
 6056 0095 00       		.byte	0
 6057 0096 00       		.byte	0
 6058 0097 0E       		.uleb128 0xe
 6059 0098 17       		.uleb128 0x17
 6060 0099 01       		.byte	0x1
 6061 009a 0B       		.uleb128 0xb
 6062 009b 0B       		.uleb128 0xb
 6063 009c 3A       		.uleb128 0x3a
 6064 009d 0B       		.uleb128 0xb
 6065 009e 3B       		.uleb128 0x3b
 6066 009f 0B       		.uleb128 0xb
 6067 00a0 01       		.uleb128 0x1
 6068 00a1 13       		.uleb128 0x13
 6069 00a2 00       		.byte	0
 6070 00a3 00       		.byte	0
 6071 00a4 0F       		.uleb128 0xf
 6072 00a5 0D       		.uleb128 0xd
 6073 00a6 00       		.byte	0
 6074 00a7 03       		.uleb128 0x3
 6075 00a8 0E       		.uleb128 0xe
 6076 00a9 3A       		.uleb128 0x3a
 6077 00aa 0B       		.uleb128 0xb
 6078 00ab 3B       		.uleb128 0x3b
 6079 00ac 0B       		.uleb128 0xb
 6080 00ad 49       		.uleb128 0x49
 6081 00ae 13       		.uleb128 0x13
 6082 00af 00       		.byte	0
 6083 00b0 00       		.byte	0
 6084 00b1 10       		.uleb128 0x10
 6085 00b2 26       		.uleb128 0x26
 6086 00b3 00       		.byte	0
 6087 00b4 49       		.uleb128 0x49
 6088 00b5 13       		.uleb128 0x13
 6089 00b6 00       		.byte	0
 6090 00b7 00       		.byte	0
 6091 00b8 11       		.uleb128 0x11
 6092 00b9 15       		.uleb128 0x15
 6093 00ba 01       		.byte	0x1
 6094 00bb 27       		.uleb128 0x27
 6095 00bc 19       		.uleb128 0x19
 6096 00bd 49       		.uleb128 0x49
 6097 00be 13       		.uleb128 0x13
 6098 00bf 01       		.uleb128 0x1
 6099 00c0 13       		.uleb128 0x13
 6100 00c1 00       		.byte	0
 6101 00c2 00       		.byte	0
 6102 00c3 12       		.uleb128 0x12
 6103 00c4 15       		.uleb128 0x15
 6104 00c5 00       		.byte	0
 6105 00c6 27       		.uleb128 0x27
 6106 00c7 19       		.uleb128 0x19
 6107 00c8 00       		.byte	0
 6108 00c9 00       		.byte	0
 6109 00ca 13       		.uleb128 0x13
 6110 00cb 2E       		.uleb128 0x2e
 6111 00cc 01       		.byte	0x1
GAS LISTING /tmp/ccnl8CWE.s 			page 127


 6112 00cd 03       		.uleb128 0x3
 6113 00ce 0E       		.uleb128 0xe
 6114 00cf 3A       		.uleb128 0x3a
 6115 00d0 0B       		.uleb128 0xb
 6116 00d1 3B       		.uleb128 0x3b
 6117 00d2 0B       		.uleb128 0xb
 6118 00d3 27       		.uleb128 0x27
 6119 00d4 19       		.uleb128 0x19
 6120 00d5 11       		.uleb128 0x11
 6121 00d6 01       		.uleb128 0x1
 6122 00d7 12       		.uleb128 0x12
 6123 00d8 06       		.uleb128 0x6
 6124 00d9 40       		.uleb128 0x40
 6125 00da 18       		.uleb128 0x18
 6126 00db 9742     		.uleb128 0x2117
 6127 00dd 19       		.uleb128 0x19
 6128 00de 01       		.uleb128 0x1
 6129 00df 13       		.uleb128 0x13
 6130 00e0 00       		.byte	0
 6131 00e1 00       		.byte	0
 6132 00e2 14       		.uleb128 0x14
 6133 00e3 34       		.uleb128 0x34
 6134 00e4 00       		.byte	0
 6135 00e5 03       		.uleb128 0x3
 6136 00e6 0E       		.uleb128 0xe
 6137 00e7 3A       		.uleb128 0x3a
 6138 00e8 0B       		.uleb128 0xb
 6139 00e9 3B       		.uleb128 0x3b
 6140 00ea 0B       		.uleb128 0xb
 6141 00eb 49       		.uleb128 0x49
 6142 00ec 13       		.uleb128 0x13
 6143 00ed 02       		.uleb128 0x2
 6144 00ee 17       		.uleb128 0x17
 6145 00ef 00       		.byte	0
 6146 00f0 00       		.byte	0
 6147 00f1 15       		.uleb128 0x15
 6148 00f2 898201   		.uleb128 0x4109
 6149 00f5 01       		.byte	0x1
 6150 00f6 11       		.uleb128 0x11
 6151 00f7 01       		.uleb128 0x1
 6152 00f8 31       		.uleb128 0x31
 6153 00f9 13       		.uleb128 0x13
 6154 00fa 01       		.uleb128 0x1
 6155 00fb 13       		.uleb128 0x13
 6156 00fc 00       		.byte	0
 6157 00fd 00       		.byte	0
 6158 00fe 16       		.uleb128 0x16
 6159 00ff 8A8201   		.uleb128 0x410a
 6160 0102 00       		.byte	0
 6161 0103 02       		.uleb128 0x2
 6162 0104 18       		.uleb128 0x18
 6163 0105 9142     		.uleb128 0x2111
 6164 0107 18       		.uleb128 0x18
 6165 0108 00       		.byte	0
 6166 0109 00       		.byte	0
 6167 010a 17       		.uleb128 0x17
 6168 010b 898201   		.uleb128 0x4109
GAS LISTING /tmp/ccnl8CWE.s 			page 128


 6169 010e 00       		.byte	0
 6170 010f 11       		.uleb128 0x11
 6171 0110 01       		.uleb128 0x1
 6172 0111 31       		.uleb128 0x31
 6173 0112 13       		.uleb128 0x13
 6174 0113 00       		.byte	0
 6175 0114 00       		.byte	0
 6176 0115 18       		.uleb128 0x18
 6177 0116 898201   		.uleb128 0x4109
 6178 0119 01       		.byte	0x1
 6179 011a 11       		.uleb128 0x11
 6180 011b 01       		.uleb128 0x1
 6181 011c 31       		.uleb128 0x31
 6182 011d 13       		.uleb128 0x13
 6183 011e 00       		.byte	0
 6184 011f 00       		.byte	0
 6185 0120 19       		.uleb128 0x19
 6186 0121 2E       		.uleb128 0x2e
 6187 0122 01       		.byte	0x1
 6188 0123 03       		.uleb128 0x3
 6189 0124 0E       		.uleb128 0xe
 6190 0125 3A       		.uleb128 0x3a
 6191 0126 0B       		.uleb128 0xb
 6192 0127 3B       		.uleb128 0x3b
 6193 0128 0B       		.uleb128 0xb
 6194 0129 27       		.uleb128 0x27
 6195 012a 19       		.uleb128 0x19
 6196 012b 49       		.uleb128 0x49
 6197 012c 13       		.uleb128 0x13
 6198 012d 11       		.uleb128 0x11
 6199 012e 01       		.uleb128 0x1
 6200 012f 12       		.uleb128 0x12
 6201 0130 06       		.uleb128 0x6
 6202 0131 40       		.uleb128 0x40
 6203 0132 18       		.uleb128 0x18
 6204 0133 9742     		.uleb128 0x2117
 6205 0135 19       		.uleb128 0x19
 6206 0136 01       		.uleb128 0x1
 6207 0137 13       		.uleb128 0x13
 6208 0138 00       		.byte	0
 6209 0139 00       		.byte	0
 6210 013a 1A       		.uleb128 0x1a
 6211 013b 05       		.uleb128 0x5
 6212 013c 00       		.byte	0
 6213 013d 03       		.uleb128 0x3
 6214 013e 08       		.uleb128 0x8
 6215 013f 3A       		.uleb128 0x3a
 6216 0140 0B       		.uleb128 0xb
 6217 0141 3B       		.uleb128 0x3b
 6218 0142 0B       		.uleb128 0xb
 6219 0143 49       		.uleb128 0x49
 6220 0144 13       		.uleb128 0x13
 6221 0145 02       		.uleb128 0x2
 6222 0146 18       		.uleb128 0x18
 6223 0147 00       		.byte	0
 6224 0148 00       		.byte	0
 6225 0149 1B       		.uleb128 0x1b
GAS LISTING /tmp/ccnl8CWE.s 			page 129


 6226 014a 2E       		.uleb128 0x2e
 6227 014b 01       		.byte	0x1
 6228 014c 03       		.uleb128 0x3
 6229 014d 0E       		.uleb128 0xe
 6230 014e 3A       		.uleb128 0x3a
 6231 014f 0B       		.uleb128 0xb
 6232 0150 3B       		.uleb128 0x3b
 6233 0151 05       		.uleb128 0x5
 6234 0152 27       		.uleb128 0x27
 6235 0153 19       		.uleb128 0x19
 6236 0154 49       		.uleb128 0x49
 6237 0155 13       		.uleb128 0x13
 6238 0156 11       		.uleb128 0x11
 6239 0157 01       		.uleb128 0x1
 6240 0158 12       		.uleb128 0x12
 6241 0159 06       		.uleb128 0x6
 6242 015a 40       		.uleb128 0x40
 6243 015b 18       		.uleb128 0x18
 6244 015c 9742     		.uleb128 0x2117
 6245 015e 19       		.uleb128 0x19
 6246 015f 01       		.uleb128 0x1
 6247 0160 13       		.uleb128 0x13
 6248 0161 00       		.byte	0
 6249 0162 00       		.byte	0
 6250 0163 1C       		.uleb128 0x1c
 6251 0164 05       		.uleb128 0x5
 6252 0165 00       		.byte	0
 6253 0166 03       		.uleb128 0x3
 6254 0167 08       		.uleb128 0x8
 6255 0168 3A       		.uleb128 0x3a
 6256 0169 0B       		.uleb128 0xb
 6257 016a 3B       		.uleb128 0x3b
 6258 016b 05       		.uleb128 0x5
 6259 016c 49       		.uleb128 0x49
 6260 016d 13       		.uleb128 0x13
 6261 016e 02       		.uleb128 0x2
 6262 016f 18       		.uleb128 0x18
 6263 0170 00       		.byte	0
 6264 0171 00       		.byte	0
 6265 0172 1D       		.uleb128 0x1d
 6266 0173 2E       		.uleb128 0x2e
 6267 0174 01       		.byte	0x1
 6268 0175 03       		.uleb128 0x3
 6269 0176 0E       		.uleb128 0xe
 6270 0177 3A       		.uleb128 0x3a
 6271 0178 0B       		.uleb128 0xb
 6272 0179 3B       		.uleb128 0x3b
 6273 017a 05       		.uleb128 0x5
 6274 017b 27       		.uleb128 0x27
 6275 017c 19       		.uleb128 0x19
 6276 017d 11       		.uleb128 0x11
 6277 017e 01       		.uleb128 0x1
 6278 017f 12       		.uleb128 0x12
 6279 0180 06       		.uleb128 0x6
 6280 0181 40       		.uleb128 0x40
 6281 0182 18       		.uleb128 0x18
 6282 0183 9742     		.uleb128 0x2117
GAS LISTING /tmp/ccnl8CWE.s 			page 130


 6283 0185 19       		.uleb128 0x19
 6284 0186 01       		.uleb128 0x1
 6285 0187 13       		.uleb128 0x13
 6286 0188 00       		.byte	0
 6287 0189 00       		.byte	0
 6288 018a 1E       		.uleb128 0x1e
 6289 018b 34       		.uleb128 0x34
 6290 018c 00       		.byte	0
 6291 018d 03       		.uleb128 0x3
 6292 018e 0E       		.uleb128 0xe
 6293 018f 3A       		.uleb128 0x3a
 6294 0190 0B       		.uleb128 0xb
 6295 0191 3B       		.uleb128 0x3b
 6296 0192 05       		.uleb128 0x5
 6297 0193 49       		.uleb128 0x49
 6298 0194 13       		.uleb128 0x13
 6299 0195 02       		.uleb128 0x2
 6300 0196 17       		.uleb128 0x17
 6301 0197 00       		.byte	0
 6302 0198 00       		.byte	0
 6303 0199 1F       		.uleb128 0x1f
 6304 019a 34       		.uleb128 0x34
 6305 019b 00       		.byte	0
 6306 019c 03       		.uleb128 0x3
 6307 019d 08       		.uleb128 0x8
 6308 019e 3A       		.uleb128 0x3a
 6309 019f 0B       		.uleb128 0xb
 6310 01a0 3B       		.uleb128 0x3b
 6311 01a1 05       		.uleb128 0x5
 6312 01a2 49       		.uleb128 0x49
 6313 01a3 13       		.uleb128 0x13
 6314 01a4 02       		.uleb128 0x2
 6315 01a5 17       		.uleb128 0x17
 6316 01a6 00       		.byte	0
 6317 01a7 00       		.byte	0
 6318 01a8 20       		.uleb128 0x20
 6319 01a9 898201   		.uleb128 0x4109
 6320 01ac 00       		.byte	0
 6321 01ad 11       		.uleb128 0x11
 6322 01ae 01       		.uleb128 0x1
 6323 01af 9542     		.uleb128 0x2115
 6324 01b1 19       		.uleb128 0x19
 6325 01b2 31       		.uleb128 0x31
 6326 01b3 13       		.uleb128 0x13
 6327 01b4 00       		.byte	0
 6328 01b5 00       		.byte	0
 6329 01b6 21       		.uleb128 0x21
 6330 01b7 34       		.uleb128 0x34
 6331 01b8 00       		.byte	0
 6332 01b9 03       		.uleb128 0x3
 6333 01ba 08       		.uleb128 0x8
 6334 01bb 3A       		.uleb128 0x3a
 6335 01bc 0B       		.uleb128 0xb
 6336 01bd 3B       		.uleb128 0x3b
 6337 01be 0B       		.uleb128 0xb
 6338 01bf 49       		.uleb128 0x49
 6339 01c0 13       		.uleb128 0x13
GAS LISTING /tmp/ccnl8CWE.s 			page 131


 6340 01c1 02       		.uleb128 0x2
 6341 01c2 18       		.uleb128 0x18
 6342 01c3 00       		.byte	0
 6343 01c4 00       		.byte	0
 6344 01c5 22       		.uleb128 0x22
 6345 01c6 34       		.uleb128 0x34
 6346 01c7 00       		.byte	0
 6347 01c8 03       		.uleb128 0x3
 6348 01c9 0E       		.uleb128 0xe
 6349 01ca 3A       		.uleb128 0x3a
 6350 01cb 0B       		.uleb128 0xb
 6351 01cc 3B       		.uleb128 0x3b
 6352 01cd 0B       		.uleb128 0xb
 6353 01ce 49       		.uleb128 0x49
 6354 01cf 13       		.uleb128 0x13
 6355 01d0 3F       		.uleb128 0x3f
 6356 01d1 19       		.uleb128 0x19
 6357 01d2 3C       		.uleb128 0x3c
 6358 01d3 19       		.uleb128 0x19
 6359 01d4 00       		.byte	0
 6360 01d5 00       		.byte	0
 6361 01d6 23       		.uleb128 0x23
 6362 01d7 01       		.uleb128 0x1
 6363 01d8 01       		.byte	0x1
 6364 01d9 49       		.uleb128 0x49
 6365 01da 13       		.uleb128 0x13
 6366 01db 01       		.uleb128 0x1
 6367 01dc 13       		.uleb128 0x13
 6368 01dd 00       		.byte	0
 6369 01de 00       		.byte	0
 6370 01df 24       		.uleb128 0x24
 6371 01e0 21       		.uleb128 0x21
 6372 01e1 00       		.byte	0
 6373 01e2 49       		.uleb128 0x49
 6374 01e3 13       		.uleb128 0x13
 6375 01e4 2F       		.uleb128 0x2f
 6376 01e5 0B       		.uleb128 0xb
 6377 01e6 00       		.byte	0
 6378 01e7 00       		.byte	0
 6379 01e8 25       		.uleb128 0x25
 6380 01e9 21       		.uleb128 0x21
 6381 01ea 00       		.byte	0
 6382 01eb 00       		.byte	0
 6383 01ec 00       		.byte	0
 6384 01ed 26       		.uleb128 0x26
 6385 01ee 34       		.uleb128 0x34
 6386 01ef 00       		.byte	0
 6387 01f0 03       		.uleb128 0x3
 6388 01f1 08       		.uleb128 0x8
 6389 01f2 3A       		.uleb128 0x3a
 6390 01f3 0B       		.uleb128 0xb
 6391 01f4 3B       		.uleb128 0x3b
 6392 01f5 0B       		.uleb128 0xb
 6393 01f6 49       		.uleb128 0x49
 6394 01f7 13       		.uleb128 0x13
 6395 01f8 3F       		.uleb128 0x3f
 6396 01f9 19       		.uleb128 0x19
GAS LISTING /tmp/ccnl8CWE.s 			page 132


 6397 01fa 3C       		.uleb128 0x3c
 6398 01fb 19       		.uleb128 0x19
 6399 01fc 00       		.byte	0
 6400 01fd 00       		.byte	0
 6401 01fe 27       		.uleb128 0x27
 6402 01ff 34       		.uleb128 0x34
 6403 0200 00       		.byte	0
 6404 0201 03       		.uleb128 0x3
 6405 0202 0E       		.uleb128 0xe
 6406 0203 3A       		.uleb128 0x3a
 6407 0204 0B       		.uleb128 0xb
 6408 0205 3B       		.uleb128 0x3b
 6409 0206 0B       		.uleb128 0xb
 6410 0207 49       		.uleb128 0x49
 6411 0208 13       		.uleb128 0x13
 6412 0209 3F       		.uleb128 0x3f
 6413 020a 19       		.uleb128 0x19
 6414 020b 02       		.uleb128 0x2
 6415 020c 18       		.uleb128 0x18
 6416 020d 00       		.byte	0
 6417 020e 00       		.byte	0
 6418 020f 28       		.uleb128 0x28
 6419 0210 34       		.uleb128 0x34
 6420 0211 00       		.byte	0
 6421 0212 03       		.uleb128 0x3
 6422 0213 0E       		.uleb128 0xe
 6423 0214 3A       		.uleb128 0x3a
 6424 0215 0B       		.uleb128 0xb
 6425 0216 3B       		.uleb128 0x3b
 6426 0217 05       		.uleb128 0x5
 6427 0218 49       		.uleb128 0x49
 6428 0219 13       		.uleb128 0x13
 6429 021a 3F       		.uleb128 0x3f
 6430 021b 19       		.uleb128 0x19
 6431 021c 02       		.uleb128 0x2
 6432 021d 18       		.uleb128 0x18
 6433 021e 00       		.byte	0
 6434 021f 00       		.byte	0
 6435 0220 29       		.uleb128 0x29
 6436 0221 2E       		.uleb128 0x2e
 6437 0222 01       		.byte	0x1
 6438 0223 3F       		.uleb128 0x3f
 6439 0224 19       		.uleb128 0x19
 6440 0225 03       		.uleb128 0x3
 6441 0226 0E       		.uleb128 0xe
 6442 0227 3A       		.uleb128 0x3a
 6443 0228 0B       		.uleb128 0xb
 6444 0229 3B       		.uleb128 0x3b
 6445 022a 0B       		.uleb128 0xb
 6446 022b 27       		.uleb128 0x27
 6447 022c 19       		.uleb128 0x19
 6448 022d 3C       		.uleb128 0x3c
 6449 022e 19       		.uleb128 0x19
 6450 022f 01       		.uleb128 0x1
 6451 0230 13       		.uleb128 0x13
 6452 0231 00       		.byte	0
 6453 0232 00       		.byte	0
GAS LISTING /tmp/ccnl8CWE.s 			page 133


 6454 0233 2A       		.uleb128 0x2a
 6455 0234 2E       		.uleb128 0x2e
 6456 0235 01       		.byte	0x1
 6457 0236 3F       		.uleb128 0x3f
 6458 0237 19       		.uleb128 0x19
 6459 0238 03       		.uleb128 0x3
 6460 0239 0E       		.uleb128 0xe
 6461 023a 3A       		.uleb128 0x3a
 6462 023b 0B       		.uleb128 0xb
 6463 023c 3B       		.uleb128 0x3b
 6464 023d 05       		.uleb128 0x5
 6465 023e 27       		.uleb128 0x27
 6466 023f 19       		.uleb128 0x19
 6467 0240 49       		.uleb128 0x49
 6468 0241 13       		.uleb128 0x13
 6469 0242 3C       		.uleb128 0x3c
 6470 0243 19       		.uleb128 0x19
 6471 0244 01       		.uleb128 0x1
 6472 0245 13       		.uleb128 0x13
 6473 0246 00       		.byte	0
 6474 0247 00       		.byte	0
 6475 0248 2B       		.uleb128 0x2b
 6476 0249 2E       		.uleb128 0x2e
 6477 024a 00       		.byte	0
 6478 024b 3F       		.uleb128 0x3f
 6479 024c 19       		.uleb128 0x19
 6480 024d 03       		.uleb128 0x3
 6481 024e 0E       		.uleb128 0xe
 6482 024f 3A       		.uleb128 0x3a
 6483 0250 0B       		.uleb128 0xb
 6484 0251 3B       		.uleb128 0x3b
 6485 0252 0B       		.uleb128 0xb
 6486 0253 27       		.uleb128 0x27
 6487 0254 19       		.uleb128 0x19
 6488 0255 49       		.uleb128 0x49
 6489 0256 13       		.uleb128 0x13
 6490 0257 3C       		.uleb128 0x3c
 6491 0258 19       		.uleb128 0x19
 6492 0259 00       		.byte	0
 6493 025a 00       		.byte	0
 6494 025b 2C       		.uleb128 0x2c
 6495 025c 2E       		.uleb128 0x2e
 6496 025d 00       		.byte	0
 6497 025e 3F       		.uleb128 0x3f
 6498 025f 19       		.uleb128 0x19
 6499 0260 03       		.uleb128 0x3
 6500 0261 0E       		.uleb128 0xe
 6501 0262 3A       		.uleb128 0x3a
 6502 0263 0B       		.uleb128 0xb
 6503 0264 3B       		.uleb128 0x3b
 6504 0265 0B       		.uleb128 0xb
 6505 0266 27       		.uleb128 0x27
 6506 0267 19       		.uleb128 0x19
 6507 0268 3C       		.uleb128 0x3c
 6508 0269 19       		.uleb128 0x19
 6509 026a 00       		.byte	0
 6510 026b 00       		.byte	0
GAS LISTING /tmp/ccnl8CWE.s 			page 134


 6511 026c 2D       		.uleb128 0x2d
 6512 026d 2E       		.uleb128 0x2e
 6513 026e 01       		.byte	0x1
 6514 026f 3F       		.uleb128 0x3f
 6515 0270 19       		.uleb128 0x19
 6516 0271 03       		.uleb128 0x3
 6517 0272 0E       		.uleb128 0xe
 6518 0273 3A       		.uleb128 0x3a
 6519 0274 0B       		.uleb128 0xb
 6520 0275 3B       		.uleb128 0x3b
 6521 0276 0B       		.uleb128 0xb
 6522 0277 27       		.uleb128 0x27
 6523 0278 19       		.uleb128 0x19
 6524 0279 49       		.uleb128 0x49
 6525 027a 13       		.uleb128 0x13
 6526 027b 3C       		.uleb128 0x3c
 6527 027c 19       		.uleb128 0x19
 6528 027d 01       		.uleb128 0x1
 6529 027e 13       		.uleb128 0x13
 6530 027f 00       		.byte	0
 6531 0280 00       		.byte	0
 6532 0281 2E       		.uleb128 0x2e
 6533 0282 2E       		.uleb128 0x2e
 6534 0283 01       		.byte	0x1
 6535 0284 3F       		.uleb128 0x3f
 6536 0285 19       		.uleb128 0x19
 6537 0286 03       		.uleb128 0x3
 6538 0287 0E       		.uleb128 0xe
 6539 0288 3A       		.uleb128 0x3a
 6540 0289 0B       		.uleb128 0xb
 6541 028a 3B       		.uleb128 0x3b
 6542 028b 05       		.uleb128 0x5
 6543 028c 27       		.uleb128 0x27
 6544 028d 19       		.uleb128 0x19
 6545 028e 3C       		.uleb128 0x3c
 6546 028f 19       		.uleb128 0x19
 6547 0290 01       		.uleb128 0x1
 6548 0291 13       		.uleb128 0x13
 6549 0292 00       		.byte	0
 6550 0293 00       		.byte	0
 6551 0294 2F       		.uleb128 0x2f
 6552 0295 2E       		.uleb128 0x2e
 6553 0296 01       		.byte	0x1
 6554 0297 3F       		.uleb128 0x3f
 6555 0298 19       		.uleb128 0x19
 6556 0299 03       		.uleb128 0x3
 6557 029a 0E       		.uleb128 0xe
 6558 029b 3A       		.uleb128 0x3a
 6559 029c 0B       		.uleb128 0xb
 6560 029d 3B       		.uleb128 0x3b
 6561 029e 0B       		.uleb128 0xb
 6562 029f 27       		.uleb128 0x27
 6563 02a0 19       		.uleb128 0x19
 6564 02a1 49       		.uleb128 0x49
 6565 02a2 13       		.uleb128 0x13
 6566 02a3 3C       		.uleb128 0x3c
 6567 02a4 19       		.uleb128 0x19
GAS LISTING /tmp/ccnl8CWE.s 			page 135


 6568 02a5 00       		.byte	0
 6569 02a6 00       		.byte	0
 6570 02a7 00       		.byte	0
 6571              		.section	.debug_loc,"",@progbits
 6572              	.Ldebug_loc0:
 6573              	.LLST0:
 6574 0000 0C000000 		.long	.LVL0-.Ltext0
 6575 0004 51010000 		.long	.LVL11-.Ltext0
 6576 0008 0100     		.value	0x1
 6577 000a 53       		.byte	0x53
 6578 000b 00000000 		.long	0
 6579 000f 00000000 		.long	0
 6580              	.LLST1:
 6581 0013 7C020000 		.long	.LVL28-.Ltext0
 6582 0017 3D030000 		.long	.LVL34-.Ltext0
 6583 001b 0100     		.value	0x1
 6584 001d 53       		.byte	0x53
 6585 001e 3D030000 		.long	.LVL34-.Ltext0
 6586 0022 51030000 		.long	.LVL35-.Ltext0
 6587 0026 0400     		.value	0x4
 6588 0028 73       		.byte	0x73
 6589 0029 9C7F     		.sleb128 -100
 6590 002b 9F       		.byte	0x9f
 6591 002c 00000000 		.long	0
 6592 0030 00000000 		.long	0
 6593              	.LLST2:
 6594 0034 7C030000 		.long	.LVL37-.Ltext0
 6595 0038 AF040000 		.long	.LVL45-.Ltext0
 6596 003c 0100     		.value	0x1
 6597 003e 53       		.byte	0x53
 6598 003f AF040000 		.long	.LVL45-.Ltext0
 6599 0043 C3040000 		.long	.LVL46-.Ltext0
 6600 0047 0400     		.value	0x4
 6601 0049 73       		.byte	0x73
 6602 004a 927F     		.sleb128 -110
 6603 004c 9F       		.byte	0x9f
 6604 004d 00000000 		.long	0
 6605 0051 00000000 		.long	0
 6606              	.LLST3:
 6607 0055 4F070000 		.long	.LVL102-.Ltext0
 6608 0059 E4070000 		.long	.LVL109-.Ltext0
 6609 005d 0100     		.value	0x1
 6610 005f 53       		.byte	0x53
 6611 0060 E4070000 		.long	.LVL109-.Ltext0
 6612 0064 E6070000 		.long	.LVL111-.Ltext0
 6613 0068 0300     		.value	0x3
 6614 006a 77       		.byte	0x77
 6615 006b 7E       		.sleb128 -2
 6616 006c 9F       		.byte	0x9f
 6617 006d E8070000 		.long	.LVL112-.Ltext0
 6618 0071 B50A0000 		.long	.LVL143-.Ltext0
 6619 0075 0100     		.value	0x1
 6620 0077 53       		.byte	0x53
 6621 0078 B50A0000 		.long	.LVL143-.Ltext0
 6622 007c B70A0000 		.long	.LVL145-.Ltext0
 6623 0080 0300     		.value	0x3
 6624 0082 77       		.byte	0x77
GAS LISTING /tmp/ccnl8CWE.s 			page 136


 6625 0083 7E       		.sleb128 -2
 6626 0084 9F       		.byte	0x9f
 6627 0085 00000000 		.long	0
 6628 0089 00000000 		.long	0
 6629              	.LLST4:
 6630 008d 67070000 		.long	.LVL103-.Ltext0
 6631 0091 E5070000 		.long	.LVL110-.Ltext0
 6632 0095 0100     		.value	0x1
 6633 0097 56       		.byte	0x56
 6634 0098 E5070000 		.long	.LVL110-.Ltext0
 6635 009c E6070000 		.long	.LVL111-.Ltext0
 6636 00a0 0300     		.value	0x3
 6637 00a2 77       		.byte	0x77
 6638 00a3 7F       		.sleb128 -1
 6639 00a4 9F       		.byte	0x9f
 6640 00a5 E8070000 		.long	.LVL112-.Ltext0
 6641 00a9 B60A0000 		.long	.LVL144-.Ltext0
 6642 00ad 0100     		.value	0x1
 6643 00af 56       		.byte	0x56
 6644 00b0 B60A0000 		.long	.LVL144-.Ltext0
 6645 00b4 B70A0000 		.long	.LVL145-.Ltext0
 6646 00b8 0300     		.value	0x3
 6647 00ba 77       		.byte	0x77
 6648 00bb 7F       		.sleb128 -1
 6649 00bc 9F       		.byte	0x9f
 6650 00bd 00000000 		.long	0
 6651 00c1 00000000 		.long	0
 6652              	.LLST5:
 6653 00c5 6E070000 		.long	.LVL104-.Ltext0
 6654 00c9 E6070000 		.long	.LVL111-.Ltext0
 6655 00cd 0100     		.value	0x1
 6656 00cf 57       		.byte	0x57
 6657 00d0 E8070000 		.long	.LVL112-.Ltext0
 6658 00d4 B70A0000 		.long	.LVL145-.Ltext0
 6659 00d8 0100     		.value	0x1
 6660 00da 57       		.byte	0x57
 6661 00db 00000000 		.long	0
 6662 00df 00000000 		.long	0
 6663              	.LLST6:
 6664 00e3 D80A0000 		.long	.LVL148-.Ltext0
 6665 00e7 EA0A0000 		.long	.LVL149-1-.Ltext0
 6666 00eb 0100     		.value	0x1
 6667 00ed 50       		.byte	0x50
 6668 00ee 040B0000 		.long	.LVL152-.Ltext0
 6669 00f2 0E0B0000 		.long	.LVL153-.Ltext0
 6670 00f6 0100     		.value	0x1
 6671 00f8 50       		.byte	0x50
 6672 00f9 00000000 		.long	0
 6673 00fd 00000000 		.long	0
 6674              	.LLST7:
 6675 0101 CC0A0000 		.long	.LVL147-.Ltext0
 6676 0105 F30A0000 		.long	.LVL150-.Ltext0
 6677 0109 0100     		.value	0x1
 6678 010b 53       		.byte	0x53
 6679 010c F40A0000 		.long	.LVL151-.Ltext0
 6680 0110 E90B0000 		.long	.LFE27-.Ltext0
 6681 0114 0100     		.value	0x1
GAS LISTING /tmp/ccnl8CWE.s 			page 137


 6682 0116 53       		.byte	0x53
 6683 0117 00000000 		.long	0
 6684 011b 00000000 		.long	0
 6685              	.LLST8:
 6686 011f FC0B0000 		.long	.LVL163-.Ltext0
 6687 0123 AD0C0000 		.long	.LVL167-.Ltext0
 6688 0127 0100     		.value	0x1
 6689 0129 53       		.byte	0x53
 6690 012a AD0C0000 		.long	.LVL167-.Ltext0
 6691 012e 510D0000 		.long	.LVL178-.Ltext0
 6692 0132 0300     		.value	0x3
 6693 0134 73       		.byte	0x73
 6694 0135 7B       		.sleb128 -5
 6695 0136 9F       		.byte	0x9f
 6696 0137 00000000 		.long	0
 6697 013b 00000000 		.long	0
 6698              	.LLST9:
 6699 013f 1C0E0000 		.long	.LVL191-.Ltext0
 6700 0143 CD0E0000 		.long	.LVL195-.Ltext0
 6701 0147 0100     		.value	0x1
 6702 0149 53       		.byte	0x53
 6703 014a CD0E0000 		.long	.LVL195-.Ltext0
 6704 014e 3A0F0000 		.long	.LVL201-.Ltext0
 6705 0152 0300     		.value	0x3
 6706 0154 73       		.byte	0x73
 6707 0155 7B       		.sleb128 -5
 6708 0156 9F       		.byte	0x9f
 6709 0157 00000000 		.long	0
 6710 015b 00000000 		.long	0
 6711              	.LLST10:
 6712 015f 4C0F0000 		.long	.LVL202-.Ltext0
 6713 0163 9B0F0000 		.long	.LVL204-.Ltext0
 6714 0167 0100     		.value	0x1
 6715 0169 53       		.byte	0x53
 6716 016a 9B0F0000 		.long	.LVL204-.Ltext0
 6717 016e 14100000 		.long	.LVL211-.Ltext0
 6718 0172 0300     		.value	0x3
 6719 0174 73       		.byte	0x73
 6720 0175 7D       		.sleb128 -3
 6721 0176 9F       		.byte	0x9f
 6722 0177 00000000 		.long	0
 6723 017b 00000000 		.long	0
 6724              		.section	.debug_aranges,"",@progbits
 6725 0000 1C000000 		.long	0x1c
 6726 0004 0200     		.value	0x2
 6727 0006 00000000 		.long	.Ldebug_info0
 6728 000a 04       		.byte	0x4
 6729 000b 00       		.byte	0
 6730 000c 0000     		.value	0
 6731 000e 0000     		.value	0
 6732 0010 00000000 		.long	.Ltext0
 6733 0014 6E100000 		.long	.Letext0-.Ltext0
 6734 0018 00000000 		.long	0
 6735 001c 00000000 		.long	0
 6736              		.section	.debug_line,"",@progbits
 6737              	.Ldebug_line0:
 6738 0000 30030000 		.section	.debug_str,"MS",@progbits,1
GAS LISTING /tmp/ccnl8CWE.s 			page 138


 6738      02002201 
 6738      00000101 
 6738      FB0E0D00 
 6738      01010101 
 6739              	.LASF134:
 6740 0000 74657374 		.string	"test_cpu_pulse"
 6740      5F637075 
 6740      5F70756C 
 6740      736500
 6741              	.LASF75:
 6742 000f 7466756E 		.string	"tfunc_t"
 6742      635F7400 
 6743              	.LASF143:
 6744 0017 6368436F 		.string	"chCondInit"
 6744      6E64496E 
 6744      697400
 6745              	.LASF37:
 6746 0022 705F6D73 		.string	"p_msg"
 6746      6700
 6747              	.LASF67:
 6748 0028 6D5F6E65 		.string	"m_next"
 6748      787400
 6749              	.LASF4:
 6750 002f 73697A65 		.string	"size_t"
 6750      5F7400
 6751              	.LASF90:
 6752 0036 7072696F 		.string	"prio"
 6752      00
 6753              	.LASF70:
 6754 003b 7264796D 		.string	"rdymsg"
 6754      736700
 6755              	.LASF86:
 6756 0042 6D747833 		.string	"mtx3_setup"
 6756      5F736574 
 6756      757000
 6757              	.LASF113:
 6758 004d 76746C69 		.string	"vtlist"
 6758      737400
 6759              	.LASF108:
 6760 0054 6D747837 		.string	"mtx7_setup"
 6760      5F736574 
 6760      757000
 6761              	.LASF88:
 6762 005f 6D747835 		.string	"mtx5_setup"
 6762      5F736574 
 6762      757000
 6763              	.LASF102:
 6764 006a 74687265 		.string	"thread4a"
 6764      61643461 
 6764      00
 6765              	.LASF101:
 6766 0073 74687265 		.string	"thread4b"
 6766      61643462 
 6766      00
 6767              	.LASF11:
 6768 007c 6C6F6E67 		.string	"long long unsigned int"
 6768      206C6F6E 
GAS LISTING /tmp/ccnl8CWE.s 			page 139


 6768      6720756E 
 6768      7369676E 
 6768      65642069 
 6769              	.LASF131:
 6770 0093 63684D74 		.string	"chMtxUnlock"
 6770      78556E6C 
 6770      6F636B00 
 6771              	.LASF71:
 6772 009f 65786974 		.string	"exitcode"
 6772      636F6465 
 6772      00
 6773              	.LASF98:
 6774 00a8 74687265 		.string	"thread3H"
 6774      61643348 
 6774      00
 6775              	.LASF83:
 6776 00b1 6D747831 		.string	"mtx1_execute"
 6776      5F657865 
 6776      63757465 
 6776      00
 6777              	.LASF25:
 6778 00be 705F7072 		.string	"p_prio"
 6778      696F00
 6779              	.LASF6:
 6780 00c5 6C6F6E67 		.string	"long long int"
 6780      206C6F6E 
 6780      6720696E 
 6780      7400
 6781              	.LASF2:
 6782 00d3 7369676E 		.string	"signed char"
 6782      65642063 
 6782      68617200 
 6783              	.LASF41:
 6784 00df 705F6D70 		.string	"p_mpool"
 6784      6F6F6C00 
 6785              	.LASF12:
 6786 00e7 626F6F6C 		.string	"bool_t"
 6786      5F7400
 6787              	.LASF65:
 6788 00ee 6D5F7175 		.string	"m_queue"
 6788      65756500 
 6789              	.LASF149:
 6790 00f6 2F686F6D 		.string	"/home/tony/ChibiOS-RT/testhal/Posix/EXT"
 6790      652F746F 
 6790      6E792F43 
 6790      68696269 
 6790      4F532D52 
 6791              	.LASF129:
 6792 011e 74657374 		.string	"test_emit_token"
 6792      5F656D69 
 6792      745F746F 
 6792      6B656E00 
 6793              	.LASF17:
 6794 012e 74736C69 		.string	"tslices_t"
 6794      6365735F 
 6794      7400
 6795              	.LASF68:
GAS LISTING /tmp/ccnl8CWE.s 			page 140


 6796 0138 436F6E64 		.string	"CondVar"
 6796      56617200 
 6797              	.LASF1:
 6798 0140 6C6F6E67 		.string	"long int"
 6798      20696E74 
 6798      00
 6799              	.LASF15:
 6800 0149 74737461 		.string	"tstate_t"
 6800      74655F74 
 6800      00
 6801              	.LASF133:
 6802 0152 5F746573 		.string	"_test_assert_time_window"
 6802      745F6173 
 6802      73657274 
 6802      5F74696D 
 6802      655F7769 
 6803              	.LASF84:
 6804 016b 6D747831 		.string	"mtx1_setup"
 6804      5F736574 
 6804      757000
 6805              	.LASF27:
 6806 0176 705F6E65 		.string	"p_newer"
 6806      77657200 
 6807              	.LASF89:
 6808 017e 6D747832 		.string	"mtx2_execute"
 6808      5F657865 
 6808      63757465 
 6808      00
 6809              	.LASF139:
 6810 018b 63685363 		.string	"chSchRescheduleS"
 6810      68526573 
 6810      63686564 
 6810      756C6553 
 6810      00
 6811              	.LASF60:
 6812 019c 725F6E65 		.string	"r_newer"
 6812      77657200 
 6813              	.LASF51:
 6814 01a4 76745F70 		.string	"vt_prev"
 6814      72657600 
 6815              	.LASF145:
 6816 01ac 6368436F 		.string	"chCondSignal"
 6816      6E645369 
 6816      676E616C 
 6816      00
 6817              	.LASF138:
 6818 01b9 63684D74 		.string	"chMtxUnlockS"
 6818      78556E6C 
 6818      6F636B53 
 6818      00
 6819              	.LASF0:
 6820 01c6 756E7369 		.string	"unsigned int"
 6820      676E6564 
 6820      20696E74 
 6820      00
 6821              	.LASF50:
 6822 01d3 76745F6E 		.string	"vt_next"
GAS LISTING /tmp/ccnl8CWE.s 			page 141


 6822      65787400 
 6823              	.LASF87:
 6824 01db 6D747834 		.string	"mtx4_setup"
 6824      5F736574 
 6824      757000
 6825              	.LASF36:
 6826 01e6 705F6D73 		.string	"p_msgqueue"
 6826      67717565 
 6826      756500
 6827              	.LASF79:
 6828 01f1 74656172 		.string	"teardown"
 6828      646F776E 
 6828      00
 6829              	.LASF77:
 6830 01fa 6E616D65 		.string	"name"
 6830      00
 6831              	.LASF47:
 6832 01ff 636F6E74 		.string	"context"
 6832      65787400 
 6833              	.LASF97:
 6834 0207 74687265 		.string	"thread3HH"
 6834      61643348 
 6834      4800
 6835              	.LASF9:
 6836 0211 73686F72 		.string	"short unsigned int"
 6836      7420756E 
 6836      7369676E 
 6836      65642069 
 6836      6E7400
 6837              	.LASF148:
 6838 0224 2E2E2F2E 		.string	"../../../test/testmtx.c"
 6838      2E2F2E2E 
 6838      2F746573 
 6838      742F7465 
 6838      73746D74 
 6839              	.LASF19:
 6840 023c 6D73675F 		.string	"msg_t"
 6840      7400
 6841              	.LASF111:
 6842 0242 6D747838 		.string	"mtx8_execute"
 6842      5F657865 
 6842      63757465 
 6842      00
 6843              	.LASF92:
 6844 024f 6D747833 		.string	"mtx3_execute"
 6844      5F657865 
 6844      63757465 
 6844      00
 6845              	.LASF137:
 6846 025c 63684D74 		.string	"chMtxUnlockAll"
 6846      78556E6C 
 6846      6F636B41 
 6846      6C6C00
 6847              	.LASF14:
 6848 026b 746D6F64 		.string	"tmode_t"
 6848      655F7400 
 6849              	.LASF43:
GAS LISTING /tmp/ccnl8CWE.s 			page 142


 6850 0273 54687265 		.string	"ThreadsList"
 6850      6164734C 
 6850      69737400 
 6851              	.LASF20:
 6852 027f 6576656E 		.string	"eventmask_t"
 6852      746D6173 
 6852      6B5F7400 
 6853              	.LASF140:
 6854 028b 63684D74 		.string	"chMtxTryLock"
 6854      78547279 
 6854      4C6F636B 
 6854      00
 6855              	.LASF64:
 6856 0298 4D757465 		.string	"Mutex"
 6856      7800
 6857              	.LASF94:
 6858 029e 74687265 		.string	"thread3LL"
 6858      6164334C 
 6858      4C00
 6859              	.LASF125:
 6860 02a8 63685468 		.string	"chThdCreateStatic"
 6860      64437265 
 6860      61746553 
 6860      74617469 
 6860      6300
 6861              	.LASF52:
 6862 02ba 76745F74 		.string	"vt_time"
 6862      696D6500 
 6863              	.LASF44:
 6864 02c2 73697A65 		.string	"sizetype"
 6864      74797065 
 6864      00
 6865              	.LASF53:
 6866 02cb 76745F66 		.string	"vt_func"
 6866      756E6300 
 6867              	.LASF85:
 6868 02d3 6D747832 		.string	"mtx2_setup"
 6868      5F736574 
 6868      757000
 6869              	.LASF128:
 6870 02de 63684D74 		.string	"chMtxLock"
 6870      784C6F63 
 6870      6B00
 6871              	.LASF136:
 6872 02e8 74657374 		.string	"test_wait_threads"
 6872      5F776169 
 6872      745F7468 
 6872      72656164 
 6872      7300
 6873              	.LASF28:
 6874 02fa 705F6F6C 		.string	"p_older"
 6874      64657200 
 6875              	.LASF81:
 6876 0302 74687265 		.string	"thread1"
 6876      61643100 
 6877              	.LASF59:
 6878 030a 725F6374 		.string	"r_ctx"
GAS LISTING /tmp/ccnl8CWE.s 			page 143


 6878      7800
 6879              	.LASF42:
 6880 0310 54687265 		.string	"ThreadsQueue"
 6880      61647351 
 6880      75657565 
 6880      00
 6881              	.LASF78:
 6882 031d 73657475 		.string	"setup"
 6882      7000
 6883              	.LASF127:
 6884 0323 5F746573 		.string	"_test_assert_sequence"
 6884      745F6173 
 6884      73657274 
 6884      5F736571 
 6884      75656E63 
 6885              	.LASF91:
 6886 0339 74696D65 		.string	"time"
 6886      00
 6887              	.LASF103:
 6888 033e 6D747834 		.string	"mtx4_execute"
 6888      5F657865 
 6888      63757465 
 6888      00
 6889              	.LASF62:
 6890 034b 725F6375 		.string	"r_current"
 6890      7272656E 
 6890      7400
 6891              	.LASF61:
 6892 0355 725F6F6C 		.string	"r_older"
 6892      64657200 
 6893              	.LASF144:
 6894 035d 6368436F 		.string	"chCondBroadcast"
 6894      6E644272 
 6894      6F616463 
 6894      61737400 
 6895              	.LASF104:
 6896 036d 6D747835 		.string	"mtx5_execute"
 6896      5F657865 
 6896      63757465 
 6896      00
 6897              	.LASF107:
 6898 037a 6D747836 		.string	"mtx6_setup"
 6898      5F736574 
 6898      757000
 6899              	.LASF106:
 6900 0385 74687265 		.string	"thread10"
 6900      61643130 
 6900      00
 6901              	.LASF112:
 6902 038e 74687265 		.string	"thread11"
 6902      61643131 
 6902      00
 6903              	.LASF82:
 6904 0397 74687265 		.string	"thread12"
 6904      61643132 
 6904      00
 6905              	.LASF16:
GAS LISTING /tmp/ccnl8CWE.s 			page 144


 6906 03a0 74726566 		.string	"trefs_t"
 6906      735F7400 
 6907              	.LASF24:
 6908 03a8 705F7072 		.string	"p_prev"
 6908      657600
 6909              	.LASF80:
 6910 03af 65786563 		.string	"execute"
 6910      75746500 
 6911              	.LASF18:
 6912 03b7 74707269 		.string	"tprio_t"
 6912      6F5F7400 
 6913              	.LASF141:
 6914 03bf 6368436F 		.string	"chCondSignalI"
 6914      6E645369 
 6914      676E616C 
 6914      4900
 6915              	.LASF13:
 6916 03cd 5F426F6F 		.string	"_Bool"
 6916      6C00
 6917              	.LASF5:
 6918 03d3 696E7433 		.string	"int32_t"
 6918      325F7400 
 6919              	.LASF8:
 6920 03db 756E7369 		.string	"unsigned char"
 6920      676E6564 
 6920      20636861 
 6920      7200
 6921              	.LASF147:
 6922 03e9 474E5520 		.string	"GNU C 4.8.2 -m32 -mtune=generic -march=i686 -ggdb -O2 -fomit-frame-pointer -fstack-protec
 6922      4320342E 
 6922      382E3220 
 6922      2D6D3332 
 6922      202D6D74 
 6923              	.LASF132:
 6924 0446 74657374 		.string	"test_wait_tick"
 6924      5F776169 
 6924      745F7469 
 6924      636B00
 6925              	.LASF124:
 6926 0455 70617474 		.string	"patternmtx"
 6926      65726E6D 
 6926      747800
 6927              	.LASF39:
 6928 0460 705F6D74 		.string	"p_mtxlist"
 6928      786C6973 
 6928      7400
 6929              	.LASF3:
 6930 046a 73686F72 		.string	"short int"
 6930      7420696E 
 6930      7400
 6931              	.LASF30:
 6932 0474 705F7374 		.string	"p_state"
 6932      61746500 
 6933              	.LASF33:
 6934 047c 705F7072 		.string	"p_preempt"
 6934      65656D70 
 6934      7400
GAS LISTING /tmp/ccnl8CWE.s 			page 145


 6935              	.LASF115:
 6936 0486 74687265 		.string	"threads"
 6936      61647300 
 6937              	.LASF58:
 6938 048e 725F7072 		.string	"r_prio"
 6938      696F00
 6939              	.LASF73:
 6940 0495 65776D61 		.string	"ewmask"
 6940      736B00
 6941              	.LASF23:
 6942 049c 705F6E65 		.string	"p_next"
 6942      787400
 6943              	.LASF31:
 6944 04a3 705F666C 		.string	"p_flags"
 6944      61677300 
 6945              	.LASF22:
 6946 04ab 54687265 		.string	"Thread"
 6946      616400
 6947              	.LASF69:
 6948 04b2 635F7175 		.string	"c_queue"
 6948      65756500 
 6949              	.LASF76:
 6950 04ba 74657374 		.string	"testcase"
 6950      63617365 
 6950      00
 6951              	.LASF38:
 6952 04c3 705F6570 		.string	"p_epending"
 6952      656E6469 
 6952      6E6700
 6953              	.LASF10:
 6954 04ce 75696E74 		.string	"uint32_t"
 6954      33325F74 
 6954      00
 6955              	.LASF57:
 6956 04d7 725F7175 		.string	"r_queue"
 6956      65756500 
 6957              	.LASF49:
 6958 04df 56697274 		.string	"VirtualTimer"
 6958      75616C54 
 6958      696D6572 
 6958      00
 6959              	.LASF118:
 6960 04ec 74657374 		.string	"testmtx3"
 6960      6D747833 
 6960      00
 6961              	.LASF119:
 6962 04f5 74657374 		.string	"testmtx4"
 6962      6D747834 
 6962      00
 6963              	.LASF120:
 6964 04fe 74657374 		.string	"testmtx5"
 6964      6D747835 
 6964      00
 6965              	.LASF121:
 6966 0507 74657374 		.string	"testmtx6"
 6966      6D747836 
 6966      00
GAS LISTING /tmp/ccnl8CWE.s 			page 146


 6967              	.LASF122:
 6968 0510 74657374 		.string	"testmtx7"
 6968      6D747837 
 6968      00
 6969              	.LASF123:
 6970 0519 74657374 		.string	"testmtx8"
 6970      6D747838 
 6970      00
 6971              	.LASF74:
 6972 0522 63686172 		.string	"char"
 6972      00
 6973              	.LASF96:
 6974 0527 74687265 		.string	"thread2H"
 6974      61643248 
 6974      00
 6975              	.LASF93:
 6976 0530 74687265 		.string	"thread2L"
 6976      6164324C 
 6976      00
 6977              	.LASF95:
 6978 0539 74687265 		.string	"thread2M"
 6978      6164324D 
 6978      00
 6979              	.LASF21:
 6980 0542 73797374 		.string	"systime_t"
 6980      696D655F 
 6980      7400
 6981              	.LASF40:
 6982 054c 705F7265 		.string	"p_realprio"
 6982      616C7072 
 6982      696F00
 6983              	.LASF48:
 6984 0557 76746675 		.string	"vtfunc_t"
 6984      6E635F74 
 6984      00
 6985              	.LASF110:
 6986 0560 6D747837 		.string	"mtx7_execute"
 6986      5F657865 
 6986      63757465 
 6986      00
 6987              	.LASF116:
 6988 056d 74657374 		.string	"testmtx1"
 6988      6D747831 
 6988      00
 6989              	.LASF142:
 6990 0576 6368436F 		.string	"chCondWait"
 6990      6E645761 
 6990      697400
 6991              	.LASF34:
 6992 0581 705F7469 		.string	"p_time"
 6992      6D6500
 6993              	.LASF46:
 6994 0588 696E7463 		.string	"intctx"
 6994      747800
 6995              	.LASF54:
 6996 058f 76745F70 		.string	"vt_par"
 6996      617200
GAS LISTING /tmp/ccnl8CWE.s 			page 147


 6997              	.LASF130:
 6998 0596 63684D74 		.string	"chMtxInit"
 6998      78496E69 
 6998      7400
 6999              	.LASF105:
 7000 05a0 6D747836 		.string	"mtx6_execute"
 7000      5F657865 
 7000      63757465 
 7000      00
 7001              	.LASF135:
 7002 05ad 63685468 		.string	"chThdSleep"
 7002      64536C65 
 7002      657000
 7003              	.LASF32:
 7004 05b8 705F7265 		.string	"p_refs"
 7004      667300
 7005              	.LASF63:
 7006 05bf 52656164 		.string	"ReadyList"
 7006      794C6973 
 7006      7400
 7007              	.LASF117:
 7008 05c9 74657374 		.string	"testmtx2"
 7008      6D747832 
 7008      00
 7009              	.LASF114:
 7010 05d2 726C6973 		.string	"rlist"
 7010      7400
 7011              	.LASF7:
 7012 05d8 75696E74 		.string	"uint8_t"
 7012      385F7400 
 7013              	.LASF100:
 7014 05e0 74687265 		.string	"thread3L"
 7014      6164334C 
 7014      00
 7015              	.LASF99:
 7016 05e9 74687265 		.string	"thread3M"
 7016      6164334D 
 7016      00
 7017              	.LASF109:
 7018 05f2 6D747838 		.string	"mtx8_setup"
 7018      5F736574 
 7018      757000
 7019              	.LASF72:
 7020 05fd 77746F62 		.string	"wtobjp"
 7020      6A7000
 7021              	.LASF29:
 7022 0604 705F6E61 		.string	"p_name"
 7022      6D6500
 7023              	.LASF146:
 7024 060b 6368436F 		.string	"chCondWaitTimeout"
 7024      6E645761 
 7024      69745469 
 7024      6D656F75 
 7024      7400
 7025              	.LASF126:
 7026 061d 5F746573 		.string	"_test_assert"
 7026      745F6173 
GAS LISTING /tmp/ccnl8CWE.s 			page 148


 7026      73657274 
 7026      00
 7027              	.LASF55:
 7028 062a 76745F73 		.string	"vt_systime"
 7028      79737469 
 7028      6D6500
 7029              	.LASF45:
 7030 0635 72656778 		.string	"regx86"
 7030      383600
 7031              	.LASF56:
 7032 063c 56544C69 		.string	"VTList"
 7032      737400
 7033              	.LASF66:
 7034 0643 6D5F6F77 		.string	"m_owner"
 7034      6E657200 
 7035              	.LASF26:
 7036 064b 705F6374 		.string	"p_ctx"
 7036      7800
 7037              	.LASF35:
 7038 0651 705F7761 		.string	"p_waiting"
 7038      6974696E 
 7038      6700
 7039              		.ident	"GCC: (Ubuntu 4.8.2-19ubuntu1) 4.8.2"
 7040              		.section	.note.GNU-stack,"",@progbits
GAS LISTING /tmp/ccnl8CWE.s 			page 149


DEFINED SYMBOLS
                            *ABS*:0000000000000000 testmtx.c
     /tmp/ccnl8CWE.s:73     .text:0000000000000000 mtx1_execute
     /tmp/ccnl8CWE.s:2049   .data:0000000000000018 m1
     /tmp/ccnl8CWE.s:190    .text:0000000000000160 thread1
     /tmp/ccnl8CWE.s:220    .text:0000000000000190 thread12
     /tmp/ccnl8CWE.s:2036   .data:0000000000000008 m2
     /tmp/ccnl8CWE.s:250    .text:00000000000001c0 mtx1_setup
     /tmp/ccnl8CWE.s:269    .text:00000000000001e0 mtx2_setup
     /tmp/ccnl8CWE.s:288    .text:0000000000000200 mtx3_setup
     /tmp/ccnl8CWE.s:311    .text:0000000000000220 mtx4_setup
     /tmp/ccnl8CWE.s:334    .text:0000000000000240 mtx5_setup
     /tmp/ccnl8CWE.s:357    .text:0000000000000260 mtx2_execute
     /tmp/ccnl8CWE.s:666    .text:0000000000000580 thread2H
     /tmp/ccnl8CWE.s:637    .text:0000000000000550 thread2M
     /tmp/ccnl8CWE.s:569    .text:00000000000004d0 thread2L
     /tmp/ccnl8CWE.s:448    .text:0000000000000360 mtx3_execute
     /tmp/ccnl8CWE.s:605    .text:0000000000000510 thread3LL
     /tmp/ccnl8CWE.s:803    .text:0000000000000670 thread3L
     /tmp/ccnl8CWE.s:767    .text:0000000000000630 thread3M
     /tmp/ccnl8CWE.s:738    .text:0000000000000600 thread3H
     /tmp/ccnl8CWE.s:702    .text:00000000000005c0 thread3HH
     /tmp/ccnl8CWE.s:854    .text:00000000000006e0 thread4b
     /tmp/ccnl8CWE.s:882    .text:0000000000000710 thread4a
     /tmp/ccnl8CWE.s:910    .text:0000000000000740 mtx4_execute
     /tmp/ccnl8CWE.s:1264   .text:0000000000000ac0 mtx5_execute
     /tmp/ccnl8CWE.s:1397   .text:0000000000000bf0 mtx6_execute
     /tmp/ccnl8CWE.s:1532   .text:0000000000000d60 thread10
     /tmp/ccnl8CWE.s:2027   .data:0000000000000000 c1
     /tmp/ccnl8CWE.s:1566   .text:0000000000000da0 mtx6_setup
     /tmp/ccnl8CWE.s:1589   .text:0000000000000dc0 mtx7_setup
     /tmp/ccnl8CWE.s:1612   .text:0000000000000de0 mtx8_setup
     /tmp/ccnl8CWE.s:1639   .text:0000000000000e10 mtx7_execute
     /tmp/ccnl8CWE.s:1745   .text:0000000000000f40 mtx8_execute
     /tmp/ccnl8CWE.s:1829   .text:0000000000001020 thread11
     /tmp/ccnl8CWE.s:1874   .rodata:0000000000000000 patternmtx
     /tmp/ccnl8CWE.s:2014   .rodata:0000000000000094 testmtx1
     /tmp/ccnl8CWE.s:1996   .rodata:0000000000000084 testmtx2
     /tmp/ccnl8CWE.s:1978   .rodata:0000000000000074 testmtx3
     /tmp/ccnl8CWE.s:1960   .rodata:0000000000000064 testmtx4
     /tmp/ccnl8CWE.s:1943   .rodata:0000000000000054 testmtx5
     /tmp/ccnl8CWE.s:1926   .rodata:0000000000000044 testmtx6
     /tmp/ccnl8CWE.s:1909   .rodata:0000000000000034 testmtx7
     /tmp/ccnl8CWE.s:1892   .rodata:0000000000000024 testmtx8

UNDEFINED SYMBOLS
rlist
chMtxLock
wa
chThdCreateStatic
threads
chMtxUnlock
test_wait_threads
_test_assert
_test_assert_sequence
test_emit_token
chMtxInit
GAS LISTING /tmp/ccnl8CWE.s 			page 150


test_wait_tick
vtlist
_test_assert_time_window
test_cpu_pulse
chThdSleep
chMtxUnlockAll
chMtxUnlockS
chSchRescheduleS
chMtxTryLock
chCondSignalI
chCondWait
chCondInit
chCondBroadcast
chCondSignal
chCondWaitTimeout
