GAS LISTING /tmp/ccu2m9kw.s 			page 1


   1              		.file	"testsem.c"
   2              	# GNU C (Ubuntu 4.8.2-19ubuntu1) version 4.8.2 (x86_64-linux-gnu)
   3              	#	compiled by GNU C version 4.8.2, GMP version 5.1.3, MPFR version 3.1.2-p3, MPC version 1.0.1
   4              	# GGC heuristics: --param ggc-min-expand=97 --param ggc-min-heapsize=126309
   5              	# options passed:  -I . -I ../../../os/ports/GCC/SIMIA32
   6              	# -I ../../../os/kernel/include -I ../../../test -I ../../../os/hal/include
   7              	# -I ../../../os/hal/platforms/Posix -I ../../../boards/simulator
   8              	# -I ../../../os/various -imultilib 32 -imultiarch i386-linux-gnu
   9              	# -MD ../../../test/testsem.d -MF .dep/testsem.o.d -MP
  10              	# -MQ ../../../test/testsem.o -D SIMULATOR -D SHELL_USE_IPRINTF=FALSE
  11              	# ../../../test/testsem.c -m32 -mtune=generic -march=i686
  12              	# -auxbase-strip ../../../test/testsem.o -ggdb -O2 -Wall -Wextra
  13              	# -Wstrict-prototypes -fomit-frame-pointer -fverbose-asm -fstack-protector
  14              	# -Wformat -Wformat-security
  15              	# options enabled:  -faggressive-loop-optimizations
  16              	# -fasynchronous-unwind-tables -fauto-inc-dec -fbranch-count-reg
  17              	# -fcaller-saves -fcombine-stack-adjustments -fcommon -fcompare-elim
  18              	# -fcprop-registers -fcrossjumping -fcse-follow-jumps -fdefer-pop
  19              	# -fdelete-null-pointer-checks -fdevirtualize -fdwarf2-cfi-asm
  20              	# -fearly-inlining -feliminate-unused-debug-types -fexpensive-optimizations
  21              	# -fforward-propagate -ffunction-cse -fgcse -fgcse-lm -fgnu-runtime
  22              	# -fguess-branch-probability -fhoist-adjacent-loads -fident -fif-conversion
  23              	# -fif-conversion2 -findirect-inlining -finline -finline-atomics
  24              	# -finline-functions-called-once -finline-small-functions -fipa-cp
  25              	# -fipa-profile -fipa-pure-const -fipa-reference -fipa-sra
  26              	# -fira-hoist-pressure -fira-share-save-slots -fira-share-spill-slots
  27              	# -fivopts -fkeep-static-consts -fleading-underscore -fmath-errno
  28              	# -fmerge-constants -fmerge-debug-strings -fmove-loop-invariants
  29              	# -fomit-frame-pointer -foptimize-register-move -foptimize-sibling-calls
  30              	# -foptimize-strlen -fpartial-inlining -fpcc-struct-return -fpeephole
  31              	# -fpeephole2 -fprefetch-loop-arrays -free -fregmove -freorder-blocks
  32              	# -freorder-functions -frerun-cse-after-loop
  33              	# -fsched-critical-path-heuristic -fsched-dep-count-heuristic
  34              	# -fsched-group-heuristic -fsched-interblock -fsched-last-insn-heuristic
  35              	# -fsched-rank-heuristic -fsched-spec -fsched-spec-insn-heuristic
  36              	# -fsched-stalled-insns-dep -fschedule-insns2 -fshow-column -fshrink-wrap
  37              	# -fsigned-zeros -fsplit-ivs-in-unroller -fsplit-wide-types
  38              	# -fstack-protector -fstrict-aliasing -fstrict-overflow
  39              	# -fstrict-volatile-bitfields -fsync-libcalls -fthread-jumps
  40              	# -ftoplevel-reorder -ftrapping-math -ftree-bit-ccp -ftree-builtin-call-dce
  41              	# -ftree-ccp -ftree-ch -ftree-coalesce-vars -ftree-copy-prop
  42              	# -ftree-copyrename -ftree-cselim -ftree-dce -ftree-dominator-opts
  43              	# -ftree-dse -ftree-forwprop -ftree-fre -ftree-loop-if-convert
  44              	# -ftree-loop-im -ftree-loop-ivcanon -ftree-loop-optimize
  45              	# -ftree-parallelize-loops= -ftree-phiprop -ftree-pre -ftree-pta
  46              	# -ftree-reassoc -ftree-scev-cprop -ftree-sink -ftree-slp-vectorize
  47              	# -ftree-slsr -ftree-sra -ftree-switch-conversion -ftree-tail-merge
  48              	# -ftree-ter -ftree-vect-loop-version -ftree-vrp -funit-at-a-time
  49              	# -funwind-tables -fvar-tracking -fvar-tracking-assignments -fverbose-asm
  50              	# -fzero-initialized-in-bss -m32 -m80387 -m96bit-long-double
  51              	# -maccumulate-outgoing-args -malign-stringops -mfancy-math-387
  52              	# -mfp-ret-in-387 -mglibc -mieee-fp -mlong-double-80 -mno-red-zone
  53              	# -mno-sse4 -mpush-args -msahf -mtls-direct-seg-refs
  54              	
  55              		.text
  56              	.Ltext0:
  57              		.section	.rodata.str1.1,"aMS",@progbits,1
GAS LISTING /tmp/ccu2m9kw.s 			page 2


  58              	.LC0:
  59 0000 4100     		.string	"A"
  60              	.LC1:
  61 0002 4200     		.string	"B"
  62              	.LC2:
  63 0004 4300     		.string	"C"
  64              	.LC3:
  65 0006 4400     		.string	"D"
  66              	.LC4:
  67 0008 4500     		.string	"E"
  68              	.LC5:
  69 000a 41424344 		.string	"ABCDE"
  69      4500
  70              		.text
  71              		.p2align 4,,15
  72              		.type	sem1_execute, @function
  73              	sem1_execute:
  74              	.LFB9:
  75              		.file 1 "../../../test/testsem.c"
  76              		.loc 1 84 0
  77              		.cfi_startproc
  78 0000 53       		pushl	%ebx	#
  79              		.cfi_def_cfa_offset 8
  80              		.cfi_offset 3, -8
  81 0001 83EC28   		subl	$40, %esp	#,
  82              		.cfi_def_cfa_offset 48
  83              		.loc 1 86 0
  84 0004 A1180000 		movl	rlist+24, %eax	# rlist.r_current, rlist.r_current
  84      00
  85 0009 C7442410 		movl	$.LC0, 16(%esp)	#,
  85      00000000 
  86 0011 8B1D0000 		movl	wa, %ebx	# wa, D.2282
  86      0000
  87 0017 C744240C 		movl	$thread1, 12(%esp)	#,
  87      20020000 
  88 001f 8B4008   		movl	8(%eax), %eax	# _3->p_prio, _3->p_prio
  89 0022 C7442404 		movl	$17008, 4(%esp)	#,
  89      70420000 
  90 002a 891C24   		movl	%ebx, (%esp)	# D.2282,
  91 002d 83C005   		addl	$5, %eax	#, D.2281
  92 0030 89442408 		movl	%eax, 8(%esp)	# D.2281,
  93 0034 E8FCFFFF 		call	chThdCreateStatic	#
  93      FF
  94              	.LVL0:
  95              		.loc 1 87 0
  96 0039 C7442410 		movl	$.LC1, 16(%esp)	#,
  96      02000000 
  97 0041 C744240C 		movl	$thread1, 12(%esp)	#,
  97      20020000 
  98              		.loc 1 86 0
  99 0049 A3000000 		movl	%eax, threads	# D.2280, threads
  99      00
 100              		.loc 1 87 0
 101 004e A1180000 		movl	rlist+24, %eax	# rlist.r_current, rlist.r_current
 101      00
 102 0053 8B4008   		movl	8(%eax), %eax	# _10->p_prio, _10->p_prio
 103 0056 C7442404 		movl	$17008, 4(%esp)	#,
GAS LISTING /tmp/ccu2m9kw.s 			page 3


 103      70420000 
 104 005e 83C001   		addl	$1, %eax	#, D.2281
 105 0061 89442408 		movl	%eax, 8(%esp)	# D.2281,
 106 0065 A1040000 		movl	wa+4, %eax	# wa, wa
 106      00
 107 006a 890424   		movl	%eax, (%esp)	# wa,
 108 006d E8FCFFFF 		call	chThdCreateStatic	#
 108      FF
 109              	.LVL1:
 110              		.loc 1 88 0
 111 0072 C7442410 		movl	$.LC2, 16(%esp)	#,
 111      04000000 
 112 007a C744240C 		movl	$thread1, 12(%esp)	#,
 112      20020000 
 113              		.loc 1 87 0
 114 0082 A3040000 		movl	%eax, threads+4	# D.2280, threads
 114      00
 115              		.loc 1 88 0
 116 0087 A1180000 		movl	rlist+24, %eax	# rlist.r_current, rlist.r_current
 116      00
 117 008c 8B4008   		movl	8(%eax), %eax	# _17->p_prio, _17->p_prio
 118 008f C7442404 		movl	$17008, 4(%esp)	#,
 118      70420000 
 119 0097 83C003   		addl	$3, %eax	#, D.2281
 120 009a 89442408 		movl	%eax, 8(%esp)	# D.2281,
 121 009e A1080000 		movl	wa+8, %eax	# wa, wa
 121      00
 122 00a3 890424   		movl	%eax, (%esp)	# wa,
 123 00a6 E8FCFFFF 		call	chThdCreateStatic	#
 123      FF
 124              	.LVL2:
 125              		.loc 1 89 0
 126 00ab C7442410 		movl	$.LC3, 16(%esp)	#,
 126      06000000 
 127 00b3 C744240C 		movl	$thread1, 12(%esp)	#,
 127      20020000 
 128              		.loc 1 88 0
 129 00bb A3080000 		movl	%eax, threads+8	# D.2280, threads
 129      00
 130              		.loc 1 89 0
 131 00c0 A1180000 		movl	rlist+24, %eax	# rlist.r_current, rlist.r_current
 131      00
 132 00c5 8B4008   		movl	8(%eax), %eax	# _24->p_prio, _24->p_prio
 133 00c8 C7442404 		movl	$17008, 4(%esp)	#,
 133      70420000 
 134 00d0 83C004   		addl	$4, %eax	#, D.2281
 135 00d3 89442408 		movl	%eax, 8(%esp)	# D.2281,
 136 00d7 A10C0000 		movl	wa+12, %eax	# wa, wa
 136      00
 137 00dc 890424   		movl	%eax, (%esp)	# wa,
 138 00df E8FCFFFF 		call	chThdCreateStatic	#
 138      FF
 139              	.LVL3:
 140              		.loc 1 90 0
 141 00e4 C7442410 		movl	$.LC4, 16(%esp)	#,
 141      08000000 
 142 00ec C744240C 		movl	$thread1, 12(%esp)	#,
GAS LISTING /tmp/ccu2m9kw.s 			page 4


 142      20020000 
 143              		.loc 1 89 0
 144 00f4 A30C0000 		movl	%eax, threads+12	# D.2280, threads
 144      00
 145              		.loc 1 90 0
 146 00f9 A1180000 		movl	rlist+24, %eax	# rlist.r_current, rlist.r_current
 146      00
 147 00fe 8B4008   		movl	8(%eax), %eax	# _31->p_prio, _31->p_prio
 148 0101 C7442404 		movl	$17008, 4(%esp)	#,
 148      70420000 
 149 0109 83C002   		addl	$2, %eax	#, D.2281
 150 010c 89442408 		movl	%eax, 8(%esp)	# D.2281,
 151 0110 A1100000 		movl	wa+16, %eax	# wa, wa
 151      00
 152 0115 890424   		movl	%eax, (%esp)	# wa,
 153 0118 E8FCFFFF 		call	chThdCreateStatic	#
 153      FF
 154              	.LVL4:
 155              		.loc 1 91 0
 156 011d C7042400 		movl	$sem1, (%esp)	#,
 156      000000
 157              		.loc 1 90 0
 158 0124 A3100000 		movl	%eax, threads+16	# D.2280, threads
 158      00
 159              		.loc 1 91 0
 160 0129 E8FCFFFF 		call	chSemSignal	#
 160      FF
 161              	.LVL5:
 162              		.loc 1 92 0
 163 012e C7042400 		movl	$sem1, (%esp)	#,
 163      000000
 164 0135 E8FCFFFF 		call	chSemSignal	#
 164      FF
 165              	.LVL6:
 166              		.loc 1 93 0
 167 013a C7042400 		movl	$sem1, (%esp)	#,
 167      000000
 168 0141 E8FCFFFF 		call	chSemSignal	#
 168      FF
 169              	.LVL7:
 170              		.loc 1 94 0
 171 0146 C7042400 		movl	$sem1, (%esp)	#,
 171      000000
 172 014d E8FCFFFF 		call	chSemSignal	#
 172      FF
 173              	.LVL8:
 174              		.loc 1 95 0
 175 0152 C7042400 		movl	$sem1, (%esp)	#,
 175      000000
 176 0159 E8FCFFFF 		call	chSemSignal	#
 176      FF
 177              	.LVL9:
 178              		.loc 1 96 0
 179 015e E8FCFFFF 		call	test_wait_threads	#
 179      FF
 180              	.LVL10:
 181              		.loc 1 100 0
GAS LISTING /tmp/ccu2m9kw.s 			page 5


 182 0163 C7442404 		movl	$.LC5, 4(%esp)	#,
 182      0A000000 
 183 016b C7042401 		movl	$1, (%esp)	#,
 183      000000
 184 0172 E8FCFFFF 		call	_test_assert_sequence	#
 184      FF
 185              	.LVL11:
 186 0177 84C0     		testb	%al, %al	# D.2283
 187 0179 7570     		jne	.L1	#,
 188              		.loc 1 102 0
 189 017b A1180000 		movl	rlist+24, %eax	# rlist.r_current, rlist.r_current
 189      00
 190 0180 C7442410 		movl	$.LC0, 16(%esp)	#,
 190      00000000 
 191 0188 C744240C 		movl	$thread1, 12(%esp)	#,
 191      20020000 
 192 0190 8B4008   		movl	8(%eax), %eax	# _46->p_prio, _46->p_prio
 193 0193 C7442404 		movl	$17008, 4(%esp)	#,
 193      70420000 
 194 019b 891C24   		movl	%ebx, (%esp)	# D.2282,
 195 019e 83C005   		addl	$5, %eax	#, D.2281
 196 01a1 89442408 		movl	%eax, 8(%esp)	# D.2281,
 197 01a5 E8FCFFFF 		call	chThdCreateStatic	#
 197      FF
 198              	.LVL12:
 199 01aa A3000000 		movl	%eax, threads	# D.2280, threads
 199      00
 200              		.loc 1 103 0
 201              	#APP
 202              	# 103 "../../../test/testsem.c" 1
   1              	/*
   2              	    ChibiOS/RT - Copyright (C) 2006-2013 Giovanni Di Sirio
   3              	
   4              	    Licensed under the Apache License, Version 2.0 (the "License");
   5              	    you may not use this file except in compliance with the License.
   6              	    You may obtain a copy of the License at
   7              	
   8              	        http://www.apache.org/licenses/LICENSE-2.0
   9              	
  10              	    Unless required by applicable law or agreed to in writing, software
  11              	    distributed under the License is distributed on an "AS IS" BASIS,
  12              	    WITHOUT WARRANTIES OR CONDITIONS OF ANY KIND, either express or implied.
  13              	    See the License for the specific language governing permissions and
  14              	    limitations under the License.
  15              	*/
  16              	
  17              	#include "ch.h"
  18              	#include "test.h"
  19              	
  20              	/**
  21              	 * @page test_sem Semaphores test
  22              	 *
  23              	 * File: @ref testsem.c
  24              	 *
  25              	 * <h2>Description</h2>
  26              	 * This module implements the test sequence for the @ref semaphores subsystem.
  27              	 *
GAS LISTING /tmp/ccu2m9kw.s 			page 6


  28              	 * <h2>Objective</h2>
  29              	 * Objective of the test module is to cover 100% of the @ref semaphores code.
  30              	 *
  31              	 * <h2>Preconditions</h2>
  32              	 * The module requires the following kernel options:
  33              	 * - @p CH_USE_SEMAPHORES
  34              	 * .
  35              	 * In case some of the required options are not enabled then some or all tests
  36              	 * may be skipped.
  37              	 *
  38              	 * <h2>Test Cases</h2>
  39              	 * - @subpage test_sem_001
  40              	 * - @subpage test_sem_002
  41              	 * - @subpage test_sem_003
  42              	 * - @subpage test_sem_004
  43              	 * .
  44              	 * @file testsem.c
  45              	 * @brief Semaphores test source file
  46              	 * @file testsem.h
  47              	 * @brief Semaphores test header file
  48              	 */
  49              	
  50              	#if CH_USE_SEMAPHORES || defined(__DOXYGEN__)
  51              	
  52              	#define ALLOWED_DELAY MS2ST(5)
  53              	
  54              	/*
  55              	 * Note, the static initializers are not really required because the
  56              	 * variables are explicitly initialized in each test case. It is done in order
  57              	 * to test the macros.
  58              	 */
  59              	static SEMAPHORE_DECL(sem1, 0);
  60              	
  61              	/**
  62              	 * @page test_sem_001 Enqueuing test
  63              	 *
  64              	 * <h2>Description</h2>
  65              	 * Five threads with randomized priorities are enqueued to a semaphore then
  66              	 * awakened one at time.<br>
  67              	 * The test expects that the threads reach their goal in FIFO order or
  68              	 * priority order depending on the CH_USE_SEMAPHORES_PRIORITY configuration
  69              	 * setting.
  70              	 */
  71              	
  72              	static void sem1_setup(void) {
  73              	
  74              	  chSemInit(&sem1, 0);
  75              	}
  76              	
  77              	static msg_t thread1(void *p) {
  78              	
  79              	  chSemWait(&sem1);
  80              	  test_emit_token(*(char *)p);
  81              	  return 0;
  82              	}
  83              	
  84              	static void sem1_execute(void) {
GAS LISTING /tmp/ccu2m9kw.s 			page 7


  85              	
  86              	  threads[0] = chThdCreateStatic(wa[0], WA_SIZE, chThdGetPriority()+5, thread1, "A");
  87              	  threads[1] = chThdCreateStatic(wa[1], WA_SIZE, chThdGetPriority()+1, thread1, "B");
  88              	  threads[2] = chThdCreateStatic(wa[2], WA_SIZE, chThdGetPriority()+3, thread1, "C");
  89              	  threads[3] = chThdCreateStatic(wa[3], WA_SIZE, chThdGetPriority()+4, thread1, "D");
  90              	  threads[4] = chThdCreateStatic(wa[4], WA_SIZE, chThdGetPriority()+2, thread1, "E");
  91              	  chSemSignal(&sem1);
  92              	  chSemSignal(&sem1);
  93              	  chSemSignal(&sem1);
  94              	  chSemSignal(&sem1);
  95              	  chSemSignal(&sem1);
  96              	  test_wait_threads();
  97              	#if CH_USE_SEMAPHORES_PRIORITY
  98              	  test_assert_sequence(1, "ADCEB");
  99              	#else
 100              	  test_assert_sequence(1, "ABCDE");
 101              	#endif
 102              	  threads[0] = chThdCreateStatic(wa[0], WA_SIZE, chThdGetPriority()+5, thread1, "A");
 103 01af 90       	  chSysLock();
 104              	  chSemAddCounterI(&sem1, 2);
 203              		nop
 204              	# 0 "" 2
 205              		.loc 1 104 0
 206              	#NO_APP
 207 01b0 C7442404 		movl	$2, 4(%esp)	#,
 207      02000000 
 208 01b8 C7042400 		movl	$sem1, (%esp)	#,
 208      000000
 209 01bf E8FCFFFF 		call	chSemAddCounterI	#
 209      FF
 210              	.LVL13:
 211              		.loc 1 105 0
 212 01c4 E8FCFFFF 		call	chSchRescheduleS	#
 212      FF
 213              	.LVL14:
 214              		.loc 1 106 0
 215              	#APP
 216              	# 106 "../../../test/testsem.c" 1
 105              	  chSchRescheduleS();
 106 01c9 90       	  chSysUnlock();
 107              	  test_wait_threads();
 217              		nop
 218              	# 0 "" 2
 219              		.loc 1 107 0
 220              	#NO_APP
 221 01ca E8FCFFFF 		call	test_wait_threads	#
 221      FF
 222              	.LVL15:
 223              		.loc 1 108 0
 224 01cf 31C0     		xorl	%eax, %eax	# D.2283
 225 01d1 833D0800 		cmpl	$1, sem1+8	#, sem1.s_cnt
 225      000001
 226 01d8 C7042402 		movl	$2, (%esp)	#,
 226      000000
 227 01df 0F94C0   		sete	%al	#, D.2283
 228 01e2 89442404 		movl	%eax, 4(%esp)	# D.2283,
 229 01e6 E8FCFFFF 		call	_test_assert	#
GAS LISTING /tmp/ccu2m9kw.s 			page 8


 229      FF
 230              	.LVL16:
 231              	.L1:
 232              		.loc 1 109 0
 233 01eb 83C428   		addl	$40, %esp	#,
 234              		.cfi_def_cfa_offset 8
 235 01ee 5B       		popl	%ebx	#
 236              		.cfi_restore 3
 237              		.cfi_def_cfa_offset 4
 238 01ef C3       		ret
 239              		.cfi_endproc
 240              	.LFE9:
 241              		.size	sem1_execute, .-sem1_execute
 242              		.p2align 4,,15
 243              		.type	thread3, @function
 244              	thread3:
 245              	.LFB14:
 246              		.loc 1 210 0
 247              		.cfi_startproc
 248              	.LVL17:
 249 01f0 83EC1C   		subl	$28, %esp	#,
 250              		.cfi_def_cfa_offset 32
 251              		.loc 1 213 0
 252 01f3 C7042400 		movl	$sem1, (%esp)	#,
 252      000000
 253 01fa E8FCFFFF 		call	chSemWait	#
 253      FF
 254              	.LVL18:
 255              		.loc 1 214 0
 256 01ff C7042400 		movl	$sem1, (%esp)	#,
 256      000000
 257 0206 E8FCFFFF 		call	chSemSignal	#
 257      FF
 258              	.LVL19:
 259              		.loc 1 216 0
 260 020b 31C0     		xorl	%eax, %eax	#
 261 020d 83C41C   		addl	$28, %esp	#,
 262              		.cfi_def_cfa_offset 4
 263 0210 C3       		ret
 264              		.cfi_endproc
 265              	.LFE14:
 266              		.size	thread3, .-thread3
 267 0211 EB0D9090 		.p2align 4,,15
 267      90909090 
 267      90909090 
 267      909090
 268              		.type	thread1, @function
 269              	thread1:
 270              	.LFB8:
 271              		.loc 1 77 0
 272              		.cfi_startproc
 273              	.LVL20:
 274 0220 83EC1C   		subl	$28, %esp	#,
 275              		.cfi_def_cfa_offset 32
 276              		.loc 1 79 0
 277 0223 C7042400 		movl	$sem1, (%esp)	#,
 277      000000
GAS LISTING /tmp/ccu2m9kw.s 			page 9


 278 022a E8FCFFFF 		call	chSemWait	#
 278      FF
 279              	.LVL21:
 280              		.loc 1 80 0
 281 022f 8B442420 		movl	32(%esp), %eax	# p, p
 282 0233 0FBE00   		movsbl	(%eax), %eax	# MEM[(char *)p_3(D)], MEM[(char *)p_3(D)]
 283 0236 890424   		movl	%eax, (%esp)	# MEM[(char *)p_3(D)],
 284 0239 E8FCFFFF 		call	test_emit_token	#
 284      FF
 285              	.LVL22:
 286              		.loc 1 82 0
 287 023e 31C0     		xorl	%eax, %eax	#
 288 0240 83C41C   		addl	$28, %esp	#,
 289              		.cfi_def_cfa_offset 4
 290 0243 C3       		ret
 291              		.cfi_endproc
 292              	.LFE8:
 293              		.size	thread1, .-thread1
 294 0244 8DB60000 		.p2align 4,,15
 294      00008DBF 
 294      00000000 
 295              		.type	sem1_setup, @function
 296              	sem1_setup:
 297              	.LFB7:
 298              		.loc 1 72 0
 299              		.cfi_startproc
 300 0250 83EC1C   		subl	$28, %esp	#,
 301              		.cfi_def_cfa_offset 32
 302              		.loc 1 74 0
 303 0253 C7442404 		movl	$0, 4(%esp)	#,
 303      00000000 
 304 025b C7042400 		movl	$sem1, (%esp)	#,
 304      000000
 305 0262 E8FCFFFF 		call	chSemInit	#
 305      FF
 306              	.LVL23:
 307              		.loc 1 75 0
 308 0267 83C41C   		addl	$28, %esp	#,
 309              		.cfi_def_cfa_offset 4
 310 026a C3       		ret
 311              		.cfi_endproc
 312              	.LFE7:
 313              		.size	sem1_setup, .-sem1_setup
 314 026b 908D7426 		.p2align 4,,15
 314      00
 315              		.type	sem2_setup, @function
 316              	sem2_setup:
 317              	.LFB10:
 318              		.loc 1 129 0
 319              		.cfi_startproc
 320 0270 83EC1C   		subl	$28, %esp	#,
 321              		.cfi_def_cfa_offset 32
 322              		.loc 1 131 0
 323 0273 C7442404 		movl	$0, 4(%esp)	#,
 323      00000000 
 324 027b C7042400 		movl	$sem1, (%esp)	#,
 324      000000
GAS LISTING /tmp/ccu2m9kw.s 			page 10


 325 0282 E8FCFFFF 		call	chSemInit	#
 325      FF
 326              	.LVL24:
 327              		.loc 1 132 0
 328 0287 83C41C   		addl	$28, %esp	#,
 329              		.cfi_def_cfa_offset 4
 330 028a C3       		ret
 331              		.cfi_endproc
 332              	.LFE10:
 333              		.size	sem2_setup, .-sem2_setup
 334 028b 908D7426 		.p2align 4,,15
 334      00
 335              		.type	sem3_setup, @function
 336              	sem3_setup:
 337              	.LFB13:
 338              		.loc 1 205 0
 339              		.cfi_startproc
 340 0290 83EC1C   		subl	$28, %esp	#,
 341              		.cfi_def_cfa_offset 32
 342              		.loc 1 207 0
 343 0293 C7442404 		movl	$0, 4(%esp)	#,
 343      00000000 
 344 029b C7042400 		movl	$sem1, (%esp)	#,
 344      000000
 345 02a2 E8FCFFFF 		call	chSemInit	#
 345      FF
 346              	.LVL25:
 347              		.loc 1 208 0
 348 02a7 83C41C   		addl	$28, %esp	#,
 349              		.cfi_def_cfa_offset 4
 350 02aa C3       		ret
 351              		.cfi_endproc
 352              	.LFE13:
 353              		.size	sem3_setup, .-sem3_setup
 354 02ab 908D7426 		.p2align 4,,15
 354      00
 355              		.type	thread2, @function
 356              	thread2:
 357              	.LFB11:
 358              		.loc 1 134 0
 359              		.cfi_startproc
 360              	.LVL26:
 361 02b0 83EC1C   		subl	$28, %esp	#,
 362              		.cfi_def_cfa_offset 32
 363              		.loc 1 137 0
 364 02b3 C7042432 		movl	$50, (%esp)	#,
 364      000000
 365 02ba E8FCFFFF 		call	chThdSleep	#
 365      FF
 366              	.LVL27:
 367              		.loc 1 138 0
 368              	#APP
 369              	# 138 "../../../test/testsem.c" 1
 108              	  test_assert(2, chSemGetCounterI(&sem1) == 1, "invalid counter");
 109              	}
 110              	
 111              	ROMCONST struct testcase testsem1 = {
GAS LISTING /tmp/ccu2m9kw.s 			page 11


 112              	  "Semaphores, enqueuing",
 113              	  sem1_setup,
 114              	  NULL,
 115              	  sem1_execute
 116              	};
 117              	
 118              	/**
 119              	 * @page test_sem_002 Timeout test
 120              	 *
 121              	 * <h2>Description</h2>
 122              	 * The three possible semaphore waiting modes (do not wait, wait with timeout,
 123              	 * wait without timeout) are explored.<br>
 124              	 * The test expects that the semaphore wait function returns the correct value
 125              	 * in each of the above scenario and that the semaphore structure status is
 126              	 * correct after each operation.
 127              	 */
 128              	
 129              	static void sem2_setup(void) {
 130              	
 131              	  chSemInit(&sem1, 0);
 132              	}
 133              	
 134              	static msg_t thread2(void *p) {
 135              	
 136              	  (void)p;
 137              	  chThdSleepMilliseconds(50);
 138 02bf 90       	  chSysLock();
 139              	  chSemSignalI(&sem1); /* For coverage reasons */
 370              		nop
 371              	# 0 "" 2
 372              		.loc 1 139 0
 373              	#NO_APP
 374 02c0 C7042400 		movl	$sem1, (%esp)	#,
 374      000000
 375 02c7 E8FCFFFF 		call	chSemSignalI	#
 375      FF
 376              	.LVL28:
 377              		.loc 1 140 0
 378 02cc E8FCFFFF 		call	chSchRescheduleS	#
 378      FF
 379              	.LVL29:
 380              		.loc 1 141 0
 381              	#APP
 382              	# 141 "../../../test/testsem.c" 1
 140              	  chSchRescheduleS();
 141 02d1 90       	  chSysUnlock();
 142              	  return 0;
 383              		nop
 384              	# 0 "" 2
 385              		.loc 1 143 0
 386              	#NO_APP
 387 02d2 31C0     		xorl	%eax, %eax	#
 388 02d4 83C41C   		addl	$28, %esp	#,
 389              		.cfi_def_cfa_offset 4
 390 02d7 C3       		ret
 391              		.cfi_endproc
 392              	.LFE11:
GAS LISTING /tmp/ccu2m9kw.s 			page 12


 393              		.size	thread2, .-thread2
 394 02d8 908DB426 		.p2align 4,,15
 394      00000000 
 395              		.type	thread4, @function
 396              	thread4:
 397              	.LFB16:
 398              		.loc 1 246 0
 399              		.cfi_startproc
 400              	.LVL30:
 401 02e0 83EC1C   		subl	$28, %esp	#,
 402              		.cfi_def_cfa_offset 32
 403              		.loc 1 246 0
 404 02e3 8B442420 		movl	32(%esp), %eax	# p, p
 405              		.loc 1 248 0
 406              	#APP
 407              	# 248 "../../../test/testsem.c" 1
 143              	}
 144              	
 145              	static void sem2_execute(void) {
 146              	  int i;
 147              	  systime_t target_time;
 148              	  msg_t msg;
 149              	
 150              	  /*
 151              	   * Testing special case TIME_IMMEDIATE.
 152              	   */
 153              	  msg = chSemWaitTimeout(&sem1, TIME_IMMEDIATE);
 154              	  test_assert(1, msg == RDY_TIMEOUT, "wrong wake-up message");
 155              	  test_assert(2, isempty(&sem1.s_queue), "queue not empty");
 156              	  test_assert(3, sem1.s_cnt == 0, "counter not zero");
 157              	
 158              	  /*
 159              	   * Testing not timeout condition.
 160              	   */
 161              	  threads[0] = chThdCreateStatic(wa[0], WA_SIZE, chThdGetPriority() - 1,
 162              	                                 thread2, 0);
 163              	  msg = chSemWaitTimeout(&sem1, MS2ST(500));
 164              	  test_wait_threads();
 165              	  test_assert(4, msg == RDY_OK, "wrong wake-up message");
 166              	  test_assert(5, isempty(&sem1.s_queue), "queue not empty");
 167              	  test_assert(6, sem1.s_cnt == 0, "counter not zero");
 168              	
 169              	  /*
 170              	   * Testing timeout condition.
 171              	   */
 172              	  test_wait_tick();
 173              	  target_time = chTimeNow() + MS2ST(5 * 500);
 174              	  for (i = 0; i < 5; i++) {
 175              	    test_emit_token('A' + i);
 176              	    msg = chSemWaitTimeout(&sem1, MS2ST(500));
 177              	    test_assert(7, msg == RDY_TIMEOUT, "wrong wake-up message");
 178              	    test_assert(8, isempty(&sem1.s_queue), "queue not empty");
 179              	    test_assert(9, sem1.s_cnt == 0, "counter not zero");
 180              	  }
 181              	  test_assert_sequence(10, "ABCDE");
 182              	  test_assert_time_window(11, target_time, target_time + ALLOWED_DELAY);
 183              	}
GAS LISTING /tmp/ccu2m9kw.s 			page 13


 184              	
 185              	ROMCONST struct testcase testsem2 = {
 186              	  "Semaphores, timeout",
 187              	  sem2_setup,
 188              	  NULL,
 189              	  sem2_execute
 190              	};
 191              	
 192              	#if CH_USE_SEMSW || defined(__DOXYGEN__)
 193              	/**
 194              	 * @page test_sem_003 Atomic signal-wait test
 195              	 *
 196              	 * <h2>Description</h2>
 197              	 * This test case explicitly addresses the @p chSemWaitSignal() function. A
 198              	 * thread is created that performs a wait and a signal operations.
 199              	 * The tester thread is awakened from an atomic wait/signal operation.<br>
 200              	 * The test expects that the semaphore wait function returns the correct value
 201              	 * in each of the above scenario and that the semaphore structure status is
 202              	 * correct after each operation.
 203              	 */
 204              	
 205              	static void sem3_setup(void) {
 206              	
 207              	  chSemInit(&sem1, 0);
 208              	}
 209              	
 210              	static msg_t thread3(void *p) {
 211              	
 212              	  (void)p;
 213              	  chSemWait(&sem1);
 214              	  chSemSignal(&sem1);
 215              	  return 0;
 216              	}
 217              	
 218              	static void sem3_execute(void) {
 219              	
 220              	  threads[0] = chThdCreateStatic(wa[0], WA_SIZE, chThdGetPriority()+1, thread3, 0);
 221              	  chSemSignalWait(&sem1, &sem1);
 222              	  test_assert(1, isempty(&sem1.s_queue), "queue not empty");
 223              	  test_assert(2, sem1.s_cnt == 0, "counter not zero");
 224              	
 225              	  chSemSignalWait(&sem1, &sem1);
 226              	  test_assert(3, isempty(&sem1.s_queue), "queue not empty");
 227              	  test_assert(4, sem1.s_cnt == 0, "counter not zero");
 228              	}
 229              	
 230              	ROMCONST struct testcase testsem3 = {
 231              	  "Semaphores, atomic signal-wait",
 232              	  sem3_setup,
 233              	  NULL,
 234              	  sem3_execute
 235              	};
 236              	#endif /* CH_USE_SEMSW */
 237              	
 238              	/**
 239              	 * @page test_sem_004 Binary Wait and Signal
 240              	 *
GAS LISTING /tmp/ccu2m9kw.s 			page 14


 241              	 * <h2>Description</h2>
 242              	 * This test case tests the binary semaphores functionality. The test both
 243              	 * checks the binary semaphore status and the expected status of the underlying
 244              	 * counting semaphore.
 245              	 */
 246              	static msg_t thread4(void *p) {
 247              	
 248 02e7 90       	  chBSemSignal((BinarySemaphore *)p);
 249              	  return 0;
 408              		nop
 409              	# 0 "" 2
 410              	#NO_APP
 411 02e8 8B5008   		movl	8(%eax), %edx	# MEM[(struct BinarySemaphore *)p_3(D)].bs_sem.s_cnt,
 412 02eb 85D2     		testl	%edx, %edx	#
 413 02ed 7E11     		jle	.L20	#,
 414              	.L18:
 415              		.loc 1 248 0 is_stmt 0 discriminator 2
 416 02ef E8FCFFFF 		call	chSchRescheduleS	#
 416      FF
 417              	.LVL31:
 418              	#APP
 419              	# 248 "../../../test/testsem.c" 1
 420              		nop
 421              	# 0 "" 2
 422              		.loc 1 250 0 is_stmt 1 discriminator 2
 423              	#NO_APP
 424 02f5 31C0     		xorl	%eax, %eax	#
 425 02f7 83C41C   		addl	$28, %esp	#,
 426              		.cfi_remember_state
 427              		.cfi_def_cfa_offset 4
 428 02fa C3       		ret
 429 02fb 908D7426 		.p2align 4,,7
 429      00
 430              		.p2align 3
 431              	.L20:
 432              		.cfi_restore_state
 433              		.loc 1 248 0 discriminator 1
 434 0300 890424   		movl	%eax, (%esp)	# p,
 435 0303 E8FCFFFF 		call	chSemSignalI	#
 435      FF
 436              	.LVL32:
 437 0308 EBE5     		jmp	.L18	#
 438              		.cfi_endproc
 439              	.LFE16:
 440              		.size	thread4, .-thread4
 441 030a 8DB60000 		.p2align 4,,15
 441      0000
 442              		.type	sem4_execute, @function
 443              	sem4_execute:
 444              	.LFB17:
 445              		.loc 1 252 0
 446              		.cfi_startproc
 447 0310 53       		pushl	%ebx	#
 448              		.cfi_def_cfa_offset 8
 449              		.cfi_offset 3, -8
 450 0311 83EC38   		subl	$56, %esp	#,
 451              		.cfi_def_cfa_offset 64
GAS LISTING /tmp/ccu2m9kw.s 			page 15


 452              		.loc 1 256 0
 453 0314 8D5C2424 		leal	36(%esp), %ebx	#, tmp114
 454 0318 C7442404 		movl	$0, 4(%esp)	#,
 454      00000000 
 455 0320 891C24   		movl	%ebx, (%esp)	# tmp114,
 456 0323 E8FCFFFF 		call	chSemInit	#
 456      FF
 457              	.LVL33:
 458              		.loc 1 257 0
 459 0328 C7442404 		movl	$0, 4(%esp)	#,
 459      00000000 
 460 0330 891C24   		movl	%ebx, (%esp)	# tmp114,
 461 0333 E8FCFFFF 		call	chSemReset	#
 461      FF
 462              	.LVL34:
 463              		.loc 1 258 0
 464 0338 8B4C242C 		movl	44(%esp), %ecx	# bsem.bs_sem.s_cnt,
 465 033c 31C0     		xorl	%eax, %eax	# D.2312
 466 033e C7042401 		movl	$1, (%esp)	#,
 466      000000
 467 0345 85C9     		testl	%ecx, %ecx	#
 468 0347 0F9EC0   		setle	%al	#, D.2312
 469 034a 89442404 		movl	%eax, 4(%esp)	# D.2312,
 470 034e E8FCFFFF 		call	_test_assert	#
 470      FF
 471              	.LVL35:
 472 0353 84C0     		testb	%al, %al	# D.2312
 473 0355 7409     		je	.L27	#,
 474              	.L21:
 475              		.loc 1 280 0
 476 0357 83C438   		addl	$56, %esp	#,
 477              		.cfi_remember_state
 478              		.cfi_def_cfa_offset 8
 479 035a 5B       		popl	%ebx	#
 480              		.cfi_restore 3
 481              		.cfi_def_cfa_offset 4
 482 035b C3       		ret
 483 035c 8D742600 		.p2align 4,,7
 484              		.p2align 3
 485              	.L27:
 486              		.cfi_restore_state
 487              		.loc 1 262 0
 488 0360 A1180000 		movl	rlist+24, %eax	# rlist.r_current, rlist.r_current
 488      00
 489              		.loc 1 261 0
 490 0365 895C2410 		movl	%ebx, 16(%esp)	# tmp114,
 491 0369 C744240C 		movl	$thread4, 12(%esp)	#,
 491      E0020000 
 492 0371 8B4008   		movl	8(%eax), %eax	# _13->p_prio, _13->p_prio
 493 0374 C7442404 		movl	$17008, 4(%esp)	#,
 493      70420000 
 494 037c 83E801   		subl	$1, %eax	#, D.2314
 495 037f 89442408 		movl	%eax, 8(%esp)	# D.2314,
 496 0383 A1000000 		movl	wa, %eax	# wa, wa
 496      00
 497 0388 890424   		movl	%eax, (%esp)	# wa,
 498 038b E8FCFFFF 		call	chThdCreateStatic	#
GAS LISTING /tmp/ccu2m9kw.s 			page 16


 498      FF
 499              	.LVL36:
 500              		.loc 1 265 0
 501 0390 891C24   		movl	%ebx, (%esp)	# tmp114,
 502              		.loc 1 261 0
 503 0393 A3000000 		movl	%eax, threads	# D.2313, threads
 503      00
 504              		.loc 1 265 0
 505 0398 E8FCFFFF 		call	chSemWait	#
 505      FF
 506              	.LVL37:
 507              		.loc 1 268 0
 508 039d 8B54242C 		movl	44(%esp), %edx	# bsem.bs_sem.s_cnt,
 509 03a1 31C0     		xorl	%eax, %eax	# D.2312
 510 03a3 C7042402 		movl	$2, (%esp)	#,
 510      000000
 511 03aa 85D2     		testl	%edx, %edx	#
 512 03ac 0F9EC0   		setle	%al	#, D.2312
 513 03af 89442404 		movl	%eax, 4(%esp)	# D.2312,
 514 03b3 E8FCFFFF 		call	_test_assert	#
 514      FF
 515              	.LVL38:
 516 03b8 84C0     		testb	%al, %al	# D.2312
 517 03ba 759B     		jne	.L21	#,
 518              		.loc 1 272 0
 519              	#APP
 520              	# 272 "../../../test/testsem.c" 1
 250              	}
 251              	
 252              	static void sem4_execute(void) {
 253              	  BinarySemaphore bsem;
 254              	  
 255              	  /* Creates a taken binary semaphore.*/
 256              	  chBSemInit(&bsem, TRUE);
 257              	  chBSemReset(&bsem, TRUE);
 258              	  test_assert(1, chBSemGetStateI(&bsem) == TRUE, "not taken");
 259              	
 260              	  /* Starts a signaler thread at a lower priority.*/
 261              	  threads[0] = chThdCreateStatic(wa[0], WA_SIZE,
 262              	                                 chThdGetPriority()-1, thread4, &bsem);
 263              	                                 
 264              	  /* Waits to be signaled.*/
 265              	  chBSemWait(&bsem);
 266              	  
 267              	  /* The binary semaphore is expected to be taken.*/
 268              	  test_assert(2, chBSemGetStateI(&bsem) == TRUE, "not taken");
 269              	  
 270              	  /* Releasing it, check both the binary semaphore state and the underlying
 271              	     counter semaphore state..*/
 272 03bc 90       	  chBSemSignal(&bsem);
 273              	  test_assert(3, chBSemGetStateI(&bsem) == FALSE, "still taken");
 521              		nop
 522              	# 0 "" 2
 523              	#NO_APP
 524 03bd 8B4C242C 		movl	44(%esp), %ecx	# bsem.bs_sem.s_cnt,
 525 03c1 85C9     		testl	%ecx, %ecx	#
 526 03c3 0F8E9F00 		jle	.L28	#,
GAS LISTING /tmp/ccu2m9kw.s 			page 17


 526      0000
 527              	.L23:
 528              		.loc 1 272 0 is_stmt 0 discriminator 2
 529 03c9 E8FCFFFF 		call	chSchRescheduleS	#
 529      FF
 530              	.LVL39:
 531              	#APP
 532              	# 272 "../../../test/testsem.c" 1
 533              		nop
 534              	# 0 "" 2
 535              		.loc 1 273 0 is_stmt 1 discriminator 2
 536              	#NO_APP
 537 03cf 8B54242C 		movl	44(%esp), %edx	# bsem.bs_sem.s_cnt,
 538 03d3 31C0     		xorl	%eax, %eax	# D.2312
 539 03d5 C7042403 		movl	$3, (%esp)	#,
 539      000000
 540 03dc 85D2     		testl	%edx, %edx	#
 541 03de 0F9FC0   		setg	%al	#, D.2312
 542 03e1 89442404 		movl	%eax, 4(%esp)	# D.2312,
 543 03e5 E8FCFFFF 		call	_test_assert	#
 543      FF
 544              	.LVL40:
 545 03ea 84C0     		testb	%al, %al	# D.2312
 546 03ec 0F8565FF 		jne	.L21	#,
 546      FFFF
 547              		.loc 1 274 0
 548 03f2 31C0     		xorl	%eax, %eax	# D.2312
 549 03f4 837C242C 		cmpl	$1, 44(%esp)	#, bsem.bs_sem.s_cnt
 549      01
 550 03f9 C7042404 		movl	$4, (%esp)	#,
 550      000000
 551 0400 0F94C0   		sete	%al	#, D.2312
 552 0403 89442404 		movl	%eax, 4(%esp)	# D.2312,
 553 0407 E8FCFFFF 		call	_test_assert	#
 553      FF
 554              	.LVL41:
 555 040c 84C0     		testb	%al, %al	# D.2312
 556 040e 0F8543FF 		jne	.L21	#,
 556      FFFF
 557              		.loc 1 277 0
 558              	#APP
 559              	# 277 "../../../test/testsem.c" 1
 274              	  test_assert(4, chSemGetCounterI(&bsem.bs_sem) == 1, "unexpected counter");
 275              	  
 276              	  /* Checking signaling overflow, the counter must not go beyond 1.*/
 277 0414 90       	  chBSemSignal(&bsem);
 278              	  test_assert(3, chBSemGetStateI(&bsem) == FALSE, "taken");
 560              		nop
 561              	# 0 "" 2
 562              	#NO_APP
 563 0415 8B4C242C 		movl	44(%esp), %ecx	# bsem.bs_sem.s_cnt,
 564 0419 85C9     		testl	%ecx, %ecx	#
 565 041b 7E58     		jle	.L29	#,
 566              	.L24:
 567              		.loc 1 277 0 is_stmt 0 discriminator 2
 568 041d E8FCFFFF 		call	chSchRescheduleS	#
 568      FF
GAS LISTING /tmp/ccu2m9kw.s 			page 18


 569              	.LVL42:
 570              	#APP
 571              	# 277 "../../../test/testsem.c" 1
 572              		nop
 573              	# 0 "" 2
 574              		.loc 1 278 0 is_stmt 1 discriminator 2
 575              	#NO_APP
 576 0423 8B54242C 		movl	44(%esp), %edx	# bsem.bs_sem.s_cnt,
 577 0427 31C0     		xorl	%eax, %eax	# D.2312
 578 0429 C7042403 		movl	$3, (%esp)	#,
 578      000000
 579 0430 85D2     		testl	%edx, %edx	#
 580 0432 0F9FC0   		setg	%al	#, D.2312
 581 0435 89442404 		movl	%eax, 4(%esp)	# D.2312,
 582 0439 E8FCFFFF 		call	_test_assert	#
 582      FF
 583              	.LVL43:
 584 043e 84C0     		testb	%al, %al	# D.2312
 585 0440 0F8511FF 		jne	.L21	#,
 585      FFFF
 586              		.loc 1 279 0
 587 0446 31C0     		xorl	%eax, %eax	# D.2312
 588 0448 837C242C 		cmpl	$1, 44(%esp)	#, bsem.bs_sem.s_cnt
 588      01
 589 044d C7042405 		movl	$5, (%esp)	#,
 589      000000
 590 0454 0F94C0   		sete	%al	#, D.2312
 591 0457 89442404 		movl	%eax, 4(%esp)	# D.2312,
 592 045b E8FCFFFF 		call	_test_assert	#
 592      FF
 593              	.LVL44:
 594 0460 E9F2FEFF 		jmp	.L21	#
 594      FF
 595              		.p2align 4,,7
 596 0465 8D7600   		.p2align 3
 597              	.L28:
 598              		.loc 1 272 0 discriminator 1
 599 0468 891C24   		movl	%ebx, (%esp)	# tmp114,
 600 046b E8FCFFFF 		call	chSemSignalI	#
 600      FF
 601              	.LVL45:
 602              		.p2align 4,,5
 603 0470 E954FFFF 		jmp	.L23	#
 603      FF
 604              	.L29:
 605              		.loc 1 277 0 discriminator 1
 606 0475 891C24   		movl	%ebx, (%esp)	# tmp114,
 607 0478 E8FCFFFF 		call	chSemSignalI	#
 607      FF
 608              	.LVL46:
 609 047d 8D7600   		.p2align 4,,5
 610 0480 EB9B     		jmp	.L24	#
 611              		.cfi_endproc
 612              	.LFE17:
 613              		.size	sem4_execute, .-sem4_execute
 614 0482 8DB42600 		.p2align 4,,15
 614      0000008D 
GAS LISTING /tmp/ccu2m9kw.s 			page 19


 614      BC270000 
 614      0000
 615              		.type	sem2_execute, @function
 616              	sem2_execute:
 617              	.LFB12:
 618              		.loc 1 145 0
 619              		.cfi_startproc
 620 0490 56       		pushl	%esi	#
 621              		.cfi_def_cfa_offset 8
 622              		.cfi_offset 6, -8
 623 0491 53       		pushl	%ebx	#
 624              		.cfi_def_cfa_offset 12
 625              		.cfi_offset 3, -12
 626 0492 83EC24   		subl	$36, %esp	#,
 627              		.cfi_def_cfa_offset 48
 628              		.loc 1 153 0
 629 0495 C7442404 		movl	$0, 4(%esp)	#,
 629      00000000 
 630 049d C7042400 		movl	$sem1, (%esp)	#,
 630      000000
 631 04a4 E8FCFFFF 		call	chSemWaitTimeout	#
 631      FF
 632              	.LVL47:
 633              		.loc 1 154 0
 634 04a9 C7042401 		movl	$1, (%esp)	#,
 634      000000
 635 04b0 83F8FF   		cmpl	$-1, %eax	#, msg
 636 04b3 0F94C0   		sete	%al	#, D.2328
 637              	.LVL48:
 638 04b6 0FB6C0   		movzbl	%al, %eax	# D.2328, D.2328
 639 04b9 89442404 		movl	%eax, 4(%esp)	# D.2328,
 640 04bd E8FCFFFF 		call	_test_assert	#
 640      FF
 641              	.LVL49:
 642 04c2 84C0     		testb	%al, %al	# D.2328
 643 04c4 740A     		je	.L37	#,
 644              	.L30:
 645              		.loc 1 183 0
 646 04c6 83C424   		addl	$36, %esp	#,
 647              		.cfi_remember_state
 648              		.cfi_def_cfa_offset 12
 649 04c9 5B       		popl	%ebx	#
 650              		.cfi_restore 3
 651              		.cfi_def_cfa_offset 8
 652 04ca 5E       		popl	%esi	#
 653              		.cfi_restore 6
 654              		.cfi_def_cfa_offset 4
 655 04cb C3       		ret
 656 04cc 8D742600 		.p2align 4,,7
 657              		.p2align 3
 658              	.L37:
 659              		.cfi_restore_state
 660              		.loc 1 155 0
 661 04d0 31C0     		xorl	%eax, %eax	# D.2328
 662 04d2 813D0000 		cmpl	$sem1, sem1	#, sem1.s_queue.p_next
 662      00000000 
 662      0000
GAS LISTING /tmp/ccu2m9kw.s 			page 20


 663 04dc C7042402 		movl	$2, (%esp)	#,
 663      000000
 664 04e3 0F94C0   		sete	%al	#, D.2328
 665 04e6 89442404 		movl	%eax, 4(%esp)	# D.2328,
 666 04ea E8FCFFFF 		call	_test_assert	#
 666      FF
 667              	.LVL50:
 668 04ef 84C0     		testb	%al, %al	# D.2328
 669 04f1 75D3     		jne	.L30	#,
 670              		.loc 1 156 0
 671 04f3 8B1D0800 		movl	sem1+8, %ebx	# sem1.s_cnt,
 671      0000
 672 04f9 31C0     		xorl	%eax, %eax	# D.2328
 673 04fb C7042403 		movl	$3, (%esp)	#,
 673      000000
 674 0502 85DB     		testl	%ebx, %ebx	#
 675 0504 0F94C0   		sete	%al	#, D.2328
 676 0507 89442404 		movl	%eax, 4(%esp)	# D.2328,
 677 050b E8FCFFFF 		call	_test_assert	#
 677      FF
 678              	.LVL51:
 679 0510 84C0     		testb	%al, %al	# D.2328
 680 0512 75B2     		jne	.L30	#,
 681              	.LBB4:
 682              	.LBB5:
 683              		.loc 1 161 0
 684 0514 A1180000 		movl	rlist+24, %eax	# rlist.r_current, rlist.r_current
 684      00
 685 0519 C7442410 		movl	$0, 16(%esp)	#,
 685      00000000 
 686 0521 C744240C 		movl	$thread2, 12(%esp)	#,
 686      B0020000 
 687 0529 8B4008   		movl	8(%eax), %eax	# _20->p_prio, _20->p_prio
 688 052c C7442404 		movl	$17008, 4(%esp)	#,
 688      70420000 
 689 0534 83E801   		subl	$1, %eax	#, D.2331
 690 0537 89442408 		movl	%eax, 8(%esp)	# D.2331,
 691 053b A1000000 		movl	wa, %eax	# wa, wa
 691      00
 692 0540 890424   		movl	%eax, (%esp)	# wa,
 693 0543 E8FCFFFF 		call	chThdCreateStatic	#
 693      FF
 694              	.LVL52:
 695              		.loc 1 163 0
 696 0548 C7442404 		movl	$500, 4(%esp)	#,
 696      F4010000 
 697 0550 C7042400 		movl	$sem1, (%esp)	#,
 697      000000
 698              		.loc 1 161 0
 699 0557 A3000000 		movl	%eax, threads	# D.2330, threads
 699      00
 700              		.loc 1 163 0
 701 055c E8FCFFFF 		call	chSemWaitTimeout	#
 701      FF
 702              	.LVL53:
 703 0561 89C3     		movl	%eax, %ebx	#, msg
 704              	.LVL54:
GAS LISTING /tmp/ccu2m9kw.s 			page 21


 705              		.loc 1 164 0
 706 0563 E8FCFFFF 		call	test_wait_threads	#
 706      FF
 707              	.LVL55:
 708              		.loc 1 165 0
 709 0568 31C0     		xorl	%eax, %eax	# D.2328
 710 056a 85DB     		testl	%ebx, %ebx	# msg
 711 056c 0F94C0   		sete	%al	#, D.2328
 712 056f 89442404 		movl	%eax, 4(%esp)	# D.2328,
 713 0573 C7042404 		movl	$4, (%esp)	#,
 713      000000
 714 057a E8FCFFFF 		call	_test_assert	#
 714      FF
 715              	.LVL56:
 716 057f 84C0     		testb	%al, %al	# D.2328
 717 0581 0F853FFF 		jne	.L30	#,
 717      FFFF
 718              		.loc 1 166 0
 719 0587 31C0     		xorl	%eax, %eax	# D.2328
 720 0589 813D0000 		cmpl	$sem1, sem1	#, sem1.s_queue.p_next
 720      00000000 
 720      0000
 721 0593 C7042405 		movl	$5, (%esp)	#,
 721      000000
 722 059a 0F94C0   		sete	%al	#, D.2328
 723 059d 89442404 		movl	%eax, 4(%esp)	# D.2328,
 724 05a1 E8FCFFFF 		call	_test_assert	#
 724      FF
 725              	.LVL57:
 726 05a6 84C0     		testb	%al, %al	# D.2328
 727 05a8 0F8518FF 		jne	.L30	#,
 727      FFFF
 728              		.loc 1 167 0
 729 05ae 8B0D0800 		movl	sem1+8, %ecx	# sem1.s_cnt,
 729      0000
 730 05b4 31C0     		xorl	%eax, %eax	# D.2328
 731 05b6 C7042406 		movl	$6, (%esp)	#,
 731      000000
 732 05bd 85C9     		testl	%ecx, %ecx	#
 733 05bf 0F94C0   		sete	%al	#, D.2328
 734 05c2 89442404 		movl	%eax, 4(%esp)	# D.2328,
 735 05c6 E8FCFFFF 		call	_test_assert	#
 735      FF
 736              	.LVL58:
 737 05cb 84C0     		testb	%al, %al	# D.2328
 738 05cd 0F85F3FE 		jne	.L30	#,
 738      FFFF
 739              		.loc 1 172 0
 740 05d3 E8FCFFFF 		call	test_wait_tick	#
 740      FF
 741              	.LVL59:
 742              		.loc 1 173 0
 743 05d8 8B350C00 		movl	vtlist+12, %esi	# vtlist.vt_systime, D.2331
 743      0000
 744              	.LVL60:
 745 05de BB410000 		movl	$65, %ebx	#, ivtmp.36
 745      00
GAS LISTING /tmp/ccu2m9kw.s 			page 22


 746              	.LVL61:
 747              	.L35:
 748              		.loc 1 175 0
 749 05e3 891C24   		movl	%ebx, (%esp)	# ivtmp.36,
 750 05e6 E8FCFFFF 		call	test_emit_token	#
 750      FF
 751              	.LVL62:
 752              		.loc 1 176 0
 753 05eb C7442404 		movl	$500, 4(%esp)	#,
 753      F4010000 
 754 05f3 C7042400 		movl	$sem1, (%esp)	#,
 754      000000
 755 05fa E8FCFFFF 		call	chSemWaitTimeout	#
 755      FF
 756              	.LVL63:
 757              		.loc 1 177 0
 758 05ff C7042407 		movl	$7, (%esp)	#,
 758      000000
 759 0606 83F8FF   		cmpl	$-1, %eax	#, msg
 760 0609 0F94C0   		sete	%al	#, D.2328
 761              	.LVL64:
 762 060c 0FB6C0   		movzbl	%al, %eax	# D.2328, D.2328
 763 060f 89442404 		movl	%eax, 4(%esp)	# D.2328,
 764 0613 E8FCFFFF 		call	_test_assert	#
 764      FF
 765              	.LVL65:
 766 0618 84C0     		testb	%al, %al	# D.2328
 767 061a 0F85A6FE 		jne	.L30	#,
 767      FFFF
 768              		.loc 1 178 0
 769 0620 31C0     		xorl	%eax, %eax	# D.2328
 770 0622 813D0000 		cmpl	$sem1, sem1	#, sem1.s_queue.p_next
 770      00000000 
 770      0000
 771 062c C7042408 		movl	$8, (%esp)	#,
 771      000000
 772 0633 0F94C0   		sete	%al	#, D.2328
 773 0636 89442404 		movl	%eax, 4(%esp)	# D.2328,
 774 063a E8FCFFFF 		call	_test_assert	#
 774      FF
 775              	.LVL66:
 776 063f 84C0     		testb	%al, %al	# D.2328
 777 0641 0F857FFE 		jne	.L30	#,
 777      FFFF
 778              		.loc 1 179 0
 779 0647 8B150800 		movl	sem1+8, %edx	# sem1.s_cnt,
 779      0000
 780 064d 31C0     		xorl	%eax, %eax	# D.2328
 781 064f C7042409 		movl	$9, (%esp)	#,
 781      000000
 782 0656 85D2     		testl	%edx, %edx	#
 783 0658 0F94C0   		sete	%al	#, D.2328
 784 065b 89442404 		movl	%eax, 4(%esp)	# D.2328,
 785 065f E8FCFFFF 		call	_test_assert	#
 785      FF
 786              	.LVL67:
 787 0664 84C0     		testb	%al, %al	# D.2328
GAS LISTING /tmp/ccu2m9kw.s 			page 23


 788 0666 0F855AFE 		jne	.L30	#,
 788      FFFF
 789              	.LVL68:
 790 066c 83C301   		addl	$1, %ebx	#, ivtmp.36
 791              	.LVL69:
 792              		.loc 1 174 0
 793 066f 83FB46   		cmpl	$70, %ebx	#, ivtmp.36
 794 0672 0F856BFF 		jne	.L35	#,
 794      FFFF
 795              		.loc 1 181 0
 796 0678 C7442404 		movl	$.LC5, 4(%esp)	#,
 796      0A000000 
 797 0680 C704240A 		movl	$10, (%esp)	#,
 797      000000
 798 0687 E8FCFFFF 		call	_test_assert_sequence	#
 798      FF
 799              	.LVL70:
 800 068c 84C0     		testb	%al, %al	# D.2328
 801 068e 0F8532FE 		jne	.L30	#,
 801      FFFF
 802              		.loc 1 182 0
 803 0694 8D86C909 		leal	2505(%esi), %eax	#, D.2331
 803      0000
 804              		.loc 1 173 0
 805 069a 81C6C409 		addl	$2500, %esi	#, target_time
 805      0000
 806              	.LVL71:
 807              		.loc 1 182 0
 808 06a0 89442408 		movl	%eax, 8(%esp)	# D.2331,
 809 06a4 89742404 		movl	%esi, 4(%esp)	# target_time,
 810 06a8 C704240B 		movl	$11, (%esp)	#,
 810      000000
 811 06af E8FCFFFF 		call	_test_assert_time_window	#
 811      FF
 812              	.LVL72:
 813 06b4 E90DFEFF 		jmp	.L30	#
 813      FF
 814              	.LBE5:
 815              	.LBE4:
 816              		.cfi_endproc
 817              	.LFE12:
 818              		.size	sem2_execute, .-sem2_execute
 819 06b9 8DB42600 		.p2align 4,,15
 819      000000
 820              		.type	sem3_execute, @function
 821              	sem3_execute:
 822              	.LFB15:
 823              		.loc 1 218 0
 824              		.cfi_startproc
 825 06c0 83EC2C   		subl	$44, %esp	#,
 826              		.cfi_def_cfa_offset 48
 827              		.loc 1 220 0
 828 06c3 A1180000 		movl	rlist+24, %eax	# rlist.r_current, rlist.r_current
 828      00
 829 06c8 C7442410 		movl	$0, 16(%esp)	#,
 829      00000000 
 830 06d0 C744240C 		movl	$thread3, 12(%esp)	#,
GAS LISTING /tmp/ccu2m9kw.s 			page 24


 830      F0010000 
 831 06d8 8B4008   		movl	8(%eax), %eax	# _2->p_prio, _2->p_prio
 832 06db C7442404 		movl	$17008, 4(%esp)	#,
 832      70420000 
 833 06e3 83C001   		addl	$1, %eax	#, D.2336
 834 06e6 89442408 		movl	%eax, 8(%esp)	# D.2336,
 835 06ea A1000000 		movl	wa, %eax	# wa, wa
 835      00
 836 06ef 890424   		movl	%eax, (%esp)	# wa,
 837 06f2 E8FCFFFF 		call	chThdCreateStatic	#
 837      FF
 838              	.LVL73:
 839              		.loc 1 221 0
 840 06f7 C7442404 		movl	$sem1, 4(%esp)	#,
 840      00000000 
 841 06ff C7042400 		movl	$sem1, (%esp)	#,
 841      000000
 842              		.loc 1 220 0
 843 0706 A3000000 		movl	%eax, threads	# D.2335, threads
 843      00
 844              		.loc 1 221 0
 845 070b E8FCFFFF 		call	chSemSignalWait	#
 845      FF
 846              	.LVL74:
 847              		.loc 1 222 0
 848 0710 31C0     		xorl	%eax, %eax	# D.2338
 849 0712 813D0000 		cmpl	$sem1, sem1	#, sem1.s_queue.p_next
 849      00000000 
 849      0000
 850 071c C7042401 		movl	$1, (%esp)	#,
 850      000000
 851 0723 0F94C0   		sete	%al	#, D.2338
 852 0726 89442404 		movl	%eax, 4(%esp)	# D.2338,
 853 072a E8FCFFFF 		call	_test_assert	#
 853      FF
 854              	.LVL75:
 855 072f 84C0     		testb	%al, %al	# D.2338
 856 0731 7405     		je	.L43	#,
 857              	.L38:
 858              		.loc 1 228 0
 859 0733 83C42C   		addl	$44, %esp	#,
 860              		.cfi_remember_state
 861              		.cfi_def_cfa_offset 4
 862 0736 C3       		ret
 863              		.p2align 4,,7
 864 0737 90       		.p2align 3
 865              	.L43:
 866              		.cfi_restore_state
 867              		.loc 1 223 0
 868 0738 8B0D0800 		movl	sem1+8, %ecx	# sem1.s_cnt,
 868      0000
 869 073e 31C0     		xorl	%eax, %eax	# D.2338
 870 0740 C7042402 		movl	$2, (%esp)	#,
 870      000000
 871 0747 85C9     		testl	%ecx, %ecx	#
 872 0749 0F94C0   		sete	%al	#, D.2338
 873 074c 89442404 		movl	%eax, 4(%esp)	# D.2338,
GAS LISTING /tmp/ccu2m9kw.s 			page 25


 874 0750 E8FCFFFF 		call	_test_assert	#
 874      FF
 875              	.LVL76:
 876 0755 84C0     		testb	%al, %al	# D.2338
 877 0757 75DA     		jne	.L38	#,
 878              	.LBB8:
 879              	.LBB9:
 880              		.loc 1 225 0
 881 0759 C7442404 		movl	$sem1, 4(%esp)	#,
 881      00000000 
 882 0761 C7042400 		movl	$sem1, (%esp)	#,
 882      000000
 883 0768 E8FCFFFF 		call	chSemSignalWait	#
 883      FF
 884              	.LVL77:
 885              		.loc 1 226 0
 886 076d 31C0     		xorl	%eax, %eax	# D.2338
 887 076f 813D0000 		cmpl	$sem1, sem1	#, sem1.s_queue.p_next
 887      00000000 
 887      0000
 888 0779 C7042403 		movl	$3, (%esp)	#,
 888      000000
 889 0780 0F94C0   		sete	%al	#, D.2338
 890 0783 89442404 		movl	%eax, 4(%esp)	# D.2338,
 891 0787 E8FCFFFF 		call	_test_assert	#
 891      FF
 892              	.LVL78:
 893 078c 84C0     		testb	%al, %al	# D.2338
 894 078e 75A3     		jne	.L38	#,
 895              		.loc 1 227 0
 896 0790 8B150800 		movl	sem1+8, %edx	# sem1.s_cnt,
 896      0000
 897 0796 31C0     		xorl	%eax, %eax	# D.2338
 898 0798 C7042404 		movl	$4, (%esp)	#,
 898      000000
 899 079f 85D2     		testl	%edx, %edx	#
 900 07a1 0F94C0   		sete	%al	#, D.2338
 901 07a4 89442404 		movl	%eax, 4(%esp)	# D.2338,
 902 07a8 E8FCFFFF 		call	_test_assert	#
 902      FF
 903              	.LVL79:
 904 07ad EB84     		jmp	.L38	#
 905              	.LBE9:
 906              	.LBE8:
 907              		.cfi_endproc
 908              	.LFE15:
 909              		.size	sem3_execute, .-sem3_execute
 910              		.globl	patternsem
 911              		.section	.rodata
 912              		.align 4
 913              		.type	patternsem, @object
 914              		.size	patternsem, 20
 915              	patternsem:
 916 0000 00000000 		.long	testsem1
 917 0004 00000000 		.long	testsem2
 918 0008 00000000 		.long	testsem3
 919 000c 00000000 		.long	testsem4
GAS LISTING /tmp/ccu2m9kw.s 			page 26


 920 0010 00000000 		.long	0
 921              		.globl	testsem4
 922              		.section	.rodata.str1.4,"aMS",@progbits,1
 923              		.align 4
 924              	.LC6:
 925 0000 42696E61 		.string	"Binary Semaphores, functionality"
 925      72792053 
 925      656D6170 
 925      686F7265 
 925      732C2066 
 926              		.section	.rodata
 927              		.align 4
 928              		.type	testsem4, @object
 929              		.size	testsem4, 16
 930              	testsem4:
 931              	# name:
 932 0014 00000000 		.long	.LC6
 933              	# setup:
 934 0018 00000000 		.long	0
 935              	# teardown:
 936 001c 00000000 		.long	0
 937              	# execute:
 938 0020 10030000 		.long	sem4_execute
 939              		.globl	testsem3
 940              		.section	.rodata.str1.4
 941 0021 000000   		.align 4
 942              	.LC7:
 943 0024 53656D61 		.string	"Semaphores, atomic signal-wait"
 943      70686F72 
 943      65732C20 
 943      61746F6D 
 943      69632073 
 944              		.section	.rodata
 945              		.align 4
 946              		.type	testsem3, @object
 947              		.size	testsem3, 16
 948              	testsem3:
 949              	# name:
 950 0024 24000000 		.long	.LC7
 951              	# setup:
 952 0028 90020000 		.long	sem3_setup
 953              	# teardown:
 954 002c 00000000 		.long	0
 955              	# execute:
 956 0030 C0060000 		.long	sem3_execute
 957              		.globl	testsem2
 958              		.section	.rodata.str1.1
 959              	.LC8:
 960 0010 53656D61 		.string	"Semaphores, timeout"
 960      70686F72 
 960      65732C20 
 960      74696D65 
 960      6F757400 
 961              		.section	.rodata
 962              		.align 4
 963              		.type	testsem2, @object
 964              		.size	testsem2, 16
GAS LISTING /tmp/ccu2m9kw.s 			page 27


 965              	testsem2:
 966              	# name:
 967 0034 10000000 		.long	.LC8
 968              	# setup:
 969 0038 70020000 		.long	sem2_setup
 970              	# teardown:
 971 003c 00000000 		.long	0
 972              	# execute:
 973 0040 90040000 		.long	sem2_execute
 974              		.globl	testsem1
 975              		.section	.rodata.str1.1
 976              	.LC9:
 977 0024 53656D61 		.string	"Semaphores, enqueuing"
 977      70686F72 
 977      65732C20 
 977      656E7175 
 977      6575696E 
 978              		.section	.rodata
 979              		.align 4
 980              		.type	testsem1, @object
 981              		.size	testsem1, 16
 982              	testsem1:
 983              	# name:
 984 0044 24000000 		.long	.LC9
 985              	# setup:
 986 0048 50020000 		.long	sem1_setup
 987              	# teardown:
 988 004c 00000000 		.long	0
 989              	# execute:
 990 0050 00000000 		.long	sem1_execute
 991              		.data
 992              		.align 4
 993              		.type	sem1, @object
 994              		.size	sem1, 12
 995              	sem1:
 996              	# s_queue:
 997              	# p_next:
 998 0000 00000000 		.long	sem1
 999              	# p_prev:
 1000 0004 00000000 		.long	sem1
 1001              	# s_cnt:
 1002 0008 00000000 		.long	0
 1003              		.text
 1004              	.Letext0:
 1005              		.file 2 "/usr/lib/gcc/x86_64-linux-gnu/4.8/include/stddef.h"
 1006              		.file 3 "/usr/include/stdint.h"
 1007              		.file 4 "../../../os/ports/GCC/SIMIA32/chtypes.h"
 1008              		.file 5 "../../../os/kernel/include/chlists.h"
 1009              		.file 6 "../../../os/kernel/include/chthreads.h"
 1010              		.file 7 "../../../os/ports/GCC/SIMIA32/chcore.h"
 1011              		.file 8 "../../../os/kernel/include/chvt.h"
 1012              		.file 9 "../../../os/kernel/include/chschd.h"
 1013              		.file 10 "../../../os/kernel/include/chsem.h"
 1014              		.file 11 "../../../os/kernel/include/chbsem.h"
 1015              		.file 12 "../../../os/kernel/include/chmtx.h"
 1016              		.file 13 "../../../test/test.h"
 4055              		.section	.note.GNU-stack,"",@progbits
GAS LISTING /tmp/ccu2m9kw.s 			page 86

