GAS LISTING /tmp/ccEKufMP.s 			page 1


   1              		.file	"testmbox.c"
   2              	# GNU C (Ubuntu 4.8.2-19ubuntu1) version 4.8.2 (x86_64-linux-gnu)
   3              	#	compiled by GNU C version 4.8.2, GMP version 5.1.3, MPFR version 3.1.2-p3, MPC version 1.0.1
   4              	# GGC heuristics: --param ggc-min-expand=97 --param ggc-min-heapsize=126309
   5              	# options passed:  -I . -I ../../../os/ports/GCC/SIMIA32
   6              	# -I ../../../os/kernel/include -I ../../../test -I ../../../os/hal/include
   7              	# -I ../../../os/hal/platforms/Posix -I ../../../boards/simulator
   8              	# -I ../../../os/various -imultilib 32 -imultiarch i386-linux-gnu
   9              	# -MD ../../../test/testmbox.d -MF .dep/testmbox.o.d -MP
  10              	# -MQ ../../../test/testmbox.o -D SIMULATOR -D SHELL_USE_IPRINTF=FALSE
  11              	# ../../../test/testmbox.c -m32 -mtune=generic -march=i686
  12              	# -auxbase-strip ../../../test/testmbox.o -ggdb -O2 -Wall -Wextra
  13              	# -Wstrict-prototypes -fomit-frame-pointer -fverbose-asm -fstack-protector
  14              	# -Wformat -Wformat-security
  15              	# options enabled:  -faggressive-loop-optimizations
  16              	# -fasynchronous-unwind-tables -fauto-inc-dec -fbranch-count-reg
  17              	# -fcaller-saves -fcombine-stack-adjustments -fcommon -fcompare-elim
  18              	# -fcprop-registers -fcrossjumping -fcse-follow-jumps -fdefer-pop
  19              	# -fdelete-null-pointer-checks -fdevirtualize -fdwarf2-cfi-asm
  20              	# -fearly-inlining -feliminate-unused-debug-types -fexpensive-optimizations
  21              	# -fforward-propagate -ffunction-cse -fgcse -fgcse-lm -fgnu-runtime
  22              	# -fguess-branch-probability -fhoist-adjacent-loads -fident -fif-conversion
  23              	# -fif-conversion2 -findirect-inlining -finline -finline-atomics
  24              	# -finline-functions-called-once -finline-small-functions -fipa-cp
  25              	# -fipa-profile -fipa-pure-const -fipa-reference -fipa-sra
  26              	# -fira-hoist-pressure -fira-share-save-slots -fira-share-spill-slots
  27              	# -fivopts -fkeep-static-consts -fleading-underscore -fmath-errno
  28              	# -fmerge-constants -fmerge-debug-strings -fmove-loop-invariants
  29              	# -fomit-frame-pointer -foptimize-register-move -foptimize-sibling-calls
  30              	# -foptimize-strlen -fpartial-inlining -fpcc-struct-return -fpeephole
  31              	# -fpeephole2 -fprefetch-loop-arrays -free -fregmove -freorder-blocks
  32              	# -freorder-functions -frerun-cse-after-loop
  33              	# -fsched-critical-path-heuristic -fsched-dep-count-heuristic
  34              	# -fsched-group-heuristic -fsched-interblock -fsched-last-insn-heuristic
  35              	# -fsched-rank-heuristic -fsched-spec -fsched-spec-insn-heuristic
  36              	# -fsched-stalled-insns-dep -fschedule-insns2 -fshow-column -fshrink-wrap
  37              	# -fsigned-zeros -fsplit-ivs-in-unroller -fsplit-wide-types
  38              	# -fstack-protector -fstrict-aliasing -fstrict-overflow
  39              	# -fstrict-volatile-bitfields -fsync-libcalls -fthread-jumps
  40              	# -ftoplevel-reorder -ftrapping-math -ftree-bit-ccp -ftree-builtin-call-dce
  41              	# -ftree-ccp -ftree-ch -ftree-coalesce-vars -ftree-copy-prop
  42              	# -ftree-copyrename -ftree-cselim -ftree-dce -ftree-dominator-opts
  43              	# -ftree-dse -ftree-forwprop -ftree-fre -ftree-loop-if-convert
  44              	# -ftree-loop-im -ftree-loop-ivcanon -ftree-loop-optimize
  45              	# -ftree-parallelize-loops= -ftree-phiprop -ftree-pre -ftree-pta
  46              	# -ftree-reassoc -ftree-scev-cprop -ftree-sink -ftree-slp-vectorize
  47              	# -ftree-slsr -ftree-sra -ftree-switch-conversion -ftree-tail-merge
  48              	# -ftree-ter -ftree-vect-loop-version -ftree-vrp -funit-at-a-time
  49              	# -funwind-tables -fvar-tracking -fvar-tracking-assignments -fverbose-asm
  50              	# -fzero-initialized-in-bss -m32 -m80387 -m96bit-long-double
  51              	# -maccumulate-outgoing-args -malign-stringops -mfancy-math-387
  52              	# -mfp-ret-in-387 -mglibc -mieee-fp -mlong-double-80 -mno-red-zone
  53              	# -mno-sse4 -mpush-args -msahf -mtls-direct-seg-refs
  54              	
  55              		.text
  56              	.Ltext0:
  57              		.section	.rodata.str1.1,"aMS",@progbits,1
GAS LISTING /tmp/ccEKufMP.s 			page 2


  58              	.LC0:
  59 0000 41424344 		.string	"ABCDE"
  59      4500
  60              		.text
  61              		.p2align 4,,15
  62              		.type	mbox1_execute, @function
  63              	mbox1_execute:
  64              	.LFB8:
  65              		.file 1 "../../../test/testmbox.c"
  66              		.loc 1 76 0
  67              		.cfi_startproc
  68 0000 56       		pushl	%esi	#
  69              		.cfi_def_cfa_offset 8
  70              		.cfi_offset 6, -8
  71              		.loc 1 83 0
  72 0001 31C0     		xorl	%eax, %eax	# D.2269
  73              		.loc 1 76 0
  74 0003 53       		pushl	%ebx	#
  75              		.cfi_def_cfa_offset 12
  76              		.cfi_offset 3, -12
  77 0004 83EC24   		subl	$36, %esp	#,
  78              		.cfi_def_cfa_offset 48
  79              		.loc 1 83 0
  80 0007 833D2400 		cmpl	$5, mb1+36	#, mb1.mb_emptysem.s_cnt
  80      000005
  81 000e C7042401 		movl	$1, (%esp)	#,
  81      000000
  82 0015 0F94C0   		sete	%al	#, D.2269
  83 0018 89442404 		movl	%eax, 4(%esp)	# D.2269,
  84 001c E8FCFFFF 		call	_test_assert	#
  84      FF
  85              	.LVL0:
  86 0021 84C0     		testb	%al, %al	# D.2269
  87 0023 7579     		jne	.L1	#,
  88 0025 BB420000 		movl	$66, %ebx	#, ivtmp.26
  88      00
  89              	.L4:
  90              	.LVL1:
  91              		.loc 1 89 0
  92 002a C7442408 		movl	$-1, 8(%esp)	#,
  92      FFFFFFFF 
  93 0032 895C2404 		movl	%ebx, 4(%esp)	# ivtmp.26,
  94 0036 C7042400 		movl	$mb1, (%esp)	#,
  94      000000
  95 003d E8FCFFFF 		call	chMBPost	#
  95      FF
  96              	.LVL2:
  97              		.loc 1 90 0
  98 0042 C7042402 		movl	$2, (%esp)	#,
  98      000000
  99 0049 85C0     		testl	%eax, %eax	# msg1
 100 004b 0F94C0   		sete	%al	#, D.2269
 101              	.LVL3:
 102 004e 0FB6C0   		movzbl	%al, %eax	# D.2269, D.2269
 103 0051 89442404 		movl	%eax, 4(%esp)	# D.2269,
 104 0055 E8FCFFFF 		call	_test_assert	#
 104      FF
GAS LISTING /tmp/ccEKufMP.s 			page 3


 105              	.LVL4:
 106 005a 84C0     		testb	%al, %al	# D.2269
 107 005c 7540     		jne	.L1	#,
 108              	.LVL5:
 109 005e 83C301   		addl	$1, %ebx	#, ivtmp.26
 110              	.LVL6:
 111              		.loc 1 88 0
 112 0061 83FB46   		cmpl	$70, %ebx	#, ivtmp.26
 113 0064 75C4     		jne	.L4	#,
 114              		.loc 1 92 0
 115 0066 C7442408 		movl	$-1, 8(%esp)	#,
 115      FFFFFFFF 
 116 006e C7442404 		movl	$65, 4(%esp)	#,
 116      41000000 
 117 0076 C7042400 		movl	$mb1, (%esp)	#,
 117      000000
 118 007d E8FCFFFF 		call	chMBPostAhead	#
 118      FF
 119              	.LVL7:
 120              		.loc 1 93 0
 121 0082 C7042403 		movl	$3, (%esp)	#,
 121      000000
 122 0089 85C0     		testl	%eax, %eax	# msg1
 123 008b 0F94C0   		sete	%al	#, D.2269
 124              	.LVL8:
 125 008e 0FB6C0   		movzbl	%al, %eax	# D.2269, D.2269
 126 0091 89442404 		movl	%eax, 4(%esp)	# D.2269,
 127 0095 E8FCFFFF 		call	_test_assert	#
 127      FF
 128              	.LVL9:
 129 009a 84C0     		testb	%al, %al	# D.2269
 130 009c 740A     		je	.L29	#,
 131              	.LVL10:
 132              	.L1:
 133              		.loc 1 220 0
 134 009e 83C424   		addl	$36, %esp	#,
 135              		.cfi_remember_state
 136              		.cfi_def_cfa_offset 12
 137 00a1 5B       		popl	%ebx	#
 138              		.cfi_restore 3
 139              		.cfi_def_cfa_offset 8
 140 00a2 5E       		popl	%esi	#
 141              		.cfi_restore 6
 142              		.cfi_def_cfa_offset 4
 143 00a3 C3       		ret
 144              	.LVL11:
 145              		.p2align 4,,7
 146 00a4 8D742600 		.p2align 3
 147              	.L29:
 148              		.cfi_restore_state
 149              		.loc 1 98 0
 150 00a8 C7442408 		movl	$1, 8(%esp)	#,
 150      01000000 
 151 00b0 C7442404 		movl	$88, 4(%esp)	#,
 151      58000000 
 152 00b8 C7042400 		movl	$mb1, (%esp)	#,
 152      000000
GAS LISTING /tmp/ccEKufMP.s 			page 4


 153 00bf E8FCFFFF 		call	chMBPost	#
 153      FF
 154              	.LVL12:
 155              		.loc 1 99 0
 156 00c4 C7042404 		movl	$4, (%esp)	#,
 156      000000
 157 00cb 83F8FF   		cmpl	$-1, %eax	#, msg1
 158 00ce 0F94C0   		sete	%al	#, D.2269
 159              	.LVL13:
 160 00d1 0FB6C0   		movzbl	%al, %eax	# D.2269, D.2269
 161 00d4 89442404 		movl	%eax, 4(%esp)	# D.2269,
 162 00d8 E8FCFFFF 		call	_test_assert	#
 162      FF
 163              	.LVL14:
 164 00dd 84C0     		testb	%al, %al	# D.2269
 165 00df 75BD     		jne	.L1	#,
 166              		.loc 1 100 0
 167              	#APP
 168              	# 100 "../../../test/testmbox.c" 1
   1              	/*
   2              	    ChibiOS/RT - Copyright (C) 2006-2013 Giovanni Di Sirio
   3              	
   4              	    Licensed under the Apache License, Version 2.0 (the "License");
   5              	    you may not use this file except in compliance with the License.
   6              	    You may obtain a copy of the License at
   7              	
   8              	        http://www.apache.org/licenses/LICENSE-2.0
   9              	
  10              	    Unless required by applicable law or agreed to in writing, software
  11              	    distributed under the License is distributed on an "AS IS" BASIS,
  12              	    WITHOUT WARRANTIES OR CONDITIONS OF ANY KIND, either express or implied.
  13              	    See the License for the specific language governing permissions and
  14              	    limitations under the License.
  15              	*/
  16              	
  17              	#include "ch.h"
  18              	#include "test.h"
  19              	
  20              	/**
  21              	 * @page test_mbox Mailboxes test
  22              	 *
  23              	 * File: @ref testmbox.c
  24              	 *
  25              	 * <h2>Description</h2>
  26              	 * This module implements the test sequence for the @ref mailboxes subsystem.
  27              	 *
  28              	 * <h2>Objective</h2>
  29              	 * Objective of the test module is to cover 100% of the @ref mailboxes
  30              	 * subsystem code.<br>
  31              	 * Note that the @ref mailboxes subsystem depends on the @ref semaphores
  32              	 * subsystem that has to met its testing objectives as well.
  33              	 *
  34              	 * <h2>Preconditions</h2>
  35              	 * The module requires the following kernel options:
  36              	 * - @p CH_USE_MAILBOXES
  37              	 * .
  38              	 * In case some of the required options are not enabled then some or all tests
GAS LISTING /tmp/ccEKufMP.s 			page 5


  39              	 * may be skipped.
  40              	 *
  41              	 * <h2>Test Cases</h2>
  42              	 * - @subpage test_mbox_001
  43              	 * .
  44              	 * @file testmbox.c
  45              	 * @brief Mailboxes test source file
  46              	 * @file testmbox.h
  47              	 * @brief Mailboxes header file
  48              	 */
  49              	
  50              	#if CH_USE_MAILBOXES || defined(__DOXYGEN__)
  51              	
  52              	#define ALLOWED_DELAY MS2ST(5)
  53              	#define MB_SIZE 5
  54              	
  55              	/*
  56              	 * Note, the static initializers are not really required because the
  57              	 * variables are explicitly initialized in each test case. It is done in order
  58              	 * to test the macros.
  59              	 */
  60              	static MAILBOX_DECL(mb1, test.wa.T0, MB_SIZE);
  61              	
  62              	/**
  63              	 * @page test_mbox_001 Queuing and timeouts
  64              	 *
  65              	 * <h2>Description</h2>
  66              	 * Messages are posted/fetched from a mailbox in carefully designed sequences
  67              	 * in order to stimulate all the possible code paths inside the mailbox.<br>
  68              	 * The test expects to find a consistent mailbox status after each operation.
  69              	 */
  70              	
  71              	static void mbox1_setup(void) {
  72              	
  73              	  chMBInit(&mb1, (msg_t *)test.wa.T0, MB_SIZE);
  74              	}
  75              	
  76              	static void mbox1_execute(void) {
  77              	  msg_t msg1, msg2;
  78              	  unsigned i;
  79              	
  80              	  /*
  81              	   * Testing initial space.
  82              	   */
  83              	  test_assert(1, chMBGetFreeCountI(&mb1) == MB_SIZE, "wrong size");
  84              	
  85              	  /*
  86              	   * Testing enqueuing and backward circularity.
  87              	   */
  88              	  for (i = 0; i < MB_SIZE - 1; i++) {
  89              	    msg1 = chMBPost(&mb1, 'B' + i, TIME_INFINITE);
  90              	    test_assert(2, msg1 == RDY_OK, "wrong wake-up message");
  91              	  }
  92              	  msg1 = chMBPostAhead(&mb1, 'A', TIME_INFINITE);
  93              	  test_assert(3, msg1 == RDY_OK, "wrong wake-up message");
  94              	
  95              	  /*
GAS LISTING /tmp/ccEKufMP.s 			page 6


  96              	   * Testing post timeout.
  97              	   */
  98              	  msg1 = chMBPost(&mb1, 'X', 1);
  99              	  test_assert(4, msg1 == RDY_TIMEOUT, "wrong wake-up message");
 100 00e1 90       	  chSysLock();
 101              	  msg1 = chMBPostI(&mb1, 'X');
 169              		nop
 170              	# 0 "" 2
 171              		.loc 1 101 0
 172              	#NO_APP
 173 00e2 C7442404 		movl	$88, 4(%esp)	#,
 173      58000000 
 174 00ea C7042400 		movl	$mb1, (%esp)	#,
 174      000000
 175 00f1 E8FCFFFF 		call	chMBPostI	#
 175      FF
 176              	.LVL15:
 177              		.loc 1 102 0
 178              	#APP
 179              	# 102 "../../../test/testmbox.c" 1
 102 00f6 90       	  chSysUnlock();
 103              	  test_assert(5, msg1 == RDY_TIMEOUT, "wrong wake-up message");
 180              		nop
 181              	# 0 "" 2
 182              		.loc 1 103 0
 183              	#NO_APP
 184 00f7 83F8FF   		cmpl	$-1, %eax	#, msg1
 185 00fa 0F94C0   		sete	%al	#, D.2269
 186              	.LVL16:
 187 00fd 0FB6C0   		movzbl	%al, %eax	# D.2269, D.2269
 188 0100 89442404 		movl	%eax, 4(%esp)	# D.2269,
 189 0104 C7042405 		movl	$5, (%esp)	#,
 189      000000
 190 010b E8FCFFFF 		call	_test_assert	#
 190      FF
 191              	.LVL17:
 192 0110 84C0     		testb	%al, %al	# D.2269
 193 0112 758A     		jne	.L1	#,
 194              		.loc 1 104 0
 195 0114 C7442408 		movl	$1, 8(%esp)	#,
 195      01000000 
 196 011c C7442404 		movl	$88, 4(%esp)	#,
 196      58000000 
 197 0124 C7042400 		movl	$mb1, (%esp)	#,
 197      000000
 198 012b E8FCFFFF 		call	chMBPostAhead	#
 198      FF
 199              	.LVL18:
 200              		.loc 1 105 0
 201 0130 C7042406 		movl	$6, (%esp)	#,
 201      000000
 202 0137 83F8FF   		cmpl	$-1, %eax	#, msg1
 203 013a 0F94C0   		sete	%al	#, D.2269
 204              	.LVL19:
 205 013d 0FB6C0   		movzbl	%al, %eax	# D.2269, D.2269
 206 0140 89442404 		movl	%eax, 4(%esp)	# D.2269,
 207 0144 E8FCFFFF 		call	_test_assert	#
GAS LISTING /tmp/ccEKufMP.s 			page 7


 207      FF
 208              	.LVL20:
 209 0149 84C0     		testb	%al, %al	# D.2269
 210 014b 0F854DFF 		jne	.L1	#,
 210      FFFF
 211              		.loc 1 106 0
 212              	#APP
 213              	# 106 "../../../test/testmbox.c" 1
 104              	  msg1 = chMBPostAhead(&mb1, 'X', 1);
 105              	  test_assert(6, msg1 == RDY_TIMEOUT, "wrong wake-up message");
 106 0151 90       	  chSysLock();
 107              	  msg1 = chMBPostAheadI(&mb1, 'X');
 214              		nop
 215              	# 0 "" 2
 216              		.loc 1 107 0
 217              	#NO_APP
 218 0152 C7442404 		movl	$88, 4(%esp)	#,
 218      58000000 
 219 015a C7042400 		movl	$mb1, (%esp)	#,
 219      000000
 220 0161 E8FCFFFF 		call	chMBPostAheadI	#
 220      FF
 221              	.LVL21:
 222              		.loc 1 108 0
 223              	#APP
 224              	# 108 "../../../test/testmbox.c" 1
 108 0166 90       	  chSysUnlock();
 109              	  test_assert(7, msg1 == RDY_TIMEOUT, "wrong wake-up message");
 225              		nop
 226              	# 0 "" 2
 227              		.loc 1 109 0
 228              	#NO_APP
 229 0167 83F8FF   		cmpl	$-1, %eax	#, msg1
 230 016a 0F94C0   		sete	%al	#, D.2269
 231              	.LVL22:
 232 016d 0FB6C0   		movzbl	%al, %eax	# D.2269, D.2269
 233 0170 89442404 		movl	%eax, 4(%esp)	# D.2269,
 234 0174 C7042407 		movl	$7, (%esp)	#,
 234      000000
 235 017b E8FCFFFF 		call	_test_assert	#
 235      FF
 236              	.LVL23:
 237 0180 84C0     		testb	%al, %al	# D.2269
 238 0182 0F8516FF 		jne	.L1	#,
 238      FFFF
 239              		.loc 1 114 0
 240              	#APP
 241              	# 114 "../../../test/testmbox.c" 1
 110              	
 111              	  /*
 112              	   * Testing final conditions.
 113              	   */
 114 0188 90       	  test_assert_lock(8, chMBGetFreeCountI(&mb1) == 0, "still empty");
 115              	  test_assert_lock(9, chMBGetUsedCountI(&mb1) == MB_SIZE, "not full");
 242              		nop
 243              	# 0 "" 2
 244              	#NO_APP
GAS LISTING /tmp/ccEKufMP.s 			page 8


 245 0189 8B152400 		movl	mb1+36, %edx	# mb1.mb_emptysem.s_cnt,
 245      0000
 246 018f 31C0     		xorl	%eax, %eax	# D.2269
 247 0191 C7042408 		movl	$8, (%esp)	#,
 247      000000
 248 0198 85D2     		testl	%edx, %edx	#
 249 019a 0F94C0   		sete	%al	#, D.2269
 250 019d 89442404 		movl	%eax, 4(%esp)	# D.2269,
 251 01a1 E8FCFFFF 		call	_test_assert	#
 251      FF
 252              	.LVL24:
 253 01a6 84C0     		testb	%al, %al	# D.2269
 254 01a8 7406     		je	.L5	#,
 255              	.LVL25:
 256              	.L25:
 257              		.loc 1 219 0 discriminator 2
 258              	#APP
 259              	# 219 "../../../test/testmbox.c" 1
 116              	  test_assert_lock(10, mb1.mb_rdptr == mb1.mb_wrptr, "pointers not aligned");
 117              	
 118              	  /*
 119              	   * Testing dequeuing.
 120              	   */
 121              	  for (i = 0; i < MB_SIZE; i++) {
 122              	    msg1 = chMBFetch(&mb1, &msg2, TIME_INFINITE);
 123              	    test_assert(11, msg1 == RDY_OK, "wrong wake-up message");
 124              	    test_emit_token(msg2);
 125              	  }
 126              	  test_assert_sequence(12, "ABCDE");
 127              	
 128              	  /*
 129              	   * Testing buffer circularity.
 130              	   */
 131              	  msg1 = chMBPost(&mb1, 'B' + i, TIME_INFINITE);
 132              	  test_assert(13, msg1 == RDY_OK, "wrong wake-up message");
 133              	  msg1 = chMBFetch(&mb1, &msg2, TIME_INFINITE);
 134              	  test_assert(14, msg1 == RDY_OK, "wrong wake-up message");
 135              	  test_assert(15, mb1.mb_buffer == mb1.mb_wrptr, "write pointer not aligned to base");
 136              	  test_assert(16, mb1.mb_buffer == mb1.mb_rdptr, "read pointer not aligned to base");
 137              	
 138              	  /*
 139              	   * Testing fetch timeout.
 140              	   */
 141              	  msg1 = chMBFetch(&mb1, &msg2, 1);
 142              	  test_assert(17, msg1 == RDY_TIMEOUT, "wrong wake-up message");
 143              	  chSysLock();
 144              	  msg1 = chMBFetchI(&mb1, &msg2);
 145              	  chSysUnlock();
 146              	  test_assert(18, msg1 == RDY_TIMEOUT, "wrong wake-up message");
 147              	
 148              	  /*
 149              	   * Testing final conditions.
 150              	   */
 151              	  test_assert_lock(19, chMBGetFreeCountI(&mb1) == MB_SIZE, "not empty");
 152              	  test_assert_lock(20, chMBGetUsedCountI(&mb1) == 0, "still full");
 153              	  test_assert_lock(21, mb1.mb_rdptr == mb1.mb_wrptr, "pointers not aligned");
 154              	
GAS LISTING /tmp/ccEKufMP.s 			page 9


 155              	  /*
 156              	   * Testing I-Class.
 157              	   */
 158              	  chSysLock();
 159              	  msg1 = chMBPostI(&mb1, 'A');
 160              	  test_assert(22, msg1 == RDY_OK, "wrong wake-up message");
 161              	  msg1 = chMBPostI(&mb1, 'B');
 162              	  test_assert(23, msg1 == RDY_OK, "wrong wake-up message");
 163              	  msg1 = chMBPostI(&mb1, 'C');
 164              	  test_assert(24, msg1 == RDY_OK, "wrong wake-up message");
 165              	  msg1 = chMBPostI(&mb1, 'D');
 166              	  test_assert(25, msg1 == RDY_OK, "wrong wake-up message");
 167              	  msg1 = chMBPostI(&mb1, 'E');
 168              	  chSysUnlock();
 169              	  test_assert(26, msg1 == RDY_OK, "wrong wake-up message");
 170              	  test_assert(27, mb1.mb_rdptr == mb1.mb_wrptr, "pointers not aligned");
 171              	  for (i = 0; i < MB_SIZE; i++) {
 172              	    chSysLock();
 173              	    msg1 = chMBFetchI(&mb1, &msg2);
 174              	    chSysUnlock();
 175              	    test_assert(28, msg1 == RDY_OK, "wrong wake-up message");
 176              	    test_emit_token(msg2);
 177              	  }
 178              	  test_assert_sequence(29, "ABCDE");
 179              	  test_assert_lock(30, chMBGetFreeCountI(&mb1) == MB_SIZE, "not empty");
 180              	  test_assert_lock(31, chMBGetUsedCountI(&mb1) == 0, "still full");
 181              	  test_assert(32, mb1.mb_rdptr == mb1.mb_wrptr, "pointers not aligned");
 182              	
 183              	  chSysLock();
 184              	  msg1 = chMBPostAheadI(&mb1, 'E');
 185              	  test_assert(33, msg1 == RDY_OK, "wrong wake-up message");
 186              	  msg1 = chMBPostAheadI(&mb1, 'D');
 187              	  test_assert(34, msg1 == RDY_OK, "wrong wake-up message");
 188              	  msg1 = chMBPostAheadI(&mb1, 'C');
 189              	  test_assert(35, msg1 == RDY_OK, "wrong wake-up message");
 190              	  msg1 = chMBPostAheadI(&mb1, 'B');
 191              	  test_assert(36, msg1 == RDY_OK, "wrong wake-up message");
 192              	  msg1 = chMBPostAheadI(&mb1, 'A');
 193              	  chSysUnlock();
 194              	  test_assert(37, msg1 == RDY_OK, "wrong wake-up message");
 195              	  test_assert(38, mb1.mb_rdptr == mb1.mb_wrptr, "pointers not aligned");
 196              	  for (i = 0; i < MB_SIZE; i++) {
 197              	    chSysLock();
 198              	    msg1 = chMBFetchI(&mb1, &msg2);
 199              	    chSysUnlock();
 200              	    test_assert(39, msg1 == RDY_OK, "wrong wake-up message");
 201              	    test_emit_token(msg2);
 202              	  }
 203              	  test_assert_sequence(40, "ABCDE");
 204              	  test_assert_lock(41, chMBGetFreeCountI(&mb1) == MB_SIZE, "not empty");
 205              	  test_assert_lock(42, chMBGetUsedCountI(&mb1) == 0, "still full");
 206              	  test_assert(43, mb1.mb_rdptr == mb1.mb_wrptr, "pointers not aligned");
 207              	
 208              	  /*
 209              	   * Testing reset.
 210              	   */
 211              	  chMBReset(&mb1);
GAS LISTING /tmp/ccEKufMP.s 			page 10


 212              	
 213              	  /*
 214              	   * Re-testing final conditions.
 215              	   */
 216              	  test_assert_lock(44, chMBGetFreeCountI(&mb1) == MB_SIZE, "not empty");
 217              	  test_assert_lock(45, chMBGetUsedCountI(&mb1) == 0, "still full");
 218              	  test_assert_lock(46, mb1.mb_buffer == mb1.mb_wrptr, "write pointer not aligned to base");
 219 01aa 90       	  test_assert_lock(47, mb1.mb_buffer == mb1.mb_rdptr, "read pointer not aligned to base");
 220              	}
 260              		nop
 261              	# 0 "" 2
 262              	#NO_APP
 263 01ab E9EEFEFF 		jmp	.L1	#
 263      FF
 264              	.LVL26:
 265              	.L5:
 266              		.loc 1 114 0 discriminator 2
 267              	#APP
 268              	# 114 "../../../test/testmbox.c" 1
 269              		nop
 270              	# 0 "" 2
 271              		.loc 1 115 0 discriminator 2
 272              	# 115 "../../../test/testmbox.c" 1
 273              		nop
 274              	# 0 "" 2
 275              	#NO_APP
 276 01b2 31C0     		xorl	%eax, %eax	# D.2269
 277 01b4 833D1800 		cmpl	$5, mb1+24	#, mb1.mb_fullsem.s_cnt
 277      000005
 278 01bb C7042409 		movl	$9, (%esp)	#,
 278      000000
 279 01c2 0F94C0   		sete	%al	#, D.2269
 280 01c5 89442404 		movl	%eax, 4(%esp)	# D.2269,
 281 01c9 E8FCFFFF 		call	_test_assert	#
 281      FF
 282              	.LVL27:
 283 01ce 84C0     		testb	%al, %al	# D.2269
 284 01d0 75D8     		jne	.L25	#,
 285              	#APP
 286              	# 115 "../../../test/testmbox.c" 1
 287              		nop
 288              	# 0 "" 2
 289              		.loc 1 116 0 discriminator 2
 290              	# 116 "../../../test/testmbox.c" 1
 291              		nop
 292              	# 0 "" 2
 293              	#NO_APP
 294 01d4 A1080000 		movl	mb1+8, %eax	# mb1.mb_wrptr, tmp404
 294      00
 295 01d9 39050C00 		cmpl	%eax, mb1+12	# tmp404, mb1.mb_rdptr
 295      0000
 296 01df C704240A 		movl	$10, (%esp)	#,
 296      000000
 297 01e6 0F94C0   		sete	%al	#, D.2269
 298 01e9 0FB6C0   		movzbl	%al, %eax	# D.2269, D.2269
 299 01ec 89442404 		movl	%eax, 4(%esp)	# D.2269,
 300 01f0 E8FCFFFF 		call	_test_assert	#
GAS LISTING /tmp/ccEKufMP.s 			page 11


 300      FF
 301              	.LVL28:
 302 01f5 84C0     		testb	%al, %al	# D.2269
 303 01f7 75B1     		jne	.L25	#,
 304              	#APP
 305              	# 116 "../../../test/testmbox.c" 1
 306              		nop
 307              	# 0 "" 2
 308              	.LVL29:
 309              	#NO_APP
 310 01fa BE050000 		movl	$5, %esi	#, D.2267
 310      00
 311 01ff 8D5C241C 		leal	28(%esp), %ebx	#, tmp403
 312 0203 EB12     		jmp	.L10	#
 313              	.LVL30:
 314              	.L31:
 315              		.loc 1 124 0
 316 0205 0FBE4424 		movsbl	28(%esp), %eax	# msg2, msg2
 316      1C
 317 020a 890424   		movl	%eax, (%esp)	# msg2,
 318 020d E8FCFFFF 		call	test_emit_token	#
 318      FF
 319              	.LVL31:
 320              		.loc 1 121 0
 321 0212 83EE01   		subl	$1, %esi	#, D.2267
 322              	.LVL32:
 323 0215 7439     		je	.L30	#,
 324              	.LVL33:
 325              	.L10:
 326              		.loc 1 122 0
 327 0217 C7442408 		movl	$-1, 8(%esp)	#,
 327      FFFFFFFF 
 328 021f 895C2404 		movl	%ebx, 4(%esp)	# tmp403,
 329 0223 C7042400 		movl	$mb1, (%esp)	#,
 329      000000
 330 022a E8FCFFFF 		call	chMBFetch	#
 330      FF
 331              	.LVL34:
 332              		.loc 1 123 0
 333 022f C704240B 		movl	$11, (%esp)	#,
 333      000000
 334 0236 85C0     		testl	%eax, %eax	# msg1
 335 0238 0F94C0   		sete	%al	#, D.2269
 336              	.LVL35:
 337 023b 0FB6C0   		movzbl	%al, %eax	# D.2269, D.2269
 338 023e 89442404 		movl	%eax, 4(%esp)	# D.2269,
 339 0242 E8FCFFFF 		call	_test_assert	#
 339      FF
 340              	.LVL36:
 341 0247 84C0     		testb	%al, %al	# D.2269
 342 0249 74BA     		je	.L31	#,
 343 024b E94EFEFF 		jmp	.L1	#
 343      FF
 344              	.L30:
 345              		.loc 1 126 0
 346 0250 C7442404 		movl	$.LC0, 4(%esp)	#,
 346      00000000 
GAS LISTING /tmp/ccEKufMP.s 			page 12


 347 0258 C704240C 		movl	$12, (%esp)	#,
 347      000000
 348 025f E8FCFFFF 		call	_test_assert_sequence	#
 348      FF
 349              	.LVL37:
 350 0264 84C0     		testb	%al, %al	# D.2269
 351 0266 0F8532FE 		jne	.L1	#,
 351      FFFF
 352              		.loc 1 131 0
 353 026c C7442408 		movl	$-1, 8(%esp)	#,
 353      FFFFFFFF 
 354 0274 C7442404 		movl	$71, 4(%esp)	#,
 354      47000000 
 355 027c C7042400 		movl	$mb1, (%esp)	#,
 355      000000
 356 0283 E8FCFFFF 		call	chMBPost	#
 356      FF
 357              	.LVL38:
 358              		.loc 1 132 0
 359 0288 C704240D 		movl	$13, (%esp)	#,
 359      000000
 360 028f 85C0     		testl	%eax, %eax	# msg1
 361 0291 0F94C0   		sete	%al	#, D.2269
 362              	.LVL39:
 363 0294 0FB6C0   		movzbl	%al, %eax	# D.2269, D.2269
 364 0297 89442404 		movl	%eax, 4(%esp)	# D.2269,
 365 029b E8FCFFFF 		call	_test_assert	#
 365      FF
 366              	.LVL40:
 367 02a0 84C0     		testb	%al, %al	# D.2269
 368 02a2 0F85F6FD 		jne	.L1	#,
 368      FFFF
 369              		.loc 1 133 0
 370 02a8 C7442408 		movl	$-1, 8(%esp)	#,
 370      FFFFFFFF 
 371 02b0 895C2404 		movl	%ebx, 4(%esp)	# tmp403,
 372 02b4 C7042400 		movl	$mb1, (%esp)	#,
 372      000000
 373 02bb E8FCFFFF 		call	chMBFetch	#
 373      FF
 374              	.LVL41:
 375              		.loc 1 134 0
 376 02c0 C704240E 		movl	$14, (%esp)	#,
 376      000000
 377 02c7 85C0     		testl	%eax, %eax	# msg1
 378 02c9 0F94C0   		sete	%al	#, D.2269
 379              	.LVL42:
 380 02cc 0FB6C0   		movzbl	%al, %eax	# D.2269, D.2269
 381 02cf 89442404 		movl	%eax, 4(%esp)	# D.2269,
 382 02d3 E8FCFFFF 		call	_test_assert	#
 382      FF
 383              	.LVL43:
 384 02d8 84C0     		testb	%al, %al	# D.2269
 385 02da 0F85BEFD 		jne	.L1	#,
 385      FFFF
 386              		.loc 1 135 0
 387 02e0 A1080000 		movl	mb1+8, %eax	# mb1.mb_wrptr, tmp405
GAS LISTING /tmp/ccEKufMP.s 			page 13


 387      00
 388 02e5 39050000 		cmpl	%eax, mb1	# tmp405, mb1.mb_buffer
 388      0000
 389 02eb C704240F 		movl	$15, (%esp)	#,
 389      000000
 390 02f2 0F94C0   		sete	%al	#, D.2269
 391 02f5 0FB6C0   		movzbl	%al, %eax	# D.2269, D.2269
 392 02f8 89442404 		movl	%eax, 4(%esp)	# D.2269,
 393 02fc E8FCFFFF 		call	_test_assert	#
 393      FF
 394              	.LVL44:
 395 0301 84C0     		testb	%al, %al	# D.2269
 396 0303 0F8595FD 		jne	.L1	#,
 396      FFFF
 397              		.loc 1 136 0
 398 0309 A10C0000 		movl	mb1+12, %eax	# mb1.mb_rdptr, tmp406
 398      00
 399 030e 39050000 		cmpl	%eax, mb1	# tmp406, mb1.mb_buffer
 399      0000
 400 0314 C7042410 		movl	$16, (%esp)	#,
 400      000000
 401 031b 0F94C0   		sete	%al	#, D.2269
 402 031e 0FB6C0   		movzbl	%al, %eax	# D.2269, D.2269
 403 0321 89442404 		movl	%eax, 4(%esp)	# D.2269,
 404 0325 E8FCFFFF 		call	_test_assert	#
 404      FF
 405              	.LVL45:
 406 032a 84C0     		testb	%al, %al	# D.2269
 407 032c 0F856CFD 		jne	.L1	#,
 407      FFFF
 408              		.loc 1 141 0
 409 0332 C7442408 		movl	$1, 8(%esp)	#,
 409      01000000 
 410 033a 895C2404 		movl	%ebx, 4(%esp)	# tmp403,
 411 033e C7042400 		movl	$mb1, (%esp)	#,
 411      000000
 412 0345 E8FCFFFF 		call	chMBFetch	#
 412      FF
 413              	.LVL46:
 414              		.loc 1 142 0
 415 034a C7042411 		movl	$17, (%esp)	#,
 415      000000
 416 0351 83C001   		addl	$1, %eax	#, msg1
 417              	.LVL47:
 418 0354 0F94C0   		sete	%al	#, D.2269
 419 0357 0FB6C0   		movzbl	%al, %eax	# D.2269, D.2269
 420 035a 89442404 		movl	%eax, 4(%esp)	# D.2269,
 421 035e E8FCFFFF 		call	_test_assert	#
 421      FF
 422              	.LVL48:
 423 0363 84C0     		testb	%al, %al	# D.2269
 424 0365 0F8533FD 		jne	.L1	#,
 424      FFFF
 425              		.loc 1 143 0
 426              	#APP
 427              	# 143 "../../../test/testmbox.c" 1
 428              		nop
GAS LISTING /tmp/ccEKufMP.s 			page 14


 429              	# 0 "" 2
 430              		.loc 1 144 0
 431              	#NO_APP
 432 036c 895C2404 		movl	%ebx, 4(%esp)	# tmp403,
 433 0370 C7042400 		movl	$mb1, (%esp)	#,
 433      000000
 434 0377 E8FCFFFF 		call	chMBFetchI	#
 434      FF
 435              	.LVL49:
 436              		.loc 1 145 0
 437              	#APP
 438              	# 145 "../../../test/testmbox.c" 1
 439              		nop
 440              	# 0 "" 2
 441              		.loc 1 146 0
 442              	#NO_APP
 443 037d 83C001   		addl	$1, %eax	#, msg1
 444              	.LVL50:
 445 0380 0F94C0   		sete	%al	#, D.2269
 446 0383 0FB6C0   		movzbl	%al, %eax	# D.2269, D.2269
 447 0386 89442404 		movl	%eax, 4(%esp)	# D.2269,
 448 038a C7042412 		movl	$18, (%esp)	#,
 448      000000
 449 0391 E8FCFFFF 		call	_test_assert	#
 449      FF
 450              	.LVL51:
 451 0396 84C0     		testb	%al, %al	# D.2269
 452 0398 0F8500FD 		jne	.L1	#,
 452      FFFF
 453              		.loc 1 151 0
 454              	#APP
 455              	# 151 "../../../test/testmbox.c" 1
 456              		nop
 457              	# 0 "" 2
 458              	#NO_APP
 459 039f 31C0     		xorl	%eax, %eax	# D.2269
 460 03a1 833D2400 		cmpl	$5, mb1+36	#, mb1.mb_emptysem.s_cnt
 460      000005
 461 03a8 C7042413 		movl	$19, (%esp)	#,
 461      000000
 462 03af 0F94C0   		sete	%al	#, D.2269
 463 03b2 89442404 		movl	%eax, 4(%esp)	# D.2269,
 464 03b6 E8FCFFFF 		call	_test_assert	#
 464      FF
 465              	.LVL52:
 466 03bb 84C0     		testb	%al, %al	# D.2269
 467 03bd 0F85E7FD 		jne	.L25	#,
 467      FFFF
 468              		.loc 1 151 0 is_stmt 0 discriminator 2
 469              	#APP
 470              	# 151 "../../../test/testmbox.c" 1
 471              		nop
 472              	# 0 "" 2
 473              		.loc 1 152 0 is_stmt 1 discriminator 2
 474              	# 152 "../../../test/testmbox.c" 1
 475              		nop
 476              	# 0 "" 2
GAS LISTING /tmp/ccEKufMP.s 			page 15


 477              	#NO_APP
 478 03c5 31C0     		xorl	%eax, %eax	# D.2269
 479 03c7 833D1800 		cmpl	$0, mb1+24	#, mb1.mb_fullsem.s_cnt
 479      000000
 480 03ce C7042414 		movl	$20, (%esp)	#,
 480      000000
 481 03d5 0F94C0   		sete	%al	#, D.2269
 482 03d8 89442404 		movl	%eax, 4(%esp)	# D.2269,
 483 03dc E8FCFFFF 		call	_test_assert	#
 483      FF
 484              	.LVL53:
 485 03e1 84C0     		testb	%al, %al	# D.2269
 486 03e3 0F85C1FD 		jne	.L25	#,
 486      FFFF
 487              	#APP
 488              	# 152 "../../../test/testmbox.c" 1
 489              		nop
 490              	# 0 "" 2
 491              		.loc 1 153 0 discriminator 2
 492              	# 153 "../../../test/testmbox.c" 1
 493              		nop
 494              	# 0 "" 2
 495              	#NO_APP
 496 03eb A1080000 		movl	mb1+8, %eax	# mb1.mb_wrptr, tmp407
 496      00
 497 03f0 39050C00 		cmpl	%eax, mb1+12	# tmp407, mb1.mb_rdptr
 497      0000
 498 03f6 C7042415 		movl	$21, (%esp)	#,
 498      000000
 499 03fd 0F94C0   		sete	%al	#, D.2269
 500 0400 0FB6C0   		movzbl	%al, %eax	# D.2269, D.2269
 501 0403 89442404 		movl	%eax, 4(%esp)	# D.2269,
 502 0407 E8FCFFFF 		call	_test_assert	#
 502      FF
 503              	.LVL54:
 504 040c 84C0     		testb	%al, %al	# D.2269
 505 040e 0F8596FD 		jne	.L25	#,
 505      FFFF
 506              	#APP
 507              	# 153 "../../../test/testmbox.c" 1
 508              		nop
 509              	# 0 "" 2
 510              		.loc 1 158 0 discriminator 2
 511              	# 158 "../../../test/testmbox.c" 1
 512              		nop
 513              	# 0 "" 2
 514              		.loc 1 159 0 discriminator 2
 515              	#NO_APP
 516 0416 C7442404 		movl	$65, 4(%esp)	#,
 516      41000000 
 517 041e C7042400 		movl	$mb1, (%esp)	#,
 517      000000
 518 0425 E8FCFFFF 		call	chMBPostI	#
 518      FF
 519              	.LVL55:
 520              		.loc 1 160 0 discriminator 2
 521 042a C7042416 		movl	$22, (%esp)	#,
GAS LISTING /tmp/ccEKufMP.s 			page 16


 521      000000
 522 0431 85C0     		testl	%eax, %eax	# msg1
 523 0433 0F94C0   		sete	%al	#, D.2269
 524              	.LVL56:
 525 0436 0FB6C0   		movzbl	%al, %eax	# D.2269, D.2269
 526 0439 89442404 		movl	%eax, 4(%esp)	# D.2269,
 527 043d E8FCFFFF 		call	_test_assert	#
 527      FF
 528              	.LVL57:
 529 0442 84C0     		testb	%al, %al	# D.2269
 530 0444 0F8554FC 		jne	.L1	#,
 530      FFFF
 531              		.loc 1 161 0
 532 044a C7442404 		movl	$66, 4(%esp)	#,
 532      42000000 
 533 0452 C7042400 		movl	$mb1, (%esp)	#,
 533      000000
 534 0459 E8FCFFFF 		call	chMBPostI	#
 534      FF
 535              	.LVL58:
 536              		.loc 1 162 0
 537 045e C7042417 		movl	$23, (%esp)	#,
 537      000000
 538 0465 85C0     		testl	%eax, %eax	# msg1
 539 0467 0F94C0   		sete	%al	#, D.2269
 540              	.LVL59:
 541 046a 0FB6C0   		movzbl	%al, %eax	# D.2269, D.2269
 542 046d 89442404 		movl	%eax, 4(%esp)	# D.2269,
 543 0471 E8FCFFFF 		call	_test_assert	#
 543      FF
 544              	.LVL60:
 545 0476 84C0     		testb	%al, %al	# D.2269
 546 0478 0F8520FC 		jne	.L1	#,
 546      FFFF
 547              		.loc 1 163 0
 548 047e C7442404 		movl	$67, 4(%esp)	#,
 548      43000000 
 549 0486 C7042400 		movl	$mb1, (%esp)	#,
 549      000000
 550 048d E8FCFFFF 		call	chMBPostI	#
 550      FF
 551              	.LVL61:
 552              		.loc 1 164 0
 553 0492 C7042418 		movl	$24, (%esp)	#,
 553      000000
 554 0499 85C0     		testl	%eax, %eax	# msg1
 555 049b 0F94C0   		sete	%al	#, D.2269
 556              	.LVL62:
 557 049e 0FB6C0   		movzbl	%al, %eax	# D.2269, D.2269
 558 04a1 89442404 		movl	%eax, 4(%esp)	# D.2269,
 559 04a5 E8FCFFFF 		call	_test_assert	#
 559      FF
 560              	.LVL63:
 561 04aa 84C0     		testb	%al, %al	# D.2269
 562 04ac 0F85ECFB 		jne	.L1	#,
 562      FFFF
 563              		.loc 1 165 0
GAS LISTING /tmp/ccEKufMP.s 			page 17


 564 04b2 C7442404 		movl	$68, 4(%esp)	#,
 564      44000000 
 565 04ba C7042400 		movl	$mb1, (%esp)	#,
 565      000000
 566 04c1 E8FCFFFF 		call	chMBPostI	#
 566      FF
 567              	.LVL64:
 568              		.loc 1 166 0
 569 04c6 C7042419 		movl	$25, (%esp)	#,
 569      000000
 570 04cd 85C0     		testl	%eax, %eax	# msg1
 571 04cf 0F94C0   		sete	%al	#, D.2269
 572              	.LVL65:
 573 04d2 0FB6C0   		movzbl	%al, %eax	# D.2269, D.2269
 574 04d5 89442404 		movl	%eax, 4(%esp)	# D.2269,
 575 04d9 E8FCFFFF 		call	_test_assert	#
 575      FF
 576              	.LVL66:
 577 04de 84C0     		testb	%al, %al	# D.2269
 578 04e0 0F85B8FB 		jne	.L1	#,
 578      FFFF
 579              		.loc 1 167 0
 580 04e6 C7442404 		movl	$69, 4(%esp)	#,
 580      45000000 
 581 04ee C7042400 		movl	$mb1, (%esp)	#,
 581      000000
 582 04f5 E8FCFFFF 		call	chMBPostI	#
 582      FF
 583              	.LVL67:
 584              		.loc 1 168 0
 585              	#APP
 586              	# 168 "../../../test/testmbox.c" 1
 587              		nop
 588              	# 0 "" 2
 589              		.loc 1 169 0
 590              	#NO_APP
 591 04fb 85C0     		testl	%eax, %eax	# msg1
 592 04fd 0F94C0   		sete	%al	#, D.2269
 593              	.LVL68:
 594 0500 0FB6C0   		movzbl	%al, %eax	# D.2269, D.2269
 595 0503 89442404 		movl	%eax, 4(%esp)	# D.2269,
 596 0507 C704241A 		movl	$26, (%esp)	#,
 596      000000
 597 050e E8FCFFFF 		call	_test_assert	#
 597      FF
 598              	.LVL69:
 599 0513 84C0     		testb	%al, %al	# D.2269
 600 0515 0F8583FB 		jne	.L1	#,
 600      FFFF
 601              		.loc 1 170 0
 602 051b A1080000 		movl	mb1+8, %eax	# mb1.mb_wrptr, tmp408
 602      00
 603 0520 39050C00 		cmpl	%eax, mb1+12	# tmp408, mb1.mb_rdptr
 603      0000
 604 0526 C704241B 		movl	$27, (%esp)	#,
 604      000000
 605 052d 0F94C0   		sete	%al	#, D.2269
GAS LISTING /tmp/ccEKufMP.s 			page 18


 606 0530 0FB6C0   		movzbl	%al, %eax	# D.2269, D.2269
 607 0533 89442404 		movl	%eax, 4(%esp)	# D.2269,
 608 0537 E8FCFFFF 		call	_test_assert	#
 608      FF
 609              	.LVL70:
 610 053c 84C0     		testb	%al, %al	# D.2269
 611 053e 0F855AFB 		jne	.L1	#,
 611      FFFF
 612 0544 BE050000 		movl	$5, %esi	#, D.2267
 612      00
 613              	.LVL71:
 614              	.L15:
 615              		.loc 1 172 0
 616              	#APP
 617              	# 172 "../../../test/testmbox.c" 1
 618              		nop
 619              	# 0 "" 2
 620              		.loc 1 173 0
 621              	#NO_APP
 622 054a 895C2404 		movl	%ebx, 4(%esp)	# tmp403,
 623 054e C7042400 		movl	$mb1, (%esp)	#,
 623      000000
 624 0555 E8FCFFFF 		call	chMBFetchI	#
 624      FF
 625              	.LVL72:
 626              		.loc 1 174 0
 627              	#APP
 628              	# 174 "../../../test/testmbox.c" 1
 629              		nop
 630              	# 0 "" 2
 631              		.loc 1 175 0
 632              	#NO_APP
 633 055b 85C0     		testl	%eax, %eax	# msg1
 634 055d 0F94C0   		sete	%al	#, D.2269
 635              	.LVL73:
 636 0560 0FB6C0   		movzbl	%al, %eax	# D.2269, D.2269
 637 0563 89442404 		movl	%eax, 4(%esp)	# D.2269,
 638 0567 C704241C 		movl	$28, (%esp)	#,
 638      000000
 639 056e E8FCFFFF 		call	_test_assert	#
 639      FF
 640              	.LVL74:
 641 0573 84C0     		testb	%al, %al	# D.2269
 642 0575 0F8523FB 		jne	.L1	#,
 642      FFFF
 643              		.loc 1 176 0
 644 057b 0FBE4424 		movsbl	28(%esp), %eax	# msg2, msg2
 644      1C
 645 0580 890424   		movl	%eax, (%esp)	# msg2,
 646 0583 E8FCFFFF 		call	test_emit_token	#
 646      FF
 647              	.LVL75:
 648              		.loc 1 171 0
 649 0588 83EE01   		subl	$1, %esi	#, D.2267
 650              	.LVL76:
 651 058b 75BC     		jne	.L15	#,
 652              		.loc 1 178 0
GAS LISTING /tmp/ccEKufMP.s 			page 19


 653 058d C7442404 		movl	$.LC0, 4(%esp)	#,
 653      00000000 
 654 0595 C704241D 		movl	$29, (%esp)	#,
 654      000000
 655 059c E8FCFFFF 		call	_test_assert_sequence	#
 655      FF
 656              	.LVL77:
 657 05a1 84C0     		testb	%al, %al	# D.2269
 658 05a3 0F85F5FA 		jne	.L1	#,
 658      FFFF
 659              		.loc 1 179 0
 660              	#APP
 661              	# 179 "../../../test/testmbox.c" 1
 662              		nop
 663              	# 0 "" 2
 664              	#NO_APP
 665 05aa 31C0     		xorl	%eax, %eax	# D.2269
 666 05ac 833D2400 		cmpl	$5, mb1+36	#, mb1.mb_emptysem.s_cnt
 666      000005
 667 05b3 C704241E 		movl	$30, (%esp)	#,
 667      000000
 668 05ba 0F94C0   		sete	%al	#, D.2269
 669 05bd 89442404 		movl	%eax, 4(%esp)	# D.2269,
 670 05c1 E8FCFFFF 		call	_test_assert	#
 670      FF
 671              	.LVL78:
 672 05c6 84C0     		testb	%al, %al	# D.2269
 673 05c8 0F85DCFB 		jne	.L25	#,
 673      FFFF
 674              		.loc 1 179 0 is_stmt 0 discriminator 2
 675              	#APP
 676              	# 179 "../../../test/testmbox.c" 1
 677              		nop
 678              	# 0 "" 2
 679              		.loc 1 180 0 is_stmt 1 discriminator 2
 680              	# 180 "../../../test/testmbox.c" 1
 681              		nop
 682              	# 0 "" 2
 683              	#NO_APP
 684 05d0 31C0     		xorl	%eax, %eax	# D.2269
 685 05d2 833D1800 		cmpl	$0, mb1+24	#, mb1.mb_fullsem.s_cnt
 685      000000
 686 05d9 C704241F 		movl	$31, (%esp)	#,
 686      000000
 687 05e0 0F94C0   		sete	%al	#, D.2269
 688 05e3 89442404 		movl	%eax, 4(%esp)	# D.2269,
 689 05e7 E8FCFFFF 		call	_test_assert	#
 689      FF
 690              	.LVL79:
 691 05ec 84C0     		testb	%al, %al	# D.2269
 692 05ee 0F85B6FB 		jne	.L25	#,
 692      FFFF
 693              	#APP
 694              	# 180 "../../../test/testmbox.c" 1
 695              		nop
 696              	# 0 "" 2
 697              		.loc 1 181 0 discriminator 2
GAS LISTING /tmp/ccEKufMP.s 			page 20


 698              	#NO_APP
 699 05f5 A1080000 		movl	mb1+8, %eax	# mb1.mb_wrptr, tmp409
 699      00
 700 05fa 39050C00 		cmpl	%eax, mb1+12	# tmp409, mb1.mb_rdptr
 700      0000
 701 0600 C7042420 		movl	$32, (%esp)	#,
 701      000000
 702 0607 0F94C0   		sete	%al	#, D.2269
 703 060a 0FB6C0   		movzbl	%al, %eax	# D.2269, D.2269
 704 060d 89442404 		movl	%eax, 4(%esp)	# D.2269,
 705 0611 E8FCFFFF 		call	_test_assert	#
 705      FF
 706              	.LVL80:
 707 0616 84C0     		testb	%al, %al	# D.2269
 708 0618 0F8580FA 		jne	.L1	#,
 708      FFFF
 709              		.loc 1 183 0
 710              	#APP
 711              	# 183 "../../../test/testmbox.c" 1
 712              		nop
 713              	# 0 "" 2
 714              		.loc 1 184 0
 715              	#NO_APP
 716 061f C7442404 		movl	$69, 4(%esp)	#,
 716      45000000 
 717 0627 C7042400 		movl	$mb1, (%esp)	#,
 717      000000
 718 062e E8FCFFFF 		call	chMBPostAheadI	#
 718      FF
 719              	.LVL81:
 720              		.loc 1 185 0
 721 0633 C7042421 		movl	$33, (%esp)	#,
 721      000000
 722 063a 85C0     		testl	%eax, %eax	# msg1
 723 063c 0F94C0   		sete	%al	#, D.2269
 724              	.LVL82:
 725 063f 0FB6C0   		movzbl	%al, %eax	# D.2269, D.2269
 726 0642 89442404 		movl	%eax, 4(%esp)	# D.2269,
 727 0646 E8FCFFFF 		call	_test_assert	#
 727      FF
 728              	.LVL83:
 729 064b 84C0     		testb	%al, %al	# D.2269
 730 064d 0F854BFA 		jne	.L1	#,
 730      FFFF
 731              		.loc 1 186 0
 732 0653 C7442404 		movl	$68, 4(%esp)	#,
 732      44000000 
 733 065b C7042400 		movl	$mb1, (%esp)	#,
 733      000000
 734 0662 E8FCFFFF 		call	chMBPostAheadI	#
 734      FF
 735              	.LVL84:
 736              		.loc 1 187 0
 737 0667 C7042422 		movl	$34, (%esp)	#,
 737      000000
 738 066e 85C0     		testl	%eax, %eax	# msg1
 739 0670 0F94C0   		sete	%al	#, D.2269
GAS LISTING /tmp/ccEKufMP.s 			page 21


 740              	.LVL85:
 741 0673 0FB6C0   		movzbl	%al, %eax	# D.2269, D.2269
 742 0676 89442404 		movl	%eax, 4(%esp)	# D.2269,
 743 067a E8FCFFFF 		call	_test_assert	#
 743      FF
 744              	.LVL86:
 745 067f 84C0     		testb	%al, %al	# D.2269
 746 0681 0F8517FA 		jne	.L1	#,
 746      FFFF
 747              		.loc 1 188 0
 748 0687 C7442404 		movl	$67, 4(%esp)	#,
 748      43000000 
 749 068f C7042400 		movl	$mb1, (%esp)	#,
 749      000000
 750 0696 E8FCFFFF 		call	chMBPostAheadI	#
 750      FF
 751              	.LVL87:
 752              		.loc 1 189 0
 753 069b C7042423 		movl	$35, (%esp)	#,
 753      000000
 754 06a2 85C0     		testl	%eax, %eax	# msg1
 755 06a4 0F94C0   		sete	%al	#, D.2269
 756              	.LVL88:
 757 06a7 0FB6C0   		movzbl	%al, %eax	# D.2269, D.2269
 758 06aa 89442404 		movl	%eax, 4(%esp)	# D.2269,
 759 06ae E8FCFFFF 		call	_test_assert	#
 759      FF
 760              	.LVL89:
 761 06b3 84C0     		testb	%al, %al	# D.2269
 762 06b5 0F85E3F9 		jne	.L1	#,
 762      FFFF
 763              		.loc 1 190 0
 764 06bb C7442404 		movl	$66, 4(%esp)	#,
 764      42000000 
 765 06c3 C7042400 		movl	$mb1, (%esp)	#,
 765      000000
 766 06ca E8FCFFFF 		call	chMBPostAheadI	#
 766      FF
 767              	.LVL90:
 768              		.loc 1 191 0
 769 06cf C7042424 		movl	$36, (%esp)	#,
 769      000000
 770 06d6 85C0     		testl	%eax, %eax	# msg1
 771 06d8 0F94C0   		sete	%al	#, D.2269
 772              	.LVL91:
 773 06db 0FB6C0   		movzbl	%al, %eax	# D.2269, D.2269
 774 06de 89442404 		movl	%eax, 4(%esp)	# D.2269,
 775 06e2 E8FCFFFF 		call	_test_assert	#
 775      FF
 776              	.LVL92:
 777 06e7 84C0     		testb	%al, %al	# D.2269
 778 06e9 0F85AFF9 		jne	.L1	#,
 778      FFFF
 779              		.loc 1 192 0
 780 06ef C7442404 		movl	$65, 4(%esp)	#,
 780      41000000 
 781 06f7 C7042400 		movl	$mb1, (%esp)	#,
GAS LISTING /tmp/ccEKufMP.s 			page 22


 781      000000
 782 06fe E8FCFFFF 		call	chMBPostAheadI	#
 782      FF
 783              	.LVL93:
 784              		.loc 1 193 0
 785              	#APP
 786              	# 193 "../../../test/testmbox.c" 1
 787              		nop
 788              	# 0 "" 2
 789              		.loc 1 194 0
 790              	#NO_APP
 791 0704 85C0     		testl	%eax, %eax	# msg1
 792 0706 0F94C0   		sete	%al	#, D.2269
 793              	.LVL94:
 794 0709 0FB6C0   		movzbl	%al, %eax	# D.2269, D.2269
 795 070c 89442404 		movl	%eax, 4(%esp)	# D.2269,
 796 0710 C7042425 		movl	$37, (%esp)	#,
 796      000000
 797 0717 E8FCFFFF 		call	_test_assert	#
 797      FF
 798              	.LVL95:
 799 071c 84C0     		testb	%al, %al	# D.2269
 800 071e 0F857AF9 		jne	.L1	#,
 800      FFFF
 801              		.loc 1 195 0
 802 0724 A1080000 		movl	mb1+8, %eax	# mb1.mb_wrptr, tmp410
 802      00
 803 0729 39050C00 		cmpl	%eax, mb1+12	# tmp410, mb1.mb_rdptr
 803      0000
 804 072f C7042426 		movl	$38, (%esp)	#,
 804      000000
 805 0736 0F94C0   		sete	%al	#, D.2269
 806 0739 0FB6C0   		movzbl	%al, %eax	# D.2269, D.2269
 807 073c 89442404 		movl	%eax, 4(%esp)	# D.2269,
 808 0740 E8FCFFFF 		call	_test_assert	#
 808      FF
 809              	.LVL96:
 810 0745 84C0     		testb	%al, %al	# D.2269
 811 0747 0F8551F9 		jne	.L1	#,
 811      FFFF
 812 074d BE050000 		movl	$5, %esi	#, D.2267
 812      00
 813              	.LVL97:
 814              	.L19:
 815              		.loc 1 197 0
 816              	#APP
 817              	# 197 "../../../test/testmbox.c" 1
 818              		nop
 819              	# 0 "" 2
 820              		.loc 1 198 0
 821              	#NO_APP
 822 0753 895C2404 		movl	%ebx, 4(%esp)	# tmp403,
 823 0757 C7042400 		movl	$mb1, (%esp)	#,
 823      000000
 824 075e E8FCFFFF 		call	chMBFetchI	#
 824      FF
 825              	.LVL98:
GAS LISTING /tmp/ccEKufMP.s 			page 23


 826              		.loc 1 199 0
 827              	#APP
 828              	# 199 "../../../test/testmbox.c" 1
 829              		nop
 830              	# 0 "" 2
 831              		.loc 1 200 0
 832              	#NO_APP
 833 0764 85C0     		testl	%eax, %eax	# msg1
 834 0766 0F94C0   		sete	%al	#, D.2269
 835              	.LVL99:
 836 0769 0FB6C0   		movzbl	%al, %eax	# D.2269, D.2269
 837 076c 89442404 		movl	%eax, 4(%esp)	# D.2269,
 838 0770 C7042427 		movl	$39, (%esp)	#,
 838      000000
 839 0777 E8FCFFFF 		call	_test_assert	#
 839      FF
 840              	.LVL100:
 841 077c 84C0     		testb	%al, %al	# D.2269
 842 077e 0F851AF9 		jne	.L1	#,
 842      FFFF
 843              		.loc 1 201 0
 844 0784 0FBE4424 		movsbl	28(%esp), %eax	# msg2, msg2
 844      1C
 845 0789 890424   		movl	%eax, (%esp)	# msg2,
 846 078c E8FCFFFF 		call	test_emit_token	#
 846      FF
 847              	.LVL101:
 848              		.loc 1 196 0
 849 0791 83EE01   		subl	$1, %esi	#, D.2267
 850              	.LVL102:
 851 0794 75BC     		jne	.L19	#,
 852              		.loc 1 203 0
 853 0796 C7442404 		movl	$.LC0, 4(%esp)	#,
 853      00000000 
 854 079e C7042428 		movl	$40, (%esp)	#,
 854      000000
 855 07a5 E8FCFFFF 		call	_test_assert_sequence	#
 855      FF
 856              	.LVL103:
 857 07aa 84C0     		testb	%al, %al	# D.2269
 858 07ac 0F85ECF8 		jne	.L1	#,
 858      FFFF
 859              		.loc 1 204 0
 860              	#APP
 861              	# 204 "../../../test/testmbox.c" 1
 862              		nop
 863              	# 0 "" 2
 864              	#NO_APP
 865 07b3 31C0     		xorl	%eax, %eax	# D.2269
 866 07b5 833D2400 		cmpl	$5, mb1+36	#, mb1.mb_emptysem.s_cnt
 866      000005
 867 07bc C7042429 		movl	$41, (%esp)	#,
 867      000000
 868 07c3 0F94C0   		sete	%al	#, D.2269
 869 07c6 89442404 		movl	%eax, 4(%esp)	# D.2269,
 870 07ca E8FCFFFF 		call	_test_assert	#
 870      FF
GAS LISTING /tmp/ccEKufMP.s 			page 24


 871              	.LVL104:
 872 07cf 84C0     		testb	%al, %al	# D.2269
 873 07d1 0F85D3F9 		jne	.L25	#,
 873      FFFF
 874              		.loc 1 204 0 is_stmt 0 discriminator 2
 875              	#APP
 876              	# 204 "../../../test/testmbox.c" 1
 877              		nop
 878              	# 0 "" 2
 879              		.loc 1 205 0 is_stmt 1 discriminator 2
 880              	# 205 "../../../test/testmbox.c" 1
 881              		nop
 882              	# 0 "" 2
 883              	#NO_APP
 884 07d9 31C0     		xorl	%eax, %eax	# D.2269
 885 07db 833D1800 		cmpl	$0, mb1+24	#, mb1.mb_fullsem.s_cnt
 885      000000
 886 07e2 C704242A 		movl	$42, (%esp)	#,
 886      000000
 887 07e9 0F94C0   		sete	%al	#, D.2269
 888 07ec 89442404 		movl	%eax, 4(%esp)	# D.2269,
 889 07f0 E8FCFFFF 		call	_test_assert	#
 889      FF
 890              	.LVL105:
 891 07f5 84C0     		testb	%al, %al	# D.2269
 892 07f7 0F85ADF9 		jne	.L25	#,
 892      FFFF
 893              	#APP
 894              	# 205 "../../../test/testmbox.c" 1
 895              		nop
 896              	# 0 "" 2
 897              		.loc 1 206 0 discriminator 2
 898              	#NO_APP
 899 07fe A1080000 		movl	mb1+8, %eax	# mb1.mb_wrptr, tmp411
 899      00
 900 0803 39050C00 		cmpl	%eax, mb1+12	# tmp411, mb1.mb_rdptr
 900      0000
 901 0809 C704242B 		movl	$43, (%esp)	#,
 901      000000
 902 0810 0F94C0   		sete	%al	#, D.2269
 903 0813 0FB6C0   		movzbl	%al, %eax	# D.2269, D.2269
 904 0816 89442404 		movl	%eax, 4(%esp)	# D.2269,
 905 081a E8FCFFFF 		call	_test_assert	#
 905      FF
 906              	.LVL106:
 907 081f 84C0     		testb	%al, %al	# D.2269
 908 0821 0F8577F8 		jne	.L1	#,
 908      FFFF
 909              		.loc 1 211 0
 910 0827 C7042400 		movl	$mb1, (%esp)	#,
 910      000000
 911 082e E8FCFFFF 		call	chMBReset	#
 911      FF
 912              	.LVL107:
 913              		.loc 1 216 0
 914              	#APP
 915              	# 216 "../../../test/testmbox.c" 1
GAS LISTING /tmp/ccEKufMP.s 			page 25


 916              		nop
 917              	# 0 "" 2
 918              	#NO_APP
 919 0834 31C0     		xorl	%eax, %eax	# D.2269
 920 0836 833D2400 		cmpl	$5, mb1+36	#, mb1.mb_emptysem.s_cnt
 920      000005
 921 083d C704242C 		movl	$44, (%esp)	#,
 921      000000
 922 0844 0F94C0   		sete	%al	#, D.2269
 923 0847 89442404 		movl	%eax, 4(%esp)	# D.2269,
 924 084b E8FCFFFF 		call	_test_assert	#
 924      FF
 925              	.LVL108:
 926 0850 84C0     		testb	%al, %al	# D.2269
 927 0852 0F8552F9 		jne	.L25	#,
 927      FFFF
 928              		.loc 1 216 0 is_stmt 0 discriminator 2
 929              	#APP
 930              	# 216 "../../../test/testmbox.c" 1
 931              		nop
 932              	# 0 "" 2
 933              		.loc 1 217 0 is_stmt 1 discriminator 2
 934              	# 217 "../../../test/testmbox.c" 1
 935              		nop
 936              	# 0 "" 2
 937              	#NO_APP
 938 085a 31C0     		xorl	%eax, %eax	# D.2269
 939 085c 833D1800 		cmpl	$0, mb1+24	#, mb1.mb_fullsem.s_cnt
 939      000000
 940 0863 C704242D 		movl	$45, (%esp)	#,
 940      000000
 941 086a 0F94C0   		sete	%al	#, D.2269
 942 086d 89442404 		movl	%eax, 4(%esp)	# D.2269,
 943 0871 E8FCFFFF 		call	_test_assert	#
 943      FF
 944              	.LVL109:
 945 0876 84C0     		testb	%al, %al	# D.2269
 946 0878 0F852CF9 		jne	.L25	#,
 946      FFFF
 947              	#APP
 948              	# 217 "../../../test/testmbox.c" 1
 949              		nop
 950              	# 0 "" 2
 951              		.loc 1 218 0 discriminator 2
 952              	# 218 "../../../test/testmbox.c" 1
 953              		nop
 954              	# 0 "" 2
 955              	#NO_APP
 956 0880 A1080000 		movl	mb1+8, %eax	# mb1.mb_wrptr, tmp412
 956      00
 957 0885 39050000 		cmpl	%eax, mb1	# tmp412, mb1.mb_buffer
 957      0000
 958 088b C704242E 		movl	$46, (%esp)	#,
 958      000000
 959 0892 0F94C0   		sete	%al	#, D.2269
 960 0895 0FB6C0   		movzbl	%al, %eax	# D.2269, D.2269
 961 0898 89442404 		movl	%eax, 4(%esp)	# D.2269,
GAS LISTING /tmp/ccEKufMP.s 			page 26


 962 089c E8FCFFFF 		call	_test_assert	#
 962      FF
 963              	.LVL110:
 964 08a1 84C0     		testb	%al, %al	# D.2269
 965 08a3 0F8501F9 		jne	.L25	#,
 965      FFFF
 966              	#APP
 967              	# 218 "../../../test/testmbox.c" 1
 968              		nop
 969              	# 0 "" 2
 970              		.loc 1 219 0 discriminator 2
 971              	# 219 "../../../test/testmbox.c" 1
 972              		nop
 973              	# 0 "" 2
 974              	#NO_APP
 975 08ab A10C0000 		movl	mb1+12, %eax	# mb1.mb_rdptr, tmp413
 975      00
 976 08b0 39050000 		cmpl	%eax, mb1	# tmp413, mb1.mb_buffer
 976      0000
 977 08b6 C704242F 		movl	$47, (%esp)	#,
 977      000000
 978 08bd 0F94C0   		sete	%al	#, D.2269
 979 08c0 0FB6C0   		movzbl	%al, %eax	# D.2269, D.2269
 980 08c3 89442404 		movl	%eax, 4(%esp)	# D.2269,
 981 08c7 E8FCFFFF 		call	_test_assert	#
 981      FF
 982              	.LVL111:
 983 08cc E9D9F8FF 		jmp	.L25	#
 983      FF
 984              		.cfi_endproc
 985              	.LFE8:
 986              		.size	mbox1_execute, .-mbox1_execute
 987 08d1 EB0D9090 		.p2align 4,,15
 987      90909090 
 987      90909090 
 987      909090
 988              		.type	mbox1_setup, @function
 989              	mbox1_setup:
 990              	.LFB7:
 991              		.loc 1 71 0
 992              		.cfi_startproc
 993 08e0 83EC1C   		subl	$28, %esp	#,
 994              		.cfi_def_cfa_offset 32
 995              		.loc 1 73 0
 996 08e3 C7442408 		movl	$5, 8(%esp)	#,
 996      05000000 
 997 08eb C7442404 		movl	$test, 4(%esp)	#,
 997      00000000 
 998 08f3 C7042400 		movl	$mb1, (%esp)	#,
 998      000000
 999 08fa E8FCFFFF 		call	chMBInit	#
 999      FF
 1000              	.LVL112:
 1001              		.loc 1 74 0
 1002 08ff 83C41C   		addl	$28, %esp	#,
 1003              		.cfi_def_cfa_offset 4
 1004 0902 C3       		ret
GAS LISTING /tmp/ccEKufMP.s 			page 27


 1005              		.cfi_endproc
 1006              	.LFE7:
 1007              		.size	mbox1_setup, .-mbox1_setup
 1008              		.globl	patternmbox
 1009              		.section	.rodata
 1010              		.align 4
 1011              		.type	patternmbox, @object
 1012              		.size	patternmbox, 8
 1013              	patternmbox:
 1014 0000 00000000 		.long	testmbox1
 1015 0004 00000000 		.long	0
 1016              		.globl	testmbox1
 1017              		.section	.rodata.str1.4,"aMS",@progbits,1
 1018              		.align 4
 1019              	.LC1:
 1020 0000 4D61696C 		.string	"Mailboxes, queuing and timeouts"
 1020      626F7865 
 1020      732C2071 
 1020      75657569 
 1020      6E672061 
 1021              		.section	.rodata
 1022              		.align 4
 1023              		.type	testmbox1, @object
 1024              		.size	testmbox1, 16
 1025              	testmbox1:
 1026              	# name:
 1027 0008 00000000 		.long	.LC1
 1028              	# setup:
 1029 000c E0080000 		.long	mbox1_setup
 1030              	# teardown:
 1031 0010 00000000 		.long	0
 1032              	# execute:
 1033 0014 00000000 		.long	mbox1_execute
 1034              		.data
 1035              		.align 32
 1036              		.type	mb1, @object
 1037              		.size	mb1, 40
 1038              	mb1:
 1039              	# mb_buffer:
 1040 0000 00000000 		.long	test
 1041              	# mb_top:
 1042 0004 14000000 		.long	test+20
 1043              	# mb_wrptr:
 1044 0008 00000000 		.long	test
 1045              	# mb_rdptr:
 1046 000c 00000000 		.long	test
 1047              	# mb_fullsem:
 1048              	# s_queue:
 1049              	# p_next:
 1050 0010 10000000 		.long	mb1+16
 1051              	# p_prev:
 1052 0014 10000000 		.long	mb1+16
 1053              	# s_cnt:
 1054 0018 00000000 		.long	0
 1055              	# mb_emptysem:
 1056              	# s_queue:
 1057              	# p_next:
GAS LISTING /tmp/ccEKufMP.s 			page 28


 1058 001c 1C000000 		.long	mb1+28
 1059              	# p_prev:
 1060 0020 1C000000 		.long	mb1+28
 1061              	# s_cnt:
 1062 0024 05000000 		.long	5
 1063              		.text
 1064              	.Letext0:
 1065              		.file 2 "/usr/include/stdint.h"
 1066              		.file 3 "../../../os/ports/GCC/SIMIA32/chtypes.h"
 1067              		.file 4 "../../../os/kernel/include/chlists.h"
 1068              		.file 5 "../../../os/kernel/include/chthreads.h"
 1069              		.file 6 "../../../os/ports/GCC/SIMIA32/chcore.h"
 1070              		.file 7 "../../../os/kernel/include/chsem.h"
 1071              		.file 8 "../../../os/kernel/include/chmtx.h"
 1072              		.file 9 "../../../os/kernel/include/chmboxes.h"
 1073              		.file 10 "../../../test/test.h"
 1074              		.section	.debug_info,"",@progbits
 1075              	.Ldebug_info0:
 1076 0000 F50D0000 		.long	0xdf5
 1077 0004 0400     		.value	0x4
 1078 0006 00000000 		.long	.Ldebug_abbrev0
 1079 000a 04       		.byte	0x4
 1080 000b 01       		.uleb128 0x1
 1081 000c 98020000 		.long	.LASF91
 1082 0010 01       		.byte	0x1
 1083 0011 90000000 		.long	.LASF92
 1084 0015 C0000000 		.long	.LASF93
 1085 0019 00000000 		.long	.Ltext0
 1086 001d 03090000 		.long	.Letext0-.Ltext0
 1087 0021 00000000 		.long	.Ldebug_line0
 1088 0025 02       		.uleb128 0x2
 1089 0026 04       		.byte	0x4
 1090 0027 05       		.byte	0x5
 1091 0028 696E7400 		.string	"int"
 1092 002c 03       		.uleb128 0x3
 1093 002d 04       		.byte	0x4
 1094 002e 07       		.byte	0x7
 1095 002f 33010000 		.long	.LASF0
 1096 0033 03       		.uleb128 0x3
 1097 0034 04       		.byte	0x4
 1098 0035 05       		.byte	0x5
 1099 0036 0B010000 		.long	.LASF1
 1100 003a 03       		.uleb128 0x3
 1101 003b 01       		.byte	0x1
 1102 003c 06       		.byte	0x6
 1103 003d 84000000 		.long	.LASF2
 1104 0041 03       		.uleb128 0x3
 1105 0042 02       		.byte	0x2
 1106 0043 05       		.byte	0x5
 1107 0044 FF020000 		.long	.LASF3
 1108 0048 04       		.uleb128 0x4
 1109 0049 7B020000 		.long	.LASF5
 1110 004d 02       		.byte	0x2
 1111 004e 26       		.byte	0x26
 1112 004f 25000000 		.long	0x25
 1113 0053 03       		.uleb128 0x3
 1114 0054 08       		.byte	0x8
GAS LISTING /tmp/ccEKufMP.s 			page 29


 1115 0055 05       		.byte	0x5
 1116 0056 76000000 		.long	.LASF4
 1117 005a 04       		.uleb128 0x4
 1118 005b C5030000 		.long	.LASF6
 1119 005f 02       		.byte	0x2
 1120 0060 30       		.byte	0x30
 1121 0061 65000000 		.long	0x65
 1122 0065 03       		.uleb128 0x3
 1123 0066 01       		.byte	0x1
 1124 0067 08       		.byte	0x8
 1125 0068 83020000 		.long	.LASF7
 1126 006c 03       		.uleb128 0x3
 1127 006d 02       		.byte	0x2
 1128 006e 07       		.byte	0x7
 1129 006f 86010000 		.long	.LASF8
 1130 0073 04       		.uleb128 0x4
 1131 0074 4C030000 		.long	.LASF9
 1132 0078 02       		.byte	0x2
 1133 0079 33       		.byte	0x33
 1134 007a 2C000000 		.long	0x2c
 1135 007e 03       		.uleb128 0x3
 1136 007f 08       		.byte	0x8
 1137 0080 07       		.byte	0x7
 1138 0081 35000000 		.long	.LASF10
 1139 0085 04       		.uleb128 0x4
 1140 0086 B1000000 		.long	.LASF11
 1141 008a 03       		.byte	0x3
 1142 008b 23       		.byte	0x23
 1143 008c 90000000 		.long	0x90
 1144 0090 03       		.uleb128 0x3
 1145 0091 01       		.byte	0x1
 1146 0092 02       		.byte	0x2
 1147 0093 75020000 		.long	.LASF12
 1148 0097 04       		.uleb128 0x4
 1149 0098 AA010000 		.long	.LASF13
 1150 009c 03       		.byte	0x3
 1151 009d 24       		.byte	0x24
 1152 009e 5A000000 		.long	0x5a
 1153 00a2 04       		.uleb128 0x4
 1154 00a3 14010000 		.long	.LASF14
 1155 00a7 03       		.byte	0x3
 1156 00a8 25       		.byte	0x25
 1157 00a9 5A000000 		.long	0x5a
 1158 00ad 04       		.uleb128 0x4
 1159 00ae 56020000 		.long	.LASF15
 1160 00b2 03       		.byte	0x3
 1161 00b3 26       		.byte	0x26
 1162 00b4 5A000000 		.long	0x5a
 1163 00b8 04       		.uleb128 0x4
 1164 00b9 F8000000 		.long	.LASF16
 1165 00bd 03       		.byte	0x3
 1166 00be 27       		.byte	0x27
 1167 00bf 5A000000 		.long	0x5a
 1168 00c3 04       		.uleb128 0x4
 1169 00c4 6D020000 		.long	.LASF17
 1170 00c8 03       		.byte	0x3
 1171 00c9 28       		.byte	0x28
GAS LISTING /tmp/ccEKufMP.s 			page 30


 1172 00ca 73000000 		.long	0x73
 1173 00ce 04       		.uleb128 0x4
 1174 00cf A4010000 		.long	.LASF18
 1175 00d3 03       		.byte	0x3
 1176 00d4 29       		.byte	0x29
 1177 00d5 48000000 		.long	0x48
 1178 00d9 04       		.uleb128 0x4
 1179 00da CA010000 		.long	.LASF19
 1180 00de 03       		.byte	0x3
 1181 00df 2B       		.byte	0x2b
 1182 00e0 73000000 		.long	0x73
 1183 00e4 04       		.uleb128 0x4
 1184 00e5 5A030000 		.long	.LASF20
 1185 00e9 03       		.byte	0x3
 1186 00ea 2D       		.byte	0x2d
 1187 00eb 73000000 		.long	0x73
 1188 00ef 04       		.uleb128 0x4
 1189 00f0 2D010000 		.long	.LASF21
 1190 00f4 03       		.byte	0x3
 1191 00f5 2E       		.byte	0x2e
 1192 00f6 48000000 		.long	0x48
 1193 00fa 04       		.uleb128 0x4
 1194 00fb 31030000 		.long	.LASF22
 1195 00ff 04       		.byte	0x4
 1196 0100 2A       		.byte	0x2a
 1197 0101 05010000 		.long	0x105
 1198 0105 05       		.uleb128 0x5
 1199 0106 31030000 		.long	.LASF22
 1200 010a 48       		.byte	0x48
 1201 010b 05       		.byte	0x5
 1202 010c 5E       		.byte	0x5e
 1203 010d 02020000 		.long	0x202
 1204 0111 06       		.uleb128 0x6
 1205 0112 22030000 		.long	.LASF23
 1206 0116 05       		.byte	0x5
 1207 0117 5F       		.byte	0x5f
 1208 0118 23020000 		.long	0x223
 1209 011c 00       		.byte	0
 1210 011d 06       		.uleb128 0x6
 1211 011e 5E020000 		.long	.LASF24
 1212 0122 05       		.byte	0x5
 1213 0123 61       		.byte	0x61
 1214 0124 23020000 		.long	0x223
 1215 0128 04       		.byte	0x4
 1216 0129 06       		.uleb128 0x6
 1217 012a 6F000000 		.long	.LASF25
 1218 012e 05       		.byte	0x5
 1219 012f 63       		.byte	0x63
 1220 0130 C3000000 		.long	0xc3
 1221 0134 08       		.byte	0x8
 1222 0135 06       		.uleb128 0x6
 1223 0136 F7030000 		.long	.LASF26
 1224 013a 05       		.byte	0x5
 1225 013b 64       		.byte	0x64
 1226 013c DF020000 		.long	0x2df
 1227 0140 0C       		.byte	0xc
 1228 0141 06       		.uleb128 0x6
GAS LISTING /tmp/ccEKufMP.s 			page 31


 1229 0142 1D010000 		.long	.LASF27
 1230 0146 05       		.byte	0x5
 1231 0147 66       		.byte	0x66
 1232 0148 23020000 		.long	0x223
 1233 014c 10       		.byte	0x10
 1234 014d 06       		.uleb128 0x6
 1235 014e 0D020000 		.long	.LASF28
 1236 0152 05       		.byte	0x5
 1237 0153 67       		.byte	0x67
 1238 0154 23020000 		.long	0x223
 1239 0158 14       		.byte	0x14
 1240 0159 06       		.uleb128 0x6
 1241 015a D4030000 		.long	.LASF29
 1242 015e 05       		.byte	0x5
 1243 015f 6E       		.byte	0x6e
 1244 0160 11040000 		.long	0x411
 1245 0164 18       		.byte	0x18
 1246 0165 06       		.uleb128 0x6
 1247 0166 09030000 		.long	.LASF30
 1248 016a 05       		.byte	0x5
 1249 016b 79       		.byte	0x79
 1250 016c A2000000 		.long	0xa2
 1251 0170 1C       		.byte	0x1c
 1252 0171 06       		.uleb128 0x6
 1253 0172 29030000 		.long	.LASF31
 1254 0176 05       		.byte	0x5
 1255 0177 7D       		.byte	0x7d
 1256 0178 97000000 		.long	0x97
 1257 017c 1D       		.byte	0x1d
 1258 017d 06       		.uleb128 0x6
 1259 017e BE030000 		.long	.LASF32
 1260 0182 05       		.byte	0x5
 1261 0183 82       		.byte	0x82
 1262 0184 AD000000 		.long	0xad
 1263 0188 1E       		.byte	0x1e
 1264 0189 06       		.uleb128 0x6
 1265 018a 11030000 		.long	.LASF33
 1266 018e 05       		.byte	0x5
 1267 018f 88       		.byte	0x88
 1268 0190 B8000000 		.long	0xb8
 1269 0194 1F       		.byte	0x1f
 1270 0195 06       		.uleb128 0x6
 1271 0196 76030000 		.long	.LASF34
 1272 019a 05       		.byte	0x5
 1273 019b 8F       		.byte	0x8f
 1274 019c 03030000 		.long	0x303
 1275 01a0 20       		.byte	0x20
 1276 01a1 07       		.uleb128 0x7
 1277 01a2 705F7500 		.string	"p_u"
 1278 01a6 05       		.byte	0x5
 1279 01a7 B4       		.byte	0xb4
 1280 01a8 DC030000 		.long	0x3dc
 1281 01ac 24       		.byte	0x24
 1282 01ad 06       		.uleb128 0x6
 1283 01ae FD030000 		.long	.LASF35
 1284 01b2 05       		.byte	0x5
 1285 01b3 B9       		.byte	0xb9
GAS LISTING /tmp/ccEKufMP.s 			page 32


 1286 01b4 49020000 		.long	0x249
 1287 01b8 28       		.byte	0x28
 1288 01b9 06       		.uleb128 0x6
 1289 01ba 53010000 		.long	.LASF36
 1290 01be 05       		.byte	0x5
 1291 01bf BF       		.byte	0xbf
 1292 01c0 29020000 		.long	0x229
 1293 01c4 2C       		.byte	0x2c
 1294 01c5 06       		.uleb128 0x6
 1295 01c6 00000000 		.long	.LASF37
 1296 01ca 05       		.byte	0x5
 1297 01cb C3       		.byte	0xc3
 1298 01cc CE000000 		.long	0xce
 1299 01d0 34       		.byte	0x34
 1300 01d1 06       		.uleb128 0x6
 1301 01d2 41030000 		.long	.LASF38
 1302 01d6 05       		.byte	0x5
 1303 01d7 C9       		.byte	0xc9
 1304 01d8 D9000000 		.long	0xd9
 1305 01dc 38       		.byte	0x38
 1306 01dd 06       		.uleb128 0x6
 1307 01de F5020000 		.long	.LASF39
 1308 01e2 05       		.byte	0x5
 1309 01e3 D0       		.byte	0xd0
 1310 01e4 23040000 		.long	0x423
 1311 01e8 3C       		.byte	0x3c
 1312 01e9 06       		.uleb128 0x6
 1313 01ea 64030000 		.long	.LASF40
 1314 01ee 05       		.byte	0x5
 1315 01ef D4       		.byte	0xd4
 1316 01f0 C3000000 		.long	0xc3
 1317 01f4 40       		.byte	0x40
 1318 01f5 06       		.uleb128 0x6
 1319 01f6 A9000000 		.long	.LASF41
 1320 01fa 05       		.byte	0x5
 1321 01fb DA       		.byte	0xda
 1322 01fc 94020000 		.long	0x294
 1323 0200 44       		.byte	0x44
 1324 0201 00       		.byte	0
 1325 0202 08       		.uleb128 0x8
 1326 0203 08       		.byte	0x8
 1327 0204 04       		.byte	0x4
 1328 0205 61       		.byte	0x61
 1329 0206 23020000 		.long	0x223
 1330 020a 06       		.uleb128 0x6
 1331 020b 22030000 		.long	.LASF23
 1332 020f 04       		.byte	0x4
 1333 0210 62       		.byte	0x62
 1334 0211 23020000 		.long	0x223
 1335 0215 00       		.byte	0
 1336 0216 06       		.uleb128 0x6
 1337 0217 5E020000 		.long	.LASF24
 1338 021b 04       		.byte	0x4
 1339 021c 64       		.byte	0x64
 1340 021d 23020000 		.long	0x223
 1341 0221 04       		.byte	0x4
 1342 0222 00       		.byte	0
GAS LISTING /tmp/ccEKufMP.s 			page 33


 1343 0223 09       		.uleb128 0x9
 1344 0224 04       		.byte	0x4
 1345 0225 FA000000 		.long	0xfa
 1346 0229 04       		.uleb128 0x4
 1347 022a 15020000 		.long	.LASF42
 1348 022e 04       		.byte	0x4
 1349 022f 66       		.byte	0x66
 1350 0230 02020000 		.long	0x202
 1351 0234 08       		.uleb128 0x8
 1352 0235 04       		.byte	0x4
 1353 0236 04       		.byte	0x4
 1354 0237 6B       		.byte	0x6b
 1355 0238 49020000 		.long	0x249
 1356 023c 06       		.uleb128 0x6
 1357 023d 22030000 		.long	.LASF23
 1358 0241 04       		.byte	0x4
 1359 0242 6D       		.byte	0x6d
 1360 0243 23020000 		.long	0x223
 1361 0247 00       		.byte	0
 1362 0248 00       		.byte	0
 1363 0249 04       		.uleb128 0x4
 1364 024a BE010000 		.long	.LASF43
 1365 024e 04       		.byte	0x4
 1366 024f 70       		.byte	0x70
 1367 0250 34020000 		.long	0x234
 1368 0254 08       		.uleb128 0x8
 1369 0255 10       		.byte	0x10
 1370 0256 06       		.byte	0x6
 1371 0257 44       		.byte	0x44
 1372 0258 67020000 		.long	0x267
 1373 025c 07       		.uleb128 0x7
 1374 025d 6100     		.string	"a"
 1375 025f 06       		.byte	0x6
 1376 0260 45       		.byte	0x45
 1377 0261 67020000 		.long	0x267
 1378 0265 00       		.byte	0
 1379 0266 00       		.byte	0
 1380 0267 0A       		.uleb128 0xa
 1381 0268 5A000000 		.long	0x5a
 1382 026c 77020000 		.long	0x277
 1383 0270 0B       		.uleb128 0xb
 1384 0271 77020000 		.long	0x277
 1385 0275 0F       		.byte	0xf
 1386 0276 00       		.byte	0
 1387 0277 03       		.uleb128 0x3
 1388 0278 04       		.byte	0x4
 1389 0279 07       		.byte	0x7
 1390 027a F1010000 		.long	.LASF44
 1391 027e 04       		.uleb128 0x4
 1392 027f E6010000 		.long	.LASF45
 1393 0283 06       		.byte	0x6
 1394 0284 46       		.byte	0x46
 1395 0285 54020000 		.long	0x254
 1396 0289 04       		.uleb128 0x4
 1397 028a E8030000 		.long	.LASF46
 1398 028e 06       		.byte	0x6
 1399 028f 4B       		.byte	0x4b
GAS LISTING /tmp/ccEKufMP.s 			page 34


 1400 0290 94020000 		.long	0x294
 1401 0294 0C       		.uleb128 0xc
 1402 0295 04       		.byte	0x4
 1403 0296 05       		.uleb128 0x5
 1404 0297 8B030000 		.long	.LASF47
 1405 029b 14       		.byte	0x14
 1406 029c 06       		.byte	0x6
 1407 029d 59       		.byte	0x59
 1408 029e DF020000 		.long	0x2df
 1409 02a2 07       		.uleb128 0x7
 1410 02a3 65627800 		.string	"ebx"
 1411 02a7 06       		.byte	0x6
 1412 02a8 5A       		.byte	0x5a
 1413 02a9 89020000 		.long	0x289
 1414 02ad 00       		.byte	0
 1415 02ae 07       		.uleb128 0x7
 1416 02af 65646900 		.string	"edi"
 1417 02b3 06       		.byte	0x6
 1418 02b4 5B       		.byte	0x5b
 1419 02b5 89020000 		.long	0x289
 1420 02b9 04       		.byte	0x4
 1421 02ba 07       		.uleb128 0x7
 1422 02bb 65736900 		.string	"esi"
 1423 02bf 06       		.byte	0x6
 1424 02c0 5C       		.byte	0x5c
 1425 02c1 89020000 		.long	0x289
 1426 02c5 08       		.byte	0x8
 1427 02c6 07       		.uleb128 0x7
 1428 02c7 65627000 		.string	"ebp"
 1429 02cb 06       		.byte	0x6
 1430 02cc 5D       		.byte	0x5d
 1431 02cd 89020000 		.long	0x289
 1432 02d1 0C       		.byte	0xc
 1433 02d2 07       		.uleb128 0x7
 1434 02d3 65697000 		.string	"eip"
 1435 02d7 06       		.byte	0x6
 1436 02d8 5E       		.byte	0x5e
 1437 02d9 89020000 		.long	0x289
 1438 02dd 10       		.byte	0x10
 1439 02de 00       		.byte	0
 1440 02df 05       		.uleb128 0x5
 1441 02e0 7E010000 		.long	.LASF48
 1442 02e4 04       		.byte	0x4
 1443 02e5 06       		.byte	0x6
 1444 02e6 66       		.byte	0x66
 1445 02e7 F8020000 		.long	0x2f8
 1446 02eb 07       		.uleb128 0x7
 1447 02ec 65737000 		.string	"esp"
 1448 02f0 06       		.byte	0x6
 1449 02f1 67       		.byte	0x67
 1450 02f2 F8020000 		.long	0x2f8
 1451 02f6 00       		.byte	0
 1452 02f7 00       		.byte	0
 1453 02f8 09       		.uleb128 0x9
 1454 02f9 04       		.byte	0x4
 1455 02fa FE020000 		.long	0x2fe
 1456 02fe 0D       		.uleb128 0xd
GAS LISTING /tmp/ccEKufMP.s 			page 35


 1457 02ff 96020000 		.long	0x296
 1458 0303 0D       		.uleb128 0xd
 1459 0304 E4000000 		.long	0xe4
 1460 0308 05       		.uleb128 0x5
 1461 0309 9C030000 		.long	.LASF49
 1462 030d 0C       		.byte	0xc
 1463 030e 07       		.byte	0x7
 1464 030f 2C       		.byte	0x2c
 1465 0310 2D030000 		.long	0x32d
 1466 0314 06       		.uleb128 0x6
 1467 0315 25010000 		.long	.LASF50
 1468 0319 07       		.byte	0x7
 1469 031a 2D       		.byte	0x2d
 1470 031b 29020000 		.long	0x229
 1471 031f 00       		.byte	0
 1472 0320 06       		.uleb128 0x6
 1473 0321 78010000 		.long	.LASF51
 1474 0325 07       		.byte	0x7
 1475 0326 2F       		.byte	0x2f
 1476 0327 EF000000 		.long	0xef
 1477 032b 08       		.byte	0x8
 1478 032c 00       		.byte	0
 1479 032d 04       		.uleb128 0x4
 1480 032e 9C030000 		.long	.LASF49
 1481 0332 07       		.byte	0x7
 1482 0333 30       		.byte	0x30
 1483 0334 08030000 		.long	0x308
 1484 0338 05       		.uleb128 0x5
 1485 0339 D6010000 		.long	.LASF52
 1486 033d 10       		.byte	0x10
 1487 033e 08       		.byte	0x8
 1488 033f 2C       		.byte	0x2c
 1489 0340 69030000 		.long	0x369
 1490 0344 06       		.uleb128 0x6
 1491 0345 B8000000 		.long	.LASF53
 1492 0349 08       		.byte	0x8
 1493 034a 2D       		.byte	0x2d
 1494 034b 29020000 		.long	0x229
 1495 034f 00       		.byte	0
 1496 0350 06       		.uleb128 0x6
 1497 0351 EF030000 		.long	.LASF54
 1498 0355 08       		.byte	0x8
 1499 0356 2F       		.byte	0x2f
 1500 0357 23020000 		.long	0x223
 1501 035b 08       		.byte	0x8
 1502 035c 06       		.uleb128 0x6
 1503 035d 06000000 		.long	.LASF55
 1504 0361 08       		.byte	0x8
 1505 0362 31       		.byte	0x31
 1506 0363 69030000 		.long	0x369
 1507 0367 0C       		.byte	0xc
 1508 0368 00       		.byte	0
 1509 0369 09       		.uleb128 0x9
 1510 036a 04       		.byte	0x4
 1511 036b 38030000 		.long	0x338
 1512 036f 04       		.uleb128 0x4
 1513 0370 D6010000 		.long	.LASF52
GAS LISTING /tmp/ccEKufMP.s 			page 36


 1514 0374 08       		.byte	0x8
 1515 0375 33       		.byte	0x33
 1516 0376 38030000 		.long	0x338
 1517 037a 08       		.uleb128 0x8
 1518 037b 28       		.byte	0x28
 1519 037c 09       		.byte	0x9
 1520 037d 33       		.byte	0x33
 1521 037e CB030000 		.long	0x3cb
 1522 0382 06       		.uleb128 0x6
 1523 0383 3E020000 		.long	.LASF56
 1524 0387 09       		.byte	0x9
 1525 0388 34       		.byte	0x34
 1526 0389 CB030000 		.long	0x3cb
 1527 038d 00       		.byte	0
 1528 038e 06       		.uleb128 0x6
 1529 038f 91020000 		.long	.LASF57
 1530 0393 09       		.byte	0x9
 1531 0394 36       		.byte	0x36
 1532 0395 CB030000 		.long	0x3cb
 1533 0399 04       		.byte	0x4
 1534 039a 06       		.uleb128 0x6
 1535 039b 66000000 		.long	.LASF58
 1536 039f 09       		.byte	0x9
 1537 03a0 38       		.byte	0x38
 1538 03a1 CB030000 		.long	0x3cb
 1539 03a5 08       		.byte	0x8
 1540 03a6 06       		.uleb128 0x6
 1541 03a7 FA010000 		.long	.LASF59
 1542 03ab 09       		.byte	0x9
 1543 03ac 39       		.byte	0x39
 1544 03ad CB030000 		.long	0x3cb
 1545 03b1 0C       		.byte	0xc
 1546 03b2 06       		.uleb128 0x6
 1547 03b3 A6030000 		.long	.LASF60
 1548 03b7 09       		.byte	0x9
 1549 03b8 3A       		.byte	0x3a
 1550 03b9 2D030000 		.long	0x32d
 1551 03bd 10       		.byte	0x10
 1552 03be 06       		.uleb128 0x6
 1553 03bf 67010000 		.long	.LASF61
 1554 03c3 09       		.byte	0x9
 1555 03c4 3C       		.byte	0x3c
 1556 03c5 2D030000 		.long	0x32d
 1557 03c9 1C       		.byte	0x1c
 1558 03ca 00       		.byte	0
 1559 03cb 09       		.uleb128 0x9
 1560 03cc 04       		.byte	0x4
 1561 03cd CE000000 		.long	0xce
 1562 03d1 04       		.uleb128 0x4
 1563 03d2 1E000000 		.long	.LASF62
 1564 03d6 09       		.byte	0x9
 1565 03d7 3E       		.byte	0x3e
 1566 03d8 7A030000 		.long	0x37a
 1567 03dc 0E       		.uleb128 0xe
 1568 03dd 04       		.byte	0x4
 1569 03de 05       		.byte	0x5
 1570 03df 96       		.byte	0x96
GAS LISTING /tmp/ccEKufMP.s 			page 37


 1571 03e0 11040000 		.long	0x411
 1572 03e4 0F       		.uleb128 0xf
 1573 03e5 0D000000 		.long	.LASF63
 1574 03e9 05       		.byte	0x5
 1575 03ea 9D       		.byte	0x9d
 1576 03eb CE000000 		.long	0xce
 1577 03ef 0F       		.uleb128 0xf
 1578 03f0 58000000 		.long	.LASF64
 1579 03f4 05       		.byte	0x5
 1580 03f5 A4       		.byte	0xa4
 1581 03f6 CE000000 		.long	0xce
 1582 03fa 0F       		.uleb128 0xf
 1583 03fb CD030000 		.long	.LASF65
 1584 03ff 05       		.byte	0x5
 1585 0400 AB       		.byte	0xab
 1586 0401 94020000 		.long	0x294
 1587 0405 0F       		.uleb128 0xf
 1588 0406 1B030000 		.long	.LASF66
 1589 040a 05       		.byte	0x5
 1590 040b B2       		.byte	0xb2
 1591 040c D9000000 		.long	0xd9
 1592 0410 00       		.byte	0
 1593 0411 09       		.uleb128 0x9
 1594 0412 04       		.byte	0x4
 1595 0413 17040000 		.long	0x417
 1596 0417 10       		.uleb128 0x10
 1597 0418 1C040000 		.long	0x41c
 1598 041c 03       		.uleb128 0x3
 1599 041d 01       		.byte	0x1
 1600 041e 06       		.byte	0x6
 1601 041f 55030000 		.long	.LASF67
 1602 0423 09       		.uleb128 0x9
 1603 0424 04       		.byte	0x4
 1604 0425 6F030000 		.long	0x36f
 1605 0429 05       		.uleb128 0x5
 1606 042a 38030000 		.long	.LASF68
 1607 042e 10       		.byte	0x10
 1608 042f 0A       		.byte	0xa
 1609 0430 3B       		.byte	0x3b
 1610 0431 66040000 		.long	0x466
 1611 0435 06       		.uleb128 0x6
 1612 0436 73010000 		.long	.LASF69
 1613 043a 0A       		.byte	0xa
 1614 043b 3C       		.byte	0x3c
 1615 043c 11040000 		.long	0x411
 1616 0440 00       		.byte	0
 1617 0441 06       		.uleb128 0x6
 1618 0442 22020000 		.long	.LASF70
 1619 0446 0A       		.byte	0xa
 1620 0447 3D       		.byte	0x3d
 1621 0448 67040000 		.long	0x467
 1622 044c 04       		.byte	0x4
 1623 044d 06       		.uleb128 0x6
 1624 044e 5E010000 		.long	.LASF71
 1625 0452 0A       		.byte	0xa
 1626 0453 3E       		.byte	0x3e
 1627 0454 67040000 		.long	0x467
GAS LISTING /tmp/ccEKufMP.s 			page 38


 1628 0458 08       		.byte	0x8
 1629 0459 06       		.uleb128 0x6
 1630 045a 65020000 		.long	.LASF72
 1631 045e 0A       		.byte	0xa
 1632 045f 3F       		.byte	0x3f
 1633 0460 67040000 		.long	0x467
 1634 0464 0C       		.byte	0xc
 1635 0465 00       		.byte	0
 1636 0466 11       		.uleb128 0x11
 1637 0467 09       		.uleb128 0x9
 1638 0468 04       		.byte	0x4
 1639 0469 66040000 		.long	0x466
 1640 046d 12       		.uleb128 0x12
 1641 046e 304C0100 		.long	0x14c30
 1642 0472 0A       		.byte	0xa
 1643 0473 44       		.byte	0x44
 1644 0474 B6040000 		.long	0x4b6
 1645 0478 07       		.uleb128 0x7
 1646 0479 543000   		.string	"T0"
 1647 047c 0A       		.byte	0xa
 1648 047d 45       		.byte	0x45
 1649 047e B6040000 		.long	0x4b6
 1650 0482 00       		.byte	0
 1651 0483 13       		.uleb128 0x13
 1652 0484 543100   		.string	"T1"
 1653 0487 0A       		.byte	0xa
 1654 0488 46       		.byte	0x46
 1655 0489 B6040000 		.long	0x4b6
 1656 048d 7042     		.value	0x4270
 1657 048f 13       		.uleb128 0x13
 1658 0490 543200   		.string	"T2"
 1659 0493 0A       		.byte	0xa
 1660 0494 47       		.byte	0x47
 1661 0495 B6040000 		.long	0x4b6
 1662 0499 E084     		.value	0x84e0
 1663 049b 13       		.uleb128 0x13
 1664 049c 543300   		.string	"T3"
 1665 049f 0A       		.byte	0xa
 1666 04a0 48       		.byte	0x48
 1667 04a1 B6040000 		.long	0x4b6
 1668 04a5 50C7     		.value	0xc750
 1669 04a7 14       		.uleb128 0x14
 1670 04a8 543400   		.string	"T4"
 1671 04ab 0A       		.byte	0xa
 1672 04ac 49       		.byte	0x49
 1673 04ad B6040000 		.long	0x4b6
 1674 04b1 C0090100 		.long	0x109c0
 1675 04b5 00       		.byte	0
 1676 04b6 0A       		.uleb128 0xa
 1677 04b7 7E020000 		.long	0x27e
 1678 04bb C7040000 		.long	0x4c7
 1679 04bf 15       		.uleb128 0x15
 1680 04c0 77020000 		.long	0x277
 1681 04c4 2604     		.value	0x426
 1682 04c6 00       		.byte	0
 1683 04c7 16       		.uleb128 0x16
 1684 04c8 B1030000 		.long	.LASF94
GAS LISTING /tmp/ccEKufMP.s 			page 39


 1685 04cc 304C0100 		.long	0x14c30
 1686 04d0 0A       		.byte	0xa
 1687 04d1 43       		.byte	0x43
 1688 04d2 EC040000 		.long	0x4ec
 1689 04d6 17       		.uleb128 0x17
 1690 04d7 776100   		.string	"wa"
 1691 04da 0A       		.byte	0xa
 1692 04db 4A       		.byte	0x4a
 1693 04dc 6D040000 		.long	0x46d
 1694 04e0 0F       		.uleb128 0xf
 1695 04e1 6F030000 		.long	.LASF73
 1696 04e5 0A       		.byte	0xa
 1697 04e6 4B       		.byte	0x4b
 1698 04e7 EC040000 		.long	0x4ec
 1699 04eb 00       		.byte	0
 1700 04ec 0A       		.uleb128 0xa
 1701 04ed 5A000000 		.long	0x5a
 1702 04f1 FF040000 		.long	0x4ff
 1703 04f5 18       		.uleb128 0x18
 1704 04f6 77020000 		.long	0x277
 1705 04fa 2F4C0100 		.long	0x14c2f
 1706 04fe 00       		.byte	0
 1707 04ff 19       		.uleb128 0x19
 1708 0500 48020000 		.long	.LASF76
 1709 0504 01       		.byte	0x1
 1710 0505 4C       		.byte	0x4c
 1711 0506 00000000 		.long	.LFB8
 1712 050a D1080000 		.long	.LFE8-.LFB8
 1713 050e 01       		.uleb128 0x1
 1714 050f 9C       		.byte	0x9c
 1715 0510 460C0000 		.long	0xc46
 1716 0514 1A       		.uleb128 0x1a
 1717 0515 49010000 		.long	.LASF74
 1718 0519 01       		.byte	0x1
 1719 051a 4D       		.byte	0x4d
 1720 051b CE000000 		.long	0xce
 1721 051f 00000000 		.long	.LLST0
 1722 0523 1B       		.uleb128 0x1b
 1723 0524 4E010000 		.long	.LASF75
 1724 0528 01       		.byte	0x1
 1725 0529 4D       		.byte	0x4d
 1726 052a CE000000 		.long	0xce
 1727 052e 02       		.uleb128 0x2
 1728 052f 91       		.byte	0x91
 1729 0530 6C       		.sleb128 -20
 1730 0531 1C       		.uleb128 0x1c
 1731 0532 6900     		.string	"i"
 1732 0534 01       		.byte	0x1
 1733 0535 4E       		.byte	0x4e
 1734 0536 2C000000 		.long	0x2c
 1735 053a 05010000 		.long	.LLST1
 1736 053e 1D       		.uleb128 0x1d
 1737 053f 21000000 		.long	.LVL0
 1738 0543 D40C0000 		.long	0xcd4
 1739 0547 52050000 		.long	0x552
 1740 054b 1E       		.uleb128 0x1e
 1741 054c 02       		.uleb128 0x2
GAS LISTING /tmp/ccEKufMP.s 			page 40


 1742 054d 74       		.byte	0x74
 1743 054e 00       		.sleb128 0
 1744 054f 01       		.uleb128 0x1
 1745 0550 31       		.byte	0x31
 1746 0551 00       		.byte	0
 1747 0552 1D       		.uleb128 0x1d
 1748 0553 42000000 		.long	.LVL2
 1749 0557 EE0C0000 		.long	0xcee
 1750 055b 78050000 		.long	0x578
 1751 055f 1E       		.uleb128 0x1e
 1752 0560 02       		.uleb128 0x2
 1753 0561 74       		.byte	0x74
 1754 0562 00       		.sleb128 0
 1755 0563 05       		.uleb128 0x5
 1756 0564 03       		.byte	0x3
 1757 0565 00000000 		.long	mb1
 1758 0569 1E       		.uleb128 0x1e
 1759 056a 02       		.uleb128 0x2
 1760 056b 74       		.byte	0x74
 1761 056c 04       		.sleb128 4
 1762 056d 02       		.uleb128 0x2
 1763 056e 73       		.byte	0x73
 1764 056f 00       		.sleb128 0
 1765 0570 1E       		.uleb128 0x1e
 1766 0571 02       		.uleb128 0x2
 1767 0572 74       		.byte	0x74
 1768 0573 08       		.sleb128 8
 1769 0574 02       		.uleb128 0x2
 1770 0575 09       		.byte	0x9
 1771 0576 FF       		.byte	0xff
 1772 0577 00       		.byte	0
 1773 0578 1D       		.uleb128 0x1d
 1774 0579 5A000000 		.long	.LVL4
 1775 057d D40C0000 		.long	0xcd4
 1776 0581 8C050000 		.long	0x58c
 1777 0585 1E       		.uleb128 0x1e
 1778 0586 02       		.uleb128 0x2
 1779 0587 74       		.byte	0x74
 1780 0588 00       		.sleb128 0
 1781 0589 01       		.uleb128 0x1
 1782 058a 32       		.byte	0x32
 1783 058b 00       		.byte	0
 1784 058c 1D       		.uleb128 0x1d
 1785 058d 82000000 		.long	.LVL7
 1786 0591 130D0000 		.long	0xd13
 1787 0595 B2050000 		.long	0x5b2
 1788 0599 1E       		.uleb128 0x1e
 1789 059a 02       		.uleb128 0x2
 1790 059b 74       		.byte	0x74
 1791 059c 00       		.sleb128 0
 1792 059d 05       		.uleb128 0x5
 1793 059e 03       		.byte	0x3
 1794 059f 00000000 		.long	mb1
 1795 05a3 1E       		.uleb128 0x1e
 1796 05a4 02       		.uleb128 0x2
 1797 05a5 74       		.byte	0x74
 1798 05a6 04       		.sleb128 4
GAS LISTING /tmp/ccEKufMP.s 			page 41


 1799 05a7 02       		.uleb128 0x2
 1800 05a8 08       		.byte	0x8
 1801 05a9 41       		.byte	0x41
 1802 05aa 1E       		.uleb128 0x1e
 1803 05ab 02       		.uleb128 0x2
 1804 05ac 74       		.byte	0x74
 1805 05ad 08       		.sleb128 8
 1806 05ae 02       		.uleb128 0x2
 1807 05af 09       		.byte	0x9
 1808 05b0 FF       		.byte	0xff
 1809 05b1 00       		.byte	0
 1810 05b2 1D       		.uleb128 0x1d
 1811 05b3 9A000000 		.long	.LVL9
 1812 05b7 D40C0000 		.long	0xcd4
 1813 05bb C6050000 		.long	0x5c6
 1814 05bf 1E       		.uleb128 0x1e
 1815 05c0 02       		.uleb128 0x2
 1816 05c1 74       		.byte	0x74
 1817 05c2 00       		.sleb128 0
 1818 05c3 01       		.uleb128 0x1
 1819 05c4 33       		.byte	0x33
 1820 05c5 00       		.byte	0
 1821 05c6 1D       		.uleb128 0x1d
 1822 05c7 C4000000 		.long	.LVL12
 1823 05cb EE0C0000 		.long	0xcee
 1824 05cf EB050000 		.long	0x5eb
 1825 05d3 1E       		.uleb128 0x1e
 1826 05d4 02       		.uleb128 0x2
 1827 05d5 74       		.byte	0x74
 1828 05d6 00       		.sleb128 0
 1829 05d7 05       		.uleb128 0x5
 1830 05d8 03       		.byte	0x3
 1831 05d9 00000000 		.long	mb1
 1832 05dd 1E       		.uleb128 0x1e
 1833 05de 02       		.uleb128 0x2
 1834 05df 74       		.byte	0x74
 1835 05e0 04       		.sleb128 4
 1836 05e1 02       		.uleb128 0x2
 1837 05e2 08       		.byte	0x8
 1838 05e3 58       		.byte	0x58
 1839 05e4 1E       		.uleb128 0x1e
 1840 05e5 02       		.uleb128 0x2
 1841 05e6 74       		.byte	0x74
 1842 05e7 08       		.sleb128 8
 1843 05e8 01       		.uleb128 0x1
 1844 05e9 31       		.byte	0x31
 1845 05ea 00       		.byte	0
 1846 05eb 1D       		.uleb128 0x1d
 1847 05ec DD000000 		.long	.LVL14
 1848 05f0 D40C0000 		.long	0xcd4
 1849 05f4 FF050000 		.long	0x5ff
 1850 05f8 1E       		.uleb128 0x1e
 1851 05f9 02       		.uleb128 0x2
 1852 05fa 74       		.byte	0x74
 1853 05fb 00       		.sleb128 0
 1854 05fc 01       		.uleb128 0x1
 1855 05fd 34       		.byte	0x34
GAS LISTING /tmp/ccEKufMP.s 			page 42


 1856 05fe 00       		.byte	0
 1857 05ff 1D       		.uleb128 0x1d
 1858 0600 F6000000 		.long	.LVL15
 1859 0604 320D0000 		.long	0xd32
 1860 0608 1E060000 		.long	0x61e
 1861 060c 1E       		.uleb128 0x1e
 1862 060d 02       		.uleb128 0x2
 1863 060e 74       		.byte	0x74
 1864 060f 00       		.sleb128 0
 1865 0610 05       		.uleb128 0x5
 1866 0611 03       		.byte	0x3
 1867 0612 00000000 		.long	mb1
 1868 0616 1E       		.uleb128 0x1e
 1869 0617 02       		.uleb128 0x2
 1870 0618 74       		.byte	0x74
 1871 0619 04       		.sleb128 4
 1872 061a 02       		.uleb128 0x2
 1873 061b 08       		.byte	0x8
 1874 061c 58       		.byte	0x58
 1875 061d 00       		.byte	0
 1876 061e 1D       		.uleb128 0x1d
 1877 061f 10010000 		.long	.LVL17
 1878 0623 D40C0000 		.long	0xcd4
 1879 0627 32060000 		.long	0x632
 1880 062b 1E       		.uleb128 0x1e
 1881 062c 02       		.uleb128 0x2
 1882 062d 74       		.byte	0x74
 1883 062e 00       		.sleb128 0
 1884 062f 01       		.uleb128 0x1
 1885 0630 35       		.byte	0x35
 1886 0631 00       		.byte	0
 1887 0632 1D       		.uleb128 0x1d
 1888 0633 30010000 		.long	.LVL18
 1889 0637 130D0000 		.long	0xd13
 1890 063b 57060000 		.long	0x657
 1891 063f 1E       		.uleb128 0x1e
 1892 0640 02       		.uleb128 0x2
 1893 0641 74       		.byte	0x74
 1894 0642 00       		.sleb128 0
 1895 0643 05       		.uleb128 0x5
 1896 0644 03       		.byte	0x3
 1897 0645 00000000 		.long	mb1
 1898 0649 1E       		.uleb128 0x1e
 1899 064a 02       		.uleb128 0x2
 1900 064b 74       		.byte	0x74
 1901 064c 04       		.sleb128 4
 1902 064d 02       		.uleb128 0x2
 1903 064e 08       		.byte	0x8
 1904 064f 58       		.byte	0x58
 1905 0650 1E       		.uleb128 0x1e
 1906 0651 02       		.uleb128 0x2
 1907 0652 74       		.byte	0x74
 1908 0653 08       		.sleb128 8
 1909 0654 01       		.uleb128 0x1
 1910 0655 31       		.byte	0x31
 1911 0656 00       		.byte	0
 1912 0657 1D       		.uleb128 0x1d
GAS LISTING /tmp/ccEKufMP.s 			page 43


 1913 0658 49010000 		.long	.LVL20
 1914 065c D40C0000 		.long	0xcd4
 1915 0660 6B060000 		.long	0x66b
 1916 0664 1E       		.uleb128 0x1e
 1917 0665 02       		.uleb128 0x2
 1918 0666 74       		.byte	0x74
 1919 0667 00       		.sleb128 0
 1920 0668 01       		.uleb128 0x1
 1921 0669 36       		.byte	0x36
 1922 066a 00       		.byte	0
 1923 066b 1D       		.uleb128 0x1d
 1924 066c 66010000 		.long	.LVL21
 1925 0670 4C0D0000 		.long	0xd4c
 1926 0674 8A060000 		.long	0x68a
 1927 0678 1E       		.uleb128 0x1e
 1928 0679 02       		.uleb128 0x2
 1929 067a 74       		.byte	0x74
 1930 067b 00       		.sleb128 0
 1931 067c 05       		.uleb128 0x5
 1932 067d 03       		.byte	0x3
 1933 067e 00000000 		.long	mb1
 1934 0682 1E       		.uleb128 0x1e
 1935 0683 02       		.uleb128 0x2
 1936 0684 74       		.byte	0x74
 1937 0685 04       		.sleb128 4
 1938 0686 02       		.uleb128 0x2
 1939 0687 08       		.byte	0x8
 1940 0688 58       		.byte	0x58
 1941 0689 00       		.byte	0
 1942 068a 1D       		.uleb128 0x1d
 1943 068b 80010000 		.long	.LVL23
 1944 068f D40C0000 		.long	0xcd4
 1945 0693 9E060000 		.long	0x69e
 1946 0697 1E       		.uleb128 0x1e
 1947 0698 02       		.uleb128 0x2
 1948 0699 74       		.byte	0x74
 1949 069a 00       		.sleb128 0
 1950 069b 01       		.uleb128 0x1
 1951 069c 37       		.byte	0x37
 1952 069d 00       		.byte	0
 1953 069e 1D       		.uleb128 0x1d
 1954 069f A6010000 		.long	.LVL24
 1955 06a3 D40C0000 		.long	0xcd4
 1956 06a7 B2060000 		.long	0x6b2
 1957 06ab 1E       		.uleb128 0x1e
 1958 06ac 02       		.uleb128 0x2
 1959 06ad 74       		.byte	0x74
 1960 06ae 00       		.sleb128 0
 1961 06af 01       		.uleb128 0x1
 1962 06b0 38       		.byte	0x38
 1963 06b1 00       		.byte	0
 1964 06b2 1D       		.uleb128 0x1d
 1965 06b3 CE010000 		.long	.LVL27
 1966 06b7 D40C0000 		.long	0xcd4
 1967 06bb C6060000 		.long	0x6c6
 1968 06bf 1E       		.uleb128 0x1e
 1969 06c0 02       		.uleb128 0x2
GAS LISTING /tmp/ccEKufMP.s 			page 44


 1970 06c1 74       		.byte	0x74
 1971 06c2 00       		.sleb128 0
 1972 06c3 01       		.uleb128 0x1
 1973 06c4 39       		.byte	0x39
 1974 06c5 00       		.byte	0
 1975 06c6 1D       		.uleb128 0x1d
 1976 06c7 F5010000 		.long	.LVL28
 1977 06cb D40C0000 		.long	0xcd4
 1978 06cf DA060000 		.long	0x6da
 1979 06d3 1E       		.uleb128 0x1e
 1980 06d4 02       		.uleb128 0x2
 1981 06d5 74       		.byte	0x74
 1982 06d6 00       		.sleb128 0
 1983 06d7 01       		.uleb128 0x1
 1984 06d8 3A       		.byte	0x3a
 1985 06d9 00       		.byte	0
 1986 06da 1F       		.uleb128 0x1f
 1987 06db 12020000 		.long	.LVL31
 1988 06df 660D0000 		.long	0xd66
 1989 06e3 1D       		.uleb128 0x1d
 1990 06e4 2F020000 		.long	.LVL34
 1991 06e8 770D0000 		.long	0xd77
 1992 06ec 09070000 		.long	0x709
 1993 06f0 1E       		.uleb128 0x1e
 1994 06f1 02       		.uleb128 0x2
 1995 06f2 74       		.byte	0x74
 1996 06f3 00       		.sleb128 0
 1997 06f4 05       		.uleb128 0x5
 1998 06f5 03       		.byte	0x3
 1999 06f6 00000000 		.long	mb1
 2000 06fa 1E       		.uleb128 0x1e
 2001 06fb 02       		.uleb128 0x2
 2002 06fc 74       		.byte	0x74
 2003 06fd 04       		.sleb128 4
 2004 06fe 02       		.uleb128 0x2
 2005 06ff 73       		.byte	0x73
 2006 0700 00       		.sleb128 0
 2007 0701 1E       		.uleb128 0x1e
 2008 0702 02       		.uleb128 0x2
 2009 0703 74       		.byte	0x74
 2010 0704 08       		.sleb128 8
 2011 0705 02       		.uleb128 0x2
 2012 0706 09       		.byte	0x9
 2013 0707 FF       		.byte	0xff
 2014 0708 00       		.byte	0
 2015 0709 1D       		.uleb128 0x1d
 2016 070a 47020000 		.long	.LVL36
 2017 070e D40C0000 		.long	0xcd4
 2018 0712 1D070000 		.long	0x71d
 2019 0716 1E       		.uleb128 0x1e
 2020 0717 02       		.uleb128 0x2
 2021 0718 74       		.byte	0x74
 2022 0719 00       		.sleb128 0
 2023 071a 01       		.uleb128 0x1
 2024 071b 3B       		.byte	0x3b
 2025 071c 00       		.byte	0
 2026 071d 1D       		.uleb128 0x1d
GAS LISTING /tmp/ccEKufMP.s 			page 45


 2027 071e 64020000 		.long	.LVL37
 2028 0722 960D0000 		.long	0xd96
 2029 0726 3B070000 		.long	0x73b
 2030 072a 1E       		.uleb128 0x1e
 2031 072b 02       		.uleb128 0x2
 2032 072c 74       		.byte	0x74
 2033 072d 00       		.sleb128 0
 2034 072e 01       		.uleb128 0x1
 2035 072f 3C       		.byte	0x3c
 2036 0730 1E       		.uleb128 0x1e
 2037 0731 02       		.uleb128 0x2
 2038 0732 74       		.byte	0x74
 2039 0733 04       		.sleb128 4
 2040 0734 05       		.uleb128 0x5
 2041 0735 03       		.byte	0x3
 2042 0736 00000000 		.long	.LC0
 2043 073a 00       		.byte	0
 2044 073b 1D       		.uleb128 0x1d
 2045 073c 88020000 		.long	.LVL38
 2046 0740 EE0C0000 		.long	0xcee
 2047 0744 61070000 		.long	0x761
 2048 0748 1E       		.uleb128 0x1e
 2049 0749 02       		.uleb128 0x2
 2050 074a 74       		.byte	0x74
 2051 074b 00       		.sleb128 0
 2052 074c 05       		.uleb128 0x5
 2053 074d 03       		.byte	0x3
 2054 074e 00000000 		.long	mb1
 2055 0752 1E       		.uleb128 0x1e
 2056 0753 02       		.uleb128 0x2
 2057 0754 74       		.byte	0x74
 2058 0755 04       		.sleb128 4
 2059 0756 02       		.uleb128 0x2
 2060 0757 08       		.byte	0x8
 2061 0758 47       		.byte	0x47
 2062 0759 1E       		.uleb128 0x1e
 2063 075a 02       		.uleb128 0x2
 2064 075b 74       		.byte	0x74
 2065 075c 08       		.sleb128 8
 2066 075d 02       		.uleb128 0x2
 2067 075e 09       		.byte	0x9
 2068 075f FF       		.byte	0xff
 2069 0760 00       		.byte	0
 2070 0761 1D       		.uleb128 0x1d
 2071 0762 A0020000 		.long	.LVL40
 2072 0766 D40C0000 		.long	0xcd4
 2073 076a 75070000 		.long	0x775
 2074 076e 1E       		.uleb128 0x1e
 2075 076f 02       		.uleb128 0x2
 2076 0770 74       		.byte	0x74
 2077 0771 00       		.sleb128 0
 2078 0772 01       		.uleb128 0x1
 2079 0773 3D       		.byte	0x3d
 2080 0774 00       		.byte	0
 2081 0775 1D       		.uleb128 0x1d
 2082 0776 C0020000 		.long	.LVL41
 2083 077a 770D0000 		.long	0xd77
GAS LISTING /tmp/ccEKufMP.s 			page 46


 2084 077e 9B070000 		.long	0x79b
 2085 0782 1E       		.uleb128 0x1e
 2086 0783 02       		.uleb128 0x2
 2087 0784 74       		.byte	0x74
 2088 0785 00       		.sleb128 0
 2089 0786 05       		.uleb128 0x5
 2090 0787 03       		.byte	0x3
 2091 0788 00000000 		.long	mb1
 2092 078c 1E       		.uleb128 0x1e
 2093 078d 02       		.uleb128 0x2
 2094 078e 74       		.byte	0x74
 2095 078f 04       		.sleb128 4
 2096 0790 02       		.uleb128 0x2
 2097 0791 73       		.byte	0x73
 2098 0792 00       		.sleb128 0
 2099 0793 1E       		.uleb128 0x1e
 2100 0794 02       		.uleb128 0x2
 2101 0795 74       		.byte	0x74
 2102 0796 08       		.sleb128 8
 2103 0797 02       		.uleb128 0x2
 2104 0798 09       		.byte	0x9
 2105 0799 FF       		.byte	0xff
 2106 079a 00       		.byte	0
 2107 079b 1D       		.uleb128 0x1d
 2108 079c D8020000 		.long	.LVL43
 2109 07a0 D40C0000 		.long	0xcd4
 2110 07a4 AF070000 		.long	0x7af
 2111 07a8 1E       		.uleb128 0x1e
 2112 07a9 02       		.uleb128 0x2
 2113 07aa 74       		.byte	0x74
 2114 07ab 00       		.sleb128 0
 2115 07ac 01       		.uleb128 0x1
 2116 07ad 3E       		.byte	0x3e
 2117 07ae 00       		.byte	0
 2118 07af 1D       		.uleb128 0x1d
 2119 07b0 01030000 		.long	.LVL44
 2120 07b4 D40C0000 		.long	0xcd4
 2121 07b8 C3070000 		.long	0x7c3
 2122 07bc 1E       		.uleb128 0x1e
 2123 07bd 02       		.uleb128 0x2
 2124 07be 74       		.byte	0x74
 2125 07bf 00       		.sleb128 0
 2126 07c0 01       		.uleb128 0x1
 2127 07c1 3F       		.byte	0x3f
 2128 07c2 00       		.byte	0
 2129 07c3 1D       		.uleb128 0x1d
 2130 07c4 2A030000 		.long	.LVL45
 2131 07c8 D40C0000 		.long	0xcd4
 2132 07cc D7070000 		.long	0x7d7
 2133 07d0 1E       		.uleb128 0x1e
 2134 07d1 02       		.uleb128 0x2
 2135 07d2 74       		.byte	0x74
 2136 07d3 00       		.sleb128 0
 2137 07d4 01       		.uleb128 0x1
 2138 07d5 40       		.byte	0x40
 2139 07d6 00       		.byte	0
 2140 07d7 1D       		.uleb128 0x1d
GAS LISTING /tmp/ccEKufMP.s 			page 47


 2141 07d8 4A030000 		.long	.LVL46
 2142 07dc 770D0000 		.long	0xd77
 2143 07e0 FC070000 		.long	0x7fc
 2144 07e4 1E       		.uleb128 0x1e
 2145 07e5 02       		.uleb128 0x2
 2146 07e6 74       		.byte	0x74
 2147 07e7 00       		.sleb128 0
 2148 07e8 05       		.uleb128 0x5
 2149 07e9 03       		.byte	0x3
 2150 07ea 00000000 		.long	mb1
 2151 07ee 1E       		.uleb128 0x1e
 2152 07ef 02       		.uleb128 0x2
 2153 07f0 74       		.byte	0x74
 2154 07f1 04       		.sleb128 4
 2155 07f2 02       		.uleb128 0x2
 2156 07f3 73       		.byte	0x73
 2157 07f4 00       		.sleb128 0
 2158 07f5 1E       		.uleb128 0x1e
 2159 07f6 02       		.uleb128 0x2
 2160 07f7 74       		.byte	0x74
 2161 07f8 08       		.sleb128 8
 2162 07f9 01       		.uleb128 0x1
 2163 07fa 31       		.byte	0x31
 2164 07fb 00       		.byte	0
 2165 07fc 1D       		.uleb128 0x1d
 2166 07fd 63030000 		.long	.LVL48
 2167 0801 D40C0000 		.long	0xcd4
 2168 0805 10080000 		.long	0x810
 2169 0809 1E       		.uleb128 0x1e
 2170 080a 02       		.uleb128 0x2
 2171 080b 74       		.byte	0x74
 2172 080c 00       		.sleb128 0
 2173 080d 01       		.uleb128 0x1
 2174 080e 41       		.byte	0x41
 2175 080f 00       		.byte	0
 2176 0810 1D       		.uleb128 0x1d
 2177 0811 7C030000 		.long	.LVL49
 2178 0815 B60D0000 		.long	0xdb6
 2179 0819 2F080000 		.long	0x82f
 2180 081d 1E       		.uleb128 0x1e
 2181 081e 02       		.uleb128 0x2
 2182 081f 74       		.byte	0x74
 2183 0820 00       		.sleb128 0
 2184 0821 05       		.uleb128 0x5
 2185 0822 03       		.byte	0x3
 2186 0823 00000000 		.long	mb1
 2187 0827 1E       		.uleb128 0x1e
 2188 0828 02       		.uleb128 0x2
 2189 0829 74       		.byte	0x74
 2190 082a 04       		.sleb128 4
 2191 082b 02       		.uleb128 0x2
 2192 082c 73       		.byte	0x73
 2193 082d 00       		.sleb128 0
 2194 082e 00       		.byte	0
 2195 082f 1D       		.uleb128 0x1d
 2196 0830 96030000 		.long	.LVL51
 2197 0834 D40C0000 		.long	0xcd4
GAS LISTING /tmp/ccEKufMP.s 			page 48


 2198 0838 43080000 		.long	0x843
 2199 083c 1E       		.uleb128 0x1e
 2200 083d 02       		.uleb128 0x2
 2201 083e 74       		.byte	0x74
 2202 083f 00       		.sleb128 0
 2203 0840 01       		.uleb128 0x1
 2204 0841 42       		.byte	0x42
 2205 0842 00       		.byte	0
 2206 0843 1D       		.uleb128 0x1d
 2207 0844 BB030000 		.long	.LVL52
 2208 0848 D40C0000 		.long	0xcd4
 2209 084c 57080000 		.long	0x857
 2210 0850 1E       		.uleb128 0x1e
 2211 0851 02       		.uleb128 0x2
 2212 0852 74       		.byte	0x74
 2213 0853 00       		.sleb128 0
 2214 0854 01       		.uleb128 0x1
 2215 0855 43       		.byte	0x43
 2216 0856 00       		.byte	0
 2217 0857 1D       		.uleb128 0x1d
 2218 0858 E1030000 		.long	.LVL53
 2219 085c D40C0000 		.long	0xcd4
 2220 0860 6B080000 		.long	0x86b
 2221 0864 1E       		.uleb128 0x1e
 2222 0865 02       		.uleb128 0x2
 2223 0866 74       		.byte	0x74
 2224 0867 00       		.sleb128 0
 2225 0868 01       		.uleb128 0x1
 2226 0869 44       		.byte	0x44
 2227 086a 00       		.byte	0
 2228 086b 1D       		.uleb128 0x1d
 2229 086c 0C040000 		.long	.LVL54
 2230 0870 D40C0000 		.long	0xcd4
 2231 0874 7F080000 		.long	0x87f
 2232 0878 1E       		.uleb128 0x1e
 2233 0879 02       		.uleb128 0x2
 2234 087a 74       		.byte	0x74
 2235 087b 00       		.sleb128 0
 2236 087c 01       		.uleb128 0x1
 2237 087d 45       		.byte	0x45
 2238 087e 00       		.byte	0
 2239 087f 1D       		.uleb128 0x1d
 2240 0880 2A040000 		.long	.LVL55
 2241 0884 320D0000 		.long	0xd32
 2242 0888 9E080000 		.long	0x89e
 2243 088c 1E       		.uleb128 0x1e
 2244 088d 02       		.uleb128 0x2
 2245 088e 74       		.byte	0x74
 2246 088f 00       		.sleb128 0
 2247 0890 05       		.uleb128 0x5
 2248 0891 03       		.byte	0x3
 2249 0892 00000000 		.long	mb1
 2250 0896 1E       		.uleb128 0x1e
 2251 0897 02       		.uleb128 0x2
 2252 0898 74       		.byte	0x74
 2253 0899 04       		.sleb128 4
 2254 089a 02       		.uleb128 0x2
GAS LISTING /tmp/ccEKufMP.s 			page 49


 2255 089b 08       		.byte	0x8
 2256 089c 41       		.byte	0x41
 2257 089d 00       		.byte	0
 2258 089e 1D       		.uleb128 0x1d
 2259 089f 42040000 		.long	.LVL57
 2260 08a3 D40C0000 		.long	0xcd4
 2261 08a7 B2080000 		.long	0x8b2
 2262 08ab 1E       		.uleb128 0x1e
 2263 08ac 02       		.uleb128 0x2
 2264 08ad 74       		.byte	0x74
 2265 08ae 00       		.sleb128 0
 2266 08af 01       		.uleb128 0x1
 2267 08b0 46       		.byte	0x46
 2268 08b1 00       		.byte	0
 2269 08b2 1D       		.uleb128 0x1d
 2270 08b3 5E040000 		.long	.LVL58
 2271 08b7 320D0000 		.long	0xd32
 2272 08bb D1080000 		.long	0x8d1
 2273 08bf 1E       		.uleb128 0x1e
 2274 08c0 02       		.uleb128 0x2
 2275 08c1 74       		.byte	0x74
 2276 08c2 00       		.sleb128 0
 2277 08c3 05       		.uleb128 0x5
 2278 08c4 03       		.byte	0x3
 2279 08c5 00000000 		.long	mb1
 2280 08c9 1E       		.uleb128 0x1e
 2281 08ca 02       		.uleb128 0x2
 2282 08cb 74       		.byte	0x74
 2283 08cc 04       		.sleb128 4
 2284 08cd 02       		.uleb128 0x2
 2285 08ce 08       		.byte	0x8
 2286 08cf 42       		.byte	0x42
 2287 08d0 00       		.byte	0
 2288 08d1 1D       		.uleb128 0x1d
 2289 08d2 76040000 		.long	.LVL60
 2290 08d6 D40C0000 		.long	0xcd4
 2291 08da E5080000 		.long	0x8e5
 2292 08de 1E       		.uleb128 0x1e
 2293 08df 02       		.uleb128 0x2
 2294 08e0 74       		.byte	0x74
 2295 08e1 00       		.sleb128 0
 2296 08e2 01       		.uleb128 0x1
 2297 08e3 47       		.byte	0x47
 2298 08e4 00       		.byte	0
 2299 08e5 1D       		.uleb128 0x1d
 2300 08e6 92040000 		.long	.LVL61
 2301 08ea 320D0000 		.long	0xd32
 2302 08ee 04090000 		.long	0x904
 2303 08f2 1E       		.uleb128 0x1e
 2304 08f3 02       		.uleb128 0x2
 2305 08f4 74       		.byte	0x74
 2306 08f5 00       		.sleb128 0
 2307 08f6 05       		.uleb128 0x5
 2308 08f7 03       		.byte	0x3
 2309 08f8 00000000 		.long	mb1
 2310 08fc 1E       		.uleb128 0x1e
 2311 08fd 02       		.uleb128 0x2
GAS LISTING /tmp/ccEKufMP.s 			page 50


 2312 08fe 74       		.byte	0x74
 2313 08ff 04       		.sleb128 4
 2314 0900 02       		.uleb128 0x2
 2315 0901 08       		.byte	0x8
 2316 0902 43       		.byte	0x43
 2317 0903 00       		.byte	0
 2318 0904 1D       		.uleb128 0x1d
 2319 0905 AA040000 		.long	.LVL63
 2320 0909 D40C0000 		.long	0xcd4
 2321 090d 18090000 		.long	0x918
 2322 0911 1E       		.uleb128 0x1e
 2323 0912 02       		.uleb128 0x2
 2324 0913 74       		.byte	0x74
 2325 0914 00       		.sleb128 0
 2326 0915 01       		.uleb128 0x1
 2327 0916 48       		.byte	0x48
 2328 0917 00       		.byte	0
 2329 0918 1D       		.uleb128 0x1d
 2330 0919 C6040000 		.long	.LVL64
 2331 091d 320D0000 		.long	0xd32
 2332 0921 37090000 		.long	0x937
 2333 0925 1E       		.uleb128 0x1e
 2334 0926 02       		.uleb128 0x2
 2335 0927 74       		.byte	0x74
 2336 0928 00       		.sleb128 0
 2337 0929 05       		.uleb128 0x5
 2338 092a 03       		.byte	0x3
 2339 092b 00000000 		.long	mb1
 2340 092f 1E       		.uleb128 0x1e
 2341 0930 02       		.uleb128 0x2
 2342 0931 74       		.byte	0x74
 2343 0932 04       		.sleb128 4
 2344 0933 02       		.uleb128 0x2
 2345 0934 08       		.byte	0x8
 2346 0935 44       		.byte	0x44
 2347 0936 00       		.byte	0
 2348 0937 1D       		.uleb128 0x1d
 2349 0938 DE040000 		.long	.LVL66
 2350 093c D40C0000 		.long	0xcd4
 2351 0940 4B090000 		.long	0x94b
 2352 0944 1E       		.uleb128 0x1e
 2353 0945 02       		.uleb128 0x2
 2354 0946 74       		.byte	0x74
 2355 0947 00       		.sleb128 0
 2356 0948 01       		.uleb128 0x1
 2357 0949 49       		.byte	0x49
 2358 094a 00       		.byte	0
 2359 094b 1D       		.uleb128 0x1d
 2360 094c FA040000 		.long	.LVL67
 2361 0950 320D0000 		.long	0xd32
 2362 0954 6A090000 		.long	0x96a
 2363 0958 1E       		.uleb128 0x1e
 2364 0959 02       		.uleb128 0x2
 2365 095a 74       		.byte	0x74
 2366 095b 00       		.sleb128 0
 2367 095c 05       		.uleb128 0x5
 2368 095d 03       		.byte	0x3
GAS LISTING /tmp/ccEKufMP.s 			page 51


 2369 095e 00000000 		.long	mb1
 2370 0962 1E       		.uleb128 0x1e
 2371 0963 02       		.uleb128 0x2
 2372 0964 74       		.byte	0x74
 2373 0965 04       		.sleb128 4
 2374 0966 02       		.uleb128 0x2
 2375 0967 08       		.byte	0x8
 2376 0968 45       		.byte	0x45
 2377 0969 00       		.byte	0
 2378 096a 1D       		.uleb128 0x1d
 2379 096b 13050000 		.long	.LVL69
 2380 096f D40C0000 		.long	0xcd4
 2381 0973 7E090000 		.long	0x97e
 2382 0977 1E       		.uleb128 0x1e
 2383 0978 02       		.uleb128 0x2
 2384 0979 74       		.byte	0x74
 2385 097a 00       		.sleb128 0
 2386 097b 01       		.uleb128 0x1
 2387 097c 4A       		.byte	0x4a
 2388 097d 00       		.byte	0
 2389 097e 1D       		.uleb128 0x1d
 2390 097f 3C050000 		.long	.LVL70
 2391 0983 D40C0000 		.long	0xcd4
 2392 0987 92090000 		.long	0x992
 2393 098b 1E       		.uleb128 0x1e
 2394 098c 02       		.uleb128 0x2
 2395 098d 74       		.byte	0x74
 2396 098e 00       		.sleb128 0
 2397 098f 01       		.uleb128 0x1
 2398 0990 4B       		.byte	0x4b
 2399 0991 00       		.byte	0
 2400 0992 1D       		.uleb128 0x1d
 2401 0993 5A050000 		.long	.LVL72
 2402 0997 B60D0000 		.long	0xdb6
 2403 099b B1090000 		.long	0x9b1
 2404 099f 1E       		.uleb128 0x1e
 2405 09a0 02       		.uleb128 0x2
 2406 09a1 74       		.byte	0x74
 2407 09a2 00       		.sleb128 0
 2408 09a3 05       		.uleb128 0x5
 2409 09a4 03       		.byte	0x3
 2410 09a5 00000000 		.long	mb1
 2411 09a9 1E       		.uleb128 0x1e
 2412 09aa 02       		.uleb128 0x2
 2413 09ab 74       		.byte	0x74
 2414 09ac 04       		.sleb128 4
 2415 09ad 02       		.uleb128 0x2
 2416 09ae 73       		.byte	0x73
 2417 09af 00       		.sleb128 0
 2418 09b0 00       		.byte	0
 2419 09b1 1D       		.uleb128 0x1d
 2420 09b2 73050000 		.long	.LVL74
 2421 09b6 D40C0000 		.long	0xcd4
 2422 09ba C5090000 		.long	0x9c5
 2423 09be 1E       		.uleb128 0x1e
 2424 09bf 02       		.uleb128 0x2
 2425 09c0 74       		.byte	0x74
GAS LISTING /tmp/ccEKufMP.s 			page 52


 2426 09c1 00       		.sleb128 0
 2427 09c2 01       		.uleb128 0x1
 2428 09c3 4C       		.byte	0x4c
 2429 09c4 00       		.byte	0
 2430 09c5 1F       		.uleb128 0x1f
 2431 09c6 88050000 		.long	.LVL75
 2432 09ca 660D0000 		.long	0xd66
 2433 09ce 1D       		.uleb128 0x1d
 2434 09cf A1050000 		.long	.LVL77
 2435 09d3 960D0000 		.long	0xd96
 2436 09d7 EC090000 		.long	0x9ec
 2437 09db 1E       		.uleb128 0x1e
 2438 09dc 02       		.uleb128 0x2
 2439 09dd 74       		.byte	0x74
 2440 09de 00       		.sleb128 0
 2441 09df 01       		.uleb128 0x1
 2442 09e0 4D       		.byte	0x4d
 2443 09e1 1E       		.uleb128 0x1e
 2444 09e2 02       		.uleb128 0x2
 2445 09e3 74       		.byte	0x74
 2446 09e4 04       		.sleb128 4
 2447 09e5 05       		.uleb128 0x5
 2448 09e6 03       		.byte	0x3
 2449 09e7 00000000 		.long	.LC0
 2450 09eb 00       		.byte	0
 2451 09ec 1D       		.uleb128 0x1d
 2452 09ed C6050000 		.long	.LVL78
 2453 09f1 D40C0000 		.long	0xcd4
 2454 09f5 000A0000 		.long	0xa00
 2455 09f9 1E       		.uleb128 0x1e
 2456 09fa 02       		.uleb128 0x2
 2457 09fb 74       		.byte	0x74
 2458 09fc 00       		.sleb128 0
 2459 09fd 01       		.uleb128 0x1
 2460 09fe 4E       		.byte	0x4e
 2461 09ff 00       		.byte	0
 2462 0a00 1D       		.uleb128 0x1d
 2463 0a01 EC050000 		.long	.LVL79
 2464 0a05 D40C0000 		.long	0xcd4
 2465 0a09 140A0000 		.long	0xa14
 2466 0a0d 1E       		.uleb128 0x1e
 2467 0a0e 02       		.uleb128 0x2
 2468 0a0f 74       		.byte	0x74
 2469 0a10 00       		.sleb128 0
 2470 0a11 01       		.uleb128 0x1
 2471 0a12 4F       		.byte	0x4f
 2472 0a13 00       		.byte	0
 2473 0a14 1D       		.uleb128 0x1d
 2474 0a15 16060000 		.long	.LVL80
 2475 0a19 D40C0000 		.long	0xcd4
 2476 0a1d 290A0000 		.long	0xa29
 2477 0a21 1E       		.uleb128 0x1e
 2478 0a22 02       		.uleb128 0x2
 2479 0a23 74       		.byte	0x74
 2480 0a24 00       		.sleb128 0
 2481 0a25 02       		.uleb128 0x2
 2482 0a26 08       		.byte	0x8
GAS LISTING /tmp/ccEKufMP.s 			page 53


 2483 0a27 20       		.byte	0x20
 2484 0a28 00       		.byte	0
 2485 0a29 1D       		.uleb128 0x1d
 2486 0a2a 33060000 		.long	.LVL81
 2487 0a2e 4C0D0000 		.long	0xd4c
 2488 0a32 480A0000 		.long	0xa48
 2489 0a36 1E       		.uleb128 0x1e
 2490 0a37 02       		.uleb128 0x2
 2491 0a38 74       		.byte	0x74
 2492 0a39 00       		.sleb128 0
 2493 0a3a 05       		.uleb128 0x5
 2494 0a3b 03       		.byte	0x3
 2495 0a3c 00000000 		.long	mb1
 2496 0a40 1E       		.uleb128 0x1e
 2497 0a41 02       		.uleb128 0x2
 2498 0a42 74       		.byte	0x74
 2499 0a43 04       		.sleb128 4
 2500 0a44 02       		.uleb128 0x2
 2501 0a45 08       		.byte	0x8
 2502 0a46 45       		.byte	0x45
 2503 0a47 00       		.byte	0
 2504 0a48 1D       		.uleb128 0x1d
 2505 0a49 4B060000 		.long	.LVL83
 2506 0a4d D40C0000 		.long	0xcd4
 2507 0a51 5D0A0000 		.long	0xa5d
 2508 0a55 1E       		.uleb128 0x1e
 2509 0a56 02       		.uleb128 0x2
 2510 0a57 74       		.byte	0x74
 2511 0a58 00       		.sleb128 0
 2512 0a59 02       		.uleb128 0x2
 2513 0a5a 08       		.byte	0x8
 2514 0a5b 21       		.byte	0x21
 2515 0a5c 00       		.byte	0
 2516 0a5d 1D       		.uleb128 0x1d
 2517 0a5e 67060000 		.long	.LVL84
 2518 0a62 4C0D0000 		.long	0xd4c
 2519 0a66 7C0A0000 		.long	0xa7c
 2520 0a6a 1E       		.uleb128 0x1e
 2521 0a6b 02       		.uleb128 0x2
 2522 0a6c 74       		.byte	0x74
 2523 0a6d 00       		.sleb128 0
 2524 0a6e 05       		.uleb128 0x5
 2525 0a6f 03       		.byte	0x3
 2526 0a70 00000000 		.long	mb1
 2527 0a74 1E       		.uleb128 0x1e
 2528 0a75 02       		.uleb128 0x2
 2529 0a76 74       		.byte	0x74
 2530 0a77 04       		.sleb128 4
 2531 0a78 02       		.uleb128 0x2
 2532 0a79 08       		.byte	0x8
 2533 0a7a 44       		.byte	0x44
 2534 0a7b 00       		.byte	0
 2535 0a7c 1D       		.uleb128 0x1d
 2536 0a7d 7F060000 		.long	.LVL86
 2537 0a81 D40C0000 		.long	0xcd4
 2538 0a85 910A0000 		.long	0xa91
 2539 0a89 1E       		.uleb128 0x1e
GAS LISTING /tmp/ccEKufMP.s 			page 54


 2540 0a8a 02       		.uleb128 0x2
 2541 0a8b 74       		.byte	0x74
 2542 0a8c 00       		.sleb128 0
 2543 0a8d 02       		.uleb128 0x2
 2544 0a8e 08       		.byte	0x8
 2545 0a8f 22       		.byte	0x22
 2546 0a90 00       		.byte	0
 2547 0a91 1D       		.uleb128 0x1d
 2548 0a92 9B060000 		.long	.LVL87
 2549 0a96 4C0D0000 		.long	0xd4c
 2550 0a9a B00A0000 		.long	0xab0
 2551 0a9e 1E       		.uleb128 0x1e
 2552 0a9f 02       		.uleb128 0x2
 2553 0aa0 74       		.byte	0x74
 2554 0aa1 00       		.sleb128 0
 2555 0aa2 05       		.uleb128 0x5
 2556 0aa3 03       		.byte	0x3
 2557 0aa4 00000000 		.long	mb1
 2558 0aa8 1E       		.uleb128 0x1e
 2559 0aa9 02       		.uleb128 0x2
 2560 0aaa 74       		.byte	0x74
 2561 0aab 04       		.sleb128 4
 2562 0aac 02       		.uleb128 0x2
 2563 0aad 08       		.byte	0x8
 2564 0aae 43       		.byte	0x43
 2565 0aaf 00       		.byte	0
 2566 0ab0 1D       		.uleb128 0x1d
 2567 0ab1 B3060000 		.long	.LVL89
 2568 0ab5 D40C0000 		.long	0xcd4
 2569 0ab9 C50A0000 		.long	0xac5
 2570 0abd 1E       		.uleb128 0x1e
 2571 0abe 02       		.uleb128 0x2
 2572 0abf 74       		.byte	0x74
 2573 0ac0 00       		.sleb128 0
 2574 0ac1 02       		.uleb128 0x2
 2575 0ac2 08       		.byte	0x8
 2576 0ac3 23       		.byte	0x23
 2577 0ac4 00       		.byte	0
 2578 0ac5 1D       		.uleb128 0x1d
 2579 0ac6 CF060000 		.long	.LVL90
 2580 0aca 4C0D0000 		.long	0xd4c
 2581 0ace E40A0000 		.long	0xae4
 2582 0ad2 1E       		.uleb128 0x1e
 2583 0ad3 02       		.uleb128 0x2
 2584 0ad4 74       		.byte	0x74
 2585 0ad5 00       		.sleb128 0
 2586 0ad6 05       		.uleb128 0x5
 2587 0ad7 03       		.byte	0x3
 2588 0ad8 00000000 		.long	mb1
 2589 0adc 1E       		.uleb128 0x1e
 2590 0add 02       		.uleb128 0x2
 2591 0ade 74       		.byte	0x74
 2592 0adf 04       		.sleb128 4
 2593 0ae0 02       		.uleb128 0x2
 2594 0ae1 08       		.byte	0x8
 2595 0ae2 42       		.byte	0x42
 2596 0ae3 00       		.byte	0
GAS LISTING /tmp/ccEKufMP.s 			page 55


 2597 0ae4 1D       		.uleb128 0x1d
 2598 0ae5 E7060000 		.long	.LVL92
 2599 0ae9 D40C0000 		.long	0xcd4
 2600 0aed F90A0000 		.long	0xaf9
 2601 0af1 1E       		.uleb128 0x1e
 2602 0af2 02       		.uleb128 0x2
 2603 0af3 74       		.byte	0x74
 2604 0af4 00       		.sleb128 0
 2605 0af5 02       		.uleb128 0x2
 2606 0af6 08       		.byte	0x8
 2607 0af7 24       		.byte	0x24
 2608 0af8 00       		.byte	0
 2609 0af9 1D       		.uleb128 0x1d
 2610 0afa 03070000 		.long	.LVL93
 2611 0afe 4C0D0000 		.long	0xd4c
 2612 0b02 180B0000 		.long	0xb18
 2613 0b06 1E       		.uleb128 0x1e
 2614 0b07 02       		.uleb128 0x2
 2615 0b08 74       		.byte	0x74
 2616 0b09 00       		.sleb128 0
 2617 0b0a 05       		.uleb128 0x5
 2618 0b0b 03       		.byte	0x3
 2619 0b0c 00000000 		.long	mb1
 2620 0b10 1E       		.uleb128 0x1e
 2621 0b11 02       		.uleb128 0x2
 2622 0b12 74       		.byte	0x74
 2623 0b13 04       		.sleb128 4
 2624 0b14 02       		.uleb128 0x2
 2625 0b15 08       		.byte	0x8
 2626 0b16 41       		.byte	0x41
 2627 0b17 00       		.byte	0
 2628 0b18 1D       		.uleb128 0x1d
 2629 0b19 1C070000 		.long	.LVL95
 2630 0b1d D40C0000 		.long	0xcd4
 2631 0b21 2D0B0000 		.long	0xb2d
 2632 0b25 1E       		.uleb128 0x1e
 2633 0b26 02       		.uleb128 0x2
 2634 0b27 74       		.byte	0x74
 2635 0b28 00       		.sleb128 0
 2636 0b29 02       		.uleb128 0x2
 2637 0b2a 08       		.byte	0x8
 2638 0b2b 25       		.byte	0x25
 2639 0b2c 00       		.byte	0
 2640 0b2d 1D       		.uleb128 0x1d
 2641 0b2e 45070000 		.long	.LVL96
 2642 0b32 D40C0000 		.long	0xcd4
 2643 0b36 420B0000 		.long	0xb42
 2644 0b3a 1E       		.uleb128 0x1e
 2645 0b3b 02       		.uleb128 0x2
 2646 0b3c 74       		.byte	0x74
 2647 0b3d 00       		.sleb128 0
 2648 0b3e 02       		.uleb128 0x2
 2649 0b3f 08       		.byte	0x8
 2650 0b40 26       		.byte	0x26
 2651 0b41 00       		.byte	0
 2652 0b42 1D       		.uleb128 0x1d
 2653 0b43 63070000 		.long	.LVL98
GAS LISTING /tmp/ccEKufMP.s 			page 56


 2654 0b47 B60D0000 		.long	0xdb6
 2655 0b4b 610B0000 		.long	0xb61
 2656 0b4f 1E       		.uleb128 0x1e
 2657 0b50 02       		.uleb128 0x2
 2658 0b51 74       		.byte	0x74
 2659 0b52 00       		.sleb128 0
 2660 0b53 05       		.uleb128 0x5
 2661 0b54 03       		.byte	0x3
 2662 0b55 00000000 		.long	mb1
 2663 0b59 1E       		.uleb128 0x1e
 2664 0b5a 02       		.uleb128 0x2
 2665 0b5b 74       		.byte	0x74
 2666 0b5c 04       		.sleb128 4
 2667 0b5d 02       		.uleb128 0x2
 2668 0b5e 73       		.byte	0x73
 2669 0b5f 00       		.sleb128 0
 2670 0b60 00       		.byte	0
 2671 0b61 1D       		.uleb128 0x1d
 2672 0b62 7C070000 		.long	.LVL100
 2673 0b66 D40C0000 		.long	0xcd4
 2674 0b6a 760B0000 		.long	0xb76
 2675 0b6e 1E       		.uleb128 0x1e
 2676 0b6f 02       		.uleb128 0x2
 2677 0b70 74       		.byte	0x74
 2678 0b71 00       		.sleb128 0
 2679 0b72 02       		.uleb128 0x2
 2680 0b73 08       		.byte	0x8
 2681 0b74 27       		.byte	0x27
 2682 0b75 00       		.byte	0
 2683 0b76 1F       		.uleb128 0x1f
 2684 0b77 91070000 		.long	.LVL101
 2685 0b7b 660D0000 		.long	0xd66
 2686 0b7f 1D       		.uleb128 0x1d
 2687 0b80 AA070000 		.long	.LVL103
 2688 0b84 960D0000 		.long	0xd96
 2689 0b88 9E0B0000 		.long	0xb9e
 2690 0b8c 1E       		.uleb128 0x1e
 2691 0b8d 02       		.uleb128 0x2
 2692 0b8e 74       		.byte	0x74
 2693 0b8f 00       		.sleb128 0
 2694 0b90 02       		.uleb128 0x2
 2695 0b91 08       		.byte	0x8
 2696 0b92 28       		.byte	0x28
 2697 0b93 1E       		.uleb128 0x1e
 2698 0b94 02       		.uleb128 0x2
 2699 0b95 74       		.byte	0x74
 2700 0b96 04       		.sleb128 4
 2701 0b97 05       		.uleb128 0x5
 2702 0b98 03       		.byte	0x3
 2703 0b99 00000000 		.long	.LC0
 2704 0b9d 00       		.byte	0
 2705 0b9e 1D       		.uleb128 0x1d
 2706 0b9f CF070000 		.long	.LVL104
 2707 0ba3 D40C0000 		.long	0xcd4
 2708 0ba7 B30B0000 		.long	0xbb3
 2709 0bab 1E       		.uleb128 0x1e
 2710 0bac 02       		.uleb128 0x2
GAS LISTING /tmp/ccEKufMP.s 			page 57


 2711 0bad 74       		.byte	0x74
 2712 0bae 00       		.sleb128 0
 2713 0baf 02       		.uleb128 0x2
 2714 0bb0 08       		.byte	0x8
 2715 0bb1 29       		.byte	0x29
 2716 0bb2 00       		.byte	0
 2717 0bb3 1D       		.uleb128 0x1d
 2718 0bb4 F5070000 		.long	.LVL105
 2719 0bb8 D40C0000 		.long	0xcd4
 2720 0bbc C80B0000 		.long	0xbc8
 2721 0bc0 1E       		.uleb128 0x1e
 2722 0bc1 02       		.uleb128 0x2
 2723 0bc2 74       		.byte	0x74
 2724 0bc3 00       		.sleb128 0
 2725 0bc4 02       		.uleb128 0x2
 2726 0bc5 08       		.byte	0x8
 2727 0bc6 2A       		.byte	0x2a
 2728 0bc7 00       		.byte	0
 2729 0bc8 1D       		.uleb128 0x1d
 2730 0bc9 1F080000 		.long	.LVL106
 2731 0bcd D40C0000 		.long	0xcd4
 2732 0bd1 DD0B0000 		.long	0xbdd
 2733 0bd5 1E       		.uleb128 0x1e
 2734 0bd6 02       		.uleb128 0x2
 2735 0bd7 74       		.byte	0x74
 2736 0bd8 00       		.sleb128 0
 2737 0bd9 02       		.uleb128 0x2
 2738 0bda 08       		.byte	0x8
 2739 0bdb 2B       		.byte	0x2b
 2740 0bdc 00       		.byte	0
 2741 0bdd 1D       		.uleb128 0x1d
 2742 0bde 33080000 		.long	.LVL107
 2743 0be2 D00D0000 		.long	0xdd0
 2744 0be6 F50B0000 		.long	0xbf5
 2745 0bea 1E       		.uleb128 0x1e
 2746 0beb 02       		.uleb128 0x2
 2747 0bec 74       		.byte	0x74
 2748 0bed 00       		.sleb128 0
 2749 0bee 05       		.uleb128 0x5
 2750 0bef 03       		.byte	0x3
 2751 0bf0 00000000 		.long	mb1
 2752 0bf4 00       		.byte	0
 2753 0bf5 1D       		.uleb128 0x1d
 2754 0bf6 50080000 		.long	.LVL108
 2755 0bfa D40C0000 		.long	0xcd4
 2756 0bfe 0A0C0000 		.long	0xc0a
 2757 0c02 1E       		.uleb128 0x1e
 2758 0c03 02       		.uleb128 0x2
 2759 0c04 74       		.byte	0x74
 2760 0c05 00       		.sleb128 0
 2761 0c06 02       		.uleb128 0x2
 2762 0c07 08       		.byte	0x8
 2763 0c08 2C       		.byte	0x2c
 2764 0c09 00       		.byte	0
 2765 0c0a 1D       		.uleb128 0x1d
 2766 0c0b 76080000 		.long	.LVL109
 2767 0c0f D40C0000 		.long	0xcd4
GAS LISTING /tmp/ccEKufMP.s 			page 58


 2768 0c13 1F0C0000 		.long	0xc1f
 2769 0c17 1E       		.uleb128 0x1e
 2770 0c18 02       		.uleb128 0x2
 2771 0c19 74       		.byte	0x74
 2772 0c1a 00       		.sleb128 0
 2773 0c1b 02       		.uleb128 0x2
 2774 0c1c 08       		.byte	0x8
 2775 0c1d 2D       		.byte	0x2d
 2776 0c1e 00       		.byte	0
 2777 0c1f 1D       		.uleb128 0x1d
 2778 0c20 A1080000 		.long	.LVL110
 2779 0c24 D40C0000 		.long	0xcd4
 2780 0c28 340C0000 		.long	0xc34
 2781 0c2c 1E       		.uleb128 0x1e
 2782 0c2d 02       		.uleb128 0x2
 2783 0c2e 74       		.byte	0x74
 2784 0c2f 00       		.sleb128 0
 2785 0c30 02       		.uleb128 0x2
 2786 0c31 08       		.byte	0x8
 2787 0c32 2E       		.byte	0x2e
 2788 0c33 00       		.byte	0
 2789 0c34 20       		.uleb128 0x20
 2790 0c35 CC080000 		.long	.LVL111
 2791 0c39 D40C0000 		.long	0xcd4
 2792 0c3d 1E       		.uleb128 0x1e
 2793 0c3e 02       		.uleb128 0x2
 2794 0c3f 74       		.byte	0x74
 2795 0c40 00       		.sleb128 0
 2796 0c41 02       		.uleb128 0x2
 2797 0c42 08       		.byte	0x8
 2798 0c43 2F       		.byte	0x2f
 2799 0c44 00       		.byte	0
 2800 0c45 00       		.byte	0
 2801 0c46 19       		.uleb128 0x19
 2802 0c47 B2010000 		.long	.LASF77
 2803 0c4b 01       		.byte	0x1
 2804 0c4c 47       		.byte	0x47
 2805 0c4d E0080000 		.long	.LFB7
 2806 0c51 23000000 		.long	.LFE7-.LFB7
 2807 0c55 01       		.uleb128 0x1
 2808 0c56 9C       		.byte	0x9c
 2809 0c57 760C0000 		.long	0xc76
 2810 0c5b 20       		.uleb128 0x20
 2811 0c5c FF080000 		.long	.LVL112
 2812 0c60 E10D0000 		.long	0xde1
 2813 0c64 1E       		.uleb128 0x1e
 2814 0c65 02       		.uleb128 0x2
 2815 0c66 74       		.byte	0x74
 2816 0c67 00       		.sleb128 0
 2817 0c68 05       		.uleb128 0x5
 2818 0c69 03       		.byte	0x3
 2819 0c6a 00000000 		.long	mb1
 2820 0c6e 1E       		.uleb128 0x1e
 2821 0c6f 02       		.uleb128 0x2
 2822 0c70 74       		.byte	0x74
 2823 0c71 08       		.sleb128 8
 2824 0c72 01       		.uleb128 0x1
GAS LISTING /tmp/ccEKufMP.s 			page 59


 2825 0c73 35       		.byte	0x35
 2826 0c74 00       		.byte	0
 2827 0c75 00       		.byte	0
 2828 0c76 21       		.uleb128 0x21
 2829 0c77 6D623100 		.string	"mb1"
 2830 0c7b 01       		.byte	0x1
 2831 0c7c 3C       		.byte	0x3c
 2832 0c7d D1030000 		.long	0x3d1
 2833 0c81 05       		.uleb128 0x5
 2834 0c82 03       		.byte	0x3
 2835 0c83 00000000 		.long	mb1
 2836 0c87 22       		.uleb128 0x22
 2837 0c88 61000000 		.long	.LASF78
 2838 0c8c 0A       		.byte	0xa
 2839 0c8d A6       		.byte	0xa6
 2840 0c8e C7040000 		.long	0x4c7
 2841 0c92 23       		.uleb128 0x23
 2842 0c93 DC010000 		.long	.LASF79
 2843 0c97 01       		.byte	0x1
 2844 0c98 DE       		.byte	0xde
 2845 0c99 A30C0000 		.long	0xca3
 2846 0c9d 05       		.uleb128 0x5
 2847 0c9e 03       		.byte	0x3
 2848 0c9f 00000000 		.long	testmbox1
 2849 0ca3 10       		.uleb128 0x10
 2850 0ca4 29040000 		.long	0x429
 2851 0ca8 0A       		.uleb128 0xa
 2852 0ca9 B80C0000 		.long	0xcb8
 2853 0cad B80C0000 		.long	0xcb8
 2854 0cb1 0B       		.uleb128 0xb
 2855 0cb2 77020000 		.long	0x277
 2856 0cb6 01       		.byte	0x1
 2857 0cb7 00       		.byte	0
 2858 0cb8 09       		.uleb128 0x9
 2859 0cb9 04       		.byte	0x4
 2860 0cba A30C0000 		.long	0xca3
 2861 0cbe 23       		.uleb128 0x23
 2862 0cbf 4C000000 		.long	.LASF80
 2863 0cc3 01       		.byte	0x1
 2864 0cc4 EA       		.byte	0xea
 2865 0cc5 CF0C0000 		.long	0xccf
 2866 0cc9 05       		.uleb128 0x5
 2867 0cca 03       		.byte	0x3
 2868 0ccb 00000000 		.long	patternmbox
 2869 0ccf 10       		.uleb128 0x10
 2870 0cd0 A80C0000 		.long	0xca8
 2871 0cd4 24       		.uleb128 0x24
 2872 0cd5 DB030000 		.long	.LASF81
 2873 0cd9 0A       		.byte	0xa
 2874 0cda 58       		.byte	0x58
 2875 0cdb 85000000 		.long	0x85
 2876 0cdf EE0C0000 		.long	0xcee
 2877 0ce3 25       		.uleb128 0x25
 2878 0ce4 2C000000 		.long	0x2c
 2879 0ce8 25       		.uleb128 0x25
 2880 0ce9 85000000 		.long	0x85
 2881 0ced 00       		.byte	0
GAS LISTING /tmp/ccEKufMP.s 			page 60


 2882 0cee 24       		.uleb128 0x24
 2883 0cef 02010000 		.long	.LASF82
 2884 0cf3 09       		.byte	0x9
 2885 0cf4 45       		.byte	0x45
 2886 0cf5 CE000000 		.long	0xce
 2887 0cf9 0D0D0000 		.long	0xd0d
 2888 0cfd 25       		.uleb128 0x25
 2889 0cfe 0D0D0000 		.long	0xd0d
 2890 0d02 25       		.uleb128 0x25
 2891 0d03 CE000000 		.long	0xce
 2892 0d07 25       		.uleb128 0x25
 2893 0d08 E4000000 		.long	0xe4
 2894 0d0c 00       		.byte	0
 2895 0d0d 09       		.uleb128 0x9
 2896 0d0e 04       		.byte	0x4
 2897 0d0f D1030000 		.long	0x3d1
 2898 0d13 24       		.uleb128 0x24
 2899 0d14 7D030000 		.long	.LASF83
 2900 0d18 09       		.byte	0x9
 2901 0d19 48       		.byte	0x48
 2902 0d1a CE000000 		.long	0xce
 2903 0d1e 320D0000 		.long	0xd32
 2904 0d22 25       		.uleb128 0x25
 2905 0d23 0D0D0000 		.long	0xd0d
 2906 0d27 25       		.uleb128 0x25
 2907 0d28 CE000000 		.long	0xce
 2908 0d2c 25       		.uleb128 0x25
 2909 0d2d E4000000 		.long	0xe4
 2910 0d31 00       		.byte	0
 2911 0d32 24       		.uleb128 0x24
 2912 0d33 14000000 		.long	.LASF84
 2913 0d37 09       		.byte	0x9
 2914 0d38 47       		.byte	0x47
 2915 0d39 CE000000 		.long	0xce
 2916 0d3d 4C0D0000 		.long	0xd4c
 2917 0d41 25       		.uleb128 0x25
 2918 0d42 0D0D0000 		.long	0xd0d
 2919 0d46 25       		.uleb128 0x25
 2920 0d47 CE000000 		.long	0xce
 2921 0d4b 00       		.byte	0
 2922 0d4c 24       		.uleb128 0x24
 2923 0d4d 26000000 		.long	.LASF85
 2924 0d51 09       		.byte	0x9
 2925 0d52 4A       		.byte	0x4a
 2926 0d53 CE000000 		.long	0xce
 2927 0d57 660D0000 		.long	0xd66
 2928 0d5b 25       		.uleb128 0x25
 2929 0d5c 0D0D0000 		.long	0xd0d
 2930 0d60 25       		.uleb128 0x25
 2931 0d61 CE000000 		.long	0xce
 2932 0d65 00       		.byte	0
 2933 0d66 26       		.uleb128 0x26
 2934 0d67 E8000000 		.long	.LASF89
 2935 0d6b 0A       		.byte	0xa
 2936 0d6c 56       		.byte	0x56
 2937 0d6d 770D0000 		.long	0xd77
 2938 0d71 25       		.uleb128 0x25
GAS LISTING /tmp/ccEKufMP.s 			page 61


 2939 0d72 1C040000 		.long	0x41c
 2940 0d76 00       		.byte	0
 2941 0d77 24       		.uleb128 0x24
 2942 0d78 92030000 		.long	.LASF86
 2943 0d7c 09       		.byte	0x9
 2944 0d7d 4B       		.byte	0x4b
 2945 0d7e CE000000 		.long	0xce
 2946 0d82 960D0000 		.long	0xd96
 2947 0d86 25       		.uleb128 0x25
 2948 0d87 0D0D0000 		.long	0xd0d
 2949 0d8b 25       		.uleb128 0x25
 2950 0d8c CB030000 		.long	0x3cb
 2951 0d90 25       		.uleb128 0x25
 2952 0d91 E4000000 		.long	0xe4
 2953 0d95 00       		.byte	0
 2954 0d96 24       		.uleb128 0x24
 2955 0d97 28020000 		.long	.LASF87
 2956 0d9b 0A       		.byte	0xa
 2957 0d9c 59       		.byte	0x59
 2958 0d9d 85000000 		.long	0x85
 2959 0da1 B00D0000 		.long	0xdb0
 2960 0da5 25       		.uleb128 0x25
 2961 0da6 2C000000 		.long	0x2c
 2962 0daa 25       		.uleb128 0x25
 2963 0dab B00D0000 		.long	0xdb0
 2964 0daf 00       		.byte	0
 2965 0db0 09       		.uleb128 0x9
 2966 0db1 04       		.byte	0x4
 2967 0db2 1C040000 		.long	0x41c
 2968 0db6 24       		.uleb128 0x24
 2969 0db7 99010000 		.long	.LASF88
 2970 0dbb 09       		.byte	0x9
 2971 0dbc 4D       		.byte	0x4d
 2972 0dbd CE000000 		.long	0xce
 2973 0dc1 D00D0000 		.long	0xdd0
 2974 0dc5 25       		.uleb128 0x25
 2975 0dc6 0D0D0000 		.long	0xd0d
 2976 0dca 25       		.uleb128 0x25
 2977 0dcb CB030000 		.long	0x3cb
 2978 0dcf 00       		.byte	0
 2979 0dd0 26       		.uleb128 0x26
 2980 0dd1 03020000 		.long	.LASF90
 2981 0dd5 09       		.byte	0x9
 2982 0dd6 44       		.byte	0x44
 2983 0dd7 E10D0000 		.long	0xde1
 2984 0ddb 25       		.uleb128 0x25
 2985 0ddc 0D0D0000 		.long	0xd0d
 2986 0de0 00       		.byte	0
 2987 0de1 27       		.uleb128 0x27
 2988 0de2 40010000 		.long	.LASF95
 2989 0de6 09       		.byte	0x9
 2990 0de7 43       		.byte	0x43
 2991 0de8 25       		.uleb128 0x25
 2992 0de9 0D0D0000 		.long	0xd0d
 2993 0ded 25       		.uleb128 0x25
 2994 0dee CB030000 		.long	0x3cb
 2995 0df2 25       		.uleb128 0x25
GAS LISTING /tmp/ccEKufMP.s 			page 62


 2996 0df3 EF000000 		.long	0xef
 2997 0df7 00       		.byte	0
 2998 0df8 00       		.byte	0
 2999              		.section	.debug_abbrev,"",@progbits
 3000              	.Ldebug_abbrev0:
 3001 0000 01       		.uleb128 0x1
 3002 0001 11       		.uleb128 0x11
 3003 0002 01       		.byte	0x1
 3004 0003 25       		.uleb128 0x25
 3005 0004 0E       		.uleb128 0xe
 3006 0005 13       		.uleb128 0x13
 3007 0006 0B       		.uleb128 0xb
 3008 0007 03       		.uleb128 0x3
 3009 0008 0E       		.uleb128 0xe
 3010 0009 1B       		.uleb128 0x1b
 3011 000a 0E       		.uleb128 0xe
 3012 000b 11       		.uleb128 0x11
 3013 000c 01       		.uleb128 0x1
 3014 000d 12       		.uleb128 0x12
 3015 000e 06       		.uleb128 0x6
 3016 000f 10       		.uleb128 0x10
 3017 0010 17       		.uleb128 0x17
 3018 0011 00       		.byte	0
 3019 0012 00       		.byte	0
 3020 0013 02       		.uleb128 0x2
 3021 0014 24       		.uleb128 0x24
 3022 0015 00       		.byte	0
 3023 0016 0B       		.uleb128 0xb
 3024 0017 0B       		.uleb128 0xb
 3025 0018 3E       		.uleb128 0x3e
 3026 0019 0B       		.uleb128 0xb
 3027 001a 03       		.uleb128 0x3
 3028 001b 08       		.uleb128 0x8
 3029 001c 00       		.byte	0
 3030 001d 00       		.byte	0
 3031 001e 03       		.uleb128 0x3
 3032 001f 24       		.uleb128 0x24
 3033 0020 00       		.byte	0
 3034 0021 0B       		.uleb128 0xb
 3035 0022 0B       		.uleb128 0xb
 3036 0023 3E       		.uleb128 0x3e
 3037 0024 0B       		.uleb128 0xb
 3038 0025 03       		.uleb128 0x3
 3039 0026 0E       		.uleb128 0xe
 3040 0027 00       		.byte	0
 3041 0028 00       		.byte	0
 3042 0029 04       		.uleb128 0x4
 3043 002a 16       		.uleb128 0x16
 3044 002b 00       		.byte	0
 3045 002c 03       		.uleb128 0x3
 3046 002d 0E       		.uleb128 0xe
 3047 002e 3A       		.uleb128 0x3a
 3048 002f 0B       		.uleb128 0xb
 3049 0030 3B       		.uleb128 0x3b
 3050 0031 0B       		.uleb128 0xb
 3051 0032 49       		.uleb128 0x49
 3052 0033 13       		.uleb128 0x13
GAS LISTING /tmp/ccEKufMP.s 			page 63


 3053 0034 00       		.byte	0
 3054 0035 00       		.byte	0
 3055 0036 05       		.uleb128 0x5
 3056 0037 13       		.uleb128 0x13
 3057 0038 01       		.byte	0x1
 3058 0039 03       		.uleb128 0x3
 3059 003a 0E       		.uleb128 0xe
 3060 003b 0B       		.uleb128 0xb
 3061 003c 0B       		.uleb128 0xb
 3062 003d 3A       		.uleb128 0x3a
 3063 003e 0B       		.uleb128 0xb
 3064 003f 3B       		.uleb128 0x3b
 3065 0040 0B       		.uleb128 0xb
 3066 0041 01       		.uleb128 0x1
 3067 0042 13       		.uleb128 0x13
 3068 0043 00       		.byte	0
 3069 0044 00       		.byte	0
 3070 0045 06       		.uleb128 0x6
 3071 0046 0D       		.uleb128 0xd
 3072 0047 00       		.byte	0
 3073 0048 03       		.uleb128 0x3
 3074 0049 0E       		.uleb128 0xe
 3075 004a 3A       		.uleb128 0x3a
 3076 004b 0B       		.uleb128 0xb
 3077 004c 3B       		.uleb128 0x3b
 3078 004d 0B       		.uleb128 0xb
 3079 004e 49       		.uleb128 0x49
 3080 004f 13       		.uleb128 0x13
 3081 0050 38       		.uleb128 0x38
 3082 0051 0B       		.uleb128 0xb
 3083 0052 00       		.byte	0
 3084 0053 00       		.byte	0
 3085 0054 07       		.uleb128 0x7
 3086 0055 0D       		.uleb128 0xd
 3087 0056 00       		.byte	0
 3088 0057 03       		.uleb128 0x3
 3089 0058 08       		.uleb128 0x8
 3090 0059 3A       		.uleb128 0x3a
 3091 005a 0B       		.uleb128 0xb
 3092 005b 3B       		.uleb128 0x3b
 3093 005c 0B       		.uleb128 0xb
 3094 005d 49       		.uleb128 0x49
 3095 005e 13       		.uleb128 0x13
 3096 005f 38       		.uleb128 0x38
 3097 0060 0B       		.uleb128 0xb
 3098 0061 00       		.byte	0
 3099 0062 00       		.byte	0
 3100 0063 08       		.uleb128 0x8
 3101 0064 13       		.uleb128 0x13
 3102 0065 01       		.byte	0x1
 3103 0066 0B       		.uleb128 0xb
 3104 0067 0B       		.uleb128 0xb
 3105 0068 3A       		.uleb128 0x3a
 3106 0069 0B       		.uleb128 0xb
 3107 006a 3B       		.uleb128 0x3b
 3108 006b 0B       		.uleb128 0xb
 3109 006c 01       		.uleb128 0x1
GAS LISTING /tmp/ccEKufMP.s 			page 64


 3110 006d 13       		.uleb128 0x13
 3111 006e 00       		.byte	0
 3112 006f 00       		.byte	0
 3113 0070 09       		.uleb128 0x9
 3114 0071 0F       		.uleb128 0xf
 3115 0072 00       		.byte	0
 3116 0073 0B       		.uleb128 0xb
 3117 0074 0B       		.uleb128 0xb
 3118 0075 49       		.uleb128 0x49
 3119 0076 13       		.uleb128 0x13
 3120 0077 00       		.byte	0
 3121 0078 00       		.byte	0
 3122 0079 0A       		.uleb128 0xa
 3123 007a 01       		.uleb128 0x1
 3124 007b 01       		.byte	0x1
 3125 007c 49       		.uleb128 0x49
 3126 007d 13       		.uleb128 0x13
 3127 007e 01       		.uleb128 0x1
 3128 007f 13       		.uleb128 0x13
 3129 0080 00       		.byte	0
 3130 0081 00       		.byte	0
 3131 0082 0B       		.uleb128 0xb
 3132 0083 21       		.uleb128 0x21
 3133 0084 00       		.byte	0
 3134 0085 49       		.uleb128 0x49
 3135 0086 13       		.uleb128 0x13
 3136 0087 2F       		.uleb128 0x2f
 3137 0088 0B       		.uleb128 0xb
 3138 0089 00       		.byte	0
 3139 008a 00       		.byte	0
 3140 008b 0C       		.uleb128 0xc
 3141 008c 0F       		.uleb128 0xf
 3142 008d 00       		.byte	0
 3143 008e 0B       		.uleb128 0xb
 3144 008f 0B       		.uleb128 0xb
 3145 0090 00       		.byte	0
 3146 0091 00       		.byte	0
 3147 0092 0D       		.uleb128 0xd
 3148 0093 35       		.uleb128 0x35
 3149 0094 00       		.byte	0
 3150 0095 49       		.uleb128 0x49
 3151 0096 13       		.uleb128 0x13
 3152 0097 00       		.byte	0
 3153 0098 00       		.byte	0
 3154 0099 0E       		.uleb128 0xe
 3155 009a 17       		.uleb128 0x17
 3156 009b 01       		.byte	0x1
 3157 009c 0B       		.uleb128 0xb
 3158 009d 0B       		.uleb128 0xb
 3159 009e 3A       		.uleb128 0x3a
 3160 009f 0B       		.uleb128 0xb
 3161 00a0 3B       		.uleb128 0x3b
 3162 00a1 0B       		.uleb128 0xb
 3163 00a2 01       		.uleb128 0x1
 3164 00a3 13       		.uleb128 0x13
 3165 00a4 00       		.byte	0
 3166 00a5 00       		.byte	0
GAS LISTING /tmp/ccEKufMP.s 			page 65


 3167 00a6 0F       		.uleb128 0xf
 3168 00a7 0D       		.uleb128 0xd
 3169 00a8 00       		.byte	0
 3170 00a9 03       		.uleb128 0x3
 3171 00aa 0E       		.uleb128 0xe
 3172 00ab 3A       		.uleb128 0x3a
 3173 00ac 0B       		.uleb128 0xb
 3174 00ad 3B       		.uleb128 0x3b
 3175 00ae 0B       		.uleb128 0xb
 3176 00af 49       		.uleb128 0x49
 3177 00b0 13       		.uleb128 0x13
 3178 00b1 00       		.byte	0
 3179 00b2 00       		.byte	0
 3180 00b3 10       		.uleb128 0x10
 3181 00b4 26       		.uleb128 0x26
 3182 00b5 00       		.byte	0
 3183 00b6 49       		.uleb128 0x49
 3184 00b7 13       		.uleb128 0x13
 3185 00b8 00       		.byte	0
 3186 00b9 00       		.byte	0
 3187 00ba 11       		.uleb128 0x11
 3188 00bb 15       		.uleb128 0x15
 3189 00bc 00       		.byte	0
 3190 00bd 27       		.uleb128 0x27
 3191 00be 19       		.uleb128 0x19
 3192 00bf 00       		.byte	0
 3193 00c0 00       		.byte	0
 3194 00c1 12       		.uleb128 0x12
 3195 00c2 13       		.uleb128 0x13
 3196 00c3 01       		.byte	0x1
 3197 00c4 0B       		.uleb128 0xb
 3198 00c5 06       		.uleb128 0x6
 3199 00c6 3A       		.uleb128 0x3a
 3200 00c7 0B       		.uleb128 0xb
 3201 00c8 3B       		.uleb128 0x3b
 3202 00c9 0B       		.uleb128 0xb
 3203 00ca 01       		.uleb128 0x1
 3204 00cb 13       		.uleb128 0x13
 3205 00cc 00       		.byte	0
 3206 00cd 00       		.byte	0
 3207 00ce 13       		.uleb128 0x13
 3208 00cf 0D       		.uleb128 0xd
 3209 00d0 00       		.byte	0
 3210 00d1 03       		.uleb128 0x3
 3211 00d2 08       		.uleb128 0x8
 3212 00d3 3A       		.uleb128 0x3a
 3213 00d4 0B       		.uleb128 0xb
 3214 00d5 3B       		.uleb128 0x3b
 3215 00d6 0B       		.uleb128 0xb
 3216 00d7 49       		.uleb128 0x49
 3217 00d8 13       		.uleb128 0x13
 3218 00d9 38       		.uleb128 0x38
 3219 00da 05       		.uleb128 0x5
 3220 00db 00       		.byte	0
 3221 00dc 00       		.byte	0
 3222 00dd 14       		.uleb128 0x14
 3223 00de 0D       		.uleb128 0xd
GAS LISTING /tmp/ccEKufMP.s 			page 66


 3224 00df 00       		.byte	0
 3225 00e0 03       		.uleb128 0x3
 3226 00e1 08       		.uleb128 0x8
 3227 00e2 3A       		.uleb128 0x3a
 3228 00e3 0B       		.uleb128 0xb
 3229 00e4 3B       		.uleb128 0x3b
 3230 00e5 0B       		.uleb128 0xb
 3231 00e6 49       		.uleb128 0x49
 3232 00e7 13       		.uleb128 0x13
 3233 00e8 38       		.uleb128 0x38
 3234 00e9 06       		.uleb128 0x6
 3235 00ea 00       		.byte	0
 3236 00eb 00       		.byte	0
 3237 00ec 15       		.uleb128 0x15
 3238 00ed 21       		.uleb128 0x21
 3239 00ee 00       		.byte	0
 3240 00ef 49       		.uleb128 0x49
 3241 00f0 13       		.uleb128 0x13
 3242 00f1 2F       		.uleb128 0x2f
 3243 00f2 05       		.uleb128 0x5
 3244 00f3 00       		.byte	0
 3245 00f4 00       		.byte	0
 3246 00f5 16       		.uleb128 0x16
 3247 00f6 17       		.uleb128 0x17
 3248 00f7 01       		.byte	0x1
 3249 00f8 03       		.uleb128 0x3
 3250 00f9 0E       		.uleb128 0xe
 3251 00fa 0B       		.uleb128 0xb
 3252 00fb 06       		.uleb128 0x6
 3253 00fc 3A       		.uleb128 0x3a
 3254 00fd 0B       		.uleb128 0xb
 3255 00fe 3B       		.uleb128 0x3b
 3256 00ff 0B       		.uleb128 0xb
 3257 0100 01       		.uleb128 0x1
 3258 0101 13       		.uleb128 0x13
 3259 0102 00       		.byte	0
 3260 0103 00       		.byte	0
 3261 0104 17       		.uleb128 0x17
 3262 0105 0D       		.uleb128 0xd
 3263 0106 00       		.byte	0
 3264 0107 03       		.uleb128 0x3
 3265 0108 08       		.uleb128 0x8
 3266 0109 3A       		.uleb128 0x3a
 3267 010a 0B       		.uleb128 0xb
 3268 010b 3B       		.uleb128 0x3b
 3269 010c 0B       		.uleb128 0xb
 3270 010d 49       		.uleb128 0x49
 3271 010e 13       		.uleb128 0x13
 3272 010f 00       		.byte	0
 3273 0110 00       		.byte	0
 3274 0111 18       		.uleb128 0x18
 3275 0112 21       		.uleb128 0x21
 3276 0113 00       		.byte	0
 3277 0114 49       		.uleb128 0x49
 3278 0115 13       		.uleb128 0x13
 3279 0116 2F       		.uleb128 0x2f
 3280 0117 06       		.uleb128 0x6
GAS LISTING /tmp/ccEKufMP.s 			page 67


 3281 0118 00       		.byte	0
 3282 0119 00       		.byte	0
 3283 011a 19       		.uleb128 0x19
 3284 011b 2E       		.uleb128 0x2e
 3285 011c 01       		.byte	0x1
 3286 011d 03       		.uleb128 0x3
 3287 011e 0E       		.uleb128 0xe
 3288 011f 3A       		.uleb128 0x3a
 3289 0120 0B       		.uleb128 0xb
 3290 0121 3B       		.uleb128 0x3b
 3291 0122 0B       		.uleb128 0xb
 3292 0123 27       		.uleb128 0x27
 3293 0124 19       		.uleb128 0x19
 3294 0125 11       		.uleb128 0x11
 3295 0126 01       		.uleb128 0x1
 3296 0127 12       		.uleb128 0x12
 3297 0128 06       		.uleb128 0x6
 3298 0129 40       		.uleb128 0x40
 3299 012a 18       		.uleb128 0x18
 3300 012b 9742     		.uleb128 0x2117
 3301 012d 19       		.uleb128 0x19
 3302 012e 01       		.uleb128 0x1
 3303 012f 13       		.uleb128 0x13
 3304 0130 00       		.byte	0
 3305 0131 00       		.byte	0
 3306 0132 1A       		.uleb128 0x1a
 3307 0133 34       		.uleb128 0x34
 3308 0134 00       		.byte	0
 3309 0135 03       		.uleb128 0x3
 3310 0136 0E       		.uleb128 0xe
 3311 0137 3A       		.uleb128 0x3a
 3312 0138 0B       		.uleb128 0xb
 3313 0139 3B       		.uleb128 0x3b
 3314 013a 0B       		.uleb128 0xb
 3315 013b 49       		.uleb128 0x49
 3316 013c 13       		.uleb128 0x13
 3317 013d 02       		.uleb128 0x2
 3318 013e 17       		.uleb128 0x17
 3319 013f 00       		.byte	0
 3320 0140 00       		.byte	0
 3321 0141 1B       		.uleb128 0x1b
 3322 0142 34       		.uleb128 0x34
 3323 0143 00       		.byte	0
 3324 0144 03       		.uleb128 0x3
 3325 0145 0E       		.uleb128 0xe
 3326 0146 3A       		.uleb128 0x3a
 3327 0147 0B       		.uleb128 0xb
 3328 0148 3B       		.uleb128 0x3b
 3329 0149 0B       		.uleb128 0xb
 3330 014a 49       		.uleb128 0x49
 3331 014b 13       		.uleb128 0x13
 3332 014c 02       		.uleb128 0x2
 3333 014d 18       		.uleb128 0x18
 3334 014e 00       		.byte	0
 3335 014f 00       		.byte	0
 3336 0150 1C       		.uleb128 0x1c
 3337 0151 34       		.uleb128 0x34
GAS LISTING /tmp/ccEKufMP.s 			page 68


 3338 0152 00       		.byte	0
 3339 0153 03       		.uleb128 0x3
 3340 0154 08       		.uleb128 0x8
 3341 0155 3A       		.uleb128 0x3a
 3342 0156 0B       		.uleb128 0xb
 3343 0157 3B       		.uleb128 0x3b
 3344 0158 0B       		.uleb128 0xb
 3345 0159 49       		.uleb128 0x49
 3346 015a 13       		.uleb128 0x13
 3347 015b 02       		.uleb128 0x2
 3348 015c 17       		.uleb128 0x17
 3349 015d 00       		.byte	0
 3350 015e 00       		.byte	0
 3351 015f 1D       		.uleb128 0x1d
 3352 0160 898201   		.uleb128 0x4109
 3353 0163 01       		.byte	0x1
 3354 0164 11       		.uleb128 0x11
 3355 0165 01       		.uleb128 0x1
 3356 0166 31       		.uleb128 0x31
 3357 0167 13       		.uleb128 0x13
 3358 0168 01       		.uleb128 0x1
 3359 0169 13       		.uleb128 0x13
 3360 016a 00       		.byte	0
 3361 016b 00       		.byte	0
 3362 016c 1E       		.uleb128 0x1e
 3363 016d 8A8201   		.uleb128 0x410a
 3364 0170 00       		.byte	0
 3365 0171 02       		.uleb128 0x2
 3366 0172 18       		.uleb128 0x18
 3367 0173 9142     		.uleb128 0x2111
 3368 0175 18       		.uleb128 0x18
 3369 0176 00       		.byte	0
 3370 0177 00       		.byte	0
 3371 0178 1F       		.uleb128 0x1f
 3372 0179 898201   		.uleb128 0x4109
 3373 017c 00       		.byte	0
 3374 017d 11       		.uleb128 0x11
 3375 017e 01       		.uleb128 0x1
 3376 017f 31       		.uleb128 0x31
 3377 0180 13       		.uleb128 0x13
 3378 0181 00       		.byte	0
 3379 0182 00       		.byte	0
 3380 0183 20       		.uleb128 0x20
 3381 0184 898201   		.uleb128 0x4109
 3382 0187 01       		.byte	0x1
 3383 0188 11       		.uleb128 0x11
 3384 0189 01       		.uleb128 0x1
 3385 018a 31       		.uleb128 0x31
 3386 018b 13       		.uleb128 0x13
 3387 018c 00       		.byte	0
 3388 018d 00       		.byte	0
 3389 018e 21       		.uleb128 0x21
 3390 018f 34       		.uleb128 0x34
 3391 0190 00       		.byte	0
 3392 0191 03       		.uleb128 0x3
 3393 0192 08       		.uleb128 0x8
 3394 0193 3A       		.uleb128 0x3a
GAS LISTING /tmp/ccEKufMP.s 			page 69


 3395 0194 0B       		.uleb128 0xb
 3396 0195 3B       		.uleb128 0x3b
 3397 0196 0B       		.uleb128 0xb
 3398 0197 49       		.uleb128 0x49
 3399 0198 13       		.uleb128 0x13
 3400 0199 02       		.uleb128 0x2
 3401 019a 18       		.uleb128 0x18
 3402 019b 00       		.byte	0
 3403 019c 00       		.byte	0
 3404 019d 22       		.uleb128 0x22
 3405 019e 34       		.uleb128 0x34
 3406 019f 00       		.byte	0
 3407 01a0 03       		.uleb128 0x3
 3408 01a1 0E       		.uleb128 0xe
 3409 01a2 3A       		.uleb128 0x3a
 3410 01a3 0B       		.uleb128 0xb
 3411 01a4 3B       		.uleb128 0x3b
 3412 01a5 0B       		.uleb128 0xb
 3413 01a6 49       		.uleb128 0x49
 3414 01a7 13       		.uleb128 0x13
 3415 01a8 3F       		.uleb128 0x3f
 3416 01a9 19       		.uleb128 0x19
 3417 01aa 3C       		.uleb128 0x3c
 3418 01ab 19       		.uleb128 0x19
 3419 01ac 00       		.byte	0
 3420 01ad 00       		.byte	0
 3421 01ae 23       		.uleb128 0x23
 3422 01af 34       		.uleb128 0x34
 3423 01b0 00       		.byte	0
 3424 01b1 03       		.uleb128 0x3
 3425 01b2 0E       		.uleb128 0xe
 3426 01b3 3A       		.uleb128 0x3a
 3427 01b4 0B       		.uleb128 0xb
 3428 01b5 3B       		.uleb128 0x3b
 3429 01b6 0B       		.uleb128 0xb
 3430 01b7 49       		.uleb128 0x49
 3431 01b8 13       		.uleb128 0x13
 3432 01b9 3F       		.uleb128 0x3f
 3433 01ba 19       		.uleb128 0x19
 3434 01bb 02       		.uleb128 0x2
 3435 01bc 18       		.uleb128 0x18
 3436 01bd 00       		.byte	0
 3437 01be 00       		.byte	0
 3438 01bf 24       		.uleb128 0x24
 3439 01c0 2E       		.uleb128 0x2e
 3440 01c1 01       		.byte	0x1
 3441 01c2 3F       		.uleb128 0x3f
 3442 01c3 19       		.uleb128 0x19
 3443 01c4 03       		.uleb128 0x3
 3444 01c5 0E       		.uleb128 0xe
 3445 01c6 3A       		.uleb128 0x3a
 3446 01c7 0B       		.uleb128 0xb
 3447 01c8 3B       		.uleb128 0x3b
 3448 01c9 0B       		.uleb128 0xb
 3449 01ca 27       		.uleb128 0x27
 3450 01cb 19       		.uleb128 0x19
 3451 01cc 49       		.uleb128 0x49
GAS LISTING /tmp/ccEKufMP.s 			page 70


 3452 01cd 13       		.uleb128 0x13
 3453 01ce 3C       		.uleb128 0x3c
 3454 01cf 19       		.uleb128 0x19
 3455 01d0 01       		.uleb128 0x1
 3456 01d1 13       		.uleb128 0x13
 3457 01d2 00       		.byte	0
 3458 01d3 00       		.byte	0
 3459 01d4 25       		.uleb128 0x25
 3460 01d5 05       		.uleb128 0x5
 3461 01d6 00       		.byte	0
 3462 01d7 49       		.uleb128 0x49
 3463 01d8 13       		.uleb128 0x13
 3464 01d9 00       		.byte	0
 3465 01da 00       		.byte	0
 3466 01db 26       		.uleb128 0x26
 3467 01dc 2E       		.uleb128 0x2e
 3468 01dd 01       		.byte	0x1
 3469 01de 3F       		.uleb128 0x3f
 3470 01df 19       		.uleb128 0x19
 3471 01e0 03       		.uleb128 0x3
 3472 01e1 0E       		.uleb128 0xe
 3473 01e2 3A       		.uleb128 0x3a
 3474 01e3 0B       		.uleb128 0xb
 3475 01e4 3B       		.uleb128 0x3b
 3476 01e5 0B       		.uleb128 0xb
 3477 01e6 27       		.uleb128 0x27
 3478 01e7 19       		.uleb128 0x19
 3479 01e8 3C       		.uleb128 0x3c
 3480 01e9 19       		.uleb128 0x19
 3481 01ea 01       		.uleb128 0x1
 3482 01eb 13       		.uleb128 0x13
 3483 01ec 00       		.byte	0
 3484 01ed 00       		.byte	0
 3485 01ee 27       		.uleb128 0x27
 3486 01ef 2E       		.uleb128 0x2e
 3487 01f0 01       		.byte	0x1
 3488 01f1 3F       		.uleb128 0x3f
 3489 01f2 19       		.uleb128 0x19
 3490 01f3 03       		.uleb128 0x3
 3491 01f4 0E       		.uleb128 0xe
 3492 01f5 3A       		.uleb128 0x3a
 3493 01f6 0B       		.uleb128 0xb
 3494 01f7 3B       		.uleb128 0x3b
 3495 01f8 0B       		.uleb128 0xb
 3496 01f9 27       		.uleb128 0x27
 3497 01fa 19       		.uleb128 0x19
 3498 01fb 3C       		.uleb128 0x3c
 3499 01fc 19       		.uleb128 0x19
 3500 01fd 00       		.byte	0
 3501 01fe 00       		.byte	0
 3502 01ff 00       		.byte	0
 3503              		.section	.debug_loc,"",@progbits
 3504              	.Ldebug_loc0:
 3505              	.LLST0:
 3506 0000 42000000 		.long	.LVL2-.Ltext0
 3507 0004 4E000000 		.long	.LVL3-.Ltext0
 3508 0008 0100     		.value	0x1
GAS LISTING /tmp/ccEKufMP.s 			page 71


 3509 000a 50       		.byte	0x50
 3510 000b 82000000 		.long	.LVL7-.Ltext0
 3511 000f 8E000000 		.long	.LVL8-.Ltext0
 3512 0013 0100     		.value	0x1
 3513 0015 50       		.byte	0x50
 3514 0016 C4000000 		.long	.LVL12-.Ltext0
 3515 001a D1000000 		.long	.LVL13-.Ltext0
 3516 001e 0100     		.value	0x1
 3517 0020 50       		.byte	0x50
 3518 0021 F6000000 		.long	.LVL15-.Ltext0
 3519 0025 FD000000 		.long	.LVL16-.Ltext0
 3520 0029 0100     		.value	0x1
 3521 002b 50       		.byte	0x50
 3522 002c 30010000 		.long	.LVL18-.Ltext0
 3523 0030 3D010000 		.long	.LVL19-.Ltext0
 3524 0034 0100     		.value	0x1
 3525 0036 50       		.byte	0x50
 3526 0037 66010000 		.long	.LVL21-.Ltext0
 3527 003b 6D010000 		.long	.LVL22-.Ltext0
 3528 003f 0100     		.value	0x1
 3529 0041 50       		.byte	0x50
 3530 0042 2F020000 		.long	.LVL34-.Ltext0
 3531 0046 3B020000 		.long	.LVL35-.Ltext0
 3532 004a 0100     		.value	0x1
 3533 004c 50       		.byte	0x50
 3534 004d 88020000 		.long	.LVL38-.Ltext0
 3535 0051 94020000 		.long	.LVL39-.Ltext0
 3536 0055 0100     		.value	0x1
 3537 0057 50       		.byte	0x50
 3538 0058 C0020000 		.long	.LVL41-.Ltext0
 3539 005c CC020000 		.long	.LVL42-.Ltext0
 3540 0060 0100     		.value	0x1
 3541 0062 50       		.byte	0x50
 3542 0063 4A030000 		.long	.LVL46-.Ltext0
 3543 0067 54030000 		.long	.LVL47-.Ltext0
 3544 006b 0100     		.value	0x1
 3545 006d 50       		.byte	0x50
 3546 006e 7C030000 		.long	.LVL49-.Ltext0
 3547 0072 80030000 		.long	.LVL50-.Ltext0
 3548 0076 0100     		.value	0x1
 3549 0078 50       		.byte	0x50
 3550 0079 2A040000 		.long	.LVL55-.Ltext0
 3551 007d 36040000 		.long	.LVL56-.Ltext0
 3552 0081 0100     		.value	0x1
 3553 0083 50       		.byte	0x50
 3554 0084 5E040000 		.long	.LVL58-.Ltext0
 3555 0088 6A040000 		.long	.LVL59-.Ltext0
 3556 008c 0100     		.value	0x1
 3557 008e 50       		.byte	0x50
 3558 008f 92040000 		.long	.LVL61-.Ltext0
 3559 0093 9E040000 		.long	.LVL62-.Ltext0
 3560 0097 0100     		.value	0x1
 3561 0099 50       		.byte	0x50
 3562 009a C6040000 		.long	.LVL64-.Ltext0
 3563 009e D2040000 		.long	.LVL65-.Ltext0
 3564 00a2 0100     		.value	0x1
 3565 00a4 50       		.byte	0x50
GAS LISTING /tmp/ccEKufMP.s 			page 72


 3566 00a5 FA040000 		.long	.LVL67-.Ltext0
 3567 00a9 00050000 		.long	.LVL68-.Ltext0
 3568 00ad 0100     		.value	0x1
 3569 00af 50       		.byte	0x50
 3570 00b0 5A050000 		.long	.LVL72-.Ltext0
 3571 00b4 60050000 		.long	.LVL73-.Ltext0
 3572 00b8 0100     		.value	0x1
 3573 00ba 50       		.byte	0x50
 3574 00bb 33060000 		.long	.LVL81-.Ltext0
 3575 00bf 3F060000 		.long	.LVL82-.Ltext0
 3576 00c3 0100     		.value	0x1
 3577 00c5 50       		.byte	0x50
 3578 00c6 67060000 		.long	.LVL84-.Ltext0
 3579 00ca 73060000 		.long	.LVL85-.Ltext0
 3580 00ce 0100     		.value	0x1
 3581 00d0 50       		.byte	0x50
 3582 00d1 9B060000 		.long	.LVL87-.Ltext0
 3583 00d5 A7060000 		.long	.LVL88-.Ltext0
 3584 00d9 0100     		.value	0x1
 3585 00db 50       		.byte	0x50
 3586 00dc CF060000 		.long	.LVL90-.Ltext0
 3587 00e0 DB060000 		.long	.LVL91-.Ltext0
 3588 00e4 0100     		.value	0x1
 3589 00e6 50       		.byte	0x50
 3590 00e7 03070000 		.long	.LVL93-.Ltext0
 3591 00eb 09070000 		.long	.LVL94-.Ltext0
 3592 00ef 0100     		.value	0x1
 3593 00f1 50       		.byte	0x50
 3594 00f2 63070000 		.long	.LVL98-.Ltext0
 3595 00f6 69070000 		.long	.LVL99-.Ltext0
 3596 00fa 0100     		.value	0x1
 3597 00fc 50       		.byte	0x50
 3598 00fd 00000000 		.long	0
 3599 0101 00000000 		.long	0
 3600              	.LLST1:
 3601 0105 2A000000 		.long	.LVL1-.Ltext0
 3602 0109 5E000000 		.long	.LVL5-.Ltext0
 3603 010d 0400     		.value	0x4
 3604 010f 73       		.byte	0x73
 3605 0110 BE7F     		.sleb128 -66
 3606 0112 9F       		.byte	0x9f
 3607 0113 5E000000 		.long	.LVL5-.Ltext0
 3608 0117 61000000 		.long	.LVL6-.Ltext0
 3609 011b 0400     		.value	0x4
 3610 011d 73       		.byte	0x73
 3611 011e BF7F     		.sleb128 -65
 3612 0120 9F       		.byte	0x9f
 3613 0121 61000000 		.long	.LVL6-.Ltext0
 3614 0125 9E000000 		.long	.LVL10-.Ltext0
 3615 0129 0400     		.value	0x4
 3616 012b 73       		.byte	0x73
 3617 012c BE7F     		.sleb128 -66
 3618 012e 9F       		.byte	0x9f
 3619 012f A4000000 		.long	.LVL11-.Ltext0
 3620 0133 AA010000 		.long	.LVL25-.Ltext0
 3621 0137 0400     		.value	0x4
 3622 0139 73       		.byte	0x73
GAS LISTING /tmp/ccEKufMP.s 			page 73


 3623 013a BE7F     		.sleb128 -66
 3624 013c 9F       		.byte	0x9f
 3625 013d B0010000 		.long	.LVL26-.Ltext0
 3626 0141 FA010000 		.long	.LVL29-.Ltext0
 3627 0145 0400     		.value	0x4
 3628 0147 73       		.byte	0x73
 3629 0148 BE7F     		.sleb128 -66
 3630 014a 9F       		.byte	0x9f
 3631 014b FA010000 		.long	.LVL29-.Ltext0
 3632 014f 05020000 		.long	.LVL30-.Ltext0
 3633 0153 0200     		.value	0x2
 3634 0155 30       		.byte	0x30
 3635 0156 9F       		.byte	0x9f
 3636 0157 05020000 		.long	.LVL30-.Ltext0
 3637 015b 12020000 		.long	.LVL31-.Ltext0
 3638 015f 0500     		.value	0x5
 3639 0161 35       		.byte	0x35
 3640 0162 76       		.byte	0x76
 3641 0163 00       		.sleb128 0
 3642 0164 1C       		.byte	0x1c
 3643 0165 9F       		.byte	0x9f
 3644 0166 12020000 		.long	.LVL31-.Ltext0
 3645 016a 15020000 		.long	.LVL32-.Ltext0
 3646 016e 0500     		.value	0x5
 3647 0170 36       		.byte	0x36
 3648 0171 76       		.byte	0x76
 3649 0172 00       		.sleb128 0
 3650 0173 1C       		.byte	0x1c
 3651 0174 9F       		.byte	0x9f
 3652 0175 15020000 		.long	.LVL32-.Ltext0
 3653 0179 88050000 		.long	.LVL75-.Ltext0
 3654 017d 0500     		.value	0x5
 3655 017f 35       		.byte	0x35
 3656 0180 76       		.byte	0x76
 3657 0181 00       		.sleb128 0
 3658 0182 1C       		.byte	0x1c
 3659 0183 9F       		.byte	0x9f
 3660 0184 88050000 		.long	.LVL75-.Ltext0
 3661 0188 8B050000 		.long	.LVL76-.Ltext0
 3662 018c 0500     		.value	0x5
 3663 018e 36       		.byte	0x36
 3664 018f 76       		.byte	0x76
 3665 0190 00       		.sleb128 0
 3666 0191 1C       		.byte	0x1c
 3667 0192 9F       		.byte	0x9f
 3668 0193 8B050000 		.long	.LVL76-.Ltext0
 3669 0197 91070000 		.long	.LVL101-.Ltext0
 3670 019b 0500     		.value	0x5
 3671 019d 35       		.byte	0x35
 3672 019e 76       		.byte	0x76
 3673 019f 00       		.sleb128 0
 3674 01a0 1C       		.byte	0x1c
 3675 01a1 9F       		.byte	0x9f
 3676 01a2 91070000 		.long	.LVL101-.Ltext0
 3677 01a6 94070000 		.long	.LVL102-.Ltext0
 3678 01aa 0500     		.value	0x5
 3679 01ac 36       		.byte	0x36
GAS LISTING /tmp/ccEKufMP.s 			page 74


 3680 01ad 76       		.byte	0x76
 3681 01ae 00       		.sleb128 0
 3682 01af 1C       		.byte	0x1c
 3683 01b0 9F       		.byte	0x9f
 3684 01b1 94070000 		.long	.LVL102-.Ltext0
 3685 01b5 D1080000 		.long	.LFE8-.Ltext0
 3686 01b9 0500     		.value	0x5
 3687 01bb 35       		.byte	0x35
 3688 01bc 76       		.byte	0x76
 3689 01bd 00       		.sleb128 0
 3690 01be 1C       		.byte	0x1c
 3691 01bf 9F       		.byte	0x9f
 3692 01c0 00000000 		.long	0
 3693 01c4 00000000 		.long	0
 3694              		.section	.debug_aranges,"",@progbits
 3695 0000 1C000000 		.long	0x1c
 3696 0004 0200     		.value	0x2
 3697 0006 00000000 		.long	.Ldebug_info0
 3698 000a 04       		.byte	0x4
 3699 000b 00       		.byte	0
 3700 000c 0000     		.value	0
 3701 000e 0000     		.value	0
 3702 0010 00000000 		.long	.Ltext0
 3703 0014 03090000 		.long	.Letext0-.Ltext0
 3704 0018 00000000 		.long	0
 3705 001c 00000000 		.long	0
 3706              		.section	.debug_line,"",@progbits
 3707              	.Ldebug_line0:
 3708 0000 24020000 		.section	.debug_str,"MS",@progbits,1
 3708      0200E400 
 3708      00000101 
 3708      FB0E0D00 
 3708      01010101 
 3709              	.LASF37:
 3710 0000 705F6D73 		.string	"p_msg"
 3710      6700
 3711              	.LASF55:
 3712 0006 6D5F6E65 		.string	"m_next"
 3712      787400
 3713              	.LASF63:
 3714 000d 7264796D 		.string	"rdymsg"
 3714      736700
 3715              	.LASF84:
 3716 0014 63684D42 		.string	"chMBPostI"
 3716      506F7374 
 3716      4900
 3717              	.LASF62:
 3718 001e 4D61696C 		.string	"Mailbox"
 3718      626F7800 
 3719              	.LASF85:
 3720 0026 63684D42 		.string	"chMBPostAheadI"
 3720      506F7374 
 3720      41686561 
 3720      644900
 3721              	.LASF10:
 3722 0035 6C6F6E67 		.string	"long long unsigned int"
 3722      206C6F6E 
GAS LISTING /tmp/ccEKufMP.s 			page 75


 3722      6720756E 
 3722      7369676E 
 3722      65642069 
 3723              	.LASF80:
 3724 004c 70617474 		.string	"patternmbox"
 3724      65726E6D 
 3724      626F7800 
 3725              	.LASF64:
 3726 0058 65786974 		.string	"exitcode"
 3726      636F6465 
 3726      00
 3727              	.LASF78:
 3728 0061 74657374 		.string	"test"
 3728      00
 3729              	.LASF58:
 3730 0066 6D625F77 		.string	"mb_wrptr"
 3730      72707472 
 3730      00
 3731              	.LASF25:
 3732 006f 705F7072 		.string	"p_prio"
 3732      696F00
 3733              	.LASF4:
 3734 0076 6C6F6E67 		.string	"long long int"
 3734      206C6F6E 
 3734      6720696E 
 3734      7400
 3735              	.LASF2:
 3736 0084 7369676E 		.string	"signed char"
 3736      65642063 
 3736      68617200 
 3737              	.LASF92:
 3738 0090 2E2E2F2E 		.string	"../../../test/testmbox.c"
 3738      2E2F2E2E 
 3738      2F746573 
 3738      742F7465 
 3738      73746D62 
 3739              	.LASF41:
 3740 00a9 705F6D70 		.string	"p_mpool"
 3740      6F6F6C00 
 3741              	.LASF11:
 3742 00b1 626F6F6C 		.string	"bool_t"
 3742      5F7400
 3743              	.LASF53:
 3744 00b8 6D5F7175 		.string	"m_queue"
 3744      65756500 
 3745              	.LASF93:
 3746 00c0 2F686F6D 		.string	"/home/tony/ChibiOS-RT/testhal/Posix/EXT"
 3746      652F746F 
 3746      6E792F43 
 3746      68696269 
 3746      4F532D52 
 3747              	.LASF89:
 3748 00e8 74657374 		.string	"test_emit_token"
 3748      5F656D69 
 3748      745F746F 
 3748      6B656E00 
 3749              	.LASF16:
GAS LISTING /tmp/ccEKufMP.s 			page 76


 3750 00f8 74736C69 		.string	"tslices_t"
 3750      6365735F 
 3750      7400
 3751              	.LASF82:
 3752 0102 63684D42 		.string	"chMBPost"
 3752      506F7374 
 3752      00
 3753              	.LASF1:
 3754 010b 6C6F6E67 		.string	"long int"
 3754      20696E74 
 3754      00
 3755              	.LASF14:
 3756 0114 74737461 		.string	"tstate_t"
 3756      74655F74 
 3756      00
 3757              	.LASF27:
 3758 011d 705F6E65 		.string	"p_newer"
 3758      77657200 
 3759              	.LASF50:
 3760 0125 735F7175 		.string	"s_queue"
 3760      65756500 
 3761              	.LASF21:
 3762 012d 636E745F 		.string	"cnt_t"
 3762      7400
 3763              	.LASF0:
 3764 0133 756E7369 		.string	"unsigned int"
 3764      676E6564 
 3764      20696E74 
 3764      00
 3765              	.LASF95:
 3766 0140 63684D42 		.string	"chMBInit"
 3766      496E6974 
 3766      00
 3767              	.LASF74:
 3768 0149 6D736731 		.string	"msg1"
 3768      00
 3769              	.LASF75:
 3770 014e 6D736732 		.string	"msg2"
 3770      00
 3771              	.LASF36:
 3772 0153 705F6D73 		.string	"p_msgqueue"
 3772      67717565 
 3772      756500
 3773              	.LASF71:
 3774 015e 74656172 		.string	"teardown"
 3774      646F776E 
 3774      00
 3775              	.LASF61:
 3776 0167 6D625F65 		.string	"mb_emptysem"
 3776      6D707479 
 3776      73656D00 
 3777              	.LASF69:
 3778 0173 6E616D65 		.string	"name"
 3778      00
 3779              	.LASF51:
 3780 0178 735F636E 		.string	"s_cnt"
 3780      7400
GAS LISTING /tmp/ccEKufMP.s 			page 77


 3781              	.LASF48:
 3782 017e 636F6E74 		.string	"context"
 3782      65787400 
 3783              	.LASF8:
 3784 0186 73686F72 		.string	"short unsigned int"
 3784      7420756E 
 3784      7369676E 
 3784      65642069 
 3784      6E7400
 3785              	.LASF88:
 3786 0199 63684D42 		.string	"chMBFetchI"
 3786      46657463 
 3786      684900
 3787              	.LASF18:
 3788 01a4 6D73675F 		.string	"msg_t"
 3788      7400
 3789              	.LASF13:
 3790 01aa 746D6F64 		.string	"tmode_t"
 3790      655F7400 
 3791              	.LASF77:
 3792 01b2 6D626F78 		.string	"mbox1_setup"
 3792      315F7365 
 3792      74757000 
 3793              	.LASF43:
 3794 01be 54687265 		.string	"ThreadsList"
 3794      6164734C 
 3794      69737400 
 3795              	.LASF19:
 3796 01ca 6576656E 		.string	"eventmask_t"
 3796      746D6173 
 3796      6B5F7400 
 3797              	.LASF52:
 3798 01d6 4D757465 		.string	"Mutex"
 3798      7800
 3799              	.LASF79:
 3800 01dc 74657374 		.string	"testmbox1"
 3800      6D626F78 
 3800      3100
 3801              	.LASF45:
 3802 01e6 73746B61 		.string	"stkalign_t"
 3802      6C69676E 
 3802      5F7400
 3803              	.LASF44:
 3804 01f1 73697A65 		.string	"sizetype"
 3804      74797065 
 3804      00
 3805              	.LASF59:
 3806 01fa 6D625F72 		.string	"mb_rdptr"
 3806      64707472 
 3806      00
 3807              	.LASF90:
 3808 0203 63684D42 		.string	"chMBReset"
 3808      52657365 
 3808      7400
 3809              	.LASF28:
 3810 020d 705F6F6C 		.string	"p_older"
 3810      64657200 
GAS LISTING /tmp/ccEKufMP.s 			page 78


 3811              	.LASF42:
 3812 0215 54687265 		.string	"ThreadsQueue"
 3812      61647351 
 3812      75657565 
 3812      00
 3813              	.LASF70:
 3814 0222 73657475 		.string	"setup"
 3814      7000
 3815              	.LASF87:
 3816 0228 5F746573 		.string	"_test_assert_sequence"
 3816      745F6173 
 3816      73657274 
 3816      5F736571 
 3816      75656E63 
 3817              	.LASF56:
 3818 023e 6D625F62 		.string	"mb_buffer"
 3818      75666665 
 3818      7200
 3819              	.LASF76:
 3820 0248 6D626F78 		.string	"mbox1_execute"
 3820      315F6578 
 3820      65637574 
 3820      6500
 3821              	.LASF15:
 3822 0256 74726566 		.string	"trefs_t"
 3822      735F7400 
 3823              	.LASF24:
 3824 025e 705F7072 		.string	"p_prev"
 3824      657600
 3825              	.LASF72:
 3826 0265 65786563 		.string	"execute"
 3826      75746500 
 3827              	.LASF17:
 3828 026d 74707269 		.string	"tprio_t"
 3828      6F5F7400 
 3829              	.LASF12:
 3830 0275 5F426F6F 		.string	"_Bool"
 3830      6C00
 3831              	.LASF5:
 3832 027b 696E7433 		.string	"int32_t"
 3832      325F7400 
 3833              	.LASF7:
 3834 0283 756E7369 		.string	"unsigned char"
 3834      676E6564 
 3834      20636861 
 3834      7200
 3835              	.LASF57:
 3836 0291 6D625F74 		.string	"mb_top"
 3836      6F7000
 3837              	.LASF91:
 3838 0298 474E5520 		.string	"GNU C 4.8.2 -m32 -mtune=generic -march=i686 -ggdb -O2 -fomit-frame-pointer -fstack-protec
 3838      4320342E 
 3838      382E3220 
 3838      2D6D3332 
 3838      202D6D74 
 3839              	.LASF39:
 3840 02f5 705F6D74 		.string	"p_mtxlist"
GAS LISTING /tmp/ccEKufMP.s 			page 79


 3840      786C6973 
 3840      7400
 3841              	.LASF3:
 3842 02ff 73686F72 		.string	"short int"
 3842      7420696E 
 3842      7400
 3843              	.LASF30:
 3844 0309 705F7374 		.string	"p_state"
 3844      61746500 
 3845              	.LASF33:
 3846 0311 705F7072 		.string	"p_preempt"
 3846      65656D70 
 3846      7400
 3847              	.LASF66:
 3848 031b 65776D61 		.string	"ewmask"
 3848      736B00
 3849              	.LASF23:
 3850 0322 705F6E65 		.string	"p_next"
 3850      787400
 3851              	.LASF31:
 3852 0329 705F666C 		.string	"p_flags"
 3852      61677300 
 3853              	.LASF22:
 3854 0331 54687265 		.string	"Thread"
 3854      616400
 3855              	.LASF68:
 3856 0338 74657374 		.string	"testcase"
 3856      63617365 
 3856      00
 3857              	.LASF38:
 3858 0341 705F6570 		.string	"p_epending"
 3858      656E6469 
 3858      6E6700
 3859              	.LASF9:
 3860 034c 75696E74 		.string	"uint32_t"
 3860      33325F74 
 3860      00
 3861              	.LASF67:
 3862 0355 63686172 		.string	"char"
 3862      00
 3863              	.LASF20:
 3864 035a 73797374 		.string	"systime_t"
 3864      696D655F 
 3864      7400
 3865              	.LASF40:
 3866 0364 705F7265 		.string	"p_realprio"
 3866      616C7072 
 3866      696F00
 3867              	.LASF73:
 3868 036f 62756666 		.string	"buffer"
 3868      657200
 3869              	.LASF34:
 3870 0376 705F7469 		.string	"p_time"
 3870      6D6500
 3871              	.LASF83:
 3872 037d 63684D42 		.string	"chMBPostAhead"
 3872      506F7374 
GAS LISTING /tmp/ccEKufMP.s 			page 80


 3872      41686561 
 3872      6400
 3873              	.LASF47:
 3874 038b 696E7463 		.string	"intctx"
 3874      747800
 3875              	.LASF86:
 3876 0392 63684D42 		.string	"chMBFetch"
 3876      46657463 
 3876      6800
 3877              	.LASF49:
 3878 039c 53656D61 		.string	"Semaphore"
 3878      70686F72 
 3878      6500
 3879              	.LASF60:
 3880 03a6 6D625F66 		.string	"mb_fullsem"
 3880      756C6C73 
 3880      656D00
 3881              	.LASF94:
 3882 03b1 74657374 		.string	"test_buffers"
 3882      5F627566 
 3882      66657273 
 3882      00
 3883              	.LASF32:
 3884 03be 705F7265 		.string	"p_refs"
 3884      667300
 3885              	.LASF6:
 3886 03c5 75696E74 		.string	"uint8_t"
 3886      385F7400 
 3887              	.LASF65:
 3888 03cd 77746F62 		.string	"wtobjp"
 3888      6A7000
 3889              	.LASF29:
 3890 03d4 705F6E61 		.string	"p_name"
 3890      6D6500
 3891              	.LASF81:
 3892 03db 5F746573 		.string	"_test_assert"
 3892      745F6173 
 3892      73657274 
 3892      00
 3893              	.LASF46:
 3894 03e8 72656778 		.string	"regx86"
 3894      383600
 3895              	.LASF54:
 3896 03ef 6D5F6F77 		.string	"m_owner"
 3896      6E657200 
 3897              	.LASF26:
 3898 03f7 705F6374 		.string	"p_ctx"
 3898      7800
 3899              	.LASF35:
 3900 03fd 705F7761 		.string	"p_waiting"
 3900      6974696E 
 3900      6700
 3901              		.ident	"GCC: (Ubuntu 4.8.2-19ubuntu1) 4.8.2"
 3902              		.section	.note.GNU-stack,"",@progbits
GAS LISTING /tmp/ccEKufMP.s 			page 81


DEFINED SYMBOLS
                            *ABS*:0000000000000000 testmbox.c
     /tmp/ccEKufMP.s:63     .text:0000000000000000 mbox1_execute
     /tmp/ccEKufMP.s:1038   .data:0000000000000000 mb1
     /tmp/ccEKufMP.s:989    .text:00000000000008e0 mbox1_setup
     /tmp/ccEKufMP.s:1013   .rodata:0000000000000000 patternmbox
     /tmp/ccEKufMP.s:1025   .rodata:0000000000000008 testmbox1

UNDEFINED SYMBOLS
_test_assert
chMBPost
chMBPostAhead
chMBPostI
chMBPostAheadI
test_emit_token
chMBFetch
_test_assert_sequence
chMBFetchI
chMBReset
test
chMBInit
