GAS LISTING /tmp/ccmTSJ1m.s 			page 1


   1              		.file	"testbmk.c"
   2              	# GNU C (Ubuntu 4.8.2-19ubuntu1) version 4.8.2 (x86_64-linux-gnu)
   3              	#	compiled by GNU C version 4.8.2, GMP version 5.1.3, MPFR version 3.1.2-p3, MPC version 1.0.1
   4              	# GGC heuristics: --param ggc-min-expand=97 --param ggc-min-heapsize=126309
   5              	# options passed:  -I . -I ../../../os/ports/GCC/SIMIA32
   6              	# -I ../../../os/kernel/include -I ../../../test -I ../../../os/hal/include
   7              	# -I ../../../os/hal/platforms/Posix -I ../../../boards/simulator
   8              	# -I ../../../os/various -imultilib 32 -imultiarch i386-linux-gnu
   9              	# -MD ../../../test/testbmk.d -MF .dep/testbmk.o.d -MP
  10              	# -MQ ../../../test/testbmk.o -D SIMULATOR -D SHELL_USE_IPRINTF=FALSE
  11              	# ../../../test/testbmk.c -m32 -mtune=generic -march=i686
  12              	# -auxbase-strip ../../../test/testbmk.o -ggdb -O2 -Wall -Wextra
  13              	# -Wstrict-prototypes -fomit-frame-pointer -fverbose-asm -fstack-protector
  14              	# -Wformat -Wformat-security
  15              	# options enabled:  -faggressive-loop-optimizations
  16              	# -fasynchronous-unwind-tables -fauto-inc-dec -fbranch-count-reg
  17              	# -fcaller-saves -fcombine-stack-adjustments -fcommon -fcompare-elim
  18              	# -fcprop-registers -fcrossjumping -fcse-follow-jumps -fdefer-pop
  19              	# -fdelete-null-pointer-checks -fdevirtualize -fdwarf2-cfi-asm
  20              	# -fearly-inlining -feliminate-unused-debug-types -fexpensive-optimizations
  21              	# -fforward-propagate -ffunction-cse -fgcse -fgcse-lm -fgnu-runtime
  22              	# -fguess-branch-probability -fhoist-adjacent-loads -fident -fif-conversion
  23              	# -fif-conversion2 -findirect-inlining -finline -finline-atomics
  24              	# -finline-functions-called-once -finline-small-functions -fipa-cp
  25              	# -fipa-profile -fipa-pure-const -fipa-reference -fipa-sra
  26              	# -fira-hoist-pressure -fira-share-save-slots -fira-share-spill-slots
  27              	# -fivopts -fkeep-static-consts -fleading-underscore -fmath-errno
  28              	# -fmerge-constants -fmerge-debug-strings -fmove-loop-invariants
  29              	# -fomit-frame-pointer -foptimize-register-move -foptimize-sibling-calls
  30              	# -foptimize-strlen -fpartial-inlining -fpcc-struct-return -fpeephole
  31              	# -fpeephole2 -fprefetch-loop-arrays -free -fregmove -freorder-blocks
  32              	# -freorder-functions -frerun-cse-after-loop
  33              	# -fsched-critical-path-heuristic -fsched-dep-count-heuristic
  34              	# -fsched-group-heuristic -fsched-interblock -fsched-last-insn-heuristic
  35              	# -fsched-rank-heuristic -fsched-spec -fsched-spec-insn-heuristic
  36              	# -fsched-stalled-insns-dep -fschedule-insns2 -fshow-column -fshrink-wrap
  37              	# -fsigned-zeros -fsplit-ivs-in-unroller -fsplit-wide-types
  38              	# -fstack-protector -fstrict-aliasing -fstrict-overflow
  39              	# -fstrict-volatile-bitfields -fsync-libcalls -fthread-jumps
  40              	# -ftoplevel-reorder -ftrapping-math -ftree-bit-ccp -ftree-builtin-call-dce
  41              	# -ftree-ccp -ftree-ch -ftree-coalesce-vars -ftree-copy-prop
  42              	# -ftree-copyrename -ftree-cselim -ftree-dce -ftree-dominator-opts
  43              	# -ftree-dse -ftree-forwprop -ftree-fre -ftree-loop-if-convert
  44              	# -ftree-loop-im -ftree-loop-ivcanon -ftree-loop-optimize
  45              	# -ftree-parallelize-loops= -ftree-phiprop -ftree-pre -ftree-pta
  46              	# -ftree-reassoc -ftree-scev-cprop -ftree-sink -ftree-slp-vectorize
  47              	# -ftree-slsr -ftree-sra -ftree-switch-conversion -ftree-tail-merge
  48              	# -ftree-ter -ftree-vect-loop-version -ftree-vrp -funit-at-a-time
  49              	# -funwind-tables -fvar-tracking -fvar-tracking-assignments -fverbose-asm
  50              	# -fzero-initialized-in-bss -m32 -m80387 -m96bit-long-double
  51              	# -maccumulate-outgoing-args -malign-stringops -mfancy-math-387
  52              	# -mfp-ret-in-387 -mglibc -mieee-fp -mlong-double-80 -mno-red-zone
  53              	# -mno-sse4 -mpush-args -msahf -mtls-direct-seg-refs
  54              	
  55              		.text
  56              	.Ltext0:
  57              		.p2align 4,,15
GAS LISTING /tmp/ccmTSJ1m.s 			page 2


  58              		.type	thread2, @function
  59              	thread2:
  60              	.LFB11:
  61              		.file 1 "../../../test/testbmk.c"
  62              		.loc 1 154 0
  63              		.cfi_startproc
  64              	.LVL0:
  65              		.loc 1 157 0
  66 0000 8B442404 		movl	4(%esp), %eax	# p,
  67 0004 C3       		ret
  68              		.cfi_endproc
  69              	.LFE11:
  70              		.size	thread2, .-thread2
  71 0005 8D742600 		.p2align 4,,15
  71      8DBC2700 
  71      000000
  72              		.type	tmo, @function
  73              	tmo:
  74              	.LFB23:
  75              		.loc 1 502 0
  76              		.cfi_startproc
  77              	.LVL1:
  78 0010 F3C3     		rep ret
  79              		.cfi_endproc
  80              	.LFE23:
  81              		.size	tmo, .-tmo
  82              		.section	.rodata.str1.1,"aMS",@progbits,1
  83              	.LC0:
  84 0000 2D2D2D20 		.string	"--- System: "
  84      53797374 
  84      656D3A20 
  84      00
  85              	.LC1:
  86 000d 20627974 		.string	" bytes"
  86      657300
  87              	.LC2:
  88 0014 2D2D2D20 		.string	"--- Thread: "
  88      54687265 
  88      61643A20 
  88      00
  89              	.LC3:
  90 0021 2D2D2D20 		.string	"--- Timer : "
  90      54696D65 
  90      72203A20 
  90      00
  91              	.LC4:
  92 002e 2D2D2D20 		.string	"--- Semaph: "
  92      53656D61 
  92      70683A20 
  92      00
  93              	.LC5:
  94 003b 2D2D2D20 		.string	"--- EventS: "
  94      4576656E 
  94      74533A20 
  94      00
  95              	.LC6:
  96 0048 2D2D2D20 		.string	"--- EventL: "
GAS LISTING /tmp/ccmTSJ1m.s 			page 3


  96      4576656E 
  96      744C3A20 
  96      00
  97              	.LC7:
  98 0055 2D2D2D20 		.string	"--- Mutex : "
  98      4D757465 
  98      78203A20 
  98      00
  99              	.LC8:
 100 0062 2D2D2D20 		.string	"--- CondV.: "
 100      436F6E64 
 100      562E3A20 
 100      00
 101              	.LC9:
 102 006f 2D2D2D20 		.string	"--- Queue : "
 102      51756575 
 102      65203A20 
 102      00
 103              	.LC10:
 104 007c 2D2D2D20 		.string	"--- MailB.: "
 104      4D61696C 
 104      422E3A20 
 104      00
 105              		.text
 106 0012 8DB42600 		.p2align 4,,15
 106      0000008D 
 106      BC270000 
 106      0000
 107              		.type	bmk13_execute, @function
 108              	bmk13_execute:
 109              	.LFB29:
 110              		.loc 1 637 0
 111              		.cfi_startproc
 112              		.loc 1 637 0
 113 0020 83EC1C   		subl	$28, %esp	#,
 114              		.cfi_def_cfa_offset 32
 115              		.loc 1 639 0
 116 0023 C7042400 		movl	$.LC0, (%esp)	#,
 116      000000
 117 002a E8FCFFFF 		call	test_print	#
 117      FF
 118              	.LVL2:
 119              		.loc 1 640 0
 120 002f C70424E4 		movl	$33252, (%esp)	#,
 120      810000
 121 0036 E8FCFFFF 		call	test_printn	#
 121      FF
 122              	.LVL3:
 123              		.loc 1 645 0
 124 003b C704240D 		movl	$.LC1, (%esp)	#,
 124      000000
 125 0042 E8FCFFFF 		call	test_println	#
 125      FF
 126              	.LVL4:
 127              		.loc 1 646 0
 128 0047 C7042414 		movl	$.LC2, (%esp)	#,
 128      000000
GAS LISTING /tmp/ccmTSJ1m.s 			page 4


 129 004e E8FCFFFF 		call	test_print	#
 129      FF
 130              	.LVL5:
 131              		.loc 1 647 0
 132 0053 C7042448 		movl	$72, (%esp)	#,
 132      000000
 133 005a E8FCFFFF 		call	test_printn	#
 133      FF
 134              	.LVL6:
 135              		.loc 1 648 0
 136 005f C704240D 		movl	$.LC1, (%esp)	#,
 136      000000
 137 0066 E8FCFFFF 		call	test_println	#
 137      FF
 138              	.LVL7:
 139              		.loc 1 649 0
 140 006b C7042421 		movl	$.LC3, (%esp)	#,
 140      000000
 141 0072 E8FCFFFF 		call	test_print	#
 141      FF
 142              	.LVL8:
 143              		.loc 1 650 0
 144 0077 C7042414 		movl	$20, (%esp)	#,
 144      000000
 145 007e E8FCFFFF 		call	test_printn	#
 145      FF
 146              	.LVL9:
 147              		.loc 1 651 0
 148 0083 C704240D 		movl	$.LC1, (%esp)	#,
 148      000000
 149 008a E8FCFFFF 		call	test_println	#
 149      FF
 150              	.LVL10:
 151              		.loc 1 653 0
 152 008f C704242E 		movl	$.LC4, (%esp)	#,
 152      000000
 153 0096 E8FCFFFF 		call	test_print	#
 153      FF
 154              	.LVL11:
 155              		.loc 1 654 0
 156 009b C704240C 		movl	$12, (%esp)	#,
 156      000000
 157 00a2 E8FCFFFF 		call	test_printn	#
 157      FF
 158              	.LVL12:
 159              		.loc 1 655 0
 160 00a7 C704240D 		movl	$.LC1, (%esp)	#,
 160      000000
 161 00ae E8FCFFFF 		call	test_println	#
 161      FF
 162              	.LVL13:
 163              		.loc 1 658 0
 164 00b3 C704243B 		movl	$.LC5, (%esp)	#,
 164      000000
 165 00ba E8FCFFFF 		call	test_print	#
 165      FF
 166              	.LVL14:
GAS LISTING /tmp/ccmTSJ1m.s 			page 5


 167              		.loc 1 659 0
 168 00bf C7042404 		movl	$4, (%esp)	#,
 168      000000
 169 00c6 E8FCFFFF 		call	test_printn	#
 169      FF
 170              	.LVL15:
 171              		.loc 1 660 0
 172 00cb C704240D 		movl	$.LC1, (%esp)	#,
 172      000000
 173 00d2 E8FCFFFF 		call	test_println	#
 173      FF
 174              	.LVL16:
 175              		.loc 1 661 0
 176 00d7 C7042448 		movl	$.LC6, (%esp)	#,
 176      000000
 177 00de E8FCFFFF 		call	test_print	#
 177      FF
 178              	.LVL17:
 179              		.loc 1 662 0
 180 00e3 C7042410 		movl	$16, (%esp)	#,
 180      000000
 181 00ea E8FCFFFF 		call	test_printn	#
 181      FF
 182              	.LVL18:
 183              		.loc 1 663 0
 184 00ef C704240D 		movl	$.LC1, (%esp)	#,
 184      000000
 185 00f6 E8FCFFFF 		call	test_println	#
 185      FF
 186              	.LVL19:
 187              		.loc 1 666 0
 188 00fb C7042455 		movl	$.LC7, (%esp)	#,
 188      000000
 189 0102 E8FCFFFF 		call	test_print	#
 189      FF
 190              	.LVL20:
 191              		.loc 1 667 0
 192 0107 C7042410 		movl	$16, (%esp)	#,
 192      000000
 193 010e E8FCFFFF 		call	test_printn	#
 193      FF
 194              	.LVL21:
 195              		.loc 1 668 0
 196 0113 C704240D 		movl	$.LC1, (%esp)	#,
 196      000000
 197 011a E8FCFFFF 		call	test_println	#
 197      FF
 198              	.LVL22:
 199              		.loc 1 671 0
 200 011f C7042462 		movl	$.LC8, (%esp)	#,
 200      000000
 201 0126 E8FCFFFF 		call	test_print	#
 201      FF
 202              	.LVL23:
 203              		.loc 1 672 0
 204 012b C7042408 		movl	$8, (%esp)	#,
 204      000000
GAS LISTING /tmp/ccmTSJ1m.s 			page 6


 205 0132 E8FCFFFF 		call	test_printn	#
 205      FF
 206              	.LVL24:
 207              		.loc 1 673 0
 208 0137 C704240D 		movl	$.LC1, (%esp)	#,
 208      000000
 209 013e E8FCFFFF 		call	test_println	#
 209      FF
 210              	.LVL25:
 211              		.loc 1 676 0
 212 0143 C704246F 		movl	$.LC9, (%esp)	#,
 212      000000
 213 014a E8FCFFFF 		call	test_print	#
 213      FF
 214              	.LVL26:
 215              		.loc 1 677 0
 216 014f C7042424 		movl	$36, (%esp)	#,
 216      000000
 217 0156 E8FCFFFF 		call	test_printn	#
 217      FF
 218              	.LVL27:
 219              		.loc 1 678 0
 220 015b C704240D 		movl	$.LC1, (%esp)	#,
 220      000000
 221 0162 E8FCFFFF 		call	test_println	#
 221      FF
 222              	.LVL28:
 223              		.loc 1 681 0
 224 0167 C704247C 		movl	$.LC10, (%esp)	#,
 224      000000
 225 016e E8FCFFFF 		call	test_print	#
 225      FF
 226              	.LVL29:
 227              		.loc 1 682 0
 228 0173 C7042428 		movl	$40, (%esp)	#,
 228      000000
 229 017a E8FCFFFF 		call	test_printn	#
 229      FF
 230              	.LVL30:
 231              		.loc 1 683 0
 232 017f C704240D 		movl	$.LC1, (%esp)	#,
 232      000000
 233 0186 E8FCFFFF 		call	test_println	#
 233      FF
 234              	.LVL31:
 235              		.loc 1 685 0
 236 018b 83C41C   		addl	$28, %esp	#,
 237              		.cfi_def_cfa_offset 4
 238 018e C3       		ret
 239              		.cfi_endproc
 240              	.LFE29:
 241              		.size	bmk13_execute, .-bmk13_execute
 242 018f 90       		.p2align 4,,15
 243              		.type	thread1, @function
 244              	thread1:
 245              	.LFB7:
 246              		.loc 1 64 0
GAS LISTING /tmp/ccmTSJ1m.s 			page 7


 247              		.cfi_startproc
 248              	.LVL32:
 249 0190 53       		pushl	%ebx	#
 250              		.cfi_def_cfa_offset 8
 251              		.cfi_offset 3, -8
 252 0191 83EC18   		subl	$24, %esp	#,
 253              		.cfi_def_cfa_offset 32
 254              		.p2align 4,,7
 255 0194 8D742600 		.p2align 3
 256              	.L7:
 257              		.loc 1 70 0 discriminator 1
 258 0198 E8FCFFFF 		call	chMsgWait	#
 258      FF
 259              	.LVL33:
 260              		.loc 1 71 0 discriminator 1
 261 019d 8B5834   		movl	52(%eax), %ebx	# tp_4->p_msg, msg
 262              	.LVL34:
 263              		.loc 1 72 0 discriminator 1
 264 01a0 890424   		movl	%eax, (%esp)	# tp,
 265 01a3 895C2404 		movl	%ebx, 4(%esp)	# msg,
 266 01a7 E8FCFFFF 		call	chMsgRelease	#
 266      FF
 267              	.LVL35:
 268              		.loc 1 73 0 discriminator 1
 269 01ac 85DB     		testl	%ebx, %ebx	# msg
 270 01ae 75E8     		jne	.L7	#,
 271              		.loc 1 75 0
 272 01b0 83C418   		addl	$24, %esp	#,
 273              		.cfi_def_cfa_offset 8
 274 01b3 31C0     		xorl	%eax, %eax	#
 275 01b5 5B       		popl	%ebx	#
 276              		.cfi_restore 3
 277              		.cfi_def_cfa_offset 4
 278              	.LVL36:
 279 01b6 C3       		ret
 280              		.cfi_endproc
 281              	.LFE7:
 282              		.size	thread1, .-thread1
 283 01b7 89F68DBC 		.p2align 4,,15
 283      27000000 
 283      00
 284              		.type	msg_loop_test, @function
 285              	msg_loop_test:
 286              	.LFB8:
 287              		.loc 1 80 0
 288              		.cfi_startproc
 289              	.LVL37:
 290 01c0 56       		pushl	%esi	#
 291              		.cfi_def_cfa_offset 8
 292              		.cfi_offset 6, -8
 293 01c1 89C6     		movl	%eax, %esi	# tp, tp
 294 01c3 53       		pushl	%ebx	#
 295              		.cfi_def_cfa_offset 12
 296              		.cfi_offset 3, -12
 297              		.loc 1 82 0
 298 01c4 31DB     		xorl	%ebx, %ebx	# n
 299              		.loc 1 80 0
GAS LISTING /tmp/ccmTSJ1m.s 			page 8


 300 01c6 83EC14   		subl	$20, %esp	#,
 301              		.cfi_def_cfa_offset 32
 302              		.loc 1 83 0
 303 01c9 E8FCFFFF 		call	test_wait_tick	#
 303      FF
 304              	.LVL38:
 305              		.loc 1 84 0
 306 01ce C70424E8 		movl	$1000, (%esp)	#,
 306      030000
 307 01d5 E8FCFFFF 		call	test_start_timer	#
 307      FF
 308              	.LVL39:
 309 01da 8DB60000 		.p2align 4,,7
 309      0000
 310              		.p2align 3
 311              	.L12:
 312              		.loc 1 86 0 discriminator 1
 313 01e0 C7442404 		movl	$1, 4(%esp)	#,
 313      01000000 
 314              		.loc 1 87 0 discriminator 1
 315 01e8 83C301   		addl	$1, %ebx	#, n
 316              	.LVL40:
 317              		.loc 1 86 0 discriminator 1
 318 01eb 893424   		movl	%esi, (%esp)	# tp,
 319 01ee E8FCFFFF 		call	chMsgSend	#
 319      FF
 320              	.LVL41:
 321              		.loc 1 89 0 discriminator 1
 322 01f3 E8FCFFFF 		call	ChkIntSources	#
 322      FF
 323              	.LVL42:
 324              		.loc 1 91 0 discriminator 1
 325 01f8 803D0000 		cmpb	$0, test_timer_done	#, test_timer_done
 325      000000
 326 01ff 74DF     		je	.L12	#,
 327              		.loc 1 92 0
 328 0201 893424   		movl	%esi, (%esp)	# tp,
 329 0204 C7442404 		movl	$0, 4(%esp)	#,
 329      00000000 
 330 020c E8FCFFFF 		call	chMsgSend	#
 330      FF
 331              	.LVL43:
 332              		.loc 1 94 0
 333 0211 83C414   		addl	$20, %esp	#,
 334              		.cfi_def_cfa_offset 12
 335 0214 89D8     		movl	%ebx, %eax	# n,
 336 0216 5B       		popl	%ebx	#
 337              		.cfi_restore 3
 338              		.cfi_def_cfa_offset 8
 339              	.LVL44:
 340 0217 5E       		popl	%esi	#
 341              		.cfi_restore 6
 342              		.cfi_def_cfa_offset 4
 343              	.LVL45:
 344 0218 C3       		ret
 345              		.cfi_endproc
 346              	.LFE8:
GAS LISTING /tmp/ccmTSJ1m.s 			page 9


 347              		.size	msg_loop_test, .-msg_loop_test
 348              		.section	.rodata.str1.1
 349              	.LC11:
 350 0089 2D2D2D20 		.string	"--- Score : "
 350      53636F72 
 350      65203A20 
 350      00
 351              	.LC12:
 352 0096 206D7367 		.string	" msgs/S, "
 352      732F532C 
 352      2000
 353              	.LC13:
 354 00a0 20637478 		.string	" ctxswc/S"
 354      7377632F 
 354      5300
 355              		.text
 356 0219 8DB42600 		.p2align 4,,15
 356      000000
 357              		.type	bmk1_execute, @function
 358              	bmk1_execute:
 359              	.LFB9:
 360              		.loc 1 105 0
 361              		.cfi_startproc
 362 0220 53       		pushl	%ebx	#
 363              		.cfi_def_cfa_offset 8
 364              		.cfi_offset 3, -8
 365 0221 83EC28   		subl	$40, %esp	#,
 366              		.cfi_def_cfa_offset 48
 367              		.loc 1 108 0
 368 0224 A1180000 		movl	rlist+24, %eax	# rlist.r_current, rlist.r_current
 368      00
 369 0229 C7442410 		movl	$0, 16(%esp)	#,
 369      00000000 
 370 0231 C744240C 		movl	$thread1, 12(%esp)	#,
 370      90010000 
 371 0239 8B4008   		movl	8(%eax), %eax	# _2->p_prio, _2->p_prio
 372 023c C7442404 		movl	$17008, 4(%esp)	#,
 372      70420000 
 373 0244 83E801   		subl	$1, %eax	#, D.2375
 374 0247 89442408 		movl	%eax, 8(%esp)	# D.2375,
 375 024b A1000000 		movl	wa, %eax	# wa, wa
 375      00
 376 0250 890424   		movl	%eax, (%esp)	# wa,
 377 0253 E8FCFFFF 		call	chThdCreateStatic	#
 377      FF
 378              	.LVL46:
 379 0258 A3000000 		movl	%eax, threads	# D.2374, threads
 379      00
 380              		.loc 1 109 0
 381 025d E85EFFFF 		call	msg_loop_test	#
 381      FF
 382              	.LVL47:
 383 0262 89C3     		movl	%eax, %ebx	#, n
 384              	.LVL48:
 385              		.loc 1 110 0
 386 0264 E8FCFFFF 		call	test_wait_threads	#
 386      FF
GAS LISTING /tmp/ccmTSJ1m.s 			page 10


 387              	.LVL49:
 388              		.loc 1 111 0
 389 0269 C7042489 		movl	$.LC11, (%esp)	#,
 389      000000
 390 0270 E8FCFFFF 		call	test_print	#
 390      FF
 391              	.LVL50:
 392              		.loc 1 112 0
 393 0275 891C24   		movl	%ebx, (%esp)	# n,
 394              		.loc 1 114 0
 395 0278 01DB     		addl	%ebx, %ebx	# D.2375
 396              	.LVL51:
 397              		.loc 1 112 0
 398 027a E8FCFFFF 		call	test_printn	#
 398      FF
 399              	.LVL52:
 400              		.loc 1 113 0
 401 027f C7042496 		movl	$.LC12, (%esp)	#,
 401      000000
 402 0286 E8FCFFFF 		call	test_print	#
 402      FF
 403              	.LVL53:
 404              		.loc 1 114 0
 405 028b 891C24   		movl	%ebx, (%esp)	# D.2375,
 406 028e E8FCFFFF 		call	test_printn	#
 406      FF
 407              	.LVL54:
 408              		.loc 1 115 0
 409 0293 C70424A0 		movl	$.LC13, (%esp)	#,
 409      000000
 410 029a E8FCFFFF 		call	test_println	#
 410      FF
 411              	.LVL55:
 412              		.loc 1 116 0
 413 029f 83C428   		addl	$40, %esp	#,
 414              		.cfi_def_cfa_offset 8
 415 02a2 5B       		popl	%ebx	#
 416              		.cfi_restore 3
 417              		.cfi_def_cfa_offset 4
 418 02a3 C3       		ret
 419              		.cfi_endproc
 420              	.LFE9:
 421              		.size	bmk1_execute, .-bmk1_execute
 422 02a4 8DB60000 		.p2align 4,,15
 422      00008DBF 
 422      00000000 
 423              		.type	bmk2_execute, @function
 424              	bmk2_execute:
 425              	.LFB10:
 426              		.loc 1 134 0
 427              		.cfi_startproc
 428 02b0 53       		pushl	%ebx	#
 429              		.cfi_def_cfa_offset 8
 430              		.cfi_offset 3, -8
 431 02b1 83EC28   		subl	$40, %esp	#,
 432              		.cfi_def_cfa_offset 48
 433              		.loc 1 137 0
GAS LISTING /tmp/ccmTSJ1m.s 			page 11


 434 02b4 A1180000 		movl	rlist+24, %eax	# rlist.r_current, rlist.r_current
 434      00
 435 02b9 C7442410 		movl	$0, 16(%esp)	#,
 435      00000000 
 436 02c1 C744240C 		movl	$thread1, 12(%esp)	#,
 436      90010000 
 437 02c9 8B4008   		movl	8(%eax), %eax	# _2->p_prio, _2->p_prio
 438 02cc C7442404 		movl	$17008, 4(%esp)	#,
 438      70420000 
 439 02d4 83C001   		addl	$1, %eax	#, D.2383
 440 02d7 89442408 		movl	%eax, 8(%esp)	# D.2383,
 441 02db A1000000 		movl	wa, %eax	# wa, wa
 441      00
 442 02e0 890424   		movl	%eax, (%esp)	# wa,
 443 02e3 E8FCFFFF 		call	chThdCreateStatic	#
 443      FF
 444              	.LVL56:
 445 02e8 A3000000 		movl	%eax, threads	# D.2382, threads
 445      00
 446              		.loc 1 138 0
 447 02ed E8CEFEFF 		call	msg_loop_test	#
 447      FF
 448              	.LVL57:
 449 02f2 89C3     		movl	%eax, %ebx	#, n
 450              	.LVL58:
 451              		.loc 1 139 0
 452 02f4 E8FCFFFF 		call	test_wait_threads	#
 452      FF
 453              	.LVL59:
 454              		.loc 1 140 0
 455 02f9 C7042489 		movl	$.LC11, (%esp)	#,
 455      000000
 456 0300 E8FCFFFF 		call	test_print	#
 456      FF
 457              	.LVL60:
 458              		.loc 1 141 0
 459 0305 891C24   		movl	%ebx, (%esp)	# n,
 460              		.loc 1 143 0
 461 0308 01DB     		addl	%ebx, %ebx	# D.2383
 462              	.LVL61:
 463              		.loc 1 141 0
 464 030a E8FCFFFF 		call	test_printn	#
 464      FF
 465              	.LVL62:
 466              		.loc 1 142 0
 467 030f C7042496 		movl	$.LC12, (%esp)	#,
 467      000000
 468 0316 E8FCFFFF 		call	test_print	#
 468      FF
 469              	.LVL63:
 470              		.loc 1 143 0
 471 031b 891C24   		movl	%ebx, (%esp)	# D.2383,
 472 031e E8FCFFFF 		call	test_printn	#
 472      FF
 473              	.LVL64:
 474              		.loc 1 144 0
 475 0323 C70424A0 		movl	$.LC13, (%esp)	#,
GAS LISTING /tmp/ccmTSJ1m.s 			page 12


 475      000000
 476 032a E8FCFFFF 		call	test_println	#
 476      FF
 477              	.LVL65:
 478              		.loc 1 145 0
 479 032f 83C428   		addl	$40, %esp	#,
 480              		.cfi_def_cfa_offset 8
 481 0332 5B       		popl	%ebx	#
 482              		.cfi_restore 3
 483              		.cfi_def_cfa_offset 4
 484 0333 C3       		ret
 485              		.cfi_endproc
 486              	.LFE10:
 487              		.size	bmk2_execute, .-bmk2_execute
 488 0334 8DB60000 		.p2align 4,,15
 488      00008DBF 
 488      00000000 
 489              		.type	bmk3_execute, @function
 490              	bmk3_execute:
 491              	.LFB12:
 492              		.loc 1 169 0
 493              		.cfi_startproc
 494 0340 53       		pushl	%ebx	#
 495              		.cfi_def_cfa_offset 8
 496              		.cfi_offset 3, -8
 497 0341 83EC28   		subl	$40, %esp	#,
 498              		.cfi_def_cfa_offset 48
 499              		.loc 1 172 0
 500 0344 A1180000 		movl	rlist+24, %eax	# rlist.r_current, rlist.r_current
 500      00
 501 0349 C7442410 		movl	$0, 16(%esp)	#,
 501      00000000 
 502 0351 C744240C 		movl	$thread1, 12(%esp)	#,
 502      90010000 
 503 0359 8B4008   		movl	8(%eax), %eax	# _2->p_prio, _2->p_prio
 504 035c C7442404 		movl	$17008, 4(%esp)	#,
 504      70420000 
 505 0364 83C001   		addl	$1, %eax	#, D.2388
 506 0367 89442408 		movl	%eax, 8(%esp)	# D.2388,
 507 036b A1000000 		movl	wa, %eax	# wa, wa
 507      00
 508 0370 890424   		movl	%eax, (%esp)	# wa,
 509 0373 E8FCFFFF 		call	chThdCreateStatic	#
 509      FF
 510              	.LVL66:
 511              		.loc 1 173 0
 512 0378 C7442410 		movl	$0, 16(%esp)	#,
 512      00000000 
 513 0380 C744240C 		movl	$thread2, 12(%esp)	#,
 513      00000000 
 514              		.loc 1 172 0
 515 0388 A3000000 		movl	%eax, threads	# D.2387, threads
 515      00
 516              		.loc 1 173 0
 517 038d A1180000 		movl	rlist+24, %eax	# rlist.r_current, rlist.r_current
 517      00
 518 0392 8B4008   		movl	8(%eax), %eax	# _9->p_prio, _9->p_prio
GAS LISTING /tmp/ccmTSJ1m.s 			page 13


 519 0395 C7442404 		movl	$17008, 4(%esp)	#,
 519      70420000 
 520 039d 83E802   		subl	$2, %eax	#, D.2388
 521 03a0 89442408 		movl	%eax, 8(%esp)	# D.2388,
 522 03a4 A1040000 		movl	wa+4, %eax	# wa, wa
 522      00
 523 03a9 890424   		movl	%eax, (%esp)	# wa,
 524 03ac E8FCFFFF 		call	chThdCreateStatic	#
 524      FF
 525              	.LVL67:
 526              		.loc 1 174 0
 527 03b1 C7442410 		movl	$0, 16(%esp)	#,
 527      00000000 
 528 03b9 C744240C 		movl	$thread2, 12(%esp)	#,
 528      00000000 
 529              		.loc 1 173 0
 530 03c1 A3040000 		movl	%eax, threads+4	# D.2387, threads
 530      00
 531              		.loc 1 174 0
 532 03c6 A1180000 		movl	rlist+24, %eax	# rlist.r_current, rlist.r_current
 532      00
 533 03cb 8B4008   		movl	8(%eax), %eax	# _16->p_prio, _16->p_prio
 534 03ce C7442404 		movl	$17008, 4(%esp)	#,
 534      70420000 
 535 03d6 83E803   		subl	$3, %eax	#, D.2388
 536 03d9 89442408 		movl	%eax, 8(%esp)	# D.2388,
 537 03dd A1080000 		movl	wa+8, %eax	# wa, wa
 537      00
 538 03e2 890424   		movl	%eax, (%esp)	# wa,
 539 03e5 E8FCFFFF 		call	chThdCreateStatic	#
 539      FF
 540              	.LVL68:
 541              		.loc 1 175 0
 542 03ea C7442410 		movl	$0, 16(%esp)	#,
 542      00000000 
 543 03f2 C744240C 		movl	$thread2, 12(%esp)	#,
 543      00000000 
 544              		.loc 1 174 0
 545 03fa A3080000 		movl	%eax, threads+8	# D.2387, threads
 545      00
 546              		.loc 1 175 0
 547 03ff A1180000 		movl	rlist+24, %eax	# rlist.r_current, rlist.r_current
 547      00
 548 0404 8B4008   		movl	8(%eax), %eax	# _23->p_prio, _23->p_prio
 549 0407 C7442404 		movl	$17008, 4(%esp)	#,
 549      70420000 
 550 040f 83E804   		subl	$4, %eax	#, D.2388
 551 0412 89442408 		movl	%eax, 8(%esp)	# D.2388,
 552 0416 A10C0000 		movl	wa+12, %eax	# wa, wa
 552      00
 553 041b 890424   		movl	%eax, (%esp)	# wa,
 554 041e E8FCFFFF 		call	chThdCreateStatic	#
 554      FF
 555              	.LVL69:
 556              		.loc 1 176 0
 557 0423 C7442410 		movl	$0, 16(%esp)	#,
 557      00000000 
GAS LISTING /tmp/ccmTSJ1m.s 			page 14


 558 042b C744240C 		movl	$thread2, 12(%esp)	#,
 558      00000000 
 559              		.loc 1 175 0
 560 0433 A30C0000 		movl	%eax, threads+12	# D.2387, threads
 560      00
 561              		.loc 1 176 0
 562 0438 A1180000 		movl	rlist+24, %eax	# rlist.r_current, rlist.r_current
 562      00
 563 043d 8B4008   		movl	8(%eax), %eax	# _30->p_prio, _30->p_prio
 564 0440 C7442404 		movl	$17008, 4(%esp)	#,
 564      70420000 
 565 0448 83E805   		subl	$5, %eax	#, D.2388
 566 044b 89442408 		movl	%eax, 8(%esp)	# D.2388,
 567 044f A1100000 		movl	wa+16, %eax	# wa, wa
 567      00
 568 0454 890424   		movl	%eax, (%esp)	# wa,
 569 0457 E8FCFFFF 		call	chThdCreateStatic	#
 569      FF
 570              	.LVL70:
 571 045c A3100000 		movl	%eax, threads+16	# D.2387, threads
 571      00
 572              		.loc 1 177 0
 573 0461 A1000000 		movl	threads, %eax	# threads,
 573      00
 574 0466 E855FDFF 		call	msg_loop_test	#
 574      FF
 575              	.LVL71:
 576 046b 89C3     		movl	%eax, %ebx	#, n
 577              	.LVL72:
 578              		.loc 1 178 0
 579 046d E8FCFFFF 		call	test_wait_threads	#
 579      FF
 580              	.LVL73:
 581              		.loc 1 179 0
 582 0472 C7042489 		movl	$.LC11, (%esp)	#,
 582      000000
 583 0479 E8FCFFFF 		call	test_print	#
 583      FF
 584              	.LVL74:
 585              		.loc 1 180 0
 586 047e 891C24   		movl	%ebx, (%esp)	# n,
 587              		.loc 1 182 0
 588 0481 01DB     		addl	%ebx, %ebx	# D.2388
 589              	.LVL75:
 590              		.loc 1 180 0
 591 0483 E8FCFFFF 		call	test_printn	#
 591      FF
 592              	.LVL76:
 593              		.loc 1 181 0
 594 0488 C7042496 		movl	$.LC12, (%esp)	#,
 594      000000
 595 048f E8FCFFFF 		call	test_print	#
 595      FF
 596              	.LVL77:
 597              		.loc 1 182 0
 598 0494 891C24   		movl	%ebx, (%esp)	# D.2388,
 599 0497 E8FCFFFF 		call	test_printn	#
GAS LISTING /tmp/ccmTSJ1m.s 			page 15


 599      FF
 600              	.LVL78:
 601              		.loc 1 183 0
 602 049c C70424A0 		movl	$.LC13, (%esp)	#,
 602      000000
 603 04a3 E8FCFFFF 		call	test_println	#
 603      FF
 604              	.LVL79:
 605              		.loc 1 184 0
 606 04a8 83C428   		addl	$40, %esp	#,
 607              		.cfi_def_cfa_offset 8
 608 04ab 5B       		popl	%ebx	#
 609              		.cfi_restore 3
 610              		.cfi_def_cfa_offset 4
 611 04ac C3       		ret
 612              		.cfi_endproc
 613              	.LFE12:
 614              		.size	bmk3_execute, .-bmk3_execute
 615              		.section	.rodata.str1.1
 616              	.LC14:
 617 00aa 20746872 		.string	" threads/S"
 617      65616473 
 617      2F5300
 618              		.text
 619 04ad 8D7600   		.p2align 4,,15
 620              		.type	bmk6_execute, @function
 621              	bmk6_execute:
 622              	.LFB16:
 623              		.loc 1 304 0
 624              		.cfi_startproc
 625              	.LVL80:
 626 04b0 57       		pushl	%edi	#
 627              		.cfi_def_cfa_offset 8
 628              		.cfi_offset 7, -8
 629 04b1 56       		pushl	%esi	#
 630              		.cfi_def_cfa_offset 12
 631              		.cfi_offset 6, -12
 632 04b2 53       		pushl	%ebx	#
 633              		.cfi_def_cfa_offset 16
 634              		.cfi_offset 3, -16
 635              		.loc 1 306 0
 636 04b3 31DB     		xorl	%ebx, %ebx	# n
 637              		.loc 1 304 0
 638 04b5 83EC20   		subl	$32, %esp	#,
 639              		.cfi_def_cfa_offset 48
 640              		.loc 1 308 0
 641 04b8 A1180000 		movl	rlist+24, %eax	# rlist.r_current, rlist.r_current
 641      00
 642              		.loc 1 307 0
 643 04bd 8B3D0000 		movl	wa, %edi	# wa, wap
 643      0000
 644              	.LVL81:
 645              		.loc 1 308 0
 646 04c3 8B7008   		movl	8(%eax), %esi	# _5->p_prio, _5->p_prio
 647              		.loc 1 309 0
 648 04c6 E8FCFFFF 		call	test_wait_tick	#
 648      FF
GAS LISTING /tmp/ccmTSJ1m.s 			page 16


 649              	.LVL82:
 650              		.loc 1 310 0
 651 04cb C70424E8 		movl	$1000, (%esp)	#,
 651      030000
 652 04d2 E8FCFFFF 		call	test_start_timer	#
 652      FF
 653              	.LVL83:
 654              		.loc 1 308 0
 655 04d7 83C601   		addl	$1, %esi	#, prio
 656              	.LVL84:
 657 04da 8DB60000 		.p2align 4,,7
 657      0000
 658              		.p2align 3
 659              	.L22:
 660              		.loc 1 312 0 discriminator 1
 661 04e0 C7442410 		movl	$0, 16(%esp)	#,
 661      00000000 
 662              		.loc 1 313 0 discriminator 1
 663 04e8 83C301   		addl	$1, %ebx	#, n
 664              	.LVL85:
 665              		.loc 1 312 0 discriminator 1
 666 04eb C744240C 		movl	$thread2, 12(%esp)	#,
 666      00000000 
 667 04f3 89742408 		movl	%esi, 8(%esp)	# prio,
 668 04f7 C7442404 		movl	$17008, 4(%esp)	#,
 668      70420000 
 669 04ff 893C24   		movl	%edi, (%esp)	# wap,
 670 0502 E8FCFFFF 		call	chThdCreateStatic	#
 670      FF
 671              	.LVL86:
 672              		.loc 1 315 0 discriminator 1
 673 0507 E8FCFFFF 		call	ChkIntSources	#
 673      FF
 674              	.LVL87:
 675              		.loc 1 317 0 discriminator 1
 676 050c 803D0000 		cmpb	$0, test_timer_done	#, test_timer_done
 676      000000
 677 0513 74CB     		je	.L22	#,
 678              		.loc 1 318 0
 679 0515 C7042489 		movl	$.LC11, (%esp)	#,
 679      000000
 680 051c E8FCFFFF 		call	test_print	#
 680      FF
 681              	.LVL88:
 682              		.loc 1 319 0
 683 0521 891C24   		movl	%ebx, (%esp)	# n,
 684 0524 E8FCFFFF 		call	test_printn	#
 684      FF
 685              	.LVL89:
 686              		.loc 1 320 0
 687 0529 C70424AA 		movl	$.LC14, (%esp)	#,
 687      000000
 688 0530 E8FCFFFF 		call	test_println	#
 688      FF
 689              	.LVL90:
 690              		.loc 1 321 0
 691 0535 83C420   		addl	$32, %esp	#,
GAS LISTING /tmp/ccmTSJ1m.s 			page 17


 692              		.cfi_def_cfa_offset 16
 693 0538 5B       		popl	%ebx	#
 694              		.cfi_restore 3
 695              		.cfi_def_cfa_offset 12
 696              	.LVL91:
 697 0539 5E       		popl	%esi	#
 698              		.cfi_restore 6
 699              		.cfi_def_cfa_offset 8
 700              	.LVL92:
 701 053a 5F       		popl	%edi	#
 702              		.cfi_restore 7
 703              		.cfi_def_cfa_offset 4
 704              	.LVL93:
 705 053b C3       		ret
 706              		.cfi_endproc
 707              	.LFE16:
 708              		.size	bmk6_execute, .-bmk6_execute
 709 053c 8D742600 		.p2align 4,,15
 710              		.globl	thread4
 711              		.type	thread4, @function
 712              	thread4:
 713              	.LFB13:
 714              		.loc 1 203 0
 715              		.cfi_startproc
 716              	.LVL94:
 717 0540 53       		pushl	%ebx	#
 718              		.cfi_def_cfa_offset 8
 719              		.cfi_offset 3, -8
 720 0541 83EC18   		subl	$24, %esp	#,
 721              		.cfi_def_cfa_offset 32
 722              		.loc 1 205 0
 723 0544 8B1D1800 		movl	rlist+24, %ebx	# rlist.r_current, self
 723      0000
 724              	.LVL95:
 725              		.loc 1 208 0
 726              	#APP
 727              	# 208 "../../../test/testbmk.c" 1
   1              	/*
   2              	    ChibiOS/RT - Copyright (C) 2006-2013 Giovanni Di Sirio
   3              	
   4              	    Licensed under the Apache License, Version 2.0 (the "License");
   5              	    you may not use this file except in compliance with the License.
   6              	    You may obtain a copy of the License at
   7              	
   8              	        http://www.apache.org/licenses/LICENSE-2.0
   9              	
  10              	    Unless required by applicable law or agreed to in writing, software
  11              	    distributed under the License is distributed on an "AS IS" BASIS,
  12              	    WITHOUT WARRANTIES OR CONDITIONS OF ANY KIND, either express or implied.
  13              	    See the License for the specific language governing permissions and
  14              	    limitations under the License.
  15              	*/
  16              	
  17              	#include "ch.h"
  18              	#include "test.h"
  19              	
  20              	/**
GAS LISTING /tmp/ccmTSJ1m.s 			page 18


  21              	 * @page test_benchmarks Kernel Benchmarks
  22              	 *
  23              	 * File: @ref testbmk.c
  24              	 *
  25              	 * <h2>Description</h2>
  26              	 * This module implements a series of system benchmarks. The benchmarks are
  27              	 * useful as a stress test and as a reference when comparing ChibiOS/RT
  28              	 * with similar systems.
  29              	 *
  30              	 * <h2>Objective</h2>
  31              	 * Objective of the test module is to provide a performance index for the
  32              	 * most critical system subsystems. The performance numbers allow to
  33              	 * discover performance regressions between successive ChibiOS/RT releases.
  34              	 *
  35              	 * <h2>Preconditions</h2>
  36              	 * None.
  37              	 *
  38              	 * <h2>Test Cases</h2>
  39              	 * - @subpage test_benchmarks_001
  40              	 * - @subpage test_benchmarks_002
  41              	 * - @subpage test_benchmarks_003
  42              	 * - @subpage test_benchmarks_004
  43              	 * - @subpage test_benchmarks_005
  44              	 * - @subpage test_benchmarks_006
  45              	 * - @subpage test_benchmarks_007
  46              	 * - @subpage test_benchmarks_008
  47              	 * - @subpage test_benchmarks_009
  48              	 * - @subpage test_benchmarks_010
  49              	 * - @subpage test_benchmarks_011
  50              	 * - @subpage test_benchmarks_012
  51              	 * - @subpage test_benchmarks_013
  52              	 * .
  53              	 * @file testbmk.c Kernel Benchmarks
  54              	 * @brief Kernel Benchmarks source file
  55              	 * @file testbmk.h
  56              	 * @brief Kernel Benchmarks header file
  57              	 */
  58              	
  59              	static Semaphore sem1;
  60              	#if CH_USE_MUTEXES || defined(__DOXYGEN__)
  61              	static Mutex mtx1;
  62              	#endif
  63              	
  64              	static msg_t thread1(void *p) {
  65              	  Thread *tp;
  66              	  msg_t msg;
  67              	
  68              	  (void)p;
  69              	  do {
  70              	    tp = chMsgWait();
  71              	    msg = chMsgGet(tp);
  72              	    chMsgRelease(tp, msg);
  73              	  } while (msg);
  74              	  return 0;
  75              	}
  76              	
  77              	#ifdef __GNUC__
GAS LISTING /tmp/ccmTSJ1m.s 			page 19


  78              	__attribute__((noinline))
  79              	#endif
  80              	static unsigned int msg_loop_test(Thread *tp) {
  81              	
  82              	  uint32_t n = 0;
  83              	  test_wait_tick();
  84              	  test_start_timer(1000);
  85              	  do {
  86              	    (void)chMsgSend(tp, 1);
  87              	    n++;
  88              	#if defined(SIMULATOR)
  89              	    ChkIntSources();
  90              	#endif
  91              	  } while (!test_timer_done);
  92              	  (void)chMsgSend(tp, 0);
  93              	  return n;
  94              	}
  95              	
  96              	/**
  97              	 * @page test_benchmarks_001 Messages performance #1
  98              	 *
  99              	 * <h2>Description</h2>
 100              	 * A message server thread is created with a lower priority than the client
 101              	 * thread, the messages throughput per second is measured and the result
 102              	 * printed in the output log.
 103              	 */
 104              	
 105              	static void bmk1_execute(void) {
 106              	  uint32_t n;
 107              	
 108              	  threads[0] = chThdCreateStatic(wa[0], WA_SIZE, chThdGetPriority()-1, thread1, NULL);
 109              	  n = msg_loop_test(threads[0]);
 110              	  test_wait_threads();
 111              	  test_print("--- Score : ");
 112              	  test_printn(n);
 113              	  test_print(" msgs/S, ");
 114              	  test_printn(n << 1);
 115              	  test_println(" ctxswc/S");
 116              	}
 117              	
 118              	ROMCONST struct testcase testbmk1 = {
 119              	  "Benchmark, messages #1",
 120              	  NULL,
 121              	  NULL,
 122              	  bmk1_execute
 123              	};
 124              	
 125              	/**
 126              	 * @page test_benchmarks_002 Messages performance #2
 127              	 *
 128              	 * <h2>Description</h2>
 129              	 * A message server thread is created with an higher priority than the client
 130              	 * thread, the messages throughput per second is measured and the result
 131              	 * printed in the output log.
 132              	 */
 133              	
 134              	static void bmk2_execute(void) {
GAS LISTING /tmp/ccmTSJ1m.s 			page 20


 135              	  uint32_t n;
 136              	
 137              	  threads[0] = chThdCreateStatic(wa[0], WA_SIZE, chThdGetPriority()+1, thread1, NULL);
 138              	  n = msg_loop_test(threads[0]);
 139              	  test_wait_threads();
 140              	  test_print("--- Score : ");
 141              	  test_printn(n);
 142              	  test_print(" msgs/S, ");
 143              	  test_printn(n << 1);
 144              	  test_println(" ctxswc/S");
 145              	}
 146              	
 147              	ROMCONST struct testcase testbmk2 = {
 148              	  "Benchmark, messages #2",
 149              	  NULL,
 150              	  NULL,
 151              	  bmk2_execute
 152              	};
 153              	
 154              	static msg_t thread2(void *p) {
 155              	
 156              	  return (msg_t)p;
 157              	}
 158              	
 159              	/**
 160              	 * @page test_benchmarks_003 Messages performance #3
 161              	 *
 162              	 * <h2>Description</h2>
 163              	 * A message server thread is created with an higher priority than the client
 164              	 * thread, four lower priority threads crowd the ready list, the messages
 165              	 * throughput per second is measured while the ready list and the result
 166              	 * printed in the output log.
 167              	 */
 168              	
 169              	static void bmk3_execute(void) {
 170              	  uint32_t n;
 171              	
 172              	  threads[0] = chThdCreateStatic(wa[0], WA_SIZE, chThdGetPriority()+1, thread1, NULL);
 173              	  threads[1] = chThdCreateStatic(wa[1], WA_SIZE, chThdGetPriority()-2, thread2, NULL);
 174              	  threads[2] = chThdCreateStatic(wa[2], WA_SIZE, chThdGetPriority()-3, thread2, NULL);
 175              	  threads[3] = chThdCreateStatic(wa[3], WA_SIZE, chThdGetPriority()-4, thread2, NULL);
 176              	  threads[4] = chThdCreateStatic(wa[4], WA_SIZE, chThdGetPriority()-5, thread2, NULL);
 177              	  n = msg_loop_test(threads[0]);
 178              	  test_wait_threads();
 179              	  test_print("--- Score : ");
 180              	  test_printn(n);
 181              	  test_print(" msgs/S, ");
 182              	  test_printn(n << 1);
 183              	  test_println(" ctxswc/S");
 184              	}
 185              	
 186              	ROMCONST struct testcase testbmk3 = {
 187              	  "Benchmark, messages #3",
 188              	  NULL,
 189              	  NULL,
 190              	  bmk3_execute
 191              	};
GAS LISTING /tmp/ccmTSJ1m.s 			page 21


 192              	
 193              	/**
 194              	 * @page test_benchmarks_004 Context Switch performance
 195              	 *
 196              	 * <h2>Description</h2>
 197              	 * A thread is created that just performs a @p chSchGoSleepS() into a loop,
 198              	 * the thread is awakened as fast is possible by the tester thread.<br>
 199              	 * The Context Switch performance is calculated by measuring the number of
 200              	 * iterations after a second of continuous operations.
 201              	 */
 202              	
 203              	msg_t thread4(void *p) {
 204              	  msg_t msg;
 205              	  Thread *self = chThdSelf();
 206              	
 207              	  (void)p;
 208 054a 90       	  chSysLock();
 209              	  do {
 728              		nop
 729              	# 0 "" 2
 730 054b 908D7426 		.p2align 4,,7
 730      00
 731              		.p2align 3
 732              	#NO_APP
 733              	.L26:
 734              		.loc 1 210 0 discriminator 1
 735 0550 C7042402 		movl	$2, (%esp)	#,
 735      000000
 736 0557 E8FCFFFF 		call	chSchGoSleepS	#
 736      FF
 737              	.LVL96:
 738              		.loc 1 212 0 discriminator 1
 739 055c 8B4324   		movl	36(%ebx), %eax	# self_3->p_u.rdymsg,
 740 055f 85C0     		testl	%eax, %eax	#
 741 0561 74ED     		je	.L26	#,
 742              		.loc 1 213 0
 743              	#APP
 744              	# 213 "../../../test/testbmk.c" 1
 210              	    chSchGoSleepS(THD_STATE_SUSPENDED);
 211              	    msg = self->p_u.rdymsg;
 212              	  } while (msg == RDY_OK);
 213 0563 90       	  chSysUnlock();
 214              	  return 0;
 745              		nop
 746              	# 0 "" 2
 747              		.loc 1 215 0
 748              	#NO_APP
 749 0564 83C418   		addl	$24, %esp	#,
 750              		.cfi_def_cfa_offset 8
 751 0567 31C0     		xorl	%eax, %eax	#
 752 0569 5B       		popl	%ebx	#
 753              		.cfi_restore 3
 754              		.cfi_def_cfa_offset 4
 755              	.LVL97:
 756 056a C3       		ret
 757              		.cfi_endproc
 758              	.LFE13:
GAS LISTING /tmp/ccmTSJ1m.s 			page 22


 759              		.size	thread4, .-thread4
 760 056b 908D7426 		.p2align 4,,15
 760      00
 761              		.type	bmk4_execute, @function
 762              	bmk4_execute:
 763              	.LFB14:
 764              		.loc 1 217 0
 765              		.cfi_startproc
 766 0570 56       		pushl	%esi	#
 767              		.cfi_def_cfa_offset 8
 768              		.cfi_offset 6, -8
 769              		.loc 1 222 0
 770 0571 31F6     		xorl	%esi, %esi	# n
 771              		.loc 1 217 0
 772 0573 53       		pushl	%ebx	#
 773              		.cfi_def_cfa_offset 12
 774              		.cfi_offset 3, -12
 775 0574 83EC24   		subl	$36, %esp	#,
 776              		.cfi_def_cfa_offset 48
 777              		.loc 1 221 0
 778 0577 A1180000 		movl	rlist+24, %eax	# rlist.r_current, rlist.r_current
 778      00
 779 057c C7442410 		movl	$0, 16(%esp)	#,
 779      00000000 
 780 0584 C744240C 		movl	$thread4, 12(%esp)	#,
 780      00000000 
 781 058c 8B4008   		movl	8(%eax), %eax	# _4->p_prio, _4->p_prio
 782 058f C7442404 		movl	$17008, 4(%esp)	#,
 782      70420000 
 783 0597 83C001   		addl	$1, %eax	#, D.2405
 784 059a 89442408 		movl	%eax, 8(%esp)	# D.2405,
 785 059e A1000000 		movl	wa, %eax	# wa, wa
 785      00
 786 05a3 890424   		movl	%eax, (%esp)	# wa,
 787 05a6 E8FCFFFF 		call	chThdCreateStatic	#
 787      FF
 788              	.LVL98:
 789 05ab 89C3     		movl	%eax, %ebx	#, D.2404
 790 05ad A3000000 		movl	%eax, threads	# D.2404, threads
 790      00
 791              	.LVL99:
 792              		.loc 1 223 0
 793 05b2 E8FCFFFF 		call	test_wait_tick	#
 793      FF
 794              	.LVL100:
 795              		.loc 1 224 0
 796 05b7 C70424E8 		movl	$1000, (%esp)	#,
 796      030000
 797 05be E8FCFFFF 		call	test_start_timer	#
 797      FF
 798              	.LVL101:
 799              		.p2align 4,,7
 800 05c3 908D7426 		.p2align 3
 800      00
 801              	.L30:
 802              		.loc 1 226 0 discriminator 1
 803              	#APP
GAS LISTING /tmp/ccmTSJ1m.s 			page 23


 804              	# 226 "../../../test/testbmk.c" 1
 215              	}
 216              	
 217              	static void bmk4_execute(void) {
 218              	  Thread *tp;
 219              	  uint32_t n;
 220              	
 221              	  tp = threads[0] = chThdCreateStatic(wa[0], WA_SIZE, chThdGetPriority()+1, thread4, NULL);
 222              	  n = 0;
 223              	  test_wait_tick();
 224              	  test_start_timer(1000);
 225              	  do {
 226 05c8 90       	    chSysLock();
 227              	    chSchWakeupS(tp, RDY_OK);
 805              		nop
 806              	# 0 "" 2
 807              		.loc 1 227 0 discriminator 1
 808              	#NO_APP
 809 05c9 C7442404 		movl	$0, 4(%esp)	#,
 809      00000000 
 810 05d1 891C24   		movl	%ebx, (%esp)	# D.2404,
 811 05d4 E8FCFFFF 		call	chSchWakeupS	#
 811      FF
 812              	.LVL102:
 813              		.loc 1 228 0 discriminator 1
 814 05d9 C7442404 		movl	$0, 4(%esp)	#,
 814      00000000 
 815 05e1 891C24   		movl	%ebx, (%esp)	# D.2404,
 816 05e4 E8FCFFFF 		call	chSchWakeupS	#
 816      FF
 817              	.LVL103:
 818              		.loc 1 229 0 discriminator 1
 819 05e9 C7442404 		movl	$0, 4(%esp)	#,
 819      00000000 
 820 05f1 891C24   		movl	%ebx, (%esp)	# D.2404,
 821 05f4 E8FCFFFF 		call	chSchWakeupS	#
 821      FF
 822              	.LVL104:
 823              		.loc 1 230 0 discriminator 1
 824 05f9 C7442404 		movl	$0, 4(%esp)	#,
 824      00000000 
 825 0601 891C24   		movl	%ebx, (%esp)	# D.2404,
 826 0604 E8FCFFFF 		call	chSchWakeupS	#
 826      FF
 827              	.LVL105:
 828              		.loc 1 231 0 discriminator 1
 829              	#APP
 830              	# 231 "../../../test/testbmk.c" 1
 228              	    chSchWakeupS(tp, RDY_OK);
 229              	    chSchWakeupS(tp, RDY_OK);
 230              	    chSchWakeupS(tp, RDY_OK);
 231 0609 90       	    chSysUnlock();
 232              	    n += 4;
 831              		nop
 832              	# 0 "" 2
 833              		.loc 1 232 0 discriminator 1
 834              	#NO_APP
GAS LISTING /tmp/ccmTSJ1m.s 			page 24


 835 060a 83C604   		addl	$4, %esi	#, n
 836              	.LVL106:
 837              		.loc 1 234 0 discriminator 1
 838 060d E8FCFFFF 		call	ChkIntSources	#
 838      FF
 839              	.LVL107:
 840              		.loc 1 236 0 discriminator 1
 841 0612 803D0000 		cmpb	$0, test_timer_done	#, test_timer_done
 841      000000
 842 0619 74AD     		je	.L30	#,
 843              		.loc 1 237 0
 844              	#APP
 845              	# 237 "../../../test/testbmk.c" 1
 233              	#if defined(SIMULATOR)
 234              	    ChkIntSources();
 235              	#endif
 236              	  } while (!test_timer_done);
 237 061b 90       	  chSysLock();
 238              	  chSchWakeupS(tp, RDY_TIMEOUT);
 846              		nop
 847              	# 0 "" 2
 848              		.loc 1 238 0
 849              	#NO_APP
 850 061c C7442404 		movl	$-1, 4(%esp)	#,
 850      FFFFFFFF 
 851 0624 891C24   		movl	%ebx, (%esp)	# D.2404,
 852 0627 E8FCFFFF 		call	chSchWakeupS	#
 852      FF
 853              	.LVL108:
 854              		.loc 1 239 0
 855              	#APP
 856              	# 239 "../../../test/testbmk.c" 1
 239 062c 90       	  chSysUnlock();
 240              	
 857              		nop
 858              	# 0 "" 2
 859              		.loc 1 241 0
 860              	#NO_APP
 861 062d E8FCFFFF 		call	test_wait_threads	#
 861      FF
 862              	.LVL109:
 863              		.loc 1 243 0
 864 0632 01F6     		addl	%esi, %esi	# D.2405
 865              	.LVL110:
 866              		.loc 1 242 0
 867 0634 C7042489 		movl	$.LC11, (%esp)	#,
 867      000000
 868 063b E8FCFFFF 		call	test_print	#
 868      FF
 869              	.LVL111:
 870              		.loc 1 243 0
 871 0640 893424   		movl	%esi, (%esp)	# D.2405,
 872 0643 E8FCFFFF 		call	test_printn	#
 872      FF
 873              	.LVL112:
 874              		.loc 1 244 0
 875 0648 C70424A0 		movl	$.LC13, (%esp)	#,
GAS LISTING /tmp/ccmTSJ1m.s 			page 25


 875      000000
 876 064f E8FCFFFF 		call	test_println	#
 876      FF
 877              	.LVL113:
 878              		.loc 1 245 0
 879 0654 83C424   		addl	$36, %esp	#,
 880              		.cfi_def_cfa_offset 12
 881 0657 5B       		popl	%ebx	#
 882              		.cfi_restore 3
 883              		.cfi_def_cfa_offset 8
 884              	.LVL114:
 885 0658 5E       		popl	%esi	#
 886              		.cfi_restore 6
 887              		.cfi_def_cfa_offset 4
 888 0659 C3       		ret
 889              		.cfi_endproc
 890              	.LFE14:
 891              		.size	bmk4_execute, .-bmk4_execute
 892 065a 8DB60000 		.p2align 4,,15
 892      0000
 893              		.type	bmk5_execute, @function
 894              	bmk5_execute:
 895              	.LFB15:
 896              		.loc 1 265 0
 897              		.cfi_startproc
 898              	.LVL115:
 899 0660 57       		pushl	%edi	#
 900              		.cfi_def_cfa_offset 8
 901              		.cfi_offset 7, -8
 902 0661 56       		pushl	%esi	#
 903              		.cfi_def_cfa_offset 12
 904              		.cfi_offset 6, -12
 905 0662 53       		pushl	%ebx	#
 906              		.cfi_def_cfa_offset 16
 907              		.cfi_offset 3, -16
 908              		.loc 1 267 0
 909 0663 31DB     		xorl	%ebx, %ebx	# n
 910              		.loc 1 265 0
 911 0665 83EC20   		subl	$32, %esp	#,
 912              		.cfi_def_cfa_offset 48
 913              		.loc 1 269 0
 914 0668 A1180000 		movl	rlist+24, %eax	# rlist.r_current, rlist.r_current
 914      00
 915              		.loc 1 268 0
 916 066d 8B3D0000 		movl	wa, %edi	# wa, wap
 916      0000
 917              	.LVL116:
 918              		.loc 1 269 0
 919 0673 8B7008   		movl	8(%eax), %esi	# _5->p_prio, _5->p_prio
 920              		.loc 1 270 0
 921 0676 E8FCFFFF 		call	test_wait_tick	#
 921      FF
 922              	.LVL117:
 923              		.loc 1 271 0
 924 067b C70424E8 		movl	$1000, (%esp)	#,
 924      030000
 925 0682 E8FCFFFF 		call	test_start_timer	#
GAS LISTING /tmp/ccmTSJ1m.s 			page 26


 925      FF
 926              	.LVL118:
 927              		.loc 1 269 0
 928 0687 83EE01   		subl	$1, %esi	#, prio
 929              	.LVL119:
 930 068a 8DB60000 		.p2align 4,,7
 930      0000
 931              		.p2align 3
 932              	.L34:
 933              		.loc 1 273 0 discriminator 1
 934 0690 C7442410 		movl	$0, 16(%esp)	#,
 934      00000000 
 935              		.loc 1 274 0 discriminator 1
 936 0698 83C301   		addl	$1, %ebx	#, n
 937              	.LVL120:
 938              		.loc 1 273 0 discriminator 1
 939 069b C744240C 		movl	$thread2, 12(%esp)	#,
 939      00000000 
 940 06a3 89742408 		movl	%esi, 8(%esp)	# prio,
 941 06a7 C7442404 		movl	$17008, 4(%esp)	#,
 941      70420000 
 942 06af 893C24   		movl	%edi, (%esp)	# wap,
 943 06b2 E8FCFFFF 		call	chThdCreateStatic	#
 943      FF
 944              	.LVL121:
 945 06b7 890424   		movl	%eax, (%esp)	# D.2411,
 946 06ba E8FCFFFF 		call	chThdWait	#
 946      FF
 947              	.LVL122:
 948              		.loc 1 276 0 discriminator 1
 949 06bf E8FCFFFF 		call	ChkIntSources	#
 949      FF
 950              	.LVL123:
 951              		.loc 1 278 0 discriminator 1
 952 06c4 803D0000 		cmpb	$0, test_timer_done	#, test_timer_done
 952      000000
 953 06cb 74C3     		je	.L34	#,
 954              		.loc 1 279 0
 955 06cd C7042489 		movl	$.LC11, (%esp)	#,
 955      000000
 956 06d4 E8FCFFFF 		call	test_print	#
 956      FF
 957              	.LVL124:
 958              		.loc 1 280 0
 959 06d9 891C24   		movl	%ebx, (%esp)	# n,
 960 06dc E8FCFFFF 		call	test_printn	#
 960      FF
 961              	.LVL125:
 962              		.loc 1 281 0
 963 06e1 C70424AA 		movl	$.LC14, (%esp)	#,
 963      000000
 964 06e8 E8FCFFFF 		call	test_println	#
 964      FF
 965              	.LVL126:
 966              		.loc 1 282 0
 967 06ed 83C420   		addl	$32, %esp	#,
 968              		.cfi_def_cfa_offset 16
GAS LISTING /tmp/ccmTSJ1m.s 			page 27


 969 06f0 5B       		popl	%ebx	#
 970              		.cfi_restore 3
 971              		.cfi_def_cfa_offset 12
 972              	.LVL127:
 973 06f1 5E       		popl	%esi	#
 974              		.cfi_restore 6
 975              		.cfi_def_cfa_offset 8
 976              	.LVL128:
 977 06f2 5F       		popl	%edi	#
 978              		.cfi_restore 7
 979              		.cfi_def_cfa_offset 4
 980              	.LVL129:
 981 06f3 C3       		ret
 982              		.cfi_endproc
 983              	.LFE15:
 984              		.size	bmk5_execute, .-bmk5_execute
 985              		.section	.rodata.str1.1
 986              	.LC15:
 987 00b5 20726573 		.string	" reschedules/S, "
 987      63686564 
 987      756C6573 
 987      2F532C20 
 987      00
 988              		.text
 989 06f4 8DB60000 		.p2align 4,,15
 989      00008DBF 
 989      00000000 
 990              		.type	bmk7_execute, @function
 991              	bmk7_execute:
 992              	.LFB19:
 993              		.loc 1 354 0
 994              		.cfi_startproc
 995 0700 53       		pushl	%ebx	#
 996              		.cfi_def_cfa_offset 8
 997              		.cfi_offset 3, -8
 998              		.loc 1 363 0
 999 0701 31DB     		xorl	%ebx, %ebx	# n
 1000              		.loc 1 354 0
 1001 0703 83EC28   		subl	$40, %esp	#,
 1002              		.cfi_def_cfa_offset 48
 1003              		.loc 1 357 0
 1004 0706 A1180000 		movl	rlist+24, %eax	# rlist.r_current, rlist.r_current
 1004      00
 1005 070b C7442410 		movl	$0, 16(%esp)	#,
 1005      00000000 
 1006 0713 C744240C 		movl	$thread3, 12(%esp)	#,
 1006      C0080000 
 1007 071b 8B4008   		movl	8(%eax), %eax	# _4->p_prio, _4->p_prio
 1008 071e C7442404 		movl	$17008, 4(%esp)	#,
 1008      70420000 
 1009 0726 83C005   		addl	$5, %eax	#, D.2418
 1010 0729 89442408 		movl	%eax, 8(%esp)	# D.2418,
 1011 072d A1000000 		movl	wa, %eax	# wa, wa
 1011      00
 1012 0732 890424   		movl	%eax, (%esp)	# wa,
 1013 0735 E8FCFFFF 		call	chThdCreateStatic	#
 1013      FF
GAS LISTING /tmp/ccmTSJ1m.s 			page 28


 1014              	.LVL130:
 1015              		.loc 1 358 0
 1016 073a C7442410 		movl	$0, 16(%esp)	#,
 1016      00000000 
 1017 0742 C744240C 		movl	$thread3, 12(%esp)	#,
 1017      C0080000 
 1018              		.loc 1 357 0
 1019 074a A3000000 		movl	%eax, threads	# D.2417, threads
 1019      00
 1020              		.loc 1 358 0
 1021 074f A1180000 		movl	rlist+24, %eax	# rlist.r_current, rlist.r_current
 1021      00
 1022 0754 8B4008   		movl	8(%eax), %eax	# _11->p_prio, _11->p_prio
 1023 0757 C7442404 		movl	$17008, 4(%esp)	#,
 1023      70420000 
 1024 075f 83C004   		addl	$4, %eax	#, D.2418
 1025 0762 89442408 		movl	%eax, 8(%esp)	# D.2418,
 1026 0766 A1040000 		movl	wa+4, %eax	# wa, wa
 1026      00
 1027 076b 890424   		movl	%eax, (%esp)	# wa,
 1028 076e E8FCFFFF 		call	chThdCreateStatic	#
 1028      FF
 1029              	.LVL131:
 1030              		.loc 1 359 0
 1031 0773 C7442410 		movl	$0, 16(%esp)	#,
 1031      00000000 
 1032 077b C744240C 		movl	$thread3, 12(%esp)	#,
 1032      C0080000 
 1033              		.loc 1 358 0
 1034 0783 A3040000 		movl	%eax, threads+4	# D.2417, threads
 1034      00
 1035              		.loc 1 359 0
 1036 0788 A1180000 		movl	rlist+24, %eax	# rlist.r_current, rlist.r_current
 1036      00
 1037 078d 8B4008   		movl	8(%eax), %eax	# _18->p_prio, _18->p_prio
 1038 0790 C7442404 		movl	$17008, 4(%esp)	#,
 1038      70420000 
 1039 0798 83C003   		addl	$3, %eax	#, D.2418
 1040 079b 89442408 		movl	%eax, 8(%esp)	# D.2418,
 1041 079f A1080000 		movl	wa+8, %eax	# wa, wa
 1041      00
 1042 07a4 890424   		movl	%eax, (%esp)	# wa,
 1043 07a7 E8FCFFFF 		call	chThdCreateStatic	#
 1043      FF
 1044              	.LVL132:
 1045              		.loc 1 360 0
 1046 07ac C7442410 		movl	$0, 16(%esp)	#,
 1046      00000000 
 1047 07b4 C744240C 		movl	$thread3, 12(%esp)	#,
 1047      C0080000 
 1048              		.loc 1 359 0
 1049 07bc A3080000 		movl	%eax, threads+8	# D.2417, threads
 1049      00
 1050              		.loc 1 360 0
 1051 07c1 A1180000 		movl	rlist+24, %eax	# rlist.r_current, rlist.r_current
 1051      00
 1052 07c6 8B4008   		movl	8(%eax), %eax	# _25->p_prio, _25->p_prio
GAS LISTING /tmp/ccmTSJ1m.s 			page 29


 1053 07c9 C7442404 		movl	$17008, 4(%esp)	#,
 1053      70420000 
 1054 07d1 83C002   		addl	$2, %eax	#, D.2418
 1055 07d4 89442408 		movl	%eax, 8(%esp)	# D.2418,
 1056 07d8 A10C0000 		movl	wa+12, %eax	# wa, wa
 1056      00
 1057 07dd 890424   		movl	%eax, (%esp)	# wa,
 1058 07e0 E8FCFFFF 		call	chThdCreateStatic	#
 1058      FF
 1059              	.LVL133:
 1060              		.loc 1 361 0
 1061 07e5 C7442410 		movl	$0, 16(%esp)	#,
 1061      00000000 
 1062 07ed C744240C 		movl	$thread3, 12(%esp)	#,
 1062      C0080000 
 1063              		.loc 1 360 0
 1064 07f5 A30C0000 		movl	%eax, threads+12	# D.2417, threads
 1064      00
 1065              		.loc 1 361 0
 1066 07fa A1180000 		movl	rlist+24, %eax	# rlist.r_current, rlist.r_current
 1066      00
 1067 07ff 8B4008   		movl	8(%eax), %eax	# _32->p_prio, _32->p_prio
 1068 0802 C7442404 		movl	$17008, 4(%esp)	#,
 1068      70420000 
 1069 080a 83C001   		addl	$1, %eax	#, D.2418
 1070 080d 89442408 		movl	%eax, 8(%esp)	# D.2418,
 1071 0811 A1100000 		movl	wa+16, %eax	# wa, wa
 1071      00
 1072 0816 890424   		movl	%eax, (%esp)	# wa,
 1073 0819 E8FCFFFF 		call	chThdCreateStatic	#
 1073      FF
 1074              	.LVL134:
 1075 081e A3100000 		movl	%eax, threads+16	# D.2417, threads
 1075      00
 1076              	.LVL135:
 1077              		.loc 1 364 0
 1078 0823 E8FCFFFF 		call	test_wait_tick	#
 1078      FF
 1079              	.LVL136:
 1080              		.loc 1 365 0
 1081 0828 C70424E8 		movl	$1000, (%esp)	#,
 1081      030000
 1082 082f E8FCFFFF 		call	test_start_timer	#
 1082      FF
 1083              	.LVL137:
 1084              		.p2align 4,,7
 1085 0834 8D742600 		.p2align 3
 1086              	.L38:
 1087              		.loc 1 367 0 discriminator 1
 1088 0838 C7442404 		movl	$0, 4(%esp)	#,
 1088      00000000 
 1089              		.loc 1 368 0 discriminator 1
 1090 0840 83C301   		addl	$1, %ebx	#, n
 1091              	.LVL138:
 1092              		.loc 1 367 0 discriminator 1
 1093 0843 C7042474 		movl	$sem1, (%esp)	#,
 1093      000000
GAS LISTING /tmp/ccmTSJ1m.s 			page 30


 1094 084a E8FCFFFF 		call	chSemReset	#
 1094      FF
 1095              	.LVL139:
 1096              		.loc 1 370 0 discriminator 1
 1097 084f E8FCFFFF 		call	ChkIntSources	#
 1097      FF
 1098              	.LVL140:
 1099              		.loc 1 372 0 discriminator 1
 1100 0854 803D0000 		cmpb	$0, test_timer_done	#, test_timer_done
 1100      000000
 1101 085b 74DB     		je	.L38	#,
 1102              		.loc 1 373 0
 1103 085d E8FCFFFF 		call	test_terminate_threads	#
 1103      FF
 1104              	.LVL141:
 1105              		.loc 1 374 0
 1106 0862 C7442404 		movl	$0, 4(%esp)	#,
 1106      00000000 
 1107 086a C7042474 		movl	$sem1, (%esp)	#,
 1107      000000
 1108 0871 E8FCFFFF 		call	chSemReset	#
 1108      FF
 1109              	.LVL142:
 1110              		.loc 1 375 0
 1111 0876 E8FCFFFF 		call	test_wait_threads	#
 1111      FF
 1112              	.LVL143:
 1113              		.loc 1 377 0
 1114 087b C7042489 		movl	$.LC11, (%esp)	#,
 1114      000000
 1115 0882 E8FCFFFF 		call	test_print	#
 1115      FF
 1116              	.LVL144:
 1117              		.loc 1 378 0
 1118 0887 891C24   		movl	%ebx, (%esp)	# n,
 1119 088a E8FCFFFF 		call	test_printn	#
 1119      FF
 1120              	.LVL145:
 1121              		.loc 1 379 0
 1122 088f C70424B5 		movl	$.LC15, (%esp)	#,
 1122      000000
 1123 0896 E8FCFFFF 		call	test_print	#
 1123      FF
 1124              	.LVL146:
 1125              		.loc 1 380 0
 1126 089b 8D045B   		leal	(%ebx,%ebx,2), %eax	#, D.2418
 1127 089e 01C0     		addl	%eax, %eax	# tmp120
 1128 08a0 890424   		movl	%eax, (%esp)	# tmp120,
 1129 08a3 E8FCFFFF 		call	test_printn	#
 1129      FF
 1130              	.LVL147:
 1131              		.loc 1 381 0
 1132 08a8 C70424A0 		movl	$.LC13, (%esp)	#,
 1132      000000
 1133 08af E8FCFFFF 		call	test_println	#
 1133      FF
 1134              	.LVL148:
GAS LISTING /tmp/ccmTSJ1m.s 			page 31


 1135              		.loc 1 382 0
 1136 08b4 83C428   		addl	$40, %esp	#,
 1137              		.cfi_def_cfa_offset 8
 1138 08b7 5B       		popl	%ebx	#
 1139              		.cfi_restore 3
 1140              		.cfi_def_cfa_offset 4
 1141              	.LVL149:
 1142 08b8 C3       		ret
 1143              		.cfi_endproc
 1144              	.LFE19:
 1145              		.size	bmk7_execute, .-bmk7_execute
 1146 08b9 8DB42600 		.p2align 4,,15
 1146      000000
 1147              		.type	thread3, @function
 1148              	thread3:
 1149              	.LFB17:
 1150              		.loc 1 341 0
 1151              		.cfi_startproc
 1152              	.LVL150:
 1153              		.loc 1 344 0
 1154 08c0 A1180000 		movl	rlist+24, %eax	# rlist.r_current, rlist.r_current
 1154      00
 1155 08c5 F6401D04 		testb	$4, 29(%eax)	#, _8->p_flags
 1156 08c9 7522     		jne	.L48	#,
 1157              		.loc 1 341 0
 1158 08cb 83EC1C   		subl	$28, %esp	#,
 1159              		.cfi_def_cfa_offset 32
 1160 08ce 6690     		.p2align 4,,7
 1161              		.p2align 3
 1162              	.L45:
 1163              		.loc 1 345 0
 1164 08d0 C7042474 		movl	$sem1, (%esp)	#,
 1164      000000
 1165 08d7 E8FCFFFF 		call	chSemWait	#
 1165      FF
 1166              	.LVL151:
 1167              		.loc 1 344 0
 1168 08dc A1180000 		movl	rlist+24, %eax	# rlist.r_current, rlist.r_current
 1168      00
 1169 08e1 F6401D04 		testb	$4, 29(%eax)	#, _3->p_flags
 1170 08e5 74E9     		je	.L45	#,
 1171              		.loc 1 347 0
 1172 08e7 31C0     		xorl	%eax, %eax	#
 1173 08e9 83C41C   		addl	$28, %esp	#,
 1174              		.cfi_def_cfa_offset 4
 1175 08ec C3       		ret
 1176              	.L48:
 1177 08ed 31C0     		xorl	%eax, %eax	#
 1178 08ef C3       		ret
 1179              		.cfi_endproc
 1180              	.LFE17:
 1181              		.size	thread3, .-thread3
 1182              		.p2align 4,,15
 1183              		.type	bmk7_setup, @function
 1184              	bmk7_setup:
 1185              	.LFB18:
 1186              		.loc 1 349 0
GAS LISTING /tmp/ccmTSJ1m.s 			page 32


 1187              		.cfi_startproc
 1188 08f0 83EC1C   		subl	$28, %esp	#,
 1189              		.cfi_def_cfa_offset 32
 1190              		.loc 1 351 0
 1191 08f3 C7442404 		movl	$0, 4(%esp)	#,
 1191      00000000 
 1192 08fb C7042474 		movl	$sem1, (%esp)	#,
 1192      000000
 1193 0902 E8FCFFFF 		call	chSemInit	#
 1193      FF
 1194              	.LVL152:
 1195              		.loc 1 352 0
 1196 0907 83C41C   		addl	$28, %esp	#,
 1197              		.cfi_def_cfa_offset 4
 1198 090a C3       		ret
 1199              		.cfi_endproc
 1200              	.LFE18:
 1201              		.size	bmk7_setup, .-bmk7_setup
 1202 090b 908D7426 		.p2align 4,,15
 1202      00
 1203              		.type	bmk11_setup, @function
 1204              	bmk11_setup:
 1205              	.LFB25:
 1206              		.loc 1 545 0
 1207              		.cfi_startproc
 1208 0910 83EC1C   		subl	$28, %esp	#,
 1209              		.cfi_def_cfa_offset 32
 1210              		.loc 1 547 0
 1211 0913 C7442404 		movl	$1, 4(%esp)	#,
 1211      01000000 
 1212 091b C7042474 		movl	$sem1, (%esp)	#,
 1212      000000
 1213 0922 E8FCFFFF 		call	chSemInit	#
 1213      FF
 1214              	.LVL153:
 1215              		.loc 1 548 0
 1216 0927 83C41C   		addl	$28, %esp	#,
 1217              		.cfi_def_cfa_offset 4
 1218 092a C3       		ret
 1219              		.cfi_endproc
 1220              	.LFE25:
 1221              		.size	bmk11_setup, .-bmk11_setup
 1222 092b 908D7426 		.p2align 4,,15
 1222      00
 1223              		.type	bmk8_execute, @function
 1224              	bmk8_execute:
 1225              	.LFB21:
 1226              		.loc 1 416 0
 1227              		.cfi_startproc
 1228 0930 53       		pushl	%ebx	#
 1229              		.cfi_def_cfa_offset 8
 1230              		.cfi_offset 3, -8
 1231 0931 83EC38   		subl	$56, %esp	#,
 1232              		.cfi_def_cfa_offset 64
 1233              		.loc 1 419 0
 1234 0934 C744242C 		movl	$0, 44(%esp)	#, n
 1234      00000000 
GAS LISTING /tmp/ccmTSJ1m.s 			page 33


 1235              		.loc 1 422 0
 1236 093c 8D5C242C 		leal	44(%esp), %ebx	#, tmp85
 1237              		.loc 1 420 0
 1238 0940 E8FCFFFF 		call	test_wait_tick	#
 1238      FF
 1239              	.LVL154:
 1240              		.loc 1 422 0
 1241 0945 A1180000 		movl	rlist+24, %eax	# rlist.r_current, rlist.r_current
 1241      00
 1242 094a 895C2410 		movl	%ebx, 16(%esp)	# tmp85,
 1243 094e C744240C 		movl	$thread8, 12(%esp)	#,
 1243      900A0000 
 1244 0956 8B4008   		movl	8(%eax), %eax	# _4->p_prio, _4->p_prio
 1245 0959 C7442404 		movl	$17008, 4(%esp)	#,
 1245      70420000 
 1246 0961 83E801   		subl	$1, %eax	#, D.2432
 1247 0964 89442408 		movl	%eax, 8(%esp)	# D.2432,
 1248 0968 A1000000 		movl	wa, %eax	# wa, wa
 1248      00
 1249 096d 890424   		movl	%eax, (%esp)	# wa,
 1250 0970 E8FCFFFF 		call	chThdCreateStatic	#
 1250      FF
 1251              	.LVL155:
 1252              		.loc 1 423 0
 1253 0975 895C2410 		movl	%ebx, 16(%esp)	# tmp85,
 1254 0979 C744240C 		movl	$thread8, 12(%esp)	#,
 1254      900A0000 
 1255              		.loc 1 422 0
 1256 0981 A3000000 		movl	%eax, threads	# D.2431, threads
 1256      00
 1257              		.loc 1 423 0
 1258 0986 A1180000 		movl	rlist+24, %eax	# rlist.r_current, rlist.r_current
 1258      00
 1259 098b 8B4008   		movl	8(%eax), %eax	# _11->p_prio, _11->p_prio
 1260 098e C7442404 		movl	$17008, 4(%esp)	#,
 1260      70420000 
 1261 0996 83E801   		subl	$1, %eax	#, D.2432
 1262 0999 89442408 		movl	%eax, 8(%esp)	# D.2432,
 1263 099d A1040000 		movl	wa+4, %eax	# wa, wa
 1263      00
 1264 09a2 890424   		movl	%eax, (%esp)	# wa,
 1265 09a5 E8FCFFFF 		call	chThdCreateStatic	#
 1265      FF
 1266              	.LVL156:
 1267              		.loc 1 424 0
 1268 09aa 895C2410 		movl	%ebx, 16(%esp)	# tmp85,
 1269 09ae C744240C 		movl	$thread8, 12(%esp)	#,
 1269      900A0000 
 1270              		.loc 1 423 0
 1271 09b6 A3040000 		movl	%eax, threads+4	# D.2431, threads
 1271      00
 1272              		.loc 1 424 0
 1273 09bb A1180000 		movl	rlist+24, %eax	# rlist.r_current, rlist.r_current
 1273      00
 1274 09c0 8B4008   		movl	8(%eax), %eax	# _18->p_prio, _18->p_prio
 1275 09c3 C7442404 		movl	$17008, 4(%esp)	#,
 1275      70420000 
GAS LISTING /tmp/ccmTSJ1m.s 			page 34


 1276 09cb 83E801   		subl	$1, %eax	#, D.2432
 1277 09ce 89442408 		movl	%eax, 8(%esp)	# D.2432,
 1278 09d2 A1080000 		movl	wa+8, %eax	# wa, wa
 1278      00
 1279 09d7 890424   		movl	%eax, (%esp)	# wa,
 1280 09da E8FCFFFF 		call	chThdCreateStatic	#
 1280      FF
 1281              	.LVL157:
 1282              		.loc 1 425 0
 1283 09df 895C2410 		movl	%ebx, 16(%esp)	# tmp85,
 1284 09e3 C744240C 		movl	$thread8, 12(%esp)	#,
 1284      900A0000 
 1285              		.loc 1 424 0
 1286 09eb A3080000 		movl	%eax, threads+8	# D.2431, threads
 1286      00
 1287              		.loc 1 425 0
 1288 09f0 A1180000 		movl	rlist+24, %eax	# rlist.r_current, rlist.r_current
 1288      00
 1289 09f5 8B4008   		movl	8(%eax), %eax	# _25->p_prio, _25->p_prio
 1290 09f8 C7442404 		movl	$17008, 4(%esp)	#,
 1290      70420000 
 1291 0a00 83E801   		subl	$1, %eax	#, D.2432
 1292 0a03 89442408 		movl	%eax, 8(%esp)	# D.2432,
 1293 0a07 A10C0000 		movl	wa+12, %eax	# wa, wa
 1293      00
 1294 0a0c 890424   		movl	%eax, (%esp)	# wa,
 1295 0a0f E8FCFFFF 		call	chThdCreateStatic	#
 1295      FF
 1296              	.LVL158:
 1297              		.loc 1 426 0
 1298 0a14 895C2410 		movl	%ebx, 16(%esp)	# tmp85,
 1299 0a18 C744240C 		movl	$thread8, 12(%esp)	#,
 1299      900A0000 
 1300              		.loc 1 425 0
 1301 0a20 A30C0000 		movl	%eax, threads+12	# D.2431, threads
 1301      00
 1302              		.loc 1 426 0
 1303 0a25 A1180000 		movl	rlist+24, %eax	# rlist.r_current, rlist.r_current
 1303      00
 1304 0a2a 8B4008   		movl	8(%eax), %eax	# _32->p_prio, _32->p_prio
 1305 0a2d C7442404 		movl	$17008, 4(%esp)	#,
 1305      70420000 
 1306 0a35 83E801   		subl	$1, %eax	#, D.2432
 1307 0a38 89442408 		movl	%eax, 8(%esp)	# D.2432,
 1308 0a3c A1100000 		movl	wa+16, %eax	# wa, wa
 1308      00
 1309 0a41 890424   		movl	%eax, (%esp)	# wa,
 1310 0a44 E8FCFFFF 		call	chThdCreateStatic	#
 1310      FF
 1311              	.LVL159:
 1312              		.loc 1 428 0
 1313 0a49 C70424E8 		movl	$1000, (%esp)	#,
 1313      030000
 1314              		.loc 1 426 0
 1315 0a50 A3100000 		movl	%eax, threads+16	# D.2431, threads
 1315      00
 1316              		.loc 1 428 0
GAS LISTING /tmp/ccmTSJ1m.s 			page 35


 1317 0a55 E8FCFFFF 		call	chThdSleep	#
 1317      FF
 1318              	.LVL160:
 1319              		.loc 1 429 0
 1320 0a5a E8FCFFFF 		call	test_terminate_threads	#
 1320      FF
 1321              	.LVL161:
 1322              		.loc 1 430 0
 1323 0a5f E8FCFFFF 		call	test_wait_threads	#
 1323      FF
 1324              	.LVL162:
 1325              		.loc 1 432 0
 1326 0a64 C7042489 		movl	$.LC11, (%esp)	#,
 1326      000000
 1327 0a6b E8FCFFFF 		call	test_print	#
 1327      FF
 1328              	.LVL163:
 1329              		.loc 1 433 0
 1330 0a70 8B44242C 		movl	44(%esp), %eax	# n, n
 1331 0a74 890424   		movl	%eax, (%esp)	# n,
 1332 0a77 E8FCFFFF 		call	test_printn	#
 1332      FF
 1333              	.LVL164:
 1334              		.loc 1 434 0
 1335 0a7c C70424A0 		movl	$.LC13, (%esp)	#,
 1335      000000
 1336 0a83 E8FCFFFF 		call	test_println	#
 1336      FF
 1337              	.LVL165:
 1338              		.loc 1 435 0
 1339 0a88 83C438   		addl	$56, %esp	#,
 1340              		.cfi_def_cfa_offset 8
 1341 0a8b 5B       		popl	%ebx	#
 1342              		.cfi_restore 3
 1343              		.cfi_def_cfa_offset 4
 1344 0a8c C3       		ret
 1345              		.cfi_endproc
 1346              	.LFE21:
 1347              		.size	bmk8_execute, .-bmk8_execute
 1348 0a8d 8D7600   		.p2align 4,,15
 1349              		.type	thread8, @function
 1350              	thread8:
 1351              	.LFB20:
 1352              		.loc 1 401 0
 1353              		.cfi_startproc
 1354              	.LVL166:
 1355 0a90 53       		pushl	%ebx	#
 1356              		.cfi_def_cfa_offset 8
 1357              		.cfi_offset 3, -8
 1358 0a91 83EC08   		subl	$8, %esp	#,
 1359              		.cfi_def_cfa_offset 16
 1360 0a94 8B5C2410 		movl	16(%esp), %ebx	# p, p
 1361              		.p2align 4,,7
 1362              		.p2align 3
 1363              	.L57:
 1364              		.loc 1 404 0 discriminator 1
 1365 0a98 E8FCFFFF 		call	chThdYield	#
GAS LISTING /tmp/ccmTSJ1m.s 			page 36


 1365      FF
 1366              	.LVL167:
 1367              		.loc 1 405 0 discriminator 1
 1368 0a9d E8FCFFFF 		call	chThdYield	#
 1368      FF
 1369              	.LVL168:
 1370              		.loc 1 406 0 discriminator 1
 1371 0aa2 E8FCFFFF 		call	chThdYield	#
 1371      FF
 1372              	.LVL169:
 1373              		.loc 1 407 0 discriminator 1
 1374              		.p2align 4,,5
 1375 0aa7 E8FCFFFF 		call	chThdYield	#
 1375      FF
 1376              	.LVL170:
 1377              		.loc 1 408 0 discriminator 1
 1378 0aac 830304   		addl	$4, (%ebx)	#, MEM[(uint32_t *)p_7(D)]
 1379              		.loc 1 410 0 discriminator 1
 1380 0aaf E8FCFFFF 		call	ChkIntSources	#
 1380      FF
 1381              	.LVL171:
 1382              		.loc 1 412 0 discriminator 1
 1383 0ab4 A1180000 		movl	rlist+24, %eax	# rlist.r_current, rlist.r_current
 1383      00
 1384 0ab9 F6401D04 		testb	$4, 29(%eax)	#, _12->p_flags
 1385 0abd 74D9     		je	.L57	#,
 1386              		.loc 1 414 0
 1387 0abf 83C408   		addl	$8, %esp	#,
 1388              		.cfi_def_cfa_offset 8
 1389 0ac2 31C0     		xorl	%eax, %eax	#
 1390 0ac4 5B       		popl	%ebx	#
 1391              		.cfi_restore 3
 1392              		.cfi_def_cfa_offset 4
 1393 0ac5 C3       		ret
 1394              		.cfi_endproc
 1395              	.LFE20:
 1396              		.size	thread8, .-thread8
 1397              		.section	.rodata.str1.1
 1398              	.LC16:
 1399 00c6 20627974 		.string	" bytes/S"
 1399      65732F53 
 1399      00
 1400              		.text
 1401 0ac6 8D76008D 		.p2align 4,,15
 1401      BC270000 
 1401      0000
 1402              		.type	bmk9_execute, @function
 1403              	bmk9_execute:
 1404              	.LFB22:
 1405              		.loc 1 455 0
 1406              		.cfi_startproc
 1407 0ad0 53       		pushl	%ebx	#
 1408              		.cfi_def_cfa_offset 8
 1409              		.cfi_offset 3, -8
 1410              		.loc 1 461 0
 1411 0ad1 31DB     		xorl	%ebx, %ebx	# n
 1412              		.loc 1 455 0
GAS LISTING /tmp/ccmTSJ1m.s 			page 37


 1413 0ad3 83EC28   		subl	$40, %esp	#,
 1414              		.cfi_def_cfa_offset 48
 1415              		.loc 1 460 0
 1416 0ad6 C7442410 		movl	$0, 16(%esp)	#,
 1416      00000000 
 1417 0ade C744240C 		movl	$0, 12(%esp)	#,
 1417      00000000 
 1418 0ae6 C7442408 		movl	$16, 8(%esp)	#,
 1418      10000000 
 1419 0aee C7442404 		movl	$ib.2138, 4(%esp)	#,
 1419      28000000 
 1420 0af6 C7042440 		movl	$iq.2139, (%esp)	#,
 1420      000000
 1421 0afd E8FCFFFF 		call	chIQInit	#
 1421      FF
 1422              	.LVL172:
 1423              		.loc 1 462 0
 1424 0b02 E8FCFFFF 		call	test_wait_tick	#
 1424      FF
 1425              	.LVL173:
 1426              		.loc 1 463 0
 1427 0b07 C70424E8 		movl	$1000, (%esp)	#,
 1427      030000
 1428 0b0e E8FCFFFF 		call	test_start_timer	#
 1428      FF
 1429              	.LVL174:
 1430              		.p2align 4,,7
 1431 0b13 908D7426 		.p2align 3
 1431      00
 1432              	.L61:
 1433              		.loc 1 465 0 discriminator 1
 1434              	#APP
 1435              	# 465 "../../../test/testbmk.c" 1
 241              	  test_wait_threads();
 242              	  test_print("--- Score : ");
 243              	  test_printn(n * 2);
 244              	  test_println(" ctxswc/S");
 245              	}
 246              	
 247              	ROMCONST struct testcase testbmk4 = {
 248              	  "Benchmark, context switch",
 249              	  NULL,
 250              	  NULL,
 251              	  bmk4_execute
 252              	};
 253              	
 254              	/**
 255              	 * @page test_benchmarks_005 Threads performance, full cycle
 256              	 *
 257              	 * <h2>Description</h2>
 258              	 * Threads are continuously created and terminated into a loop. A full
 259              	 * @p chThdCreateStatic() / @p chThdExit() / @p chThdWait() cycle is performed
 260              	 * in each iteration.<br>
 261              	 * The performance is calculated by measuring the number of iterations after
 262              	 * a second of continuous operations.
 263              	 */
 264              	
GAS LISTING /tmp/ccmTSJ1m.s 			page 38


 265              	static void bmk5_execute(void) {
 266              	
 267              	  uint32_t n = 0;
 268              	  void *wap = wa[0];
 269              	  tprio_t prio = chThdGetPriority() - 1;
 270              	  test_wait_tick();
 271              	  test_start_timer(1000);
 272              	  do {
 273              	    chThdWait(chThdCreateStatic(wap, WA_SIZE, prio, thread2, NULL));
 274              	    n++;
 275              	#if defined(SIMULATOR)
 276              	    ChkIntSources();
 277              	#endif
 278              	  } while (!test_timer_done);
 279              	  test_print("--- Score : ");
 280              	  test_printn(n);
 281              	  test_println(" threads/S");
 282              	}
 283              	
 284              	ROMCONST struct testcase testbmk5 = {
 285              	  "Benchmark, threads, full cycle",
 286              	  NULL,
 287              	  NULL,
 288              	  bmk5_execute
 289              	};
 290              	
 291              	/**
 292              	 * @page test_benchmarks_006 Threads performance, create/exit only
 293              	 *
 294              	 * <h2>Description</h2>
 295              	 * Threads are continuously created and terminated into a loop. A partial
 296              	 * @p chThdCreateStatic() / @p chThdExit() cycle is performed in each
 297              	 * iteration, the @p chThdWait() is not necessary because the thread is
 298              	 * created at an higher priority so there is no need to wait for it to
 299              	 * terminate.<br>
 300              	 * The performance is calculated by measuring the number of iterations after
 301              	 * a second of continuous operations.
 302              	 */
 303              	
 304              	static void bmk6_execute(void) {
 305              	
 306              	  uint32_t n = 0;
 307              	  void *wap = wa[0];
 308              	  tprio_t prio = chThdGetPriority() + 1;
 309              	  test_wait_tick();
 310              	  test_start_timer(1000);
 311              	  do {
 312              	    chThdCreateStatic(wap, WA_SIZE, prio, thread2, NULL);
 313              	    n++;
 314              	#if defined(SIMULATOR)
 315              	    ChkIntSources();
 316              	#endif
 317              	  } while (!test_timer_done);
 318              	  test_print("--- Score : ");
 319              	  test_printn(n);
 320              	  test_println(" threads/S");
 321              	}
GAS LISTING /tmp/ccmTSJ1m.s 			page 39


 322              	
 323              	ROMCONST struct testcase testbmk6 = {
 324              	  "Benchmark, threads, create only",
 325              	  NULL,
 326              	  NULL,
 327              	  bmk6_execute
 328              	};
 329              	
 330              	/**
 331              	 * @page test_benchmarks_007 Mass reschedule performance
 332              	 *
 333              	 * <h2>Description</h2>
 334              	 * Five threads are created and atomically rescheduled by resetting the
 335              	 * semaphore where they are waiting on. The operation is performed into a
 336              	 * continuous loop.<br>
 337              	 * The performance is calculated by measuring the number of iterations after
 338              	 * a second of continuous operations.
 339              	 */
 340              	
 341              	static msg_t thread3(void *p) {
 342              	
 343              	  (void)p;
 344              	  while (!chThdShouldTerminate())
 345              	    chSemWait(&sem1);
 346              	  return 0;
 347              	}
 348              	
 349              	static void bmk7_setup(void) {
 350              	
 351              	  chSemInit(&sem1, 0);
 352              	}
 353              	
 354              	static void bmk7_execute(void) {
 355              	  uint32_t n;
 356              	
 357              	  threads[0] = chThdCreateStatic(wa[0], WA_SIZE, chThdGetPriority()+5, thread3, NULL);
 358              	  threads[1] = chThdCreateStatic(wa[1], WA_SIZE, chThdGetPriority()+4, thread3, NULL);
 359              	  threads[2] = chThdCreateStatic(wa[2], WA_SIZE, chThdGetPriority()+3, thread3, NULL);
 360              	  threads[3] = chThdCreateStatic(wa[3], WA_SIZE, chThdGetPriority()+2, thread3, NULL);
 361              	  threads[4] = chThdCreateStatic(wa[4], WA_SIZE, chThdGetPriority()+1, thread3, NULL);
 362              	
 363              	  n = 0;
 364              	  test_wait_tick();
 365              	  test_start_timer(1000);
 366              	  do {
 367              	    chSemReset(&sem1, 0);
 368              	    n++;
 369              	#if defined(SIMULATOR)
 370              	    ChkIntSources();
 371              	#endif
 372              	  } while (!test_timer_done);
 373              	  test_terminate_threads();
 374              	  chSemReset(&sem1, 0);
 375              	  test_wait_threads();
 376              	
 377              	  test_print("--- Score : ");
 378              	  test_printn(n);
GAS LISTING /tmp/ccmTSJ1m.s 			page 40


 379              	  test_print(" reschedules/S, ");
 380              	  test_printn(n * 6);
 381              	  test_println(" ctxswc/S");
 382              	}
 383              	
 384              	ROMCONST struct testcase testbmk7 = {
 385              	  "Benchmark, mass reschedule, 5 threads",
 386              	  bmk7_setup,
 387              	  NULL,
 388              	  bmk7_execute
 389              	};
 390              	
 391              	/**
 392              	 * @page test_benchmarks_008 I/O Round-Robin voluntary reschedule.
 393              	 *
 394              	 * <h2>Description</h2>
 395              	 * Five threads are created at equal priority, each thread just increases a
 396              	 * variable and yields.<br>
 397              	 * The performance is calculated by measuring the number of iterations after
 398              	 * a second of continuous operations.
 399              	 */
 400              	
 401              	static msg_t thread8(void *p) {
 402              	
 403              	  do {
 404              	    chThdYield();
 405              	    chThdYield();
 406              	    chThdYield();
 407              	    chThdYield();
 408              	    (*(uint32_t *)p) += 4;
 409              	#if defined(SIMULATOR)
 410              	    ChkIntSources();
 411              	#endif
 412              	  } while(!chThdShouldTerminate());
 413              	  return 0;
 414              	}
 415              	
 416              	static void bmk8_execute(void) {
 417              	  uint32_t n;
 418              	
 419              	  n = 0;
 420              	  test_wait_tick();
 421              	
 422              	  threads[0] = chThdCreateStatic(wa[0], WA_SIZE, chThdGetPriority()-1, thread8, (void *)&n);
 423              	  threads[1] = chThdCreateStatic(wa[1], WA_SIZE, chThdGetPriority()-1, thread8, (void *)&n);
 424              	  threads[2] = chThdCreateStatic(wa[2], WA_SIZE, chThdGetPriority()-1, thread8, (void *)&n);
 425              	  threads[3] = chThdCreateStatic(wa[3], WA_SIZE, chThdGetPriority()-1, thread8, (void *)&n);
 426              	  threads[4] = chThdCreateStatic(wa[4], WA_SIZE, chThdGetPriority()-1, thread8, (void *)&n);
 427              	
 428              	  chThdSleepSeconds(1);
 429              	  test_terminate_threads();
 430              	  test_wait_threads();
 431              	
 432              	  test_print("--- Score : ");
 433              	  test_printn(n);
 434              	  test_println(" ctxswc/S");
 435              	}
GAS LISTING /tmp/ccmTSJ1m.s 			page 41


 436              	
 437              	ROMCONST struct testcase testbmk8 = {
 438              	  "Benchmark, round robin context switching",
 439              	  NULL,
 440              	  NULL,
 441              	  bmk8_execute
 442              	};
 443              	
 444              	#if CH_USE_QUEUES || defined(__DOXYGEN__)
 445              	/**
 446              	 * @page test_benchmarks_009 I/O Queues throughput
 447              	 *
 448              	 * <h2>Description</h2>
 449              	 * Four bytes are written and then read from an @p InputQueue into a continuous
 450              	 * loop.<br>
 451              	 * The performance is calculated by measuring the number of iterations after
 452              	 * a second of continuous operations.
 453              	 */
 454              	
 455              	static void bmk9_execute(void) {
 456              	  uint32_t n;
 457              	  static uint8_t ib[16];
 458              	  static InputQueue iq;
 459              	
 460              	  chIQInit(&iq, ib, sizeof(ib), NULL, NULL);
 461              	  n = 0;
 462              	  test_wait_tick();
 463              	  test_start_timer(1000);
 464              	  do {
 465 0b18 90       	    chSysLock();
 466              	    chIQPutI(&iq, 0);
 1436              		nop
 1437              	# 0 "" 2
 1438              		.loc 1 466 0 discriminator 1
 1439              	#NO_APP
 1440 0b19 C7442404 		movl	$0, 4(%esp)	#,
 1440      00000000 
 1441 0b21 C7042440 		movl	$iq.2139, (%esp)	#,
 1441      000000
 1442 0b28 E8FCFFFF 		call	chIQPutI	#
 1442      FF
 1443              	.LVL175:
 1444              		.loc 1 467 0 discriminator 1
 1445 0b2d C7442404 		movl	$1, 4(%esp)	#,
 1445      01000000 
 1446 0b35 C7042440 		movl	$iq.2139, (%esp)	#,
 1446      000000
 1447 0b3c E8FCFFFF 		call	chIQPutI	#
 1447      FF
 1448              	.LVL176:
 1449              		.loc 1 468 0 discriminator 1
 1450 0b41 C7442404 		movl	$2, 4(%esp)	#,
 1450      02000000 
 1451 0b49 C7042440 		movl	$iq.2139, (%esp)	#,
 1451      000000
 1452 0b50 E8FCFFFF 		call	chIQPutI	#
 1452      FF
GAS LISTING /tmp/ccmTSJ1m.s 			page 42


 1453              	.LVL177:
 1454              		.loc 1 469 0 discriminator 1
 1455 0b55 C7442404 		movl	$3, 4(%esp)	#,
 1455      03000000 
 1456 0b5d C7042440 		movl	$iq.2139, (%esp)	#,
 1456      000000
 1457 0b64 E8FCFFFF 		call	chIQPutI	#
 1457      FF
 1458              	.LVL178:
 1459              		.loc 1 470 0 discriminator 1
 1460              	#APP
 1461              	# 470 "../../../test/testbmk.c" 1
 467              	    chIQPutI(&iq, 1);
 468              	    chIQPutI(&iq, 2);
 469              	    chIQPutI(&iq, 3);
 470 0b69 90       	    chSysUnlock();
 471              	    (void)chIQGet(&iq);
 1462              		nop
 1463              	# 0 "" 2
 1464              		.loc 1 471 0 discriminator 1
 1465              	#NO_APP
 1466 0b6a C7442404 		movl	$-1, 4(%esp)	#,
 1466      FFFFFFFF 
 1467              		.loc 1 475 0 discriminator 1
 1468 0b72 83C301   		addl	$1, %ebx	#, n
 1469              	.LVL179:
 1470              		.loc 1 471 0 discriminator 1
 1471 0b75 C7042440 		movl	$iq.2139, (%esp)	#,
 1471      000000
 1472 0b7c E8FCFFFF 		call	chIQGetTimeout	#
 1472      FF
 1473              	.LVL180:
 1474              		.loc 1 472 0 discriminator 1
 1475 0b81 C7442404 		movl	$-1, 4(%esp)	#,
 1475      FFFFFFFF 
 1476 0b89 C7042440 		movl	$iq.2139, (%esp)	#,
 1476      000000
 1477 0b90 E8FCFFFF 		call	chIQGetTimeout	#
 1477      FF
 1478              	.LVL181:
 1479              		.loc 1 473 0 discriminator 1
 1480 0b95 C7442404 		movl	$-1, 4(%esp)	#,
 1480      FFFFFFFF 
 1481 0b9d C7042440 		movl	$iq.2139, (%esp)	#,
 1481      000000
 1482 0ba4 E8FCFFFF 		call	chIQGetTimeout	#
 1482      FF
 1483              	.LVL182:
 1484              		.loc 1 474 0 discriminator 1
 1485 0ba9 C7442404 		movl	$-1, 4(%esp)	#,
 1485      FFFFFFFF 
 1486 0bb1 C7042440 		movl	$iq.2139, (%esp)	#,
 1486      000000
 1487 0bb8 E8FCFFFF 		call	chIQGetTimeout	#
 1487      FF
 1488              	.LVL183:
 1489              		.loc 1 477 0 discriminator 1
GAS LISTING /tmp/ccmTSJ1m.s 			page 43


 1490 0bbd E8FCFFFF 		call	ChkIntSources	#
 1490      FF
 1491              	.LVL184:
 1492              		.loc 1 479 0 discriminator 1
 1493 0bc2 803D0000 		cmpb	$0, test_timer_done	#, test_timer_done
 1493      000000
 1494 0bc9 0F8449FF 		je	.L61	#,
 1494      FFFF
 1495              		.loc 1 480 0
 1496 0bcf C7042489 		movl	$.LC11, (%esp)	#,
 1496      000000
 1497              		.loc 1 481 0
 1498 0bd6 C1E302   		sall	$2, %ebx	#, D.2443
 1499              	.LVL185:
 1500              		.loc 1 480 0
 1501 0bd9 E8FCFFFF 		call	test_print	#
 1501      FF
 1502              	.LVL186:
 1503              		.loc 1 481 0
 1504 0bde 891C24   		movl	%ebx, (%esp)	# D.2443,
 1505 0be1 E8FCFFFF 		call	test_printn	#
 1505      FF
 1506              	.LVL187:
 1507              		.loc 1 482 0
 1508 0be6 C70424C6 		movl	$.LC16, (%esp)	#,
 1508      000000
 1509 0bed E8FCFFFF 		call	test_println	#
 1509      FF
 1510              	.LVL188:
 1511              		.loc 1 483 0
 1512 0bf2 83C428   		addl	$40, %esp	#,
 1513              		.cfi_def_cfa_offset 8
 1514 0bf5 5B       		popl	%ebx	#
 1515              		.cfi_restore 3
 1516              		.cfi_def_cfa_offset 4
 1517 0bf6 C3       		ret
 1518              		.cfi_endproc
 1519              	.LFE22:
 1520              		.size	bmk9_execute, .-bmk9_execute
 1521              		.section	.rodata.str1.1
 1522              	.LC17:
 1523 00cf 2074696D 		.string	" timers/S"
 1523      6572732F 
 1523      5300
 1524              		.text
 1525 0bf7 89F68DBC 		.p2align 4,,15
 1525      27000000 
 1525      00
 1526              		.type	bmk10_execute, @function
 1527              	bmk10_execute:
 1528              	.LFB24:
 1529              		.loc 1 504 0
 1530              		.cfi_startproc
 1531              	.LVL189:
 1532 0c00 53       		pushl	%ebx	#
 1533              		.cfi_def_cfa_offset 8
 1534              		.cfi_offset 3, -8
GAS LISTING /tmp/ccmTSJ1m.s 			page 44


 1535              		.loc 1 506 0
 1536 0c01 31DB     		xorl	%ebx, %ebx	# n
 1537              		.loc 1 504 0
 1538 0c03 83EC18   		subl	$24, %esp	#,
 1539              		.cfi_def_cfa_offset 32
 1540              		.loc 1 508 0
 1541 0c06 E8FCFFFF 		call	test_wait_tick	#
 1541      FF
 1542              	.LVL190:
 1543              		.loc 1 509 0
 1544 0c0b C70424E8 		movl	$1000, (%esp)	#,
 1544      030000
 1545 0c12 E8FCFFFF 		call	test_start_timer	#
 1545      FF
 1546              	.LVL191:
 1547              		.p2align 4,,7
 1548 0c17 90       		.p2align 3
 1549              	.L65:
 1550              		.loc 1 511 0 discriminator 1
 1551              	#APP
 1552              	# 511 "../../../test/testbmk.c" 1
 472              	    (void)chIQGet(&iq);
 473              	    (void)chIQGet(&iq);
 474              	    (void)chIQGet(&iq);
 475              	    n++;
 476              	#if defined(SIMULATOR)
 477              	    ChkIntSources();
 478              	#endif
 479              	  } while (!test_timer_done);
 480              	  test_print("--- Score : ");
 481              	  test_printn(n * 4);
 482              	  test_println(" bytes/S");
 483              	}
 484              	
 485              	ROMCONST struct testcase testbmk9 = {
 486              	  "Benchmark, I/O Queues throughput",
 487              	  NULL,
 488              	  NULL,
 489              	  bmk9_execute
 490              	};
 491              	#endif /* CH_USE_QUEUES */
 492              	
 493              	/**
 494              	 * @page test_benchmarks_010 Virtual Timers set/reset performance
 495              	 *
 496              	 * <h2>Description</h2>
 497              	 * A virtual timer is set and immediately reset into a continuous loop.<br>
 498              	 * The performance is calculated by measuring the number of iterations after
 499              	 * a second of continuous operations.
 500              	 */
 501              	
 502              	static void tmo(void *param) {(void)param;}
 503              	
 504              	static void bmk10_execute(void) {
 505              	  static VirtualTimer vt1, vt2;
 506              	  uint32_t n = 0;
 507              	
GAS LISTING /tmp/ccmTSJ1m.s 			page 45


 508              	  test_wait_tick();
 509              	  test_start_timer(1000);
 510              	  do {
 511 0c18 90       	    chSysLock();
 512              	    chVTSetI(&vt1, 1, tmo, NULL);
 1553              		nop
 1554              	# 0 "" 2
 1555              		.loc 1 512 0 discriminator 1
 1556              	#NO_APP
 1557 0c19 C744240C 		movl	$0, 12(%esp)	#,
 1557      00000000 
 1558 0c21 C7442408 		movl	$tmo, 8(%esp)	#,
 1558      10000000 
 1559 0c29 C7442404 		movl	$1, 4(%esp)	#,
 1559      01000000 
 1560 0c31 C7042414 		movl	$vt1.2149, (%esp)	#,
 1560      000000
 1561 0c38 E8FCFFFF 		call	chVTSetI	#
 1561      FF
 1562              	.LVL192:
 1563              		.loc 1 513 0 discriminator 1
 1564 0c3d C744240C 		movl	$0, 12(%esp)	#,
 1564      00000000 
 1565 0c45 C7442408 		movl	$tmo, 8(%esp)	#,
 1565      10000000 
 1566 0c4d C7442404 		movl	$10000, 4(%esp)	#,
 1566      10270000 
 1567 0c55 C7042400 		movl	$vt2.2150, (%esp)	#,
 1567      000000
 1568 0c5c E8FCFFFF 		call	chVTSetI	#
 1568      FF
 1569              	.LVL193:
 1570              		.loc 1 514 0 discriminator 1
 1571 0c61 C7042414 		movl	$vt1.2149, (%esp)	#,
 1571      000000
 1572 0c68 E8FCFFFF 		call	chVTResetI	#
 1572      FF
 1573              	.LVL194:
 1574              		.loc 1 515 0 discriminator 1
 1575 0c6d C7042400 		movl	$vt2.2150, (%esp)	#,
 1575      000000
 1576 0c74 E8FCFFFF 		call	chVTResetI	#
 1576      FF
 1577              	.LVL195:
 1578              		.loc 1 516 0 discriminator 1
 1579              	#APP
 1580              	# 516 "../../../test/testbmk.c" 1
 513              	    chVTSetI(&vt2, 10000, tmo, NULL);
 514              	    chVTResetI(&vt1);
 515              	    chVTResetI(&vt2);
 516 0c79 90       	    chSysUnlock();
 517              	    n++;
 1581              		nop
 1582              	# 0 "" 2
 1583              		.loc 1 517 0 discriminator 1
 1584              	#NO_APP
 1585 0c7a 83C301   		addl	$1, %ebx	#, n
GAS LISTING /tmp/ccmTSJ1m.s 			page 46


 1586              	.LVL196:
 1587              		.loc 1 519 0 discriminator 1
 1588 0c7d E8FCFFFF 		call	ChkIntSources	#
 1588      FF
 1589              	.LVL197:
 1590              		.loc 1 521 0 discriminator 1
 1591 0c82 803D0000 		cmpb	$0, test_timer_done	#, test_timer_done
 1591      000000
 1592 0c89 748D     		je	.L65	#,
 1593              		.loc 1 522 0
 1594 0c8b C7042489 		movl	$.LC11, (%esp)	#,
 1594      000000
 1595              		.loc 1 523 0
 1596 0c92 01DB     		addl	%ebx, %ebx	# D.2449
 1597              	.LVL198:
 1598              		.loc 1 522 0
 1599 0c94 E8FCFFFF 		call	test_print	#
 1599      FF
 1600              	.LVL199:
 1601              		.loc 1 523 0
 1602 0c99 891C24   		movl	%ebx, (%esp)	# D.2449,
 1603 0c9c E8FCFFFF 		call	test_printn	#
 1603      FF
 1604              	.LVL200:
 1605              		.loc 1 524 0
 1606 0ca1 C70424CF 		movl	$.LC17, (%esp)	#,
 1606      000000
 1607 0ca8 E8FCFFFF 		call	test_println	#
 1607      FF
 1608              	.LVL201:
 1609              		.loc 1 525 0
 1610 0cad 83C418   		addl	$24, %esp	#,
 1611              		.cfi_def_cfa_offset 8
 1612 0cb0 5B       		popl	%ebx	#
 1613              		.cfi_restore 3
 1614              		.cfi_def_cfa_offset 4
 1615 0cb1 C3       		ret
 1616              		.cfi_endproc
 1617              	.LFE24:
 1618              		.size	bmk10_execute, .-bmk10_execute
 1619              		.section	.rodata.str1.1
 1620              	.LC18:
 1621 00d9 20776169 		.string	" wait+signal/S"
 1621      742B7369 
 1621      676E616C 
 1621      2F5300
 1622              		.text
 1623 0cb2 8DB42600 		.p2align 4,,15
 1623      0000008D 
 1623      BC270000 
 1623      0000
 1624              		.type	bmk11_execute, @function
 1625              	bmk11_execute:
 1626              	.LFB26:
 1627              		.loc 1 550 0
 1628              		.cfi_startproc
 1629              	.LVL202:
GAS LISTING /tmp/ccmTSJ1m.s 			page 47


 1630 0cc0 53       		pushl	%ebx	#
 1631              		.cfi_def_cfa_offset 8
 1632              		.cfi_offset 3, -8
 1633              		.loc 1 551 0
 1634 0cc1 31DB     		xorl	%ebx, %ebx	# n
 1635              		.loc 1 550 0
 1636 0cc3 83EC18   		subl	$24, %esp	#,
 1637              		.cfi_def_cfa_offset 32
 1638              		.loc 1 553 0
 1639 0cc6 E8FCFFFF 		call	test_wait_tick	#
 1639      FF
 1640              	.LVL203:
 1641              		.loc 1 554 0
 1642 0ccb C70424E8 		movl	$1000, (%esp)	#,
 1642      030000
 1643 0cd2 E8FCFFFF 		call	test_start_timer	#
 1643      FF
 1644              	.LVL204:
 1645              		.p2align 4,,7
 1646 0cd7 90       		.p2align 3
 1647              	.L69:
 1648              		.loc 1 556 0 discriminator 1
 1649 0cd8 C7042474 		movl	$sem1, (%esp)	#,
 1649      000000
 1650              		.loc 1 564 0 discriminator 1
 1651 0cdf 83C301   		addl	$1, %ebx	#, n
 1652              	.LVL205:
 1653              		.loc 1 556 0 discriminator 1
 1654 0ce2 E8FCFFFF 		call	chSemWait	#
 1654      FF
 1655              	.LVL206:
 1656              		.loc 1 557 0 discriminator 1
 1657 0ce7 C7042474 		movl	$sem1, (%esp)	#,
 1657      000000
 1658 0cee E8FCFFFF 		call	chSemSignal	#
 1658      FF
 1659              	.LVL207:
 1660              		.loc 1 558 0 discriminator 1
 1661 0cf3 C7042474 		movl	$sem1, (%esp)	#,
 1661      000000
 1662 0cfa E8FCFFFF 		call	chSemWait	#
 1662      FF
 1663              	.LVL208:
 1664              		.loc 1 559 0 discriminator 1
 1665 0cff C7042474 		movl	$sem1, (%esp)	#,
 1665      000000
 1666 0d06 E8FCFFFF 		call	chSemSignal	#
 1666      FF
 1667              	.LVL209:
 1668              		.loc 1 560 0 discriminator 1
 1669 0d0b C7042474 		movl	$sem1, (%esp)	#,
 1669      000000
 1670 0d12 E8FCFFFF 		call	chSemWait	#
 1670      FF
 1671              	.LVL210:
 1672              		.loc 1 561 0 discriminator 1
 1673 0d17 C7042474 		movl	$sem1, (%esp)	#,
GAS LISTING /tmp/ccmTSJ1m.s 			page 48


 1673      000000
 1674 0d1e E8FCFFFF 		call	chSemSignal	#
 1674      FF
 1675              	.LVL211:
 1676              		.loc 1 562 0 discriminator 1
 1677 0d23 C7042474 		movl	$sem1, (%esp)	#,
 1677      000000
 1678 0d2a E8FCFFFF 		call	chSemWait	#
 1678      FF
 1679              	.LVL212:
 1680              		.loc 1 563 0 discriminator 1
 1681 0d2f C7042474 		movl	$sem1, (%esp)	#,
 1681      000000
 1682 0d36 E8FCFFFF 		call	chSemSignal	#
 1682      FF
 1683              	.LVL213:
 1684              		.loc 1 566 0 discriminator 1
 1685 0d3b E8FCFFFF 		call	ChkIntSources	#
 1685      FF
 1686              	.LVL214:
 1687              		.loc 1 568 0 discriminator 1
 1688 0d40 803D0000 		cmpb	$0, test_timer_done	#, test_timer_done
 1688      000000
 1689 0d47 748F     		je	.L69	#,
 1690              		.loc 1 569 0
 1691 0d49 C7042489 		movl	$.LC11, (%esp)	#,
 1691      000000
 1692              		.loc 1 570 0
 1693 0d50 C1E302   		sall	$2, %ebx	#, D.2455
 1694              	.LVL215:
 1695              		.loc 1 569 0
 1696 0d53 E8FCFFFF 		call	test_print	#
 1696      FF
 1697              	.LVL216:
 1698              		.loc 1 570 0
 1699 0d58 891C24   		movl	%ebx, (%esp)	# D.2455,
 1700 0d5b E8FCFFFF 		call	test_printn	#
 1700      FF
 1701              	.LVL217:
 1702              		.loc 1 571 0
 1703 0d60 C70424D9 		movl	$.LC18, (%esp)	#,
 1703      000000
 1704 0d67 E8FCFFFF 		call	test_println	#
 1704      FF
 1705              	.LVL218:
 1706              		.loc 1 572 0
 1707 0d6c 83C418   		addl	$24, %esp	#,
 1708              		.cfi_def_cfa_offset 8
 1709 0d6f 5B       		popl	%ebx	#
 1710              		.cfi_restore 3
 1711              		.cfi_def_cfa_offset 4
 1712 0d70 C3       		ret
 1713              		.cfi_endproc
 1714              	.LFE26:
 1715              		.size	bmk11_execute, .-bmk11_execute
 1716              		.section	.rodata.str1.1
 1717              	.LC19:
GAS LISTING /tmp/ccmTSJ1m.s 			page 49


 1718 00e8 206C6F63 		.string	" lock+unlock/S"
 1718      6B2B756E 
 1718      6C6F636B 
 1718      2F5300
 1719              		.text
 1720 0d71 EB0D9090 		.p2align 4,,15
 1720      90909090 
 1720      90909090 
 1720      909090
 1721              		.type	bmk12_execute, @function
 1722              	bmk12_execute:
 1723              	.LFB28:
 1724              		.loc 1 598 0
 1725              		.cfi_startproc
 1726              	.LVL219:
 1727 0d80 53       		pushl	%ebx	#
 1728              		.cfi_def_cfa_offset 8
 1729              		.cfi_offset 3, -8
 1730              		.loc 1 599 0
 1731 0d81 31DB     		xorl	%ebx, %ebx	# n
 1732              		.loc 1 598 0
 1733 0d83 83EC18   		subl	$24, %esp	#,
 1734              		.cfi_def_cfa_offset 32
 1735              		.loc 1 601 0
 1736 0d86 E8FCFFFF 		call	test_wait_tick	#
 1736      FF
 1737              	.LVL220:
 1738              		.loc 1 602 0
 1739 0d8b C70424E8 		movl	$1000, (%esp)	#,
 1739      030000
 1740 0d92 E8FCFFFF 		call	test_start_timer	#
 1740      FF
 1741              	.LVL221:
 1742              		.p2align 4,,7
 1743 0d97 90       		.p2align 3
 1744              	.L73:
 1745              		.loc 1 604 0 discriminator 1
 1746 0d98 C7042464 		movl	$mtx1, (%esp)	#,
 1746      000000
 1747              		.loc 1 612 0 discriminator 1
 1748 0d9f 83C301   		addl	$1, %ebx	#, n
 1749              	.LVL222:
 1750              		.loc 1 604 0 discriminator 1
 1751 0da2 E8FCFFFF 		call	chMtxLock	#
 1751      FF
 1752              	.LVL223:
 1753              		.loc 1 605 0 discriminator 1
 1754 0da7 E8FCFFFF 		call	chMtxUnlock	#
 1754      FF
 1755              	.LVL224:
 1756              		.loc 1 606 0 discriminator 1
 1757 0dac C7042464 		movl	$mtx1, (%esp)	#,
 1757      000000
 1758 0db3 E8FCFFFF 		call	chMtxLock	#
 1758      FF
 1759              	.LVL225:
 1760              		.loc 1 607 0 discriminator 1
GAS LISTING /tmp/ccmTSJ1m.s 			page 50


 1761 0db8 E8FCFFFF 		call	chMtxUnlock	#
 1761      FF
 1762              	.LVL226:
 1763              		.loc 1 608 0 discriminator 1
 1764 0dbd C7042464 		movl	$mtx1, (%esp)	#,
 1764      000000
 1765 0dc4 E8FCFFFF 		call	chMtxLock	#
 1765      FF
 1766              	.LVL227:
 1767              		.loc 1 609 0 discriminator 1
 1768 0dc9 E8FCFFFF 		call	chMtxUnlock	#
 1768      FF
 1769              	.LVL228:
 1770              		.loc 1 610 0 discriminator 1
 1771 0dce C7042464 		movl	$mtx1, (%esp)	#,
 1771      000000
 1772 0dd5 E8FCFFFF 		call	chMtxLock	#
 1772      FF
 1773              	.LVL229:
 1774              		.loc 1 611 0 discriminator 1
 1775 0dda E8FCFFFF 		call	chMtxUnlock	#
 1775      FF
 1776              	.LVL230:
 1777              		.loc 1 614 0 discriminator 1
 1778 0ddf E8FCFFFF 		call	ChkIntSources	#
 1778      FF
 1779              	.LVL231:
 1780              		.loc 1 616 0 discriminator 1
 1781 0de4 803D0000 		cmpb	$0, test_timer_done	#, test_timer_done
 1781      000000
 1782 0deb 74AB     		je	.L73	#,
 1783              		.loc 1 617 0
 1784 0ded C7042489 		movl	$.LC11, (%esp)	#,
 1784      000000
 1785              		.loc 1 618 0
 1786 0df4 C1E302   		sall	$2, %ebx	#, D.2461
 1787              	.LVL232:
 1788              		.loc 1 617 0
 1789 0df7 E8FCFFFF 		call	test_print	#
 1789      FF
 1790              	.LVL233:
 1791              		.loc 1 618 0
 1792 0dfc 891C24   		movl	%ebx, (%esp)	# D.2461,
 1793 0dff E8FCFFFF 		call	test_printn	#
 1793      FF
 1794              	.LVL234:
 1795              		.loc 1 619 0
 1796 0e04 C70424E8 		movl	$.LC19, (%esp)	#,
 1796      000000
 1797 0e0b E8FCFFFF 		call	test_println	#
 1797      FF
 1798              	.LVL235:
 1799              		.loc 1 620 0
 1800 0e10 83C418   		addl	$24, %esp	#,
 1801              		.cfi_def_cfa_offset 8
 1802 0e13 5B       		popl	%ebx	#
 1803              		.cfi_restore 3
GAS LISTING /tmp/ccmTSJ1m.s 			page 51


 1804              		.cfi_def_cfa_offset 4
 1805 0e14 C3       		ret
 1806              		.cfi_endproc
 1807              	.LFE28:
 1808              		.size	bmk12_execute, .-bmk12_execute
 1809 0e15 8D742600 		.p2align 4,,15
 1809      8DBC2700 
 1809      000000
 1810              		.type	bmk12_setup, @function
 1811              	bmk12_setup:
 1812              	.LFB27:
 1813              		.loc 1 593 0
 1814              		.cfi_startproc
 1815 0e20 83EC1C   		subl	$28, %esp	#,
 1816              		.cfi_def_cfa_offset 32
 1817              		.loc 1 595 0
 1818 0e23 C7042464 		movl	$mtx1, (%esp)	#,
 1818      000000
 1819 0e2a E8FCFFFF 		call	chMtxInit	#
 1819      FF
 1820              	.LVL236:
 1821              		.loc 1 596 0
 1822 0e2f 83C41C   		addl	$28, %esp	#,
 1823              		.cfi_def_cfa_offset 4
 1824 0e32 C3       		ret
 1825              		.cfi_endproc
 1826              	.LFE27:
 1827              		.size	bmk12_setup, .-bmk12_setup
 1828              		.local	vt2.2150
 1829              		.comm	vt2.2150,20,4
 1830              		.local	vt1.2149
 1831              		.comm	vt1.2149,20,4
 1832              		.local	ib.2138
 1833              		.comm	ib.2138,16,1
 1834              		.local	iq.2139
 1835              		.comm	iq.2139,36,32
 1836              		.globl	patternbmk
 1837              		.section	.rodata
 1838              		.align 32
 1839              		.type	patternbmk, @object
 1840              		.size	patternbmk, 56
 1841              	patternbmk:
 1842 0000 00000000 		.long	testbmk1
 1843 0004 00000000 		.long	testbmk2
 1844 0008 00000000 		.long	testbmk3
 1845 000c 00000000 		.long	testbmk4
 1846 0010 00000000 		.long	testbmk5
 1847 0014 00000000 		.long	testbmk6
 1848 0018 00000000 		.long	testbmk7
 1849 001c 00000000 		.long	testbmk8
 1850 0020 00000000 		.long	testbmk9
 1851 0024 00000000 		.long	testbmk10
 1852 0028 00000000 		.long	testbmk11
 1853 002c 00000000 		.long	testbmk12
 1854 0030 00000000 		.long	testbmk13
 1855 0034 00000000 		.long	0
 1856              		.globl	testbmk13
GAS LISTING /tmp/ccmTSJ1m.s 			page 52


 1857              		.section	.rodata.str1.1
 1858              	.LC20:
 1859 00f7 42656E63 		.string	"Benchmark, RAM footprint"
 1859      686D6172 
 1859      6B2C2052 
 1859      414D2066 
 1859      6F6F7470 
 1860              		.section	.rodata
 1861              		.align 4
 1862              		.type	testbmk13, @object
 1863              		.size	testbmk13, 16
 1864              	testbmk13:
 1865              	# name:
 1866 0038 F7000000 		.long	.LC20
 1867              	# setup:
 1868 003c 00000000 		.long	0
 1869              	# teardown:
 1870 0040 00000000 		.long	0
 1871              	# execute:
 1872 0044 20000000 		.long	bmk13_execute
 1873              		.globl	testbmk12
 1874              		.section	.rodata.str1.4,"aMS",@progbits,1
 1875              		.align 4
 1876              	.LC21:
 1877 0000 42656E63 		.string	"Benchmark, mutexes lock/unlock"
 1877      686D6172 
 1877      6B2C206D 
 1877      75746578 
 1877      6573206C 
 1878              		.section	.rodata
 1879              		.align 4
 1880              		.type	testbmk12, @object
 1881              		.size	testbmk12, 16
 1882              	testbmk12:
 1883              	# name:
 1884 0048 00000000 		.long	.LC21
 1885              	# setup:
 1886 004c 200E0000 		.long	bmk12_setup
 1887              	# teardown:
 1888 0050 00000000 		.long	0
 1889              	# execute:
 1890 0054 800D0000 		.long	bmk12_execute
 1891              		.globl	testbmk11
 1892              		.section	.rodata.str1.4
 1893 001f 00       		.align 4
 1894              	.LC22:
 1895 0020 42656E63 		.string	"Benchmark, semaphores wait/signal"
 1895      686D6172 
 1895      6B2C2073 
 1895      656D6170 
 1895      686F7265 
 1896              		.section	.rodata
 1897              		.align 4
 1898              		.type	testbmk11, @object
 1899              		.size	testbmk11, 16
 1900              	testbmk11:
 1901              	# name:
GAS LISTING /tmp/ccmTSJ1m.s 			page 53


 1902 0058 20000000 		.long	.LC22
 1903              	# setup:
 1904 005c 10090000 		.long	bmk11_setup
 1905              	# teardown:
 1906 0060 00000000 		.long	0
 1907              	# execute:
 1908 0064 C00C0000 		.long	bmk11_execute
 1909              		.globl	testbmk10
 1910              		.section	.rodata.str1.4
 1911 0042 0000     		.align 4
 1912              	.LC23:
 1913 0044 42656E63 		.string	"Benchmark, virtual timers set/reset"
 1913      686D6172 
 1913      6B2C2076 
 1913      69727475 
 1913      616C2074 
 1914              		.section	.rodata
 1915              		.align 4
 1916              		.type	testbmk10, @object
 1917              		.size	testbmk10, 16
 1918              	testbmk10:
 1919              	# name:
 1920 0068 44000000 		.long	.LC23
 1921              	# setup:
 1922 006c 00000000 		.long	0
 1923              	# teardown:
 1924 0070 00000000 		.long	0
 1925              	# execute:
 1926 0074 000C0000 		.long	bmk10_execute
 1927              		.globl	testbmk9
 1928              		.section	.rodata.str1.4
 1929              		.align 4
 1930              	.LC24:
 1931 0068 42656E63 		.string	"Benchmark, I/O Queues throughput"
 1931      686D6172 
 1931      6B2C2049 
 1931      2F4F2051 
 1931      75657565 
 1932              		.section	.rodata
 1933              		.align 4
 1934              		.type	testbmk9, @object
 1935              		.size	testbmk9, 16
 1936              	testbmk9:
 1937              	# name:
 1938 0078 68000000 		.long	.LC24
 1939              	# setup:
 1940 007c 00000000 		.long	0
 1941              	# teardown:
 1942 0080 00000000 		.long	0
 1943              	# execute:
 1944 0084 D00A0000 		.long	bmk9_execute
 1945              		.globl	testbmk8
 1946              		.section	.rodata.str1.4
 1947 0089 000000   		.align 4
 1948              	.LC25:
 1949 008c 42656E63 		.string	"Benchmark, round robin context switching"
 1949      686D6172 
GAS LISTING /tmp/ccmTSJ1m.s 			page 54


 1949      6B2C2072 
 1949      6F756E64 
 1949      20726F62 
 1950              		.section	.rodata
 1951              		.align 4
 1952              		.type	testbmk8, @object
 1953              		.size	testbmk8, 16
 1954              	testbmk8:
 1955              	# name:
 1956 0088 8C000000 		.long	.LC25
 1957              	# setup:
 1958 008c 00000000 		.long	0
 1959              	# teardown:
 1960 0090 00000000 		.long	0
 1961              	# execute:
 1962 0094 30090000 		.long	bmk8_execute
 1963              		.globl	testbmk7
 1964              		.section	.rodata.str1.4
 1965 00b5 000000   		.align 4
 1966              	.LC26:
 1967 00b8 42656E63 		.string	"Benchmark, mass reschedule, 5 threads"
 1967      686D6172 
 1967      6B2C206D 
 1967      61737320 
 1967      72657363 
 1968              		.section	.rodata
 1969              		.align 4
 1970              		.type	testbmk7, @object
 1971              		.size	testbmk7, 16
 1972              	testbmk7:
 1973              	# name:
 1974 0098 B8000000 		.long	.LC26
 1975              	# setup:
 1976 009c F0080000 		.long	bmk7_setup
 1977              	# teardown:
 1978 00a0 00000000 		.long	0
 1979              	# execute:
 1980 00a4 00070000 		.long	bmk7_execute
 1981              		.globl	testbmk6
 1982              		.section	.rodata.str1.4
 1983 00de 0000     		.align 4
 1984              	.LC27:
 1985 00e0 42656E63 		.string	"Benchmark, threads, create only"
 1985      686D6172 
 1985      6B2C2074 
 1985      68726561 
 1985      64732C20 
 1986              		.section	.rodata
 1987              		.align 4
 1988              		.type	testbmk6, @object
 1989              		.size	testbmk6, 16
 1990              	testbmk6:
 1991              	# name:
 1992 00a8 E0000000 		.long	.LC27
 1993              	# setup:
 1994 00ac 00000000 		.long	0
 1995              	# teardown:
GAS LISTING /tmp/ccmTSJ1m.s 			page 55


 1996 00b0 00000000 		.long	0
 1997              	# execute:
 1998 00b4 B0040000 		.long	bmk6_execute
 1999              		.globl	testbmk5
 2000              		.section	.rodata.str1.4
 2001              		.align 4
 2002              	.LC28:
 2003 0100 42656E63 		.string	"Benchmark, threads, full cycle"
 2003      686D6172 
 2003      6B2C2074 
 2003      68726561 
 2003      64732C20 
 2004              		.section	.rodata
 2005              		.align 4
 2006              		.type	testbmk5, @object
 2007              		.size	testbmk5, 16
 2008              	testbmk5:
 2009              	# name:
 2010 00b8 00010000 		.long	.LC28
 2011              	# setup:
 2012 00bc 00000000 		.long	0
 2013              	# teardown:
 2014 00c0 00000000 		.long	0
 2015              	# execute:
 2016 00c4 60060000 		.long	bmk5_execute
 2017              		.globl	testbmk4
 2018              		.section	.rodata.str1.1
 2019              	.LC29:
 2020 0110 42656E63 		.string	"Benchmark, context switch"
 2020      686D6172 
 2020      6B2C2063 
 2020      6F6E7465 
 2020      78742073 
 2021              		.section	.rodata
 2022              		.align 4
 2023              		.type	testbmk4, @object
 2024              		.size	testbmk4, 16
 2025              	testbmk4:
 2026              	# name:
 2027 00c8 10010000 		.long	.LC29
 2028              	# setup:
 2029 00cc 00000000 		.long	0
 2030              	# teardown:
 2031 00d0 00000000 		.long	0
 2032              	# execute:
 2033 00d4 70050000 		.long	bmk4_execute
 2034              		.globl	testbmk3
 2035              		.section	.rodata.str1.1
 2036              	.LC30:
 2037 012a 42656E63 		.string	"Benchmark, messages #3"
 2037      686D6172 
 2037      6B2C206D 
 2037      65737361 
 2037      67657320 
 2038              		.section	.rodata
 2039              		.align 4
 2040              		.type	testbmk3, @object
GAS LISTING /tmp/ccmTSJ1m.s 			page 56


 2041              		.size	testbmk3, 16
 2042              	testbmk3:
 2043              	# name:
 2044 00d8 2A010000 		.long	.LC30
 2045              	# setup:
 2046 00dc 00000000 		.long	0
 2047              	# teardown:
 2048 00e0 00000000 		.long	0
 2049              	# execute:
 2050 00e4 40030000 		.long	bmk3_execute
 2051              		.globl	testbmk2
 2052              		.section	.rodata.str1.1
 2053              	.LC31:
 2054 0141 42656E63 		.string	"Benchmark, messages #2"
 2054      686D6172 
 2054      6B2C206D 
 2054      65737361 
 2054      67657320 
 2055              		.section	.rodata
 2056              		.align 4
 2057              		.type	testbmk2, @object
 2058              		.size	testbmk2, 16
 2059              	testbmk2:
 2060              	# name:
 2061 00e8 41010000 		.long	.LC31
 2062              	# setup:
 2063 00ec 00000000 		.long	0
 2064              	# teardown:
 2065 00f0 00000000 		.long	0
 2066              	# execute:
 2067 00f4 B0020000 		.long	bmk2_execute
 2068              		.globl	testbmk1
 2069              		.section	.rodata.str1.1
 2070              	.LC32:
 2071 0158 42656E63 		.string	"Benchmark, messages #1"
 2071      686D6172 
 2071      6B2C206D 
 2071      65737361 
 2071      67657320 
 2072              		.section	.rodata
 2073              		.align 4
 2074              		.type	testbmk1, @object
 2075              		.size	testbmk1, 16
 2076              	testbmk1:
 2077              	# name:
 2078 00f8 58010000 		.long	.LC32
 2079              	# setup:
 2080 00fc 00000000 		.long	0
 2081              	# teardown:
 2082 0100 00000000 		.long	0
 2083              	# execute:
 2084 0104 20020000 		.long	bmk1_execute
 2085              		.local	mtx1
 2086              		.comm	mtx1,16,4
 2087              		.local	sem1
 2088              		.comm	sem1,12,4
 2089              		.text
GAS LISTING /tmp/ccmTSJ1m.s 			page 57


 2090              	.Letext0:
 2091              		.file 2 "/usr/lib/gcc/x86_64-linux-gnu/4.8/include/stddef.h"
 2092              		.file 3 "/usr/include/stdint.h"
 2093              		.file 4 "../../../os/ports/GCC/SIMIA32/chtypes.h"
 2094              		.file 5 "../../../os/kernel/include/chlists.h"
 2095              		.file 6 "../../../os/kernel/include/chthreads.h"
 2096              		.file 7 "../../../os/ports/GCC/SIMIA32/chcore.h"
 2097              		.file 8 "../../../os/kernel/include/chvt.h"
 2098              		.file 9 "../../../os/kernel/include/chschd.h"
 2099              		.file 10 "../../../os/kernel/include/chsem.h"
 2100              		.file 11 "../../../os/kernel/include/chmtx.h"
 2101              		.file 12 "../../../os/kernel/include/chqueues.h"
 2102              		.file 13 "../../../test/test.h"
 2103              		.file 14 "../../../os/kernel/include/chmsg.h"
 2104              		.section	.debug_info,"",@progbits
 2105              	.Ldebug_info0:
 2106 0000 3D1D0000 		.long	0x1d3d
 2107 0004 0400     		.value	0x4
 2108 0006 00000000 		.long	.Ldebug_abbrev0
 2109 000a 04       		.byte	0x4
 2110 000b 01       		.uleb128 0x1
 2111 000c 4B040000 		.long	.LASF163
 2112 0010 01       		.byte	0x1
 2113 0011 CF030000 		.long	.LASF164
 2114 0015 B7000000 		.long	.LASF165
 2115 0019 00000000 		.long	.Ltext0
 2116 001d 330E0000 		.long	.Letext0-.Ltext0
 2117 0021 00000000 		.long	.Ldebug_line0
 2118 0025 02       		.uleb128 0x2
 2119 0026 04       		.byte	0x4
 2120 0027 05       		.byte	0x5
 2121 0028 696E7400 		.string	"int"
 2122 002c 03       		.uleb128 0x3
 2123 002d 15000000 		.long	.LASF4
 2124 0031 02       		.byte	0x2
 2125 0032 D4       		.byte	0xd4
 2126 0033 37000000 		.long	0x37
 2127 0037 04       		.uleb128 0x4
 2128 0038 04       		.byte	0x4
 2129 0039 07       		.byte	0x7
 2130 003a B8010000 		.long	.LASF0
 2131 003e 04       		.uleb128 0x4
 2132 003f 04       		.byte	0x4
 2133 0040 05       		.byte	0x5
 2134 0041 04010000 		.long	.LASF1
 2135 0045 04       		.uleb128 0x4
 2136 0046 01       		.byte	0x1
 2137 0047 06       		.byte	0x6
 2138 0048 94000000 		.long	.LASF2
 2139 004c 04       		.uleb128 0x4
 2140 004d 02       		.byte	0x2
 2141 004e 05       		.byte	0x5
 2142 004f C1040000 		.long	.LASF3
 2143 0053 03       		.uleb128 0x3
 2144 0054 35040000 		.long	.LASF5
 2145 0058 03       		.byte	0x3
 2146 0059 26       		.byte	0x26
GAS LISTING /tmp/ccmTSJ1m.s 			page 58


 2147 005a 25000000 		.long	0x25
 2148 005e 04       		.uleb128 0x4
 2149 005f 08       		.byte	0x8
 2150 0060 05       		.byte	0x5
 2151 0061 86000000 		.long	.LASF6
 2152 0065 03       		.uleb128 0x3
 2153 0066 50060000 		.long	.LASF7
 2154 006a 03       		.byte	0x3
 2155 006b 30       		.byte	0x30
 2156 006c 70000000 		.long	0x70
 2157 0070 04       		.uleb128 0x4
 2158 0071 01       		.byte	0x1
 2159 0072 08       		.byte	0x8
 2160 0073 3D040000 		.long	.LASF8
 2161 0077 04       		.uleb128 0x4
 2162 0078 02       		.byte	0x2
 2163 0079 07       		.byte	0x7
 2164 007a 36020000 		.long	.LASF9
 2165 007e 03       		.uleb128 0x3
 2166 007f 5F050000 		.long	.LASF10
 2167 0083 03       		.byte	0x3
 2168 0084 33       		.byte	0x33
 2169 0085 37000000 		.long	0x37
 2170 0089 04       		.uleb128 0x4
 2171 008a 08       		.byte	0x8
 2172 008b 07       		.byte	0x7
 2173 008c 46000000 		.long	.LASF11
 2174 0090 03       		.uleb128 0x3
 2175 0091 A8000000 		.long	.LASF12
 2176 0095 04       		.byte	0x4
 2177 0096 23       		.byte	0x23
 2178 0097 9B000000 		.long	0x9b
 2179 009b 04       		.uleb128 0x4
 2180 009c 01       		.byte	0x1
 2181 009d 02       		.byte	0x2
 2182 009e 2F040000 		.long	.LASF13
 2183 00a2 03       		.uleb128 0x3
 2184 00a3 74020000 		.long	.LASF14
 2185 00a7 04       		.byte	0x4
 2186 00a8 24       		.byte	0x24
 2187 00a9 65000000 		.long	0x65
 2188 00ad 03       		.uleb128 0x3
 2189 00ae 17010000 		.long	.LASF15
 2190 00b2 04       		.byte	0x4
 2191 00b3 25       		.byte	0x25
 2192 00b4 65000000 		.long	0x65
 2193 00b8 03       		.uleb128 0x3
 2194 00b9 E7030000 		.long	.LASF16
 2195 00bd 04       		.byte	0x4
 2196 00be 26       		.byte	0x26
 2197 00bf 65000000 		.long	0x65
 2198 00c3 03       		.uleb128 0x3
 2199 00c4 FA000000 		.long	.LASF17
 2200 00c8 04       		.byte	0x4
 2201 00c9 27       		.byte	0x27
 2202 00ca 65000000 		.long	0x65
 2203 00ce 03       		.uleb128 0x3
GAS LISTING /tmp/ccmTSJ1m.s 			page 59


 2204 00cf 1F040000 		.long	.LASF18
 2205 00d3 04       		.byte	0x4
 2206 00d4 28       		.byte	0x28
 2207 00d5 7E000000 		.long	0x7e
 2208 00d9 03       		.uleb128 0x3
 2209 00da 66020000 		.long	.LASF19
 2210 00de 04       		.byte	0x4
 2211 00df 29       		.byte	0x29
 2212 00e0 53000000 		.long	0x53
 2213 00e4 03       		.uleb128 0x3
 2214 00e5 A9020000 		.long	.LASF20
 2215 00e9 04       		.byte	0x4
 2216 00ea 2B       		.byte	0x2b
 2217 00eb 7E000000 		.long	0x7e
 2218 00ef 03       		.uleb128 0x3
 2219 00f0 90050000 		.long	.LASF21
 2220 00f4 04       		.byte	0x4
 2221 00f5 2D       		.byte	0x2d
 2222 00f6 7E000000 		.long	0x7e
 2223 00fa 03       		.uleb128 0x3
 2224 00fb B2010000 		.long	.LASF22
 2225 00ff 04       		.byte	0x4
 2226 0100 2E       		.byte	0x2e
 2227 0101 53000000 		.long	0x53
 2228 0105 03       		.uleb128 0x3
 2229 0106 0D050000 		.long	.LASF23
 2230 010a 05       		.byte	0x5
 2231 010b 2A       		.byte	0x2a
 2232 010c 10010000 		.long	0x110
 2233 0110 05       		.uleb128 0x5
 2234 0111 0D050000 		.long	.LASF23
 2235 0115 48       		.byte	0x48
 2236 0116 06       		.byte	0x6
 2237 0117 5E       		.byte	0x5e
 2238 0118 0D020000 		.long	0x20d
 2239 011c 06       		.uleb128 0x6
 2240 011d F3040000 		.long	.LASF24
 2241 0121 06       		.byte	0x6
 2242 0122 5F       		.byte	0x5f
 2243 0123 2E020000 		.long	0x22e
 2244 0127 00       		.byte	0
 2245 0128 06       		.uleb128 0x6
 2246 0129 10040000 		.long	.LASF25
 2247 012d 06       		.byte	0x6
 2248 012e 61       		.byte	0x61
 2249 012f 2E020000 		.long	0x22e
 2250 0133 04       		.byte	0x4
 2251 0134 06       		.uleb128 0x6
 2252 0135 7F000000 		.long	.LASF26
 2253 0139 06       		.byte	0x6
 2254 013a 63       		.byte	0x63
 2255 013b CE000000 		.long	0xce
 2256 013f 08       		.byte	0x8
 2257 0140 06       		.uleb128 0x6
 2258 0141 C9060000 		.long	.LASF27
 2259 0145 06       		.byte	0x6
 2260 0146 64       		.byte	0x64
GAS LISTING /tmp/ccmTSJ1m.s 			page 60


 2261 0147 CC020000 		.long	0x2cc
 2262 014b 0C       		.byte	0xc
 2263 014c 06       		.uleb128 0x6
 2264 014d 4A010000 		.long	.LASF28
 2265 0151 06       		.byte	0x6
 2266 0152 66       		.byte	0x66
 2267 0153 2E020000 		.long	0x22e
 2268 0157 10       		.byte	0x10
 2269 0158 06       		.uleb128 0x6
 2270 0159 7C030000 		.long	.LASF29
 2271 015d 06       		.byte	0x6
 2272 015e 67       		.byte	0x67
 2273 015f 2E020000 		.long	0x22e
 2274 0163 14       		.byte	0x14
 2275 0164 06       		.uleb128 0x6
 2276 0165 79060000 		.long	.LASF30
 2277 0169 06       		.byte	0x6
 2278 016a 6E       		.byte	0x6e
 2279 016b 6E040000 		.long	0x46e
 2280 016f 18       		.byte	0x18
 2281 0170 06       		.uleb128 0x6
 2282 0171 CB040000 		.long	.LASF31
 2283 0175 06       		.byte	0x6
 2284 0176 79       		.byte	0x79
 2285 0177 AD000000 		.long	0xad
 2286 017b 1C       		.byte	0x1c
 2287 017c 06       		.uleb128 0x6
 2288 017d FA040000 		.long	.LASF32
 2289 0181 06       		.byte	0x6
 2290 0182 7D       		.byte	0x7d
 2291 0183 A2000000 		.long	0xa2
 2292 0187 1D       		.byte	0x1d
 2293 0188 06       		.uleb128 0x6
 2294 0189 09060000 		.long	.LASF33
 2295 018d 06       		.byte	0x6
 2296 018e 82       		.byte	0x82
 2297 018f B8000000 		.long	0xb8
 2298 0193 1E       		.byte	0x1e
 2299 0194 06       		.uleb128 0x6
 2300 0195 D3040000 		.long	.LASF34
 2301 0199 06       		.byte	0x6
 2302 019a 88       		.byte	0x88
 2303 019b C3000000 		.long	0xc3
 2304 019f 1F       		.byte	0x1f
 2305 01a0 06       		.uleb128 0x6
 2306 01a1 C5050000 		.long	.LASF35
 2307 01a5 06       		.byte	0x6
 2308 01a6 8F       		.byte	0x8f
 2309 01a7 66030000 		.long	0x366
 2310 01ab 20       		.byte	0x20
 2311 01ac 07       		.uleb128 0x7
 2312 01ad 705F7500 		.string	"p_u"
 2313 01b1 06       		.byte	0x6
 2314 01b2 B4       		.byte	0xb4
 2315 01b3 39040000 		.long	0x439
 2316 01b7 24       		.byte	0x24
 2317 01b8 06       		.uleb128 0x6
GAS LISTING /tmp/ccmTSJ1m.s 			page 61


 2318 01b9 CF060000 		.long	.LASF36
 2319 01bd 06       		.byte	0x6
 2320 01be B9       		.byte	0xb9
 2321 01bf 54020000 		.long	0x254
 2322 01c3 28       		.byte	0x28
 2323 01c4 06       		.uleb128 0x6
 2324 01c5 E9010000 		.long	.LASF37
 2325 01c9 06       		.byte	0x6
 2326 01ca BF       		.byte	0xbf
 2327 01cb 34020000 		.long	0x234
 2328 01cf 2C       		.byte	0x2c
 2329 01d0 06       		.uleb128 0x6
 2330 01d1 08000000 		.long	.LASF38
 2331 01d5 06       		.byte	0x6
 2332 01d6 C3       		.byte	0xc3
 2333 01d7 D9000000 		.long	0xd9
 2334 01db 34       		.byte	0x34
 2335 01dc 06       		.uleb128 0x6
 2336 01dd 49050000 		.long	.LASF39
 2337 01e1 06       		.byte	0x6
 2338 01e2 C9       		.byte	0xc9
 2339 01e3 E4000000 		.long	0xe4
 2340 01e7 38       		.byte	0x38
 2341 01e8 06       		.uleb128 0x6
 2342 01e9 B7040000 		.long	.LASF40
 2343 01ed 06       		.byte	0x6
 2344 01ee D0       		.byte	0xd0
 2345 01ef 80040000 		.long	0x480
 2346 01f3 3C       		.byte	0x3c
 2347 01f4 06       		.uleb128 0x6
 2348 01f5 9A050000 		.long	.LASF41
 2349 01f9 06       		.byte	0x6
 2350 01fa D4       		.byte	0xd4
 2351 01fb CE000000 		.long	0xce
 2352 01ff 40       		.byte	0x40
 2353 0200 06       		.uleb128 0x6
 2354 0201 A0000000 		.long	.LASF42
 2355 0205 06       		.byte	0x6
 2356 0206 DA       		.byte	0xda
 2357 0207 81020000 		.long	0x281
 2358 020b 44       		.byte	0x44
 2359 020c 00       		.byte	0
 2360 020d 08       		.uleb128 0x8
 2361 020e 08       		.byte	0x8
 2362 020f 05       		.byte	0x5
 2363 0210 61       		.byte	0x61
 2364 0211 2E020000 		.long	0x22e
 2365 0215 06       		.uleb128 0x6
 2366 0216 F3040000 		.long	.LASF24
 2367 021a 05       		.byte	0x5
 2368 021b 62       		.byte	0x62
 2369 021c 2E020000 		.long	0x22e
 2370 0220 00       		.byte	0
 2371 0221 06       		.uleb128 0x6
 2372 0222 10040000 		.long	.LASF25
 2373 0226 05       		.byte	0x5
 2374 0227 64       		.byte	0x64
GAS LISTING /tmp/ccmTSJ1m.s 			page 62


 2375 0228 2E020000 		.long	0x22e
 2376 022c 04       		.byte	0x4
 2377 022d 00       		.byte	0
 2378 022e 09       		.uleb128 0x9
 2379 022f 04       		.byte	0x4
 2380 0230 05010000 		.long	0x105
 2381 0234 03       		.uleb128 0x3
 2382 0235 A2030000 		.long	.LASF43
 2383 0239 05       		.byte	0x5
 2384 023a 66       		.byte	0x66
 2385 023b 0D020000 		.long	0x20d
 2386 023f 08       		.uleb128 0x8
 2387 0240 04       		.byte	0x4
 2388 0241 05       		.byte	0x5
 2389 0242 6B       		.byte	0x6b
 2390 0243 54020000 		.long	0x254
 2391 0247 06       		.uleb128 0x6
 2392 0248 F3040000 		.long	.LASF24
 2393 024c 05       		.byte	0x5
 2394 024d 6D       		.byte	0x6d
 2395 024e 2E020000 		.long	0x22e
 2396 0252 00       		.byte	0
 2397 0253 00       		.byte	0
 2398 0254 03       		.uleb128 0x3
 2399 0255 94020000 		.long	.LASF44
 2400 0259 05       		.byte	0x5
 2401 025a 70       		.byte	0x70
 2402 025b 3F020000 		.long	0x23f
 2403 025f 0A       		.uleb128 0xa
 2404 0260 65000000 		.long	0x65
 2405 0264 6F020000 		.long	0x26f
 2406 0268 0B       		.uleb128 0xb
 2407 0269 6F020000 		.long	0x26f
 2408 026d 0F       		.byte	0xf
 2409 026e 00       		.byte	0
 2410 026f 04       		.uleb128 0x4
 2411 0270 04       		.byte	0x4
 2412 0271 07       		.byte	0x7
 2413 0272 02030000 		.long	.LASF45
 2414 0276 03       		.uleb128 0x3
 2415 0277 A6060000 		.long	.LASF46
 2416 027b 07       		.byte	0x7
 2417 027c 4B       		.byte	0x4b
 2418 027d 81020000 		.long	0x281
 2419 0281 0C       		.uleb128 0xc
 2420 0282 04       		.byte	0x4
 2421 0283 05       		.uleb128 0x5
 2422 0284 D5050000 		.long	.LASF47
 2423 0288 14       		.byte	0x14
 2424 0289 07       		.byte	0x7
 2425 028a 59       		.byte	0x59
 2426 028b CC020000 		.long	0x2cc
 2427 028f 07       		.uleb128 0x7
 2428 0290 65627800 		.string	"ebx"
 2429 0294 07       		.byte	0x7
 2430 0295 5A       		.byte	0x5a
 2431 0296 76020000 		.long	0x276
GAS LISTING /tmp/ccmTSJ1m.s 			page 63


 2432 029a 00       		.byte	0
 2433 029b 07       		.uleb128 0x7
 2434 029c 65646900 		.string	"edi"
 2435 02a0 07       		.byte	0x7
 2436 02a1 5B       		.byte	0x5b
 2437 02a2 76020000 		.long	0x276
 2438 02a6 04       		.byte	0x4
 2439 02a7 07       		.uleb128 0x7
 2440 02a8 65736900 		.string	"esi"
 2441 02ac 07       		.byte	0x7
 2442 02ad 5C       		.byte	0x5c
 2443 02ae 76020000 		.long	0x276
 2444 02b2 08       		.byte	0x8
 2445 02b3 07       		.uleb128 0x7
 2446 02b4 65627000 		.string	"ebp"
 2447 02b8 07       		.byte	0x7
 2448 02b9 5D       		.byte	0x5d
 2449 02ba 76020000 		.long	0x276
 2450 02be 0C       		.byte	0xc
 2451 02bf 07       		.uleb128 0x7
 2452 02c0 65697000 		.string	"eip"
 2453 02c4 07       		.byte	0x7
 2454 02c5 5E       		.byte	0x5e
 2455 02c6 76020000 		.long	0x276
 2456 02ca 10       		.byte	0x10
 2457 02cb 00       		.byte	0
 2458 02cc 05       		.uleb128 0x5
 2459 02cd 2E020000 		.long	.LASF48
 2460 02d1 04       		.byte	0x4
 2461 02d2 07       		.byte	0x7
 2462 02d3 66       		.byte	0x66
 2463 02d4 E5020000 		.long	0x2e5
 2464 02d8 07       		.uleb128 0x7
 2465 02d9 65737000 		.string	"esp"
 2466 02dd 07       		.byte	0x7
 2467 02de 67       		.byte	0x67
 2468 02df E5020000 		.long	0x2e5
 2469 02e3 00       		.byte	0
 2470 02e4 00       		.byte	0
 2471 02e5 09       		.uleb128 0x9
 2472 02e6 04       		.byte	0x4
 2473 02e7 EB020000 		.long	0x2eb
 2474 02eb 0D       		.uleb128 0xd
 2475 02ec 83020000 		.long	0x283
 2476 02f0 03       		.uleb128 0x3
 2477 02f1 A5050000 		.long	.LASF49
 2478 02f5 08       		.byte	0x8
 2479 02f6 58       		.byte	0x58
 2480 02f7 FB020000 		.long	0x2fb
 2481 02fb 09       		.uleb128 0x9
 2482 02fc 04       		.byte	0x4
 2483 02fd 01030000 		.long	0x301
 2484 0301 0E       		.uleb128 0xe
 2485 0302 0C030000 		.long	0x30c
 2486 0306 0F       		.uleb128 0xf
 2487 0307 81020000 		.long	0x281
 2488 030b 00       		.byte	0
GAS LISTING /tmp/ccmTSJ1m.s 			page 64


 2489 030c 03       		.uleb128 0x3
 2490 030d 70050000 		.long	.LASF50
 2491 0311 08       		.byte	0x8
 2492 0312 5D       		.byte	0x5d
 2493 0313 17030000 		.long	0x317
 2494 0317 05       		.uleb128 0x5
 2495 0318 70050000 		.long	.LASF50
 2496 031c 14       		.byte	0x14
 2497 031d 08       		.byte	0x8
 2498 031e 64       		.byte	0x64
 2499 031f 60030000 		.long	0x360
 2500 0323 06       		.uleb128 0x6
 2501 0324 D3010000 		.long	.LASF51
 2502 0328 08       		.byte	0x8
 2503 0329 65       		.byte	0x65
 2504 032a 60030000 		.long	0x360
 2505 032e 00       		.byte	0
 2506 032f 06       		.uleb128 0x6
 2507 0330 85010000 		.long	.LASF52
 2508 0334 08       		.byte	0x8
 2509 0335 67       		.byte	0x67
 2510 0336 60030000 		.long	0x360
 2511 033a 04       		.byte	0x4
 2512 033b 06       		.uleb128 0x6
 2513 033c EE020000 		.long	.LASF53
 2514 0340 08       		.byte	0x8
 2515 0341 69       		.byte	0x69
 2516 0342 EF000000 		.long	0xef
 2517 0346 08       		.byte	0x8
 2518 0347 06       		.uleb128 0x6
 2519 0348 30030000 		.long	.LASF54
 2520 034c 08       		.byte	0x8
 2521 034d 6A       		.byte	0x6a
 2522 034e F0020000 		.long	0x2f0
 2523 0352 0C       		.byte	0xc
 2524 0353 06       		.uleb128 0x6
 2525 0354 E6050000 		.long	.LASF55
 2526 0358 08       		.byte	0x8
 2527 0359 6C       		.byte	0x6c
 2528 035a 81020000 		.long	0x281
 2529 035e 10       		.byte	0x10
 2530 035f 00       		.byte	0
 2531 0360 09       		.uleb128 0x9
 2532 0361 04       		.byte	0x4
 2533 0362 0C030000 		.long	0x30c
 2534 0366 0D       		.uleb128 0xd
 2535 0367 EF000000 		.long	0xef
 2536 036b 08       		.uleb128 0x8
 2537 036c 1C       		.byte	0x1c
 2538 036d 09       		.byte	0x9
 2539 036e 5E       		.byte	0x5e
 2540 036f BC030000 		.long	0x3bc
 2541 0373 06       		.uleb128 0x6
 2542 0374 68050000 		.long	.LASF56
 2543 0378 09       		.byte	0x9
 2544 0379 5F       		.byte	0x5f
 2545 037a 34020000 		.long	0x234
GAS LISTING /tmp/ccmTSJ1m.s 			page 65


 2546 037e 00       		.byte	0
 2547 037f 06       		.uleb128 0x6
 2548 0380 E5040000 		.long	.LASF57
 2549 0384 09       		.byte	0x9
 2550 0385 60       		.byte	0x60
 2551 0386 CE000000 		.long	0xce
 2552 038a 08       		.byte	0x8
 2553 038b 06       		.uleb128 0x6
 2554 038c 94030000 		.long	.LASF58
 2555 0390 09       		.byte	0x9
 2556 0391 62       		.byte	0x62
 2557 0392 CC020000 		.long	0x2cc
 2558 0396 0C       		.byte	0xc
 2559 0397 06       		.uleb128 0x6
 2560 0398 7D010000 		.long	.LASF59
 2561 039c 09       		.byte	0x9
 2562 039d 65       		.byte	0x65
 2563 039e 2E020000 		.long	0x22e
 2564 03a2 10       		.byte	0x10
 2565 03a3 06       		.uleb128 0x6
 2566 03a4 C7030000 		.long	.LASF60
 2567 03a8 09       		.byte	0x9
 2568 03a9 66       		.byte	0x66
 2569 03aa 2E020000 		.long	0x22e
 2570 03ae 14       		.byte	0x14
 2571 03af 06       		.uleb128 0x6
 2572 03b0 BD030000 		.long	.LASF61
 2573 03b4 09       		.byte	0x9
 2574 03b5 69       		.byte	0x69
 2575 03b6 2E020000 		.long	0x22e
 2576 03ba 18       		.byte	0x18
 2577 03bb 00       		.byte	0
 2578 03bc 03       		.uleb128 0x3
 2579 03bd 1B060000 		.long	.LASF62
 2580 03c1 09       		.byte	0x9
 2581 03c2 6B       		.byte	0x6b
 2582 03c3 6B030000 		.long	0x36b
 2583 03c7 05       		.uleb128 0x5
 2584 03c8 ED050000 		.long	.LASF63
 2585 03cc 0C       		.byte	0xc
 2586 03cd 0A       		.byte	0xa
 2587 03ce 2C       		.byte	0x2c
 2588 03cf EC030000 		.long	0x3ec
 2589 03d3 06       		.uleb128 0x6
 2590 03d4 52010000 		.long	.LASF64
 2591 03d8 0A       		.byte	0xa
 2592 03d9 2D       		.byte	0x2d
 2593 03da 34020000 		.long	0x234
 2594 03de 00       		.byte	0
 2595 03df 06       		.uleb128 0x6
 2596 03e0 28020000 		.long	.LASF65
 2597 03e4 0A       		.byte	0xa
 2598 03e5 2F       		.byte	0x2f
 2599 03e6 FA000000 		.long	0xfa
 2600 03ea 08       		.byte	0x8
 2601 03eb 00       		.byte	0
 2602 03ec 03       		.uleb128 0x3
GAS LISTING /tmp/ccmTSJ1m.s 			page 66


 2603 03ed ED050000 		.long	.LASF63
 2604 03f1 0A       		.byte	0xa
 2605 03f2 30       		.byte	0x30
 2606 03f3 C7030000 		.long	0x3c7
 2607 03f7 05       		.uleb128 0x5
 2608 03f8 C0020000 		.long	.LASF66
 2609 03fc 10       		.byte	0x10
 2610 03fd 0B       		.byte	0xb
 2611 03fe 2C       		.byte	0x2c
 2612 03ff 28040000 		.long	0x428
 2613 0403 06       		.uleb128 0x6
 2614 0404 AF000000 		.long	.LASF67
 2615 0408 0B       		.byte	0xb
 2616 0409 2D       		.byte	0x2d
 2617 040a 34020000 		.long	0x234
 2618 040e 00       		.byte	0
 2619 040f 06       		.uleb128 0x6
 2620 0410 C1060000 		.long	.LASF68
 2621 0414 0B       		.byte	0xb
 2622 0415 2F       		.byte	0x2f
 2623 0416 2E020000 		.long	0x22e
 2624 041a 08       		.byte	0x8
 2625 041b 06       		.uleb128 0x6
 2626 041c 0E000000 		.long	.LASF69
 2627 0420 0B       		.byte	0xb
 2628 0421 31       		.byte	0x31
 2629 0422 28040000 		.long	0x428
 2630 0426 0C       		.byte	0xc
 2631 0427 00       		.byte	0
 2632 0428 09       		.uleb128 0x9
 2633 0429 04       		.byte	0x4
 2634 042a F7030000 		.long	0x3f7
 2635 042e 03       		.uleb128 0x3
 2636 042f C0020000 		.long	.LASF66
 2637 0433 0B       		.byte	0xb
 2638 0434 33       		.byte	0x33
 2639 0435 F7030000 		.long	0x3f7
 2640 0439 10       		.uleb128 0x10
 2641 043a 04       		.byte	0x4
 2642 043b 06       		.byte	0x6
 2643 043c 96       		.byte	0x96
 2644 043d 6E040000 		.long	0x46e
 2645 0441 11       		.uleb128 0x11
 2646 0442 21000000 		.long	.LASF70
 2647 0446 06       		.byte	0x6
 2648 0447 9D       		.byte	0x9d
 2649 0448 D9000000 		.long	0xd9
 2650 044c 11       		.uleb128 0x11
 2651 044d 5D000000 		.long	.LASF71
 2652 0451 06       		.byte	0x6
 2653 0452 A4       		.byte	0xa4
 2654 0453 D9000000 		.long	0xd9
 2655 0457 11       		.uleb128 0x11
 2656 0458 72060000 		.long	.LASF72
 2657 045c 06       		.byte	0x6
 2658 045d AB       		.byte	0xab
 2659 045e 81020000 		.long	0x281
GAS LISTING /tmp/ccmTSJ1m.s 			page 67


 2660 0462 11       		.uleb128 0x11
 2661 0463 EC040000 		.long	.LASF73
 2662 0467 06       		.byte	0x6
 2663 0468 B2       		.byte	0xb2
 2664 0469 E4000000 		.long	0xe4
 2665 046d 00       		.byte	0
 2666 046e 09       		.uleb128 0x9
 2667 046f 04       		.byte	0x4
 2668 0470 74040000 		.long	0x474
 2669 0474 12       		.uleb128 0x12
 2670 0475 79040000 		.long	0x479
 2671 0479 04       		.uleb128 0x4
 2672 047a 01       		.byte	0x1
 2673 047b 06       		.byte	0x6
 2674 047c 7D050000 		.long	.LASF74
 2675 0480 09       		.uleb128 0x9
 2676 0481 04       		.byte	0x4
 2677 0482 2E040000 		.long	0x42e
 2678 0486 03       		.uleb128 0x3
 2679 0487 00000000 		.long	.LASF75
 2680 048b 06       		.byte	0x6
 2681 048c E5       		.byte	0xe5
 2682 048d 91040000 		.long	0x491
 2683 0491 09       		.uleb128 0x9
 2684 0492 04       		.byte	0x4
 2685 0493 97040000 		.long	0x497
 2686 0497 13       		.uleb128 0x13
 2687 0498 D9000000 		.long	0xd9
 2688 049c A6040000 		.long	0x4a6
 2689 04a0 0F       		.uleb128 0xf
 2690 04a1 81020000 		.long	0x281
 2691 04a5 00       		.byte	0
 2692 04a6 03       		.uleb128 0x3
 2693 04a7 CF020000 		.long	.LASF76
 2694 04ab 0C       		.byte	0xc
 2695 04ac 37       		.byte	0x37
 2696 04ad B1040000 		.long	0x4b1
 2697 04b1 05       		.uleb128 0x5
 2698 04b2 CF020000 		.long	.LASF76
 2699 04b6 24       		.byte	0x24
 2700 04b7 0C       		.byte	0xc
 2701 04b8 45       		.byte	0x45
 2702 04b9 1E050000 		.long	0x51e
 2703 04bd 06       		.uleb128 0x6
 2704 04be 3C000000 		.long	.LASF77
 2705 04c2 0C       		.byte	0xc
 2706 04c3 46       		.byte	0x46
 2707 04c4 34020000 		.long	0x234
 2708 04c8 00       		.byte	0
 2709 04c9 06       		.uleb128 0x6
 2710 04ca 26030000 		.long	.LASF78
 2711 04ce 0C       		.byte	0xc
 2712 04cf 47       		.byte	0x47
 2713 04d0 2C000000 		.long	0x2c
 2714 04d4 08       		.byte	0x8
 2715 04d5 06       		.uleb128 0x6
 2716 04d6 39010000 		.long	.LASF79
GAS LISTING /tmp/ccmTSJ1m.s 			page 68


 2717 04da 0C       		.byte	0xc
 2718 04db 48       		.byte	0x48
 2719 04dc 40050000 		.long	0x540
 2720 04e0 0C       		.byte	0xc
 2721 04e1 06       		.uleb128 0x6
 2722 04e2 F7050000 		.long	.LASF80
 2723 04e6 0C       		.byte	0xc
 2724 04e7 49       		.byte	0x49
 2725 04e8 40050000 		.long	0x540
 2726 04ec 10       		.byte	0x10
 2727 04ed 06       		.uleb128 0x6
 2728 04ee 42010000 		.long	.LASF81
 2729 04f2 0C       		.byte	0xc
 2730 04f3 4B       		.byte	0x4b
 2731 04f4 40050000 		.long	0x540
 2732 04f8 14       		.byte	0x14
 2733 04f9 06       		.uleb128 0x6
 2734 04fa 27040000 		.long	.LASF82
 2735 04fe 0C       		.byte	0xc
 2736 04ff 4C       		.byte	0x4c
 2737 0500 40050000 		.long	0x540
 2738 0504 18       		.byte	0x18
 2739 0505 06       		.uleb128 0x6
 2740 0506 2F060000 		.long	.LASF83
 2741 050a 0C       		.byte	0xc
 2742 050b 4D       		.byte	0x4d
 2743 050c 1E050000 		.long	0x51e
 2744 0510 1C       		.byte	0x1c
 2745 0511 06       		.uleb128 0x6
 2746 0512 BA060000 		.long	.LASF84
 2747 0516 0C       		.byte	0xc
 2748 0517 4E       		.byte	0x4e
 2749 0518 81020000 		.long	0x281
 2750 051c 20       		.byte	0x20
 2751 051d 00       		.byte	0
 2752 051e 03       		.uleb128 0x3
 2753 051f 06040000 		.long	.LASF85
 2754 0523 0C       		.byte	0xc
 2755 0524 3A       		.byte	0x3a
 2756 0525 29050000 		.long	0x529
 2757 0529 09       		.uleb128 0x9
 2758 052a 04       		.byte	0x4
 2759 052b 2F050000 		.long	0x52f
 2760 052f 0E       		.uleb128 0xe
 2761 0530 3A050000 		.long	0x53a
 2762 0534 0F       		.uleb128 0xf
 2763 0535 3A050000 		.long	0x53a
 2764 0539 00       		.byte	0
 2765 053a 09       		.uleb128 0x9
 2766 053b 04       		.byte	0x4
 2767 053c A6040000 		.long	0x4a6
 2768 0540 09       		.uleb128 0x9
 2769 0541 04       		.byte	0x4
 2770 0542 65000000 		.long	0x65
 2771 0546 03       		.uleb128 0x3
 2772 0547 B5020000 		.long	.LASF86
 2773 054b 0C       		.byte	0xc
GAS LISTING /tmp/ccmTSJ1m.s 			page 69


 2774 054c 82       		.byte	0x82
 2775 054d A6040000 		.long	0x4a6
 2776 0551 05       		.uleb128 0x5
 2777 0552 28050000 		.long	.LASF87
 2778 0556 10       		.byte	0x10
 2779 0557 0D       		.byte	0xd
 2780 0558 3B       		.byte	0x3b
 2781 0559 8E050000 		.long	0x58e
 2782 055d 06       		.uleb128 0x6
 2783 055e 23020000 		.long	.LASF88
 2784 0562 0D       		.byte	0xd
 2785 0563 3C       		.byte	0x3c
 2786 0564 6E040000 		.long	0x46e
 2787 0568 00       		.byte	0
 2788 0569 06       		.uleb128 0x6
 2789 056a B7030000 		.long	.LASF89
 2790 056e 0D       		.byte	0xd
 2791 056f 3D       		.byte	0x3d
 2792 0570 8F050000 		.long	0x58f
 2793 0574 04       		.byte	0x4
 2794 0575 06       		.uleb128 0x6
 2795 0576 F4010000 		.long	.LASF90
 2796 057a 0D       		.byte	0xd
 2797 057b 3E       		.byte	0x3e
 2798 057c 8F050000 		.long	0x58f
 2799 0580 08       		.byte	0x8
 2800 0581 06       		.uleb128 0x6
 2801 0582 17040000 		.long	.LASF91
 2802 0586 0D       		.byte	0xd
 2803 0587 3F       		.byte	0x3f
 2804 0588 8F050000 		.long	0x58f
 2805 058c 0C       		.byte	0xc
 2806 058d 00       		.byte	0
 2807 058e 14       		.uleb128 0x14
 2808 058f 09       		.uleb128 0x9
 2809 0590 04       		.byte	0x4
 2810 0591 8E050000 		.long	0x58e
 2811 0595 15       		.uleb128 0x15
 2812 0596 8C030000 		.long	.LASF94
 2813 059a 01       		.byte	0x1
 2814 059b 9A       		.byte	0x9a
 2815 059c D9000000 		.long	0xd9
 2816 05a0 00000000 		.long	.LFB11
 2817 05a4 05000000 		.long	.LFE11-.LFB11
 2818 05a8 01       		.uleb128 0x1
 2819 05a9 9C       		.byte	0x9c
 2820 05aa BB050000 		.long	0x5bb
 2821 05ae 16       		.uleb128 0x16
 2822 05af 7000     		.string	"p"
 2823 05b1 01       		.byte	0x1
 2824 05b2 9A       		.byte	0x9a
 2825 05b3 81020000 		.long	0x281
 2826 05b7 02       		.uleb128 0x2
 2827 05b8 91       		.byte	0x91
 2828 05b9 00       		.sleb128 0
 2829 05ba 00       		.byte	0
 2830 05bb 17       		.uleb128 0x17
GAS LISTING /tmp/ccmTSJ1m.s 			page 70


 2831 05bc 746D6F00 		.string	"tmo"
 2832 05c0 01       		.byte	0x1
 2833 05c1 F601     		.value	0x1f6
 2834 05c3 10000000 		.long	.LFB23
 2835 05c7 02000000 		.long	.LFE23-.LFB23
 2836 05cb 01       		.uleb128 0x1
 2837 05cc 9C       		.byte	0x9c
 2838 05cd E1050000 		.long	0x5e1
 2839 05d1 18       		.uleb128 0x18
 2840 05d2 5A030000 		.long	.LASF92
 2841 05d6 01       		.byte	0x1
 2842 05d7 F601     		.value	0x1f6
 2843 05d9 81020000 		.long	0x281
 2844 05dd 02       		.uleb128 0x2
 2845 05de 91       		.byte	0x91
 2846 05df 00       		.sleb128 0
 2847 05e0 00       		.byte	0
 2848 05e1 19       		.uleb128 0x19
 2849 05e2 82050000 		.long	.LASF93
 2850 05e6 01       		.byte	0x1
 2851 05e7 7D02     		.value	0x27d
 2852 05e9 20000000 		.long	.LFB29
 2853 05ed 6F010000 		.long	.LFE29-.LFB29
 2854 05f1 01       		.uleb128 0x1
 2855 05f2 9C       		.byte	0x9c
 2856 05f3 A1080000 		.long	0x8a1
 2857 05f7 1A       		.uleb128 0x1a
 2858 05f8 2F000000 		.long	.LVL2
 2859 05fc 0C1B0000 		.long	0x1b0c
 2860 0600 0F060000 		.long	0x60f
 2861 0604 1B       		.uleb128 0x1b
 2862 0605 02       		.uleb128 0x2
 2863 0606 74       		.byte	0x74
 2864 0607 00       		.sleb128 0
 2865 0608 05       		.uleb128 0x5
 2866 0609 03       		.byte	0x3
 2867 060a 00000000 		.long	.LC0
 2868 060e 00       		.byte	0
 2869 060f 1A       		.uleb128 0x1a
 2870 0610 3B000000 		.long	.LVL3
 2871 0614 1D1B0000 		.long	0x1b1d
 2872 0618 25060000 		.long	0x625
 2873 061c 1B       		.uleb128 0x1b
 2874 061d 02       		.uleb128 0x2
 2875 061e 74       		.byte	0x74
 2876 061f 00       		.sleb128 0
 2877 0620 03       		.uleb128 0x3
 2878 0621 0A       		.byte	0xa
 2879 0622 E481     		.value	0x81e4
 2880 0624 00       		.byte	0
 2881 0625 1A       		.uleb128 0x1a
 2882 0626 47000000 		.long	.LVL4
 2883 062a 2E1B0000 		.long	0x1b2e
 2884 062e 3D060000 		.long	0x63d
 2885 0632 1B       		.uleb128 0x1b
 2886 0633 02       		.uleb128 0x2
 2887 0634 74       		.byte	0x74
GAS LISTING /tmp/ccmTSJ1m.s 			page 71


 2888 0635 00       		.sleb128 0
 2889 0636 05       		.uleb128 0x5
 2890 0637 03       		.byte	0x3
 2891 0638 0D000000 		.long	.LC1
 2892 063c 00       		.byte	0
 2893 063d 1A       		.uleb128 0x1a
 2894 063e 53000000 		.long	.LVL5
 2895 0642 0C1B0000 		.long	0x1b0c
 2896 0646 55060000 		.long	0x655
 2897 064a 1B       		.uleb128 0x1b
 2898 064b 02       		.uleb128 0x2
 2899 064c 74       		.byte	0x74
 2900 064d 00       		.sleb128 0
 2901 064e 05       		.uleb128 0x5
 2902 064f 03       		.byte	0x3
 2903 0650 14000000 		.long	.LC2
 2904 0654 00       		.byte	0
 2905 0655 1A       		.uleb128 0x1a
 2906 0656 5F000000 		.long	.LVL6
 2907 065a 1D1B0000 		.long	0x1b1d
 2908 065e 6A060000 		.long	0x66a
 2909 0662 1B       		.uleb128 0x1b
 2910 0663 02       		.uleb128 0x2
 2911 0664 74       		.byte	0x74
 2912 0665 00       		.sleb128 0
 2913 0666 02       		.uleb128 0x2
 2914 0667 08       		.byte	0x8
 2915 0668 48       		.byte	0x48
 2916 0669 00       		.byte	0
 2917 066a 1A       		.uleb128 0x1a
 2918 066b 6B000000 		.long	.LVL7
 2919 066f 2E1B0000 		.long	0x1b2e
 2920 0673 82060000 		.long	0x682
 2921 0677 1B       		.uleb128 0x1b
 2922 0678 02       		.uleb128 0x2
 2923 0679 74       		.byte	0x74
 2924 067a 00       		.sleb128 0
 2925 067b 05       		.uleb128 0x5
 2926 067c 03       		.byte	0x3
 2927 067d 0D000000 		.long	.LC1
 2928 0681 00       		.byte	0
 2929 0682 1A       		.uleb128 0x1a
 2930 0683 77000000 		.long	.LVL8
 2931 0687 0C1B0000 		.long	0x1b0c
 2932 068b 9A060000 		.long	0x69a
 2933 068f 1B       		.uleb128 0x1b
 2934 0690 02       		.uleb128 0x2
 2935 0691 74       		.byte	0x74
 2936 0692 00       		.sleb128 0
 2937 0693 05       		.uleb128 0x5
 2938 0694 03       		.byte	0x3
 2939 0695 21000000 		.long	.LC3
 2940 0699 00       		.byte	0
 2941 069a 1A       		.uleb128 0x1a
 2942 069b 83000000 		.long	.LVL9
 2943 069f 1D1B0000 		.long	0x1b1d
 2944 06a3 AE060000 		.long	0x6ae
GAS LISTING /tmp/ccmTSJ1m.s 			page 72


 2945 06a7 1B       		.uleb128 0x1b
 2946 06a8 02       		.uleb128 0x2
 2947 06a9 74       		.byte	0x74
 2948 06aa 00       		.sleb128 0
 2949 06ab 01       		.uleb128 0x1
 2950 06ac 44       		.byte	0x44
 2951 06ad 00       		.byte	0
 2952 06ae 1A       		.uleb128 0x1a
 2953 06af 8F000000 		.long	.LVL10
 2954 06b3 2E1B0000 		.long	0x1b2e
 2955 06b7 C6060000 		.long	0x6c6
 2956 06bb 1B       		.uleb128 0x1b
 2957 06bc 02       		.uleb128 0x2
 2958 06bd 74       		.byte	0x74
 2959 06be 00       		.sleb128 0
 2960 06bf 05       		.uleb128 0x5
 2961 06c0 03       		.byte	0x3
 2962 06c1 0D000000 		.long	.LC1
 2963 06c5 00       		.byte	0
 2964 06c6 1A       		.uleb128 0x1a
 2965 06c7 9B000000 		.long	.LVL11
 2966 06cb 0C1B0000 		.long	0x1b0c
 2967 06cf DE060000 		.long	0x6de
 2968 06d3 1B       		.uleb128 0x1b
 2969 06d4 02       		.uleb128 0x2
 2970 06d5 74       		.byte	0x74
 2971 06d6 00       		.sleb128 0
 2972 06d7 05       		.uleb128 0x5
 2973 06d8 03       		.byte	0x3
 2974 06d9 2E000000 		.long	.LC4
 2975 06dd 00       		.byte	0
 2976 06de 1A       		.uleb128 0x1a
 2977 06df A7000000 		.long	.LVL12
 2978 06e3 1D1B0000 		.long	0x1b1d
 2979 06e7 F2060000 		.long	0x6f2
 2980 06eb 1B       		.uleb128 0x1b
 2981 06ec 02       		.uleb128 0x2
 2982 06ed 74       		.byte	0x74
 2983 06ee 00       		.sleb128 0
 2984 06ef 01       		.uleb128 0x1
 2985 06f0 3C       		.byte	0x3c
 2986 06f1 00       		.byte	0
 2987 06f2 1A       		.uleb128 0x1a
 2988 06f3 B3000000 		.long	.LVL13
 2989 06f7 2E1B0000 		.long	0x1b2e
 2990 06fb 0A070000 		.long	0x70a
 2991 06ff 1B       		.uleb128 0x1b
 2992 0700 02       		.uleb128 0x2
 2993 0701 74       		.byte	0x74
 2994 0702 00       		.sleb128 0
 2995 0703 05       		.uleb128 0x5
 2996 0704 03       		.byte	0x3
 2997 0705 0D000000 		.long	.LC1
 2998 0709 00       		.byte	0
 2999 070a 1A       		.uleb128 0x1a
 3000 070b BF000000 		.long	.LVL14
 3001 070f 0C1B0000 		.long	0x1b0c
GAS LISTING /tmp/ccmTSJ1m.s 			page 73


 3002 0713 22070000 		.long	0x722
 3003 0717 1B       		.uleb128 0x1b
 3004 0718 02       		.uleb128 0x2
 3005 0719 74       		.byte	0x74
 3006 071a 00       		.sleb128 0
 3007 071b 05       		.uleb128 0x5
 3008 071c 03       		.byte	0x3
 3009 071d 3B000000 		.long	.LC5
 3010 0721 00       		.byte	0
 3011 0722 1A       		.uleb128 0x1a
 3012 0723 CB000000 		.long	.LVL15
 3013 0727 1D1B0000 		.long	0x1b1d
 3014 072b 36070000 		.long	0x736
 3015 072f 1B       		.uleb128 0x1b
 3016 0730 02       		.uleb128 0x2
 3017 0731 74       		.byte	0x74
 3018 0732 00       		.sleb128 0
 3019 0733 01       		.uleb128 0x1
 3020 0734 34       		.byte	0x34
 3021 0735 00       		.byte	0
 3022 0736 1A       		.uleb128 0x1a
 3023 0737 D7000000 		.long	.LVL16
 3024 073b 2E1B0000 		.long	0x1b2e
 3025 073f 4E070000 		.long	0x74e
 3026 0743 1B       		.uleb128 0x1b
 3027 0744 02       		.uleb128 0x2
 3028 0745 74       		.byte	0x74
 3029 0746 00       		.sleb128 0
 3030 0747 05       		.uleb128 0x5
 3031 0748 03       		.byte	0x3
 3032 0749 0D000000 		.long	.LC1
 3033 074d 00       		.byte	0
 3034 074e 1A       		.uleb128 0x1a
 3035 074f E3000000 		.long	.LVL17
 3036 0753 0C1B0000 		.long	0x1b0c
 3037 0757 66070000 		.long	0x766
 3038 075b 1B       		.uleb128 0x1b
 3039 075c 02       		.uleb128 0x2
 3040 075d 74       		.byte	0x74
 3041 075e 00       		.sleb128 0
 3042 075f 05       		.uleb128 0x5
 3043 0760 03       		.byte	0x3
 3044 0761 48000000 		.long	.LC6
 3045 0765 00       		.byte	0
 3046 0766 1A       		.uleb128 0x1a
 3047 0767 EF000000 		.long	.LVL18
 3048 076b 1D1B0000 		.long	0x1b1d
 3049 076f 7A070000 		.long	0x77a
 3050 0773 1B       		.uleb128 0x1b
 3051 0774 02       		.uleb128 0x2
 3052 0775 74       		.byte	0x74
 3053 0776 00       		.sleb128 0
 3054 0777 01       		.uleb128 0x1
 3055 0778 40       		.byte	0x40
 3056 0779 00       		.byte	0
 3057 077a 1A       		.uleb128 0x1a
 3058 077b FB000000 		.long	.LVL19
GAS LISTING /tmp/ccmTSJ1m.s 			page 74


 3059 077f 2E1B0000 		.long	0x1b2e
 3060 0783 92070000 		.long	0x792
 3061 0787 1B       		.uleb128 0x1b
 3062 0788 02       		.uleb128 0x2
 3063 0789 74       		.byte	0x74
 3064 078a 00       		.sleb128 0
 3065 078b 05       		.uleb128 0x5
 3066 078c 03       		.byte	0x3
 3067 078d 0D000000 		.long	.LC1
 3068 0791 00       		.byte	0
 3069 0792 1A       		.uleb128 0x1a
 3070 0793 07010000 		.long	.LVL20
 3071 0797 0C1B0000 		.long	0x1b0c
 3072 079b AA070000 		.long	0x7aa
 3073 079f 1B       		.uleb128 0x1b
 3074 07a0 02       		.uleb128 0x2
 3075 07a1 74       		.byte	0x74
 3076 07a2 00       		.sleb128 0
 3077 07a3 05       		.uleb128 0x5
 3078 07a4 03       		.byte	0x3
 3079 07a5 55000000 		.long	.LC7
 3080 07a9 00       		.byte	0
 3081 07aa 1A       		.uleb128 0x1a
 3082 07ab 13010000 		.long	.LVL21
 3083 07af 1D1B0000 		.long	0x1b1d
 3084 07b3 BE070000 		.long	0x7be
 3085 07b7 1B       		.uleb128 0x1b
 3086 07b8 02       		.uleb128 0x2
 3087 07b9 74       		.byte	0x74
 3088 07ba 00       		.sleb128 0
 3089 07bb 01       		.uleb128 0x1
 3090 07bc 40       		.byte	0x40
 3091 07bd 00       		.byte	0
 3092 07be 1A       		.uleb128 0x1a
 3093 07bf 1F010000 		.long	.LVL22
 3094 07c3 2E1B0000 		.long	0x1b2e
 3095 07c7 D6070000 		.long	0x7d6
 3096 07cb 1B       		.uleb128 0x1b
 3097 07cc 02       		.uleb128 0x2
 3098 07cd 74       		.byte	0x74
 3099 07ce 00       		.sleb128 0
 3100 07cf 05       		.uleb128 0x5
 3101 07d0 03       		.byte	0x3
 3102 07d1 0D000000 		.long	.LC1
 3103 07d5 00       		.byte	0
 3104 07d6 1A       		.uleb128 0x1a
 3105 07d7 2B010000 		.long	.LVL23
 3106 07db 0C1B0000 		.long	0x1b0c
 3107 07df EE070000 		.long	0x7ee
 3108 07e3 1B       		.uleb128 0x1b
 3109 07e4 02       		.uleb128 0x2
 3110 07e5 74       		.byte	0x74
 3111 07e6 00       		.sleb128 0
 3112 07e7 05       		.uleb128 0x5
 3113 07e8 03       		.byte	0x3
 3114 07e9 62000000 		.long	.LC8
 3115 07ed 00       		.byte	0
GAS LISTING /tmp/ccmTSJ1m.s 			page 75


 3116 07ee 1A       		.uleb128 0x1a
 3117 07ef 37010000 		.long	.LVL24
 3118 07f3 1D1B0000 		.long	0x1b1d
 3119 07f7 02080000 		.long	0x802
 3120 07fb 1B       		.uleb128 0x1b
 3121 07fc 02       		.uleb128 0x2
 3122 07fd 74       		.byte	0x74
 3123 07fe 00       		.sleb128 0
 3124 07ff 01       		.uleb128 0x1
 3125 0800 38       		.byte	0x38
 3126 0801 00       		.byte	0
 3127 0802 1A       		.uleb128 0x1a
 3128 0803 43010000 		.long	.LVL25
 3129 0807 2E1B0000 		.long	0x1b2e
 3130 080b 1A080000 		.long	0x81a
 3131 080f 1B       		.uleb128 0x1b
 3132 0810 02       		.uleb128 0x2
 3133 0811 74       		.byte	0x74
 3134 0812 00       		.sleb128 0
 3135 0813 05       		.uleb128 0x5
 3136 0814 03       		.byte	0x3
 3137 0815 0D000000 		.long	.LC1
 3138 0819 00       		.byte	0
 3139 081a 1A       		.uleb128 0x1a
 3140 081b 4F010000 		.long	.LVL26
 3141 081f 0C1B0000 		.long	0x1b0c
 3142 0823 32080000 		.long	0x832
 3143 0827 1B       		.uleb128 0x1b
 3144 0828 02       		.uleb128 0x2
 3145 0829 74       		.byte	0x74
 3146 082a 00       		.sleb128 0
 3147 082b 05       		.uleb128 0x5
 3148 082c 03       		.byte	0x3
 3149 082d 6F000000 		.long	.LC9
 3150 0831 00       		.byte	0
 3151 0832 1A       		.uleb128 0x1a
 3152 0833 5B010000 		.long	.LVL27
 3153 0837 1D1B0000 		.long	0x1b1d
 3154 083b 47080000 		.long	0x847
 3155 083f 1B       		.uleb128 0x1b
 3156 0840 02       		.uleb128 0x2
 3157 0841 74       		.byte	0x74
 3158 0842 00       		.sleb128 0
 3159 0843 02       		.uleb128 0x2
 3160 0844 08       		.byte	0x8
 3161 0845 24       		.byte	0x24
 3162 0846 00       		.byte	0
 3163 0847 1A       		.uleb128 0x1a
 3164 0848 67010000 		.long	.LVL28
 3165 084c 2E1B0000 		.long	0x1b2e
 3166 0850 5F080000 		.long	0x85f
 3167 0854 1B       		.uleb128 0x1b
 3168 0855 02       		.uleb128 0x2
 3169 0856 74       		.byte	0x74
 3170 0857 00       		.sleb128 0
 3171 0858 05       		.uleb128 0x5
 3172 0859 03       		.byte	0x3
GAS LISTING /tmp/ccmTSJ1m.s 			page 76


 3173 085a 0D000000 		.long	.LC1
 3174 085e 00       		.byte	0
 3175 085f 1A       		.uleb128 0x1a
 3176 0860 73010000 		.long	.LVL29
 3177 0864 0C1B0000 		.long	0x1b0c
 3178 0868 77080000 		.long	0x877
 3179 086c 1B       		.uleb128 0x1b
 3180 086d 02       		.uleb128 0x2
 3181 086e 74       		.byte	0x74
 3182 086f 00       		.sleb128 0
 3183 0870 05       		.uleb128 0x5
 3184 0871 03       		.byte	0x3
 3185 0872 7C000000 		.long	.LC10
 3186 0876 00       		.byte	0
 3187 0877 1A       		.uleb128 0x1a
 3188 0878 7F010000 		.long	.LVL30
 3189 087c 1D1B0000 		.long	0x1b1d
 3190 0880 8C080000 		.long	0x88c
 3191 0884 1B       		.uleb128 0x1b
 3192 0885 02       		.uleb128 0x2
 3193 0886 74       		.byte	0x74
 3194 0887 00       		.sleb128 0
 3195 0888 02       		.uleb128 0x2
 3196 0889 08       		.byte	0x8
 3197 088a 28       		.byte	0x28
 3198 088b 00       		.byte	0
 3199 088c 1C       		.uleb128 0x1c
 3200 088d 8B010000 		.long	.LVL31
 3201 0891 2E1B0000 		.long	0x1b2e
 3202 0895 1B       		.uleb128 0x1b
 3203 0896 02       		.uleb128 0x2
 3204 0897 74       		.byte	0x74
 3205 0898 00       		.sleb128 0
 3206 0899 05       		.uleb128 0x5
 3207 089a 03       		.byte	0x3
 3208 089b 0D000000 		.long	.LC1
 3209 089f 00       		.byte	0
 3210 08a0 00       		.byte	0
 3211 08a1 15       		.uleb128 0x15
 3212 08a2 84030000 		.long	.LASF95
 3213 08a6 01       		.byte	0x1
 3214 08a7 40       		.byte	0x40
 3215 08a8 D9000000 		.long	0xd9
 3216 08ac 90010000 		.long	.LFB7
 3217 08b0 27000000 		.long	.LFE7-.LFB7
 3218 08b4 01       		.uleb128 0x1
 3219 08b5 9C       		.byte	0x9c
 3220 08b6 FE080000 		.long	0x8fe
 3221 08ba 16       		.uleb128 0x16
 3222 08bb 7000     		.string	"p"
 3223 08bd 01       		.byte	0x1
 3224 08be 40       		.byte	0x40
 3225 08bf 81020000 		.long	0x281
 3226 08c3 02       		.uleb128 0x2
 3227 08c4 91       		.byte	0x91
 3228 08c5 00       		.sleb128 0
 3229 08c6 1D       		.uleb128 0x1d
GAS LISTING /tmp/ccmTSJ1m.s 			page 77


 3230 08c7 747000   		.string	"tp"
 3231 08ca 01       		.byte	0x1
 3232 08cb 41       		.byte	0x41
 3233 08cc 2E020000 		.long	0x22e
 3234 08d0 00000000 		.long	.LLST0
 3235 08d4 1D       		.uleb128 0x1d
 3236 08d5 6D736700 		.string	"msg"
 3237 08d9 01       		.byte	0x1
 3238 08da 42       		.byte	0x42
 3239 08db D9000000 		.long	0xd9
 3240 08df 13000000 		.long	.LLST1
 3241 08e3 1E       		.uleb128 0x1e
 3242 08e4 9D010000 		.long	.LVL33
 3243 08e8 3F1B0000 		.long	0x1b3f
 3244 08ec 1C       		.uleb128 0x1c
 3245 08ed AC010000 		.long	.LVL35
 3246 08f1 4A1B0000 		.long	0x1b4a
 3247 08f5 1B       		.uleb128 0x1b
 3248 08f6 02       		.uleb128 0x2
 3249 08f7 74       		.byte	0x74
 3250 08f8 04       		.sleb128 4
 3251 08f9 02       		.uleb128 0x2
 3252 08fa 73       		.byte	0x73
 3253 08fb 00       		.sleb128 0
 3254 08fc 00       		.byte	0
 3255 08fd 00       		.byte	0
 3256 08fe 15       		.uleb128 0x15
 3257 08ff EC000000 		.long	.LASF96
 3258 0903 01       		.byte	0x1
 3259 0904 50       		.byte	0x50
 3260 0905 37000000 		.long	0x37
 3261 0909 C0010000 		.long	.LFB8
 3262 090d 59000000 		.long	.LFE8-.LFB8
 3263 0911 01       		.uleb128 0x1
 3264 0912 9C       		.byte	0x9c
 3265 0913 8D090000 		.long	0x98d
 3266 0917 1F       		.uleb128 0x1f
 3267 0918 747000   		.string	"tp"
 3268 091b 01       		.byte	0x1
 3269 091c 50       		.byte	0x50
 3270 091d 2E020000 		.long	0x22e
 3271 0921 26000000 		.long	.LLST2
 3272 0925 1D       		.uleb128 0x1d
 3273 0926 6E00     		.string	"n"
 3274 0928 01       		.byte	0x1
 3275 0929 52       		.byte	0x52
 3276 092a 7E000000 		.long	0x7e
 3277 092e 52000000 		.long	.LLST3
 3278 0932 1E       		.uleb128 0x1e
 3279 0933 CE010000 		.long	.LVL38
 3280 0937 601B0000 		.long	0x1b60
 3281 093b 1A       		.uleb128 0x1a
 3282 093c DA010000 		.long	.LVL39
 3283 0940 6B1B0000 		.long	0x1b6b
 3284 0944 51090000 		.long	0x951
 3285 0948 1B       		.uleb128 0x1b
 3286 0949 02       		.uleb128 0x2
GAS LISTING /tmp/ccmTSJ1m.s 			page 78


 3287 094a 74       		.byte	0x74
 3288 094b 00       		.sleb128 0
 3289 094c 03       		.uleb128 0x3
 3290 094d 0A       		.byte	0xa
 3291 094e E803     		.value	0x3e8
 3292 0950 00       		.byte	0
 3293 0951 1A       		.uleb128 0x1a
 3294 0952 F3010000 		.long	.LVL41
 3295 0956 7C1B0000 		.long	0x1b7c
 3296 095a 6C090000 		.long	0x96c
 3297 095e 1B       		.uleb128 0x1b
 3298 095f 02       		.uleb128 0x2
 3299 0960 74       		.byte	0x74
 3300 0961 00       		.sleb128 0
 3301 0962 02       		.uleb128 0x2
 3302 0963 76       		.byte	0x76
 3303 0964 00       		.sleb128 0
 3304 0965 1B       		.uleb128 0x1b
 3305 0966 02       		.uleb128 0x2
 3306 0967 74       		.byte	0x74
 3307 0968 04       		.sleb128 4
 3308 0969 01       		.uleb128 0x1
 3309 096a 31       		.byte	0x31
 3310 096b 00       		.byte	0
 3311 096c 1E       		.uleb128 0x1e
 3312 096d F8010000 		.long	.LVL42
 3313 0971 961B0000 		.long	0x1b96
 3314 0975 1C       		.uleb128 0x1c
 3315 0976 11020000 		.long	.LVL43
 3316 097a 7C1B0000 		.long	0x1b7c
 3317 097e 1B       		.uleb128 0x1b
 3318 097f 02       		.uleb128 0x2
 3319 0980 74       		.byte	0x74
 3320 0981 00       		.sleb128 0
 3321 0982 02       		.uleb128 0x2
 3322 0983 76       		.byte	0x76
 3323 0984 00       		.sleb128 0
 3324 0985 1B       		.uleb128 0x1b
 3325 0986 02       		.uleb128 0x2
 3326 0987 74       		.byte	0x74
 3327 0988 04       		.sleb128 4
 3328 0989 01       		.uleb128 0x1
 3329 098a 30       		.byte	0x30
 3330 098b 00       		.byte	0
 3331 098c 00       		.byte	0
 3332 098d 20       		.uleb128 0x20
 3333 098e 20010000 		.long	.LASF97
 3334 0992 01       		.byte	0x1
 3335 0993 69       		.byte	0x69
 3336 0994 20020000 		.long	.LFB9
 3337 0998 84000000 		.long	.LFE9-.LFB9
 3338 099c 01       		.uleb128 0x1
 3339 099d 9C       		.byte	0x9c
 3340 099e 4A0A0000 		.long	0xa4a
 3341 09a2 1D       		.uleb128 0x1d
 3342 09a3 6E00     		.string	"n"
 3343 09a5 01       		.byte	0x1
GAS LISTING /tmp/ccmTSJ1m.s 			page 79


 3344 09a6 6A       		.byte	0x6a
 3345 09a7 7E000000 		.long	0x7e
 3346 09ab 94000000 		.long	.LLST4
 3347 09af 1A       		.uleb128 0x1a
 3348 09b0 58020000 		.long	.LVL46
 3349 09b4 9D1B0000 		.long	0x1b9d
 3350 09b8 D5090000 		.long	0x9d5
 3351 09bc 1B       		.uleb128 0x1b
 3352 09bd 02       		.uleb128 0x2
 3353 09be 74       		.byte	0x74
 3354 09bf 04       		.sleb128 4
 3355 09c0 03       		.uleb128 0x3
 3356 09c1 0A       		.byte	0xa
 3357 09c2 7042     		.value	0x4270
 3358 09c4 1B       		.uleb128 0x1b
 3359 09c5 02       		.uleb128 0x2
 3360 09c6 74       		.byte	0x74
 3361 09c7 0C       		.sleb128 12
 3362 09c8 05       		.uleb128 0x5
 3363 09c9 03       		.byte	0x3
 3364 09ca 90010000 		.long	thread1
 3365 09ce 1B       		.uleb128 0x1b
 3366 09cf 02       		.uleb128 0x2
 3367 09d0 74       		.byte	0x74
 3368 09d1 10       		.sleb128 16
 3369 09d2 01       		.uleb128 0x1
 3370 09d3 30       		.byte	0x30
 3371 09d4 00       		.byte	0
 3372 09d5 1E       		.uleb128 0x1e
 3373 09d6 62020000 		.long	.LVL47
 3374 09da FE080000 		.long	0x8fe
 3375 09de 1E       		.uleb128 0x1e
 3376 09df 69020000 		.long	.LVL49
 3377 09e3 C71B0000 		.long	0x1bc7
 3378 09e7 1A       		.uleb128 0x1a
 3379 09e8 75020000 		.long	.LVL50
 3380 09ec 0C1B0000 		.long	0x1b0c
 3381 09f0 FF090000 		.long	0x9ff
 3382 09f4 1B       		.uleb128 0x1b
 3383 09f5 02       		.uleb128 0x2
 3384 09f6 74       		.byte	0x74
 3385 09f7 00       		.sleb128 0
 3386 09f8 05       		.uleb128 0x5
 3387 09f9 03       		.byte	0x3
 3388 09fa 89000000 		.long	.LC11
 3389 09fe 00       		.byte	0
 3390 09ff 1E       		.uleb128 0x1e
 3391 0a00 7F020000 		.long	.LVL52
 3392 0a04 1D1B0000 		.long	0x1b1d
 3393 0a08 1A       		.uleb128 0x1a
 3394 0a09 8B020000 		.long	.LVL53
 3395 0a0d 0C1B0000 		.long	0x1b0c
 3396 0a11 200A0000 		.long	0xa20
 3397 0a15 1B       		.uleb128 0x1b
 3398 0a16 02       		.uleb128 0x2
 3399 0a17 74       		.byte	0x74
 3400 0a18 00       		.sleb128 0
GAS LISTING /tmp/ccmTSJ1m.s 			page 80


 3401 0a19 05       		.uleb128 0x5
 3402 0a1a 03       		.byte	0x3
 3403 0a1b 96000000 		.long	.LC12
 3404 0a1f 00       		.byte	0
 3405 0a20 1A       		.uleb128 0x1a
 3406 0a21 93020000 		.long	.LVL54
 3407 0a25 1D1B0000 		.long	0x1b1d
 3408 0a29 350A0000 		.long	0xa35
 3409 0a2d 1B       		.uleb128 0x1b
 3410 0a2e 02       		.uleb128 0x2
 3411 0a2f 74       		.byte	0x74
 3412 0a30 00       		.sleb128 0
 3413 0a31 02       		.uleb128 0x2
 3414 0a32 73       		.byte	0x73
 3415 0a33 00       		.sleb128 0
 3416 0a34 00       		.byte	0
 3417 0a35 1C       		.uleb128 0x1c
 3418 0a36 9F020000 		.long	.LVL55
 3419 0a3a 2E1B0000 		.long	0x1b2e
 3420 0a3e 1B       		.uleb128 0x1b
 3421 0a3f 02       		.uleb128 0x2
 3422 0a40 74       		.byte	0x74
 3423 0a41 00       		.sleb128 0
 3424 0a42 05       		.uleb128 0x5
 3425 0a43 03       		.byte	0x3
 3426 0a44 A0000000 		.long	.LC13
 3427 0a48 00       		.byte	0
 3428 0a49 00       		.byte	0
 3429 0a4a 20       		.uleb128 0x20
 3430 0a4b 16020000 		.long	.LASF98
 3431 0a4f 01       		.byte	0x1
 3432 0a50 86       		.byte	0x86
 3433 0a51 B0020000 		.long	.LFB10
 3434 0a55 84000000 		.long	.LFE10-.LFB10
 3435 0a59 01       		.uleb128 0x1
 3436 0a5a 9C       		.byte	0x9c
 3437 0a5b 070B0000 		.long	0xb07
 3438 0a5f 1D       		.uleb128 0x1d
 3439 0a60 6E00     		.string	"n"
 3440 0a62 01       		.byte	0x1
 3441 0a63 87       		.byte	0x87
 3442 0a64 7E000000 		.long	0x7e
 3443 0a68 BE000000 		.long	.LLST5
 3444 0a6c 1A       		.uleb128 0x1a
 3445 0a6d E8020000 		.long	.LVL56
 3446 0a71 9D1B0000 		.long	0x1b9d
 3447 0a75 920A0000 		.long	0xa92
 3448 0a79 1B       		.uleb128 0x1b
 3449 0a7a 02       		.uleb128 0x2
 3450 0a7b 74       		.byte	0x74
 3451 0a7c 04       		.sleb128 4
 3452 0a7d 03       		.uleb128 0x3
 3453 0a7e 0A       		.byte	0xa
 3454 0a7f 7042     		.value	0x4270
 3455 0a81 1B       		.uleb128 0x1b
 3456 0a82 02       		.uleb128 0x2
 3457 0a83 74       		.byte	0x74
GAS LISTING /tmp/ccmTSJ1m.s 			page 81


 3458 0a84 0C       		.sleb128 12
 3459 0a85 05       		.uleb128 0x5
 3460 0a86 03       		.byte	0x3
 3461 0a87 90010000 		.long	thread1
 3462 0a8b 1B       		.uleb128 0x1b
 3463 0a8c 02       		.uleb128 0x2
 3464 0a8d 74       		.byte	0x74
 3465 0a8e 10       		.sleb128 16
 3466 0a8f 01       		.uleb128 0x1
 3467 0a90 30       		.byte	0x30
 3468 0a91 00       		.byte	0
 3469 0a92 1E       		.uleb128 0x1e
 3470 0a93 F2020000 		.long	.LVL57
 3471 0a97 FE080000 		.long	0x8fe
 3472 0a9b 1E       		.uleb128 0x1e
 3473 0a9c F9020000 		.long	.LVL59
 3474 0aa0 C71B0000 		.long	0x1bc7
 3475 0aa4 1A       		.uleb128 0x1a
 3476 0aa5 05030000 		.long	.LVL60
 3477 0aa9 0C1B0000 		.long	0x1b0c
 3478 0aad BC0A0000 		.long	0xabc
 3479 0ab1 1B       		.uleb128 0x1b
 3480 0ab2 02       		.uleb128 0x2
 3481 0ab3 74       		.byte	0x74
 3482 0ab4 00       		.sleb128 0
 3483 0ab5 05       		.uleb128 0x5
 3484 0ab6 03       		.byte	0x3
 3485 0ab7 89000000 		.long	.LC11
 3486 0abb 00       		.byte	0
 3487 0abc 1E       		.uleb128 0x1e
 3488 0abd 0F030000 		.long	.LVL62
 3489 0ac1 1D1B0000 		.long	0x1b1d
 3490 0ac5 1A       		.uleb128 0x1a
 3491 0ac6 1B030000 		.long	.LVL63
 3492 0aca 0C1B0000 		.long	0x1b0c
 3493 0ace DD0A0000 		.long	0xadd
 3494 0ad2 1B       		.uleb128 0x1b
 3495 0ad3 02       		.uleb128 0x2
 3496 0ad4 74       		.byte	0x74
 3497 0ad5 00       		.sleb128 0
 3498 0ad6 05       		.uleb128 0x5
 3499 0ad7 03       		.byte	0x3
 3500 0ad8 96000000 		.long	.LC12
 3501 0adc 00       		.byte	0
 3502 0add 1A       		.uleb128 0x1a
 3503 0ade 23030000 		.long	.LVL64
 3504 0ae2 1D1B0000 		.long	0x1b1d
 3505 0ae6 F20A0000 		.long	0xaf2
 3506 0aea 1B       		.uleb128 0x1b
 3507 0aeb 02       		.uleb128 0x2
 3508 0aec 74       		.byte	0x74
 3509 0aed 00       		.sleb128 0
 3510 0aee 02       		.uleb128 0x2
 3511 0aef 73       		.byte	0x73
 3512 0af0 00       		.sleb128 0
 3513 0af1 00       		.byte	0
 3514 0af2 1C       		.uleb128 0x1c
GAS LISTING /tmp/ccmTSJ1m.s 			page 82


 3515 0af3 2F030000 		.long	.LVL65
 3516 0af7 2E1B0000 		.long	0x1b2e
 3517 0afb 1B       		.uleb128 0x1b
 3518 0afc 02       		.uleb128 0x2
 3519 0afd 74       		.byte	0x74
 3520 0afe 00       		.sleb128 0
 3521 0aff 05       		.uleb128 0x5
 3522 0b00 03       		.byte	0x3
 3523 0b01 A0000000 		.long	.LC13
 3524 0b05 00       		.byte	0
 3525 0b06 00       		.byte	0
 3526 0b07 20       		.uleb128 0x20
 3527 0b08 38030000 		.long	.LASF99
 3528 0b0c 01       		.byte	0x1
 3529 0b0d A9       		.byte	0xa9
 3530 0b0e 40030000 		.long	.LFB12
 3531 0b12 6D010000 		.long	.LFE12-.LFB12
 3532 0b16 01       		.uleb128 0x1
 3533 0b17 9C       		.byte	0x9c
 3534 0b18 5C0C0000 		.long	0xc5c
 3535 0b1c 1D       		.uleb128 0x1d
 3536 0b1d 6E00     		.string	"n"
 3537 0b1f 01       		.byte	0x1
 3538 0b20 AA       		.byte	0xaa
 3539 0b21 7E000000 		.long	0x7e
 3540 0b25 E8000000 		.long	.LLST6
 3541 0b29 1A       		.uleb128 0x1a
 3542 0b2a 78030000 		.long	.LVL66
 3543 0b2e 9D1B0000 		.long	0x1b9d
 3544 0b32 4F0B0000 		.long	0xb4f
 3545 0b36 1B       		.uleb128 0x1b
 3546 0b37 02       		.uleb128 0x2
 3547 0b38 74       		.byte	0x74
 3548 0b39 04       		.sleb128 4
 3549 0b3a 03       		.uleb128 0x3
 3550 0b3b 0A       		.byte	0xa
 3551 0b3c 7042     		.value	0x4270
 3552 0b3e 1B       		.uleb128 0x1b
 3553 0b3f 02       		.uleb128 0x2
 3554 0b40 74       		.byte	0x74
 3555 0b41 0C       		.sleb128 12
 3556 0b42 05       		.uleb128 0x5
 3557 0b43 03       		.byte	0x3
 3558 0b44 90010000 		.long	thread1
 3559 0b48 1B       		.uleb128 0x1b
 3560 0b49 02       		.uleb128 0x2
 3561 0b4a 74       		.byte	0x74
 3562 0b4b 10       		.sleb128 16
 3563 0b4c 01       		.uleb128 0x1
 3564 0b4d 30       		.byte	0x30
 3565 0b4e 00       		.byte	0
 3566 0b4f 1A       		.uleb128 0x1a
 3567 0b50 B1030000 		.long	.LVL67
 3568 0b54 9D1B0000 		.long	0x1b9d
 3569 0b58 750B0000 		.long	0xb75
 3570 0b5c 1B       		.uleb128 0x1b
 3571 0b5d 02       		.uleb128 0x2
GAS LISTING /tmp/ccmTSJ1m.s 			page 83


 3572 0b5e 74       		.byte	0x74
 3573 0b5f 04       		.sleb128 4
 3574 0b60 03       		.uleb128 0x3
 3575 0b61 0A       		.byte	0xa
 3576 0b62 7042     		.value	0x4270
 3577 0b64 1B       		.uleb128 0x1b
 3578 0b65 02       		.uleb128 0x2
 3579 0b66 74       		.byte	0x74
 3580 0b67 0C       		.sleb128 12
 3581 0b68 05       		.uleb128 0x5
 3582 0b69 03       		.byte	0x3
 3583 0b6a 00000000 		.long	thread2
 3584 0b6e 1B       		.uleb128 0x1b
 3585 0b6f 02       		.uleb128 0x2
 3586 0b70 74       		.byte	0x74
 3587 0b71 10       		.sleb128 16
 3588 0b72 01       		.uleb128 0x1
 3589 0b73 30       		.byte	0x30
 3590 0b74 00       		.byte	0
 3591 0b75 1A       		.uleb128 0x1a
 3592 0b76 EA030000 		.long	.LVL68
 3593 0b7a 9D1B0000 		.long	0x1b9d
 3594 0b7e 9B0B0000 		.long	0xb9b
 3595 0b82 1B       		.uleb128 0x1b
 3596 0b83 02       		.uleb128 0x2
 3597 0b84 74       		.byte	0x74
 3598 0b85 04       		.sleb128 4
 3599 0b86 03       		.uleb128 0x3
 3600 0b87 0A       		.byte	0xa
 3601 0b88 7042     		.value	0x4270
 3602 0b8a 1B       		.uleb128 0x1b
 3603 0b8b 02       		.uleb128 0x2
 3604 0b8c 74       		.byte	0x74
 3605 0b8d 0C       		.sleb128 12
 3606 0b8e 05       		.uleb128 0x5
 3607 0b8f 03       		.byte	0x3
 3608 0b90 00000000 		.long	thread2
 3609 0b94 1B       		.uleb128 0x1b
 3610 0b95 02       		.uleb128 0x2
 3611 0b96 74       		.byte	0x74
 3612 0b97 10       		.sleb128 16
 3613 0b98 01       		.uleb128 0x1
 3614 0b99 30       		.byte	0x30
 3615 0b9a 00       		.byte	0
 3616 0b9b 1A       		.uleb128 0x1a
 3617 0b9c 23040000 		.long	.LVL69
 3618 0ba0 9D1B0000 		.long	0x1b9d
 3619 0ba4 C10B0000 		.long	0xbc1
 3620 0ba8 1B       		.uleb128 0x1b
 3621 0ba9 02       		.uleb128 0x2
 3622 0baa 74       		.byte	0x74
 3623 0bab 04       		.sleb128 4
 3624 0bac 03       		.uleb128 0x3
 3625 0bad 0A       		.byte	0xa
 3626 0bae 7042     		.value	0x4270
 3627 0bb0 1B       		.uleb128 0x1b
 3628 0bb1 02       		.uleb128 0x2
GAS LISTING /tmp/ccmTSJ1m.s 			page 84


 3629 0bb2 74       		.byte	0x74
 3630 0bb3 0C       		.sleb128 12
 3631 0bb4 05       		.uleb128 0x5
 3632 0bb5 03       		.byte	0x3
 3633 0bb6 00000000 		.long	thread2
 3634 0bba 1B       		.uleb128 0x1b
 3635 0bbb 02       		.uleb128 0x2
 3636 0bbc 74       		.byte	0x74
 3637 0bbd 10       		.sleb128 16
 3638 0bbe 01       		.uleb128 0x1
 3639 0bbf 30       		.byte	0x30
 3640 0bc0 00       		.byte	0
 3641 0bc1 1A       		.uleb128 0x1a
 3642 0bc2 5C040000 		.long	.LVL70
 3643 0bc6 9D1B0000 		.long	0x1b9d
 3644 0bca E70B0000 		.long	0xbe7
 3645 0bce 1B       		.uleb128 0x1b
 3646 0bcf 02       		.uleb128 0x2
 3647 0bd0 74       		.byte	0x74
 3648 0bd1 04       		.sleb128 4
 3649 0bd2 03       		.uleb128 0x3
 3650 0bd3 0A       		.byte	0xa
 3651 0bd4 7042     		.value	0x4270
 3652 0bd6 1B       		.uleb128 0x1b
 3653 0bd7 02       		.uleb128 0x2
 3654 0bd8 74       		.byte	0x74
 3655 0bd9 0C       		.sleb128 12
 3656 0bda 05       		.uleb128 0x5
 3657 0bdb 03       		.byte	0x3
 3658 0bdc 00000000 		.long	thread2
 3659 0be0 1B       		.uleb128 0x1b
 3660 0be1 02       		.uleb128 0x2
 3661 0be2 74       		.byte	0x74
 3662 0be3 10       		.sleb128 16
 3663 0be4 01       		.uleb128 0x1
 3664 0be5 30       		.byte	0x30
 3665 0be6 00       		.byte	0
 3666 0be7 1E       		.uleb128 0x1e
 3667 0be8 6B040000 		.long	.LVL71
 3668 0bec FE080000 		.long	0x8fe
 3669 0bf0 1E       		.uleb128 0x1e
 3670 0bf1 72040000 		.long	.LVL73
 3671 0bf5 C71B0000 		.long	0x1bc7
 3672 0bf9 1A       		.uleb128 0x1a
 3673 0bfa 7E040000 		.long	.LVL74
 3674 0bfe 0C1B0000 		.long	0x1b0c
 3675 0c02 110C0000 		.long	0xc11
 3676 0c06 1B       		.uleb128 0x1b
 3677 0c07 02       		.uleb128 0x2
 3678 0c08 74       		.byte	0x74
 3679 0c09 00       		.sleb128 0
 3680 0c0a 05       		.uleb128 0x5
 3681 0c0b 03       		.byte	0x3
 3682 0c0c 89000000 		.long	.LC11
 3683 0c10 00       		.byte	0
 3684 0c11 1E       		.uleb128 0x1e
 3685 0c12 88040000 		.long	.LVL76
GAS LISTING /tmp/ccmTSJ1m.s 			page 85


 3686 0c16 1D1B0000 		.long	0x1b1d
 3687 0c1a 1A       		.uleb128 0x1a
 3688 0c1b 94040000 		.long	.LVL77
 3689 0c1f 0C1B0000 		.long	0x1b0c
 3690 0c23 320C0000 		.long	0xc32
 3691 0c27 1B       		.uleb128 0x1b
 3692 0c28 02       		.uleb128 0x2
 3693 0c29 74       		.byte	0x74
 3694 0c2a 00       		.sleb128 0
 3695 0c2b 05       		.uleb128 0x5
 3696 0c2c 03       		.byte	0x3
 3697 0c2d 96000000 		.long	.LC12
 3698 0c31 00       		.byte	0
 3699 0c32 1A       		.uleb128 0x1a
 3700 0c33 9C040000 		.long	.LVL78
 3701 0c37 1D1B0000 		.long	0x1b1d
 3702 0c3b 470C0000 		.long	0xc47
 3703 0c3f 1B       		.uleb128 0x1b
 3704 0c40 02       		.uleb128 0x2
 3705 0c41 74       		.byte	0x74
 3706 0c42 00       		.sleb128 0
 3707 0c43 02       		.uleb128 0x2
 3708 0c44 73       		.byte	0x73
 3709 0c45 00       		.sleb128 0
 3710 0c46 00       		.byte	0
 3711 0c47 1C       		.uleb128 0x1c
 3712 0c48 A8040000 		.long	.LVL79
 3713 0c4c 2E1B0000 		.long	0x1b2e
 3714 0c50 1B       		.uleb128 0x1b
 3715 0c51 02       		.uleb128 0x2
 3716 0c52 74       		.byte	0x74
 3717 0c53 00       		.sleb128 0
 3718 0c54 05       		.uleb128 0x5
 3719 0c55 03       		.byte	0x3
 3720 0c56 A0000000 		.long	.LC13
 3721 0c5a 00       		.byte	0
 3722 0c5b 00       		.byte	0
 3723 0c5c 19       		.uleb128 0x19
 3724 0c5d AD060000 		.long	.LASF100
 3725 0c61 01       		.byte	0x1
 3726 0c62 3001     		.value	0x130
 3727 0c64 B0040000 		.long	.LFB16
 3728 0c68 8C000000 		.long	.LFE16-.LFB16
 3729 0c6c 01       		.uleb128 0x1
 3730 0c6d 9C       		.byte	0x9c
 3731 0c6e 3E0D0000 		.long	0xd3e
 3732 0c72 21       		.uleb128 0x21
 3733 0c73 6E00     		.string	"n"
 3734 0c75 01       		.byte	0x1
 3735 0c76 3201     		.value	0x132
 3736 0c78 7E000000 		.long	0x7e
 3737 0c7c 12010000 		.long	.LLST7
 3738 0c80 21       		.uleb128 0x21
 3739 0c81 77617000 		.string	"wap"
 3740 0c85 01       		.byte	0x1
 3741 0c86 3301     		.value	0x133
 3742 0c88 81020000 		.long	0x281
GAS LISTING /tmp/ccmTSJ1m.s 			page 86


 3743 0c8c 49010000 		.long	.LLST8
 3744 0c90 22       		.uleb128 0x22
 3745 0c91 1C000000 		.long	.LASF101
 3746 0c95 01       		.byte	0x1
 3747 0c96 3401     		.value	0x134
 3748 0c98 CE000000 		.long	0xce
 3749 0c9c 5C010000 		.long	.LLST9
 3750 0ca0 1E       		.uleb128 0x1e
 3751 0ca1 CB040000 		.long	.LVL82
 3752 0ca5 601B0000 		.long	0x1b60
 3753 0ca9 1A       		.uleb128 0x1a
 3754 0caa D7040000 		.long	.LVL83
 3755 0cae 6B1B0000 		.long	0x1b6b
 3756 0cb2 BF0C0000 		.long	0xcbf
 3757 0cb6 1B       		.uleb128 0x1b
 3758 0cb7 02       		.uleb128 0x2
 3759 0cb8 74       		.byte	0x74
 3760 0cb9 00       		.sleb128 0
 3761 0cba 03       		.uleb128 0x3
 3762 0cbb 0A       		.byte	0xa
 3763 0cbc E803     		.value	0x3e8
 3764 0cbe 00       		.byte	0
 3765 0cbf 1A       		.uleb128 0x1a
 3766 0cc0 07050000 		.long	.LVL86
 3767 0cc4 9D1B0000 		.long	0x1b9d
 3768 0cc8 F30C0000 		.long	0xcf3
 3769 0ccc 1B       		.uleb128 0x1b
 3770 0ccd 02       		.uleb128 0x2
 3771 0cce 74       		.byte	0x74
 3772 0ccf 00       		.sleb128 0
 3773 0cd0 02       		.uleb128 0x2
 3774 0cd1 77       		.byte	0x77
 3775 0cd2 00       		.sleb128 0
 3776 0cd3 1B       		.uleb128 0x1b
 3777 0cd4 02       		.uleb128 0x2
 3778 0cd5 74       		.byte	0x74
 3779 0cd6 04       		.sleb128 4
 3780 0cd7 03       		.uleb128 0x3
 3781 0cd8 0A       		.byte	0xa
 3782 0cd9 7042     		.value	0x4270
 3783 0cdb 1B       		.uleb128 0x1b
 3784 0cdc 02       		.uleb128 0x2
 3785 0cdd 74       		.byte	0x74
 3786 0cde 08       		.sleb128 8
 3787 0cdf 02       		.uleb128 0x2
 3788 0ce0 76       		.byte	0x76
 3789 0ce1 00       		.sleb128 0
 3790 0ce2 1B       		.uleb128 0x1b
 3791 0ce3 02       		.uleb128 0x2
 3792 0ce4 74       		.byte	0x74
 3793 0ce5 0C       		.sleb128 12
 3794 0ce6 05       		.uleb128 0x5
 3795 0ce7 03       		.byte	0x3
 3796 0ce8 00000000 		.long	thread2
 3797 0cec 1B       		.uleb128 0x1b
 3798 0ced 02       		.uleb128 0x2
 3799 0cee 74       		.byte	0x74
GAS LISTING /tmp/ccmTSJ1m.s 			page 87


 3800 0cef 10       		.sleb128 16
 3801 0cf0 01       		.uleb128 0x1
 3802 0cf1 30       		.byte	0x30
 3803 0cf2 00       		.byte	0
 3804 0cf3 1E       		.uleb128 0x1e
 3805 0cf4 0C050000 		.long	.LVL87
 3806 0cf8 961B0000 		.long	0x1b96
 3807 0cfc 1A       		.uleb128 0x1a
 3808 0cfd 21050000 		.long	.LVL88
 3809 0d01 0C1B0000 		.long	0x1b0c
 3810 0d05 140D0000 		.long	0xd14
 3811 0d09 1B       		.uleb128 0x1b
 3812 0d0a 02       		.uleb128 0x2
 3813 0d0b 74       		.byte	0x74
 3814 0d0c 00       		.sleb128 0
 3815 0d0d 05       		.uleb128 0x5
 3816 0d0e 03       		.byte	0x3
 3817 0d0f 89000000 		.long	.LC11
 3818 0d13 00       		.byte	0
 3819 0d14 1A       		.uleb128 0x1a
 3820 0d15 29050000 		.long	.LVL89
 3821 0d19 1D1B0000 		.long	0x1b1d
 3822 0d1d 290D0000 		.long	0xd29
 3823 0d21 1B       		.uleb128 0x1b
 3824 0d22 02       		.uleb128 0x2
 3825 0d23 74       		.byte	0x74
 3826 0d24 00       		.sleb128 0
 3827 0d25 02       		.uleb128 0x2
 3828 0d26 73       		.byte	0x73
 3829 0d27 00       		.sleb128 0
 3830 0d28 00       		.byte	0
 3831 0d29 1C       		.uleb128 0x1c
 3832 0d2a 35050000 		.long	.LVL90
 3833 0d2e 2E1B0000 		.long	0x1b2e
 3834 0d32 1B       		.uleb128 0x1b
 3835 0d33 02       		.uleb128 0x2
 3836 0d34 74       		.byte	0x74
 3837 0d35 00       		.sleb128 0
 3838 0d36 05       		.uleb128 0x5
 3839 0d37 03       		.byte	0x3
 3840 0d38 AA000000 		.long	.LC14
 3841 0d3c 00       		.byte	0
 3842 0d3d 00       		.byte	0
 3843 0d3e 23       		.uleb128 0x23
 3844 0d3f 9A030000 		.long	.LASF166
 3845 0d43 01       		.byte	0x1
 3846 0d44 CB       		.byte	0xcb
 3847 0d45 D9000000 		.long	0xd9
 3848 0d49 40050000 		.long	.LFB13
 3849 0d4d 2B000000 		.long	.LFE13-.LFB13
 3850 0d51 01       		.uleb128 0x1
 3851 0d52 9C       		.byte	0x9c
 3852 0d53 920D0000 		.long	0xd92
 3853 0d57 16       		.uleb128 0x16
 3854 0d58 7000     		.string	"p"
 3855 0d5a 01       		.byte	0x1
 3856 0d5b CB       		.byte	0xcb
GAS LISTING /tmp/ccmTSJ1m.s 			page 88


 3857 0d5c 81020000 		.long	0x281
 3858 0d60 02       		.uleb128 0x2
 3859 0d61 91       		.byte	0x91
 3860 0d62 00       		.sleb128 0
 3861 0d63 1D       		.uleb128 0x1d
 3862 0d64 6D736700 		.string	"msg"
 3863 0d68 01       		.byte	0x1
 3864 0d69 CC       		.byte	0xcc
 3865 0d6a D9000000 		.long	0xd9
 3866 0d6e 6F010000 		.long	.LLST10
 3867 0d72 24       		.uleb128 0x24
 3868 0d73 67010000 		.long	.LASF102
 3869 0d77 01       		.byte	0x1
 3870 0d78 CD       		.byte	0xcd
 3871 0d79 2E020000 		.long	0x22e
 3872 0d7d 83010000 		.long	.LLST11
 3873 0d81 1C       		.uleb128 0x1c
 3874 0d82 5C050000 		.long	.LVL96
 3875 0d86 CE1B0000 		.long	0x1bce
 3876 0d8a 1B       		.uleb128 0x1b
 3877 0d8b 02       		.uleb128 0x2
 3878 0d8c 74       		.byte	0x74
 3879 0d8d 00       		.sleb128 0
 3880 0d8e 01       		.uleb128 0x1
 3881 0d8f 32       		.byte	0x32
 3882 0d90 00       		.byte	0
 3883 0d91 00       		.byte	0
 3884 0d92 20       		.uleb128 0x20
 3885 0d93 8B060000 		.long	.LASF103
 3886 0d97 01       		.byte	0x1
 3887 0d98 D9       		.byte	0xd9
 3888 0d99 70050000 		.long	.LFB14
 3889 0d9d EA000000 		.long	.LFE14-.LFB14
 3890 0da1 01       		.uleb128 0x1
 3891 0da2 9C       		.byte	0x9c
 3892 0da3 E40E0000 		.long	0xee4
 3893 0da7 1D       		.uleb128 0x1d
 3894 0da8 747000   		.string	"tp"
 3895 0dab 01       		.byte	0x1
 3896 0dac DA       		.byte	0xda
 3897 0dad 2E020000 		.long	0x22e
 3898 0db1 96010000 		.long	.LLST12
 3899 0db5 1D       		.uleb128 0x1d
 3900 0db6 6E00     		.string	"n"
 3901 0db8 01       		.byte	0x1
 3902 0db9 DB       		.byte	0xdb
 3903 0dba 7E000000 		.long	0x7e
 3904 0dbe B4010000 		.long	.LLST13
 3905 0dc2 1A       		.uleb128 0x1a
 3906 0dc3 AB050000 		.long	.LVL98
 3907 0dc7 9D1B0000 		.long	0x1b9d
 3908 0dcb E90D0000 		.long	0xde9
 3909 0dcf 1B       		.uleb128 0x1b
 3910 0dd0 02       		.uleb128 0x2
 3911 0dd1 74       		.byte	0x74
 3912 0dd2 04       		.sleb128 4
 3913 0dd3 03       		.uleb128 0x3
GAS LISTING /tmp/ccmTSJ1m.s 			page 89


 3914 0dd4 0A       		.byte	0xa
 3915 0dd5 7042     		.value	0x4270
 3916 0dd7 1B       		.uleb128 0x1b
 3917 0dd8 02       		.uleb128 0x2
 3918 0dd9 74       		.byte	0x74
 3919 0dda 0C       		.sleb128 12
 3920 0ddb 05       		.uleb128 0x5
 3921 0ddc 03       		.byte	0x3
 3922 0ddd 00000000 		.long	thread4
 3923 0de1 1B       		.uleb128 0x1b
 3924 0de2 02       		.uleb128 0x2
 3925 0de3 74       		.byte	0x74
 3926 0de4 10       		.sleb128 16
 3927 0de5 02       		.uleb128 0x2
 3928 0de6 76       		.byte	0x76
 3929 0de7 00       		.sleb128 0
 3930 0de8 00       		.byte	0
 3931 0de9 1E       		.uleb128 0x1e
 3932 0dea B7050000 		.long	.LVL100
 3933 0dee 601B0000 		.long	0x1b60
 3934 0df2 1A       		.uleb128 0x1a
 3935 0df3 C3050000 		.long	.LVL101
 3936 0df7 6B1B0000 		.long	0x1b6b
 3937 0dfb 080E0000 		.long	0xe08
 3938 0dff 1B       		.uleb128 0x1b
 3939 0e00 02       		.uleb128 0x2
 3940 0e01 74       		.byte	0x74
 3941 0e02 00       		.sleb128 0
 3942 0e03 03       		.uleb128 0x3
 3943 0e04 0A       		.byte	0xa
 3944 0e05 E803     		.value	0x3e8
 3945 0e07 00       		.byte	0
 3946 0e08 1A       		.uleb128 0x1a
 3947 0e09 D9050000 		.long	.LVL102
 3948 0e0d DF1B0000 		.long	0x1bdf
 3949 0e11 230E0000 		.long	0xe23
 3950 0e15 1B       		.uleb128 0x1b
 3951 0e16 02       		.uleb128 0x2
 3952 0e17 74       		.byte	0x74
 3953 0e18 00       		.sleb128 0
 3954 0e19 02       		.uleb128 0x2
 3955 0e1a 73       		.byte	0x73
 3956 0e1b 00       		.sleb128 0
 3957 0e1c 1B       		.uleb128 0x1b
 3958 0e1d 02       		.uleb128 0x2
 3959 0e1e 74       		.byte	0x74
 3960 0e1f 04       		.sleb128 4
 3961 0e20 01       		.uleb128 0x1
 3962 0e21 30       		.byte	0x30
 3963 0e22 00       		.byte	0
 3964 0e23 1A       		.uleb128 0x1a
 3965 0e24 E9050000 		.long	.LVL103
 3966 0e28 DF1B0000 		.long	0x1bdf
 3967 0e2c 3E0E0000 		.long	0xe3e
 3968 0e30 1B       		.uleb128 0x1b
 3969 0e31 02       		.uleb128 0x2
 3970 0e32 74       		.byte	0x74
GAS LISTING /tmp/ccmTSJ1m.s 			page 90


 3971 0e33 00       		.sleb128 0
 3972 0e34 02       		.uleb128 0x2
 3973 0e35 73       		.byte	0x73
 3974 0e36 00       		.sleb128 0
 3975 0e37 1B       		.uleb128 0x1b
 3976 0e38 02       		.uleb128 0x2
 3977 0e39 74       		.byte	0x74
 3978 0e3a 04       		.sleb128 4
 3979 0e3b 01       		.uleb128 0x1
 3980 0e3c 30       		.byte	0x30
 3981 0e3d 00       		.byte	0
 3982 0e3e 1A       		.uleb128 0x1a
 3983 0e3f F9050000 		.long	.LVL104
 3984 0e43 DF1B0000 		.long	0x1bdf
 3985 0e47 590E0000 		.long	0xe59
 3986 0e4b 1B       		.uleb128 0x1b
 3987 0e4c 02       		.uleb128 0x2
 3988 0e4d 74       		.byte	0x74
 3989 0e4e 00       		.sleb128 0
 3990 0e4f 02       		.uleb128 0x2
 3991 0e50 73       		.byte	0x73
 3992 0e51 00       		.sleb128 0
 3993 0e52 1B       		.uleb128 0x1b
 3994 0e53 02       		.uleb128 0x2
 3995 0e54 74       		.byte	0x74
 3996 0e55 04       		.sleb128 4
 3997 0e56 01       		.uleb128 0x1
 3998 0e57 30       		.byte	0x30
 3999 0e58 00       		.byte	0
 4000 0e59 1A       		.uleb128 0x1a
 4001 0e5a 09060000 		.long	.LVL105
 4002 0e5e DF1B0000 		.long	0x1bdf
 4003 0e62 740E0000 		.long	0xe74
 4004 0e66 1B       		.uleb128 0x1b
 4005 0e67 02       		.uleb128 0x2
 4006 0e68 74       		.byte	0x74
 4007 0e69 00       		.sleb128 0
 4008 0e6a 02       		.uleb128 0x2
 4009 0e6b 73       		.byte	0x73
 4010 0e6c 00       		.sleb128 0
 4011 0e6d 1B       		.uleb128 0x1b
 4012 0e6e 02       		.uleb128 0x2
 4013 0e6f 74       		.byte	0x74
 4014 0e70 04       		.sleb128 4
 4015 0e71 01       		.uleb128 0x1
 4016 0e72 30       		.byte	0x30
 4017 0e73 00       		.byte	0
 4018 0e74 1E       		.uleb128 0x1e
 4019 0e75 12060000 		.long	.LVL107
 4020 0e79 961B0000 		.long	0x1b96
 4021 0e7d 1A       		.uleb128 0x1a
 4022 0e7e 2C060000 		.long	.LVL108
 4023 0e82 DF1B0000 		.long	0x1bdf
 4024 0e86 990E0000 		.long	0xe99
 4025 0e8a 1B       		.uleb128 0x1b
 4026 0e8b 02       		.uleb128 0x2
 4027 0e8c 74       		.byte	0x74
GAS LISTING /tmp/ccmTSJ1m.s 			page 91


 4028 0e8d 00       		.sleb128 0
 4029 0e8e 02       		.uleb128 0x2
 4030 0e8f 73       		.byte	0x73
 4031 0e90 00       		.sleb128 0
 4032 0e91 1B       		.uleb128 0x1b
 4033 0e92 02       		.uleb128 0x2
 4034 0e93 74       		.byte	0x74
 4035 0e94 04       		.sleb128 4
 4036 0e95 02       		.uleb128 0x2
 4037 0e96 09       		.byte	0x9
 4038 0e97 FF       		.byte	0xff
 4039 0e98 00       		.byte	0
 4040 0e99 1E       		.uleb128 0x1e
 4041 0e9a 32060000 		.long	.LVL109
 4042 0e9e C71B0000 		.long	0x1bc7
 4043 0ea2 1A       		.uleb128 0x1a
 4044 0ea3 40060000 		.long	.LVL111
 4045 0ea7 0C1B0000 		.long	0x1b0c
 4046 0eab BA0E0000 		.long	0xeba
 4047 0eaf 1B       		.uleb128 0x1b
 4048 0eb0 02       		.uleb128 0x2
 4049 0eb1 74       		.byte	0x74
 4050 0eb2 00       		.sleb128 0
 4051 0eb3 05       		.uleb128 0x5
 4052 0eb4 03       		.byte	0x3
 4053 0eb5 89000000 		.long	.LC11
 4054 0eb9 00       		.byte	0
 4055 0eba 1A       		.uleb128 0x1a
 4056 0ebb 48060000 		.long	.LVL112
 4057 0ebf 1D1B0000 		.long	0x1b1d
 4058 0ec3 CF0E0000 		.long	0xecf
 4059 0ec7 1B       		.uleb128 0x1b
 4060 0ec8 02       		.uleb128 0x2
 4061 0ec9 74       		.byte	0x74
 4062 0eca 00       		.sleb128 0
 4063 0ecb 02       		.uleb128 0x2
 4064 0ecc 76       		.byte	0x76
 4065 0ecd 00       		.sleb128 0
 4066 0ece 00       		.byte	0
 4067 0ecf 1C       		.uleb128 0x1c
 4068 0ed0 54060000 		.long	.LVL113
 4069 0ed4 2E1B0000 		.long	0x1b2e
 4070 0ed8 1B       		.uleb128 0x1b
 4071 0ed9 02       		.uleb128 0x2
 4072 0eda 74       		.byte	0x74
 4073 0edb 00       		.sleb128 0
 4074 0edc 05       		.uleb128 0x5
 4075 0edd 03       		.byte	0x3
 4076 0ede A0000000 		.long	.LC13
 4077 0ee2 00       		.byte	0
 4078 0ee3 00       		.byte	0
 4079 0ee4 19       		.uleb128 0x19
 4080 0ee5 B8050000 		.long	.LASF104
 4081 0ee9 01       		.byte	0x1
 4082 0eea 0901     		.value	0x109
 4083 0eec 60060000 		.long	.LFB15
 4084 0ef0 94000000 		.long	.LFE15-.LFB15
GAS LISTING /tmp/ccmTSJ1m.s 			page 92


 4085 0ef4 01       		.uleb128 0x1
 4086 0ef5 9C       		.byte	0x9c
 4087 0ef6 CF0F0000 		.long	0xfcf
 4088 0efa 21       		.uleb128 0x21
 4089 0efb 6E00     		.string	"n"
 4090 0efd 01       		.byte	0x1
 4091 0efe 0B01     		.value	0x10b
 4092 0f00 7E000000 		.long	0x7e
 4093 0f04 D3010000 		.long	.LLST14
 4094 0f08 21       		.uleb128 0x21
 4095 0f09 77617000 		.string	"wap"
 4096 0f0d 01       		.byte	0x1
 4097 0f0e 0C01     		.value	0x10c
 4098 0f10 81020000 		.long	0x281
 4099 0f14 0A020000 		.long	.LLST15
 4100 0f18 22       		.uleb128 0x22
 4101 0f19 1C000000 		.long	.LASF101
 4102 0f1d 01       		.byte	0x1
 4103 0f1e 0D01     		.value	0x10d
 4104 0f20 CE000000 		.long	0xce
 4105 0f24 1D020000 		.long	.LLST16
 4106 0f28 1E       		.uleb128 0x1e
 4107 0f29 7B060000 		.long	.LVL117
 4108 0f2d 601B0000 		.long	0x1b60
 4109 0f31 1A       		.uleb128 0x1a
 4110 0f32 87060000 		.long	.LVL118
 4111 0f36 6B1B0000 		.long	0x1b6b
 4112 0f3a 470F0000 		.long	0xf47
 4113 0f3e 1B       		.uleb128 0x1b
 4114 0f3f 02       		.uleb128 0x2
 4115 0f40 74       		.byte	0x74
 4116 0f41 00       		.sleb128 0
 4117 0f42 03       		.uleb128 0x3
 4118 0f43 0A       		.byte	0xa
 4119 0f44 E803     		.value	0x3e8
 4120 0f46 00       		.byte	0
 4121 0f47 1A       		.uleb128 0x1a
 4122 0f48 B7060000 		.long	.LVL121
 4123 0f4c 9D1B0000 		.long	0x1b9d
 4124 0f50 7B0F0000 		.long	0xf7b
 4125 0f54 1B       		.uleb128 0x1b
 4126 0f55 02       		.uleb128 0x2
 4127 0f56 74       		.byte	0x74
 4128 0f57 00       		.sleb128 0
 4129 0f58 02       		.uleb128 0x2
 4130 0f59 77       		.byte	0x77
 4131 0f5a 00       		.sleb128 0
 4132 0f5b 1B       		.uleb128 0x1b
 4133 0f5c 02       		.uleb128 0x2
 4134 0f5d 74       		.byte	0x74
 4135 0f5e 04       		.sleb128 4
 4136 0f5f 03       		.uleb128 0x3
 4137 0f60 0A       		.byte	0xa
 4138 0f61 7042     		.value	0x4270
 4139 0f63 1B       		.uleb128 0x1b
 4140 0f64 02       		.uleb128 0x2
 4141 0f65 74       		.byte	0x74
GAS LISTING /tmp/ccmTSJ1m.s 			page 93


 4142 0f66 08       		.sleb128 8
 4143 0f67 02       		.uleb128 0x2
 4144 0f68 76       		.byte	0x76
 4145 0f69 00       		.sleb128 0
 4146 0f6a 1B       		.uleb128 0x1b
 4147 0f6b 02       		.uleb128 0x2
 4148 0f6c 74       		.byte	0x74
 4149 0f6d 0C       		.sleb128 12
 4150 0f6e 05       		.uleb128 0x5
 4151 0f6f 03       		.byte	0x3
 4152 0f70 00000000 		.long	thread2
 4153 0f74 1B       		.uleb128 0x1b
 4154 0f75 02       		.uleb128 0x2
 4155 0f76 74       		.byte	0x74
 4156 0f77 10       		.sleb128 16
 4157 0f78 01       		.uleb128 0x1
 4158 0f79 30       		.byte	0x30
 4159 0f7a 00       		.byte	0
 4160 0f7b 1E       		.uleb128 0x1e
 4161 0f7c BF060000 		.long	.LVL122
 4162 0f80 F51B0000 		.long	0x1bf5
 4163 0f84 1E       		.uleb128 0x1e
 4164 0f85 C4060000 		.long	.LVL123
 4165 0f89 961B0000 		.long	0x1b96
 4166 0f8d 1A       		.uleb128 0x1a
 4167 0f8e D9060000 		.long	.LVL124
 4168 0f92 0C1B0000 		.long	0x1b0c
 4169 0f96 A50F0000 		.long	0xfa5
 4170 0f9a 1B       		.uleb128 0x1b
 4171 0f9b 02       		.uleb128 0x2
 4172 0f9c 74       		.byte	0x74
 4173 0f9d 00       		.sleb128 0
 4174 0f9e 05       		.uleb128 0x5
 4175 0f9f 03       		.byte	0x3
 4176 0fa0 89000000 		.long	.LC11
 4177 0fa4 00       		.byte	0
 4178 0fa5 1A       		.uleb128 0x1a
 4179 0fa6 E1060000 		.long	.LVL125
 4180 0faa 1D1B0000 		.long	0x1b1d
 4181 0fae BA0F0000 		.long	0xfba
 4182 0fb2 1B       		.uleb128 0x1b
 4183 0fb3 02       		.uleb128 0x2
 4184 0fb4 74       		.byte	0x74
 4185 0fb5 00       		.sleb128 0
 4186 0fb6 02       		.uleb128 0x2
 4187 0fb7 73       		.byte	0x73
 4188 0fb8 00       		.sleb128 0
 4189 0fb9 00       		.byte	0
 4190 0fba 1C       		.uleb128 0x1c
 4191 0fbb ED060000 		.long	.LVL126
 4192 0fbf 2E1B0000 		.long	0x1b2e
 4193 0fc3 1B       		.uleb128 0x1b
 4194 0fc4 02       		.uleb128 0x2
 4195 0fc5 74       		.byte	0x74
 4196 0fc6 00       		.sleb128 0
 4197 0fc7 05       		.uleb128 0x5
 4198 0fc8 03       		.byte	0x3
GAS LISTING /tmp/ccmTSJ1m.s 			page 94


 4199 0fc9 AA000000 		.long	.LC14
 4200 0fcd 00       		.byte	0
 4201 0fce 00       		.byte	0
 4202 0fcf 19       		.uleb128 0x19
 4203 0fd0 66000000 		.long	.LASF105
 4204 0fd4 01       		.byte	0x1
 4205 0fd5 6201     		.value	0x162
 4206 0fd7 00070000 		.long	.LFB19
 4207 0fdb B9010000 		.long	.LFE19-.LFB19
 4208 0fdf 01       		.uleb128 0x1
 4209 0fe0 9C       		.byte	0x9c
 4210 0fe1 A2110000 		.long	0x11a2
 4211 0fe5 21       		.uleb128 0x21
 4212 0fe6 6E00     		.string	"n"
 4213 0fe8 01       		.byte	0x1
 4214 0fe9 6301     		.value	0x163
 4215 0feb 7E000000 		.long	0x7e
 4216 0fef 30020000 		.long	.LLST17
 4217 0ff3 1A       		.uleb128 0x1a
 4218 0ff4 3A070000 		.long	.LVL130
 4219 0ff8 9D1B0000 		.long	0x1b9d
 4220 0ffc 1A100000 		.long	0x101a
 4221 1000 1B       		.uleb128 0x1b
 4222 1001 02       		.uleb128 0x2
 4223 1002 74       		.byte	0x74
 4224 1003 04       		.sleb128 4
 4225 1004 03       		.uleb128 0x3
 4226 1005 0A       		.byte	0xa
 4227 1006 7042     		.value	0x4270
 4228 1008 1B       		.uleb128 0x1b
 4229 1009 02       		.uleb128 0x2
 4230 100a 74       		.byte	0x74
 4231 100b 0C       		.sleb128 12
 4232 100c 05       		.uleb128 0x5
 4233 100d 03       		.byte	0x3
 4234 100e C0080000 		.long	thread3
 4235 1012 1B       		.uleb128 0x1b
 4236 1013 02       		.uleb128 0x2
 4237 1014 74       		.byte	0x74
 4238 1015 10       		.sleb128 16
 4239 1016 02       		.uleb128 0x2
 4240 1017 73       		.byte	0x73
 4241 1018 00       		.sleb128 0
 4242 1019 00       		.byte	0
 4243 101a 1A       		.uleb128 0x1a
 4244 101b 73070000 		.long	.LVL131
 4245 101f 9D1B0000 		.long	0x1b9d
 4246 1023 41100000 		.long	0x1041
 4247 1027 1B       		.uleb128 0x1b
 4248 1028 02       		.uleb128 0x2
 4249 1029 74       		.byte	0x74
 4250 102a 04       		.sleb128 4
 4251 102b 03       		.uleb128 0x3
 4252 102c 0A       		.byte	0xa
 4253 102d 7042     		.value	0x4270
 4254 102f 1B       		.uleb128 0x1b
 4255 1030 02       		.uleb128 0x2
GAS LISTING /tmp/ccmTSJ1m.s 			page 95


 4256 1031 74       		.byte	0x74
 4257 1032 0C       		.sleb128 12
 4258 1033 05       		.uleb128 0x5
 4259 1034 03       		.byte	0x3
 4260 1035 C0080000 		.long	thread3
 4261 1039 1B       		.uleb128 0x1b
 4262 103a 02       		.uleb128 0x2
 4263 103b 74       		.byte	0x74
 4264 103c 10       		.sleb128 16
 4265 103d 02       		.uleb128 0x2
 4266 103e 73       		.byte	0x73
 4267 103f 00       		.sleb128 0
 4268 1040 00       		.byte	0
 4269 1041 1A       		.uleb128 0x1a
 4270 1042 AC070000 		.long	.LVL132
 4271 1046 9D1B0000 		.long	0x1b9d
 4272 104a 68100000 		.long	0x1068
 4273 104e 1B       		.uleb128 0x1b
 4274 104f 02       		.uleb128 0x2
 4275 1050 74       		.byte	0x74
 4276 1051 04       		.sleb128 4
 4277 1052 03       		.uleb128 0x3
 4278 1053 0A       		.byte	0xa
 4279 1054 7042     		.value	0x4270
 4280 1056 1B       		.uleb128 0x1b
 4281 1057 02       		.uleb128 0x2
 4282 1058 74       		.byte	0x74
 4283 1059 0C       		.sleb128 12
 4284 105a 05       		.uleb128 0x5
 4285 105b 03       		.byte	0x3
 4286 105c C0080000 		.long	thread3
 4287 1060 1B       		.uleb128 0x1b
 4288 1061 02       		.uleb128 0x2
 4289 1062 74       		.byte	0x74
 4290 1063 10       		.sleb128 16
 4291 1064 02       		.uleb128 0x2
 4292 1065 73       		.byte	0x73
 4293 1066 00       		.sleb128 0
 4294 1067 00       		.byte	0
 4295 1068 1A       		.uleb128 0x1a
 4296 1069 E5070000 		.long	.LVL133
 4297 106d 9D1B0000 		.long	0x1b9d
 4298 1071 8F100000 		.long	0x108f
 4299 1075 1B       		.uleb128 0x1b
 4300 1076 02       		.uleb128 0x2
 4301 1077 74       		.byte	0x74
 4302 1078 04       		.sleb128 4
 4303 1079 03       		.uleb128 0x3
 4304 107a 0A       		.byte	0xa
 4305 107b 7042     		.value	0x4270
 4306 107d 1B       		.uleb128 0x1b
 4307 107e 02       		.uleb128 0x2
 4308 107f 74       		.byte	0x74
 4309 1080 0C       		.sleb128 12
 4310 1081 05       		.uleb128 0x5
 4311 1082 03       		.byte	0x3
 4312 1083 C0080000 		.long	thread3
GAS LISTING /tmp/ccmTSJ1m.s 			page 96


 4313 1087 1B       		.uleb128 0x1b
 4314 1088 02       		.uleb128 0x2
 4315 1089 74       		.byte	0x74
 4316 108a 10       		.sleb128 16
 4317 108b 02       		.uleb128 0x2
 4318 108c 73       		.byte	0x73
 4319 108d 00       		.sleb128 0
 4320 108e 00       		.byte	0
 4321 108f 1A       		.uleb128 0x1a
 4322 1090 1E080000 		.long	.LVL134
 4323 1094 9D1B0000 		.long	0x1b9d
 4324 1098 B6100000 		.long	0x10b6
 4325 109c 1B       		.uleb128 0x1b
 4326 109d 02       		.uleb128 0x2
 4327 109e 74       		.byte	0x74
 4328 109f 04       		.sleb128 4
 4329 10a0 03       		.uleb128 0x3
 4330 10a1 0A       		.byte	0xa
 4331 10a2 7042     		.value	0x4270
 4332 10a4 1B       		.uleb128 0x1b
 4333 10a5 02       		.uleb128 0x2
 4334 10a6 74       		.byte	0x74
 4335 10a7 0C       		.sleb128 12
 4336 10a8 05       		.uleb128 0x5
 4337 10a9 03       		.byte	0x3
 4338 10aa C0080000 		.long	thread3
 4339 10ae 1B       		.uleb128 0x1b
 4340 10af 02       		.uleb128 0x2
 4341 10b0 74       		.byte	0x74
 4342 10b1 10       		.sleb128 16
 4343 10b2 02       		.uleb128 0x2
 4344 10b3 73       		.byte	0x73
 4345 10b4 00       		.sleb128 0
 4346 10b5 00       		.byte	0
 4347 10b6 1E       		.uleb128 0x1e
 4348 10b7 28080000 		.long	.LVL136
 4349 10bb 601B0000 		.long	0x1b60
 4350 10bf 1A       		.uleb128 0x1a
 4351 10c0 34080000 		.long	.LVL137
 4352 10c4 6B1B0000 		.long	0x1b6b
 4353 10c8 D5100000 		.long	0x10d5
 4354 10cc 1B       		.uleb128 0x1b
 4355 10cd 02       		.uleb128 0x2
 4356 10ce 74       		.byte	0x74
 4357 10cf 00       		.sleb128 0
 4358 10d0 03       		.uleb128 0x3
 4359 10d1 0A       		.byte	0xa
 4360 10d2 E803     		.value	0x3e8
 4361 10d4 00       		.byte	0
 4362 10d5 1A       		.uleb128 0x1a
 4363 10d6 4F080000 		.long	.LVL139
 4364 10da 0B1C0000 		.long	0x1c0b
 4365 10de F3100000 		.long	0x10f3
 4366 10e2 1B       		.uleb128 0x1b
 4367 10e3 02       		.uleb128 0x2
 4368 10e4 74       		.byte	0x74
 4369 10e5 00       		.sleb128 0
GAS LISTING /tmp/ccmTSJ1m.s 			page 97


 4370 10e6 05       		.uleb128 0x5
 4371 10e7 03       		.byte	0x3
 4372 10e8 74000000 		.long	sem1
 4373 10ec 1B       		.uleb128 0x1b
 4374 10ed 02       		.uleb128 0x2
 4375 10ee 74       		.byte	0x74
 4376 10ef 04       		.sleb128 4
 4377 10f0 01       		.uleb128 0x1
 4378 10f1 30       		.byte	0x30
 4379 10f2 00       		.byte	0
 4380 10f3 1E       		.uleb128 0x1e
 4381 10f4 54080000 		.long	.LVL140
 4382 10f8 961B0000 		.long	0x1b96
 4383 10fc 1E       		.uleb128 0x1e
 4384 10fd 62080000 		.long	.LVL141
 4385 1101 271C0000 		.long	0x1c27
 4386 1105 1A       		.uleb128 0x1a
 4387 1106 76080000 		.long	.LVL142
 4388 110a 0B1C0000 		.long	0x1c0b
 4389 110e 23110000 		.long	0x1123
 4390 1112 1B       		.uleb128 0x1b
 4391 1113 02       		.uleb128 0x2
 4392 1114 74       		.byte	0x74
 4393 1115 00       		.sleb128 0
 4394 1116 05       		.uleb128 0x5
 4395 1117 03       		.byte	0x3
 4396 1118 74000000 		.long	sem1
 4397 111c 1B       		.uleb128 0x1b
 4398 111d 02       		.uleb128 0x2
 4399 111e 74       		.byte	0x74
 4400 111f 04       		.sleb128 4
 4401 1120 01       		.uleb128 0x1
 4402 1121 30       		.byte	0x30
 4403 1122 00       		.byte	0
 4404 1123 1E       		.uleb128 0x1e
 4405 1124 7B080000 		.long	.LVL143
 4406 1128 C71B0000 		.long	0x1bc7
 4407 112c 1A       		.uleb128 0x1a
 4408 112d 87080000 		.long	.LVL144
 4409 1131 0C1B0000 		.long	0x1b0c
 4410 1135 44110000 		.long	0x1144
 4411 1139 1B       		.uleb128 0x1b
 4412 113a 02       		.uleb128 0x2
 4413 113b 74       		.byte	0x74
 4414 113c 00       		.sleb128 0
 4415 113d 05       		.uleb128 0x5
 4416 113e 03       		.byte	0x3
 4417 113f 89000000 		.long	.LC11
 4418 1143 00       		.byte	0
 4419 1144 1A       		.uleb128 0x1a
 4420 1145 8F080000 		.long	.LVL145
 4421 1149 1D1B0000 		.long	0x1b1d
 4422 114d 59110000 		.long	0x1159
 4423 1151 1B       		.uleb128 0x1b
 4424 1152 02       		.uleb128 0x2
 4425 1153 74       		.byte	0x74
 4426 1154 00       		.sleb128 0
GAS LISTING /tmp/ccmTSJ1m.s 			page 98


 4427 1155 02       		.uleb128 0x2
 4428 1156 73       		.byte	0x73
 4429 1157 00       		.sleb128 0
 4430 1158 00       		.byte	0
 4431 1159 1A       		.uleb128 0x1a
 4432 115a 9B080000 		.long	.LVL146
 4433 115e 0C1B0000 		.long	0x1b0c
 4434 1162 71110000 		.long	0x1171
 4435 1166 1B       		.uleb128 0x1b
 4436 1167 02       		.uleb128 0x2
 4437 1168 74       		.byte	0x74
 4438 1169 00       		.sleb128 0
 4439 116a 05       		.uleb128 0x5
 4440 116b 03       		.byte	0x3
 4441 116c B5000000 		.long	.LC15
 4442 1170 00       		.byte	0
 4443 1171 1A       		.uleb128 0x1a
 4444 1172 A8080000 		.long	.LVL147
 4445 1176 1D1B0000 		.long	0x1b1d
 4446 117a 8D110000 		.long	0x118d
 4447 117e 1B       		.uleb128 0x1b
 4448 117f 02       		.uleb128 0x2
 4449 1180 74       		.byte	0x74
 4450 1181 00       		.sleb128 0
 4451 1182 09       		.uleb128 0x9
 4452 1183 73       		.byte	0x73
 4453 1184 00       		.sleb128 0
 4454 1185 31       		.byte	0x31
 4455 1186 24       		.byte	0x24
 4456 1187 73       		.byte	0x73
 4457 1188 00       		.sleb128 0
 4458 1189 22       		.byte	0x22
 4459 118a 31       		.byte	0x31
 4460 118b 24       		.byte	0x24
 4461 118c 00       		.byte	0
 4462 118d 1C       		.uleb128 0x1c
 4463 118e B4080000 		.long	.LVL148
 4464 1192 2E1B0000 		.long	0x1b2e
 4465 1196 1B       		.uleb128 0x1b
 4466 1197 02       		.uleb128 0x2
 4467 1198 74       		.byte	0x74
 4468 1199 00       		.sleb128 0
 4469 119a 05       		.uleb128 0x5
 4470 119b 03       		.byte	0x3
 4471 119c A0000000 		.long	.LC13
 4472 11a0 00       		.byte	0
 4473 11a1 00       		.byte	0
 4474 11a2 25       		.uleb128 0x25
 4475 11a3 6C020000 		.long	.LASF106
 4476 11a7 01       		.byte	0x1
 4477 11a8 5501     		.value	0x155
 4478 11aa D9000000 		.long	0xd9
 4479 11ae C0080000 		.long	.LFB17
 4480 11b2 30000000 		.long	.LFE17-.LFB17
 4481 11b6 01       		.uleb128 0x1
 4482 11b7 9C       		.byte	0x9c
 4483 11b8 DE110000 		.long	0x11de
GAS LISTING /tmp/ccmTSJ1m.s 			page 99


 4484 11bc 26       		.uleb128 0x26
 4485 11bd 7000     		.string	"p"
 4486 11bf 01       		.byte	0x1
 4487 11c0 5501     		.value	0x155
 4488 11c2 81020000 		.long	0x281
 4489 11c6 02       		.uleb128 0x2
 4490 11c7 91       		.byte	0x91
 4491 11c8 00       		.sleb128 0
 4492 11c9 1C       		.uleb128 0x1c
 4493 11ca DC080000 		.long	.LVL151
 4494 11ce 2E1C0000 		.long	0x1c2e
 4495 11d2 1B       		.uleb128 0x1b
 4496 11d3 02       		.uleb128 0x2
 4497 11d4 74       		.byte	0x74
 4498 11d5 00       		.sleb128 0
 4499 11d6 05       		.uleb128 0x5
 4500 11d7 03       		.byte	0x3
 4501 11d8 74000000 		.long	sem1
 4502 11dc 00       		.byte	0
 4503 11dd 00       		.byte	0
 4504 11de 19       		.uleb128 0x19
 4505 11df 80060000 		.long	.LASF107
 4506 11e3 01       		.byte	0x1
 4507 11e4 5D01     		.value	0x15d
 4508 11e6 F0080000 		.long	.LFB18
 4509 11ea 1B000000 		.long	.LFE18-.LFB18
 4510 11ee 01       		.uleb128 0x1
 4511 11ef 9C       		.byte	0x9c
 4512 11f0 0F120000 		.long	0x120f
 4513 11f4 1C       		.uleb128 0x1c
 4514 11f5 07090000 		.long	.LVL152
 4515 11f9 431C0000 		.long	0x1c43
 4516 11fd 1B       		.uleb128 0x1b
 4517 11fe 02       		.uleb128 0x2
 4518 11ff 74       		.byte	0x74
 4519 1200 00       		.sleb128 0
 4520 1201 05       		.uleb128 0x5
 4521 1202 03       		.byte	0x3
 4522 1203 74000000 		.long	sem1
 4523 1207 1B       		.uleb128 0x1b
 4524 1208 02       		.uleb128 0x2
 4525 1209 74       		.byte	0x74
 4526 120a 04       		.sleb128 4
 4527 120b 01       		.uleb128 0x1
 4528 120c 30       		.byte	0x30
 4529 120d 00       		.byte	0
 4530 120e 00       		.byte	0
 4531 120f 19       		.uleb128 0x19
 4532 1210 F6020000 		.long	.LASF108
 4533 1214 01       		.byte	0x1
 4534 1215 2102     		.value	0x221
 4535 1217 10090000 		.long	.LFB25
 4536 121b 1B000000 		.long	.LFE25-.LFB25
 4537 121f 01       		.uleb128 0x1
 4538 1220 9C       		.byte	0x9c
 4539 1221 40120000 		.long	0x1240
 4540 1225 1C       		.uleb128 0x1c
GAS LISTING /tmp/ccmTSJ1m.s 			page 100


 4541 1226 27090000 		.long	.LVL153
 4542 122a 431C0000 		.long	0x1c43
 4543 122e 1B       		.uleb128 0x1b
 4544 122f 02       		.uleb128 0x2
 4545 1230 74       		.byte	0x74
 4546 1231 00       		.sleb128 0
 4547 1232 05       		.uleb128 0x5
 4548 1233 03       		.byte	0x3
 4549 1234 74000000 		.long	sem1
 4550 1238 1B       		.uleb128 0x1b
 4551 1239 02       		.uleb128 0x2
 4552 123a 74       		.byte	0x74
 4553 123b 04       		.sleb128 4
 4554 123c 01       		.uleb128 0x1
 4555 123d 31       		.byte	0x31
 4556 123e 00       		.byte	0
 4557 123f 00       		.byte	0
 4558 1240 19       		.uleb128 0x19
 4559 1241 5A010000 		.long	.LASF109
 4560 1245 01       		.byte	0x1
 4561 1246 A001     		.value	0x1a0
 4562 1248 30090000 		.long	.LFB21
 4563 124c 5D010000 		.long	.LFE21-.LFB21
 4564 1250 01       		.uleb128 0x1
 4565 1251 9C       		.byte	0x9c
 4566 1252 8D130000 		.long	0x138d
 4567 1256 27       		.uleb128 0x27
 4568 1257 6E00     		.string	"n"
 4569 1259 01       		.byte	0x1
 4570 125a A101     		.value	0x1a1
 4571 125c 7E000000 		.long	0x7e
 4572 1260 02       		.uleb128 0x2
 4573 1261 91       		.byte	0x91
 4574 1262 6C       		.sleb128 -20
 4575 1263 1E       		.uleb128 0x1e
 4576 1264 45090000 		.long	.LVL154
 4577 1268 601B0000 		.long	0x1b60
 4578 126c 1A       		.uleb128 0x1a
 4579 126d 75090000 		.long	.LVL155
 4580 1271 9D1B0000 		.long	0x1b9d
 4581 1275 93120000 		.long	0x1293
 4582 1279 1B       		.uleb128 0x1b
 4583 127a 02       		.uleb128 0x2
 4584 127b 74       		.byte	0x74
 4585 127c 04       		.sleb128 4
 4586 127d 03       		.uleb128 0x3
 4587 127e 0A       		.byte	0xa
 4588 127f 7042     		.value	0x4270
 4589 1281 1B       		.uleb128 0x1b
 4590 1282 02       		.uleb128 0x2
 4591 1283 74       		.byte	0x74
 4592 1284 0C       		.sleb128 12
 4593 1285 05       		.uleb128 0x5
 4594 1286 03       		.byte	0x3
 4595 1287 900A0000 		.long	thread8
 4596 128b 1B       		.uleb128 0x1b
 4597 128c 02       		.uleb128 0x2
GAS LISTING /tmp/ccmTSJ1m.s 			page 101


 4598 128d 74       		.byte	0x74
 4599 128e 10       		.sleb128 16
 4600 128f 02       		.uleb128 0x2
 4601 1290 73       		.byte	0x73
 4602 1291 00       		.sleb128 0
 4603 1292 00       		.byte	0
 4604 1293 1A       		.uleb128 0x1a
 4605 1294 AA090000 		.long	.LVL156
 4606 1298 9D1B0000 		.long	0x1b9d
 4607 129c BA120000 		.long	0x12ba
 4608 12a0 1B       		.uleb128 0x1b
 4609 12a1 02       		.uleb128 0x2
 4610 12a2 74       		.byte	0x74
 4611 12a3 04       		.sleb128 4
 4612 12a4 03       		.uleb128 0x3
 4613 12a5 0A       		.byte	0xa
 4614 12a6 7042     		.value	0x4270
 4615 12a8 1B       		.uleb128 0x1b
 4616 12a9 02       		.uleb128 0x2
 4617 12aa 74       		.byte	0x74
 4618 12ab 0C       		.sleb128 12
 4619 12ac 05       		.uleb128 0x5
 4620 12ad 03       		.byte	0x3
 4621 12ae 900A0000 		.long	thread8
 4622 12b2 1B       		.uleb128 0x1b
 4623 12b3 02       		.uleb128 0x2
 4624 12b4 74       		.byte	0x74
 4625 12b5 10       		.sleb128 16
 4626 12b6 02       		.uleb128 0x2
 4627 12b7 73       		.byte	0x73
 4628 12b8 00       		.sleb128 0
 4629 12b9 00       		.byte	0
 4630 12ba 1A       		.uleb128 0x1a
 4631 12bb DF090000 		.long	.LVL157
 4632 12bf 9D1B0000 		.long	0x1b9d
 4633 12c3 E1120000 		.long	0x12e1
 4634 12c7 1B       		.uleb128 0x1b
 4635 12c8 02       		.uleb128 0x2
 4636 12c9 74       		.byte	0x74
 4637 12ca 04       		.sleb128 4
 4638 12cb 03       		.uleb128 0x3
 4639 12cc 0A       		.byte	0xa
 4640 12cd 7042     		.value	0x4270
 4641 12cf 1B       		.uleb128 0x1b
 4642 12d0 02       		.uleb128 0x2
 4643 12d1 74       		.byte	0x74
 4644 12d2 0C       		.sleb128 12
 4645 12d3 05       		.uleb128 0x5
 4646 12d4 03       		.byte	0x3
 4647 12d5 900A0000 		.long	thread8
 4648 12d9 1B       		.uleb128 0x1b
 4649 12da 02       		.uleb128 0x2
 4650 12db 74       		.byte	0x74
 4651 12dc 10       		.sleb128 16
 4652 12dd 02       		.uleb128 0x2
 4653 12de 73       		.byte	0x73
 4654 12df 00       		.sleb128 0
GAS LISTING /tmp/ccmTSJ1m.s 			page 102


 4655 12e0 00       		.byte	0
 4656 12e1 1A       		.uleb128 0x1a
 4657 12e2 140A0000 		.long	.LVL158
 4658 12e6 9D1B0000 		.long	0x1b9d
 4659 12ea 08130000 		.long	0x1308
 4660 12ee 1B       		.uleb128 0x1b
 4661 12ef 02       		.uleb128 0x2
 4662 12f0 74       		.byte	0x74
 4663 12f1 04       		.sleb128 4
 4664 12f2 03       		.uleb128 0x3
 4665 12f3 0A       		.byte	0xa
 4666 12f4 7042     		.value	0x4270
 4667 12f6 1B       		.uleb128 0x1b
 4668 12f7 02       		.uleb128 0x2
 4669 12f8 74       		.byte	0x74
 4670 12f9 0C       		.sleb128 12
 4671 12fa 05       		.uleb128 0x5
 4672 12fb 03       		.byte	0x3
 4673 12fc 900A0000 		.long	thread8
 4674 1300 1B       		.uleb128 0x1b
 4675 1301 02       		.uleb128 0x2
 4676 1302 74       		.byte	0x74
 4677 1303 10       		.sleb128 16
 4678 1304 02       		.uleb128 0x2
 4679 1305 73       		.byte	0x73
 4680 1306 00       		.sleb128 0
 4681 1307 00       		.byte	0
 4682 1308 1A       		.uleb128 0x1a
 4683 1309 490A0000 		.long	.LVL159
 4684 130d 9D1B0000 		.long	0x1b9d
 4685 1311 2F130000 		.long	0x132f
 4686 1315 1B       		.uleb128 0x1b
 4687 1316 02       		.uleb128 0x2
 4688 1317 74       		.byte	0x74
 4689 1318 04       		.sleb128 4
 4690 1319 03       		.uleb128 0x3
 4691 131a 0A       		.byte	0xa
 4692 131b 7042     		.value	0x4270
 4693 131d 1B       		.uleb128 0x1b
 4694 131e 02       		.uleb128 0x2
 4695 131f 74       		.byte	0x74
 4696 1320 0C       		.sleb128 12
 4697 1321 05       		.uleb128 0x5
 4698 1322 03       		.byte	0x3
 4699 1323 900A0000 		.long	thread8
 4700 1327 1B       		.uleb128 0x1b
 4701 1328 02       		.uleb128 0x2
 4702 1329 74       		.byte	0x74
 4703 132a 10       		.sleb128 16
 4704 132b 02       		.uleb128 0x2
 4705 132c 73       		.byte	0x73
 4706 132d 00       		.sleb128 0
 4707 132e 00       		.byte	0
 4708 132f 1A       		.uleb128 0x1a
 4709 1330 5A0A0000 		.long	.LVL160
 4710 1334 591C0000 		.long	0x1c59
 4711 1338 45130000 		.long	0x1345
GAS LISTING /tmp/ccmTSJ1m.s 			page 103


 4712 133c 1B       		.uleb128 0x1b
 4713 133d 02       		.uleb128 0x2
 4714 133e 74       		.byte	0x74
 4715 133f 00       		.sleb128 0
 4716 1340 03       		.uleb128 0x3
 4717 1341 0A       		.byte	0xa
 4718 1342 E803     		.value	0x3e8
 4719 1344 00       		.byte	0
 4720 1345 1E       		.uleb128 0x1e
 4721 1346 5F0A0000 		.long	.LVL161
 4722 134a 271C0000 		.long	0x1c27
 4723 134e 1E       		.uleb128 0x1e
 4724 134f 640A0000 		.long	.LVL162
 4725 1353 C71B0000 		.long	0x1bc7
 4726 1357 1A       		.uleb128 0x1a
 4727 1358 700A0000 		.long	.LVL163
 4728 135c 0C1B0000 		.long	0x1b0c
 4729 1360 6F130000 		.long	0x136f
 4730 1364 1B       		.uleb128 0x1b
 4731 1365 02       		.uleb128 0x2
 4732 1366 74       		.byte	0x74
 4733 1367 00       		.sleb128 0
 4734 1368 05       		.uleb128 0x5
 4735 1369 03       		.byte	0x3
 4736 136a 89000000 		.long	.LC11
 4737 136e 00       		.byte	0
 4738 136f 1E       		.uleb128 0x1e
 4739 1370 7C0A0000 		.long	.LVL164
 4740 1374 1D1B0000 		.long	0x1b1d
 4741 1378 1C       		.uleb128 0x1c
 4742 1379 880A0000 		.long	.LVL165
 4743 137d 2E1B0000 		.long	0x1b2e
 4744 1381 1B       		.uleb128 0x1b
 4745 1382 02       		.uleb128 0x2
 4746 1383 74       		.byte	0x74
 4747 1384 00       		.sleb128 0
 4748 1385 05       		.uleb128 0x5
 4749 1386 03       		.byte	0x3
 4750 1387 A0000000 		.long	.LC13
 4751 138b 00       		.byte	0
 4752 138c 00       		.byte	0
 4753 138d 25       		.uleb128 0x25
 4754 138e AF030000 		.long	.LASF110
 4755 1392 01       		.byte	0x1
 4756 1393 9101     		.value	0x191
 4757 1395 D9000000 		.long	0xd9
 4758 1399 900A0000 		.long	.LFB20
 4759 139d 36000000 		.long	.LFE20-.LFB20
 4760 13a1 01       		.uleb128 0x1
 4761 13a2 9C       		.byte	0x9c
 4762 13a3 E2130000 		.long	0x13e2
 4763 13a7 26       		.uleb128 0x26
 4764 13a8 7000     		.string	"p"
 4765 13aa 01       		.byte	0x1
 4766 13ab 9101     		.value	0x191
 4767 13ad 81020000 		.long	0x281
 4768 13b1 02       		.uleb128 0x2
GAS LISTING /tmp/ccmTSJ1m.s 			page 104


 4769 13b2 91       		.byte	0x91
 4770 13b3 00       		.sleb128 0
 4771 13b4 1E       		.uleb128 0x1e
 4772 13b5 9D0A0000 		.long	.LVL167
 4773 13b9 6B1C0000 		.long	0x1c6b
 4774 13bd 1E       		.uleb128 0x1e
 4775 13be A20A0000 		.long	.LVL168
 4776 13c2 6B1C0000 		.long	0x1c6b
 4777 13c6 1E       		.uleb128 0x1e
 4778 13c7 A70A0000 		.long	.LVL169
 4779 13cb 6B1C0000 		.long	0x1c6b
 4780 13cf 1E       		.uleb128 0x1e
 4781 13d0 AC0A0000 		.long	.LVL170
 4782 13d4 6B1C0000 		.long	0x1c6b
 4783 13d8 1E       		.uleb128 0x1e
 4784 13d9 B40A0000 		.long	.LVL171
 4785 13dd 961B0000 		.long	0x1b96
 4786 13e1 00       		.byte	0
 4787 13e2 19       		.uleb128 0x19
 4788 13e3 A5010000 		.long	.LASF111
 4789 13e7 01       		.byte	0x1
 4790 13e8 C701     		.value	0x1c7
 4791 13ea D00A0000 		.long	.LFB22
 4792 13ee 27010000 		.long	.LFE22-.LFB22
 4793 13f2 01       		.uleb128 0x1
 4794 13f3 9C       		.byte	0x9c
 4795 13f4 BC150000 		.long	0x15bc
 4796 13f8 21       		.uleb128 0x21
 4797 13f9 6E00     		.string	"n"
 4798 13fb 01       		.byte	0x1
 4799 13fc C801     		.value	0x1c8
 4800 13fe 7E000000 		.long	0x7e
 4801 1402 67020000 		.long	.LLST18
 4802 1406 27       		.uleb128 0x27
 4803 1407 696200   		.string	"ib"
 4804 140a 01       		.byte	0x1
 4805 140b C901     		.value	0x1c9
 4806 140d 5F020000 		.long	0x25f
 4807 1411 05       		.uleb128 0x5
 4808 1412 03       		.byte	0x3
 4809 1413 28000000 		.long	ib.2138
 4810 1417 27       		.uleb128 0x27
 4811 1418 697100   		.string	"iq"
 4812 141b 01       		.byte	0x1
 4813 141c CA01     		.value	0x1ca
 4814 141e 46050000 		.long	0x546
 4815 1422 05       		.uleb128 0x5
 4816 1423 03       		.byte	0x3
 4817 1424 40000000 		.long	iq.2139
 4818 1428 1A       		.uleb128 0x1a
 4819 1429 020B0000 		.long	.LVL172
 4820 142d 731C0000 		.long	0x1c73
 4821 1431 5E140000 		.long	0x145e
 4822 1435 1B       		.uleb128 0x1b
 4823 1436 02       		.uleb128 0x2
 4824 1437 74       		.byte	0x74
 4825 1438 00       		.sleb128 0
GAS LISTING /tmp/ccmTSJ1m.s 			page 105


 4826 1439 05       		.uleb128 0x5
 4827 143a 03       		.byte	0x3
 4828 143b 40000000 		.long	iq.2139
 4829 143f 1B       		.uleb128 0x1b
 4830 1440 02       		.uleb128 0x2
 4831 1441 74       		.byte	0x74
 4832 1442 04       		.sleb128 4
 4833 1443 05       		.uleb128 0x5
 4834 1444 03       		.byte	0x3
 4835 1445 28000000 		.long	ib.2138
 4836 1449 1B       		.uleb128 0x1b
 4837 144a 02       		.uleb128 0x2
 4838 144b 74       		.byte	0x74
 4839 144c 08       		.sleb128 8
 4840 144d 01       		.uleb128 0x1
 4841 144e 40       		.byte	0x40
 4842 144f 1B       		.uleb128 0x1b
 4843 1450 02       		.uleb128 0x2
 4844 1451 74       		.byte	0x74
 4845 1452 0C       		.sleb128 12
 4846 1453 02       		.uleb128 0x2
 4847 1454 73       		.byte	0x73
 4848 1455 00       		.sleb128 0
 4849 1456 1B       		.uleb128 0x1b
 4850 1457 02       		.uleb128 0x2
 4851 1458 74       		.byte	0x74
 4852 1459 10       		.sleb128 16
 4853 145a 02       		.uleb128 0x2
 4854 145b 73       		.byte	0x73
 4855 145c 00       		.sleb128 0
 4856 145d 00       		.byte	0
 4857 145e 1E       		.uleb128 0x1e
 4858 145f 070B0000 		.long	.LVL173
 4859 1463 601B0000 		.long	0x1b60
 4860 1467 1A       		.uleb128 0x1a
 4861 1468 130B0000 		.long	.LVL174
 4862 146c 6B1B0000 		.long	0x1b6b
 4863 1470 7D140000 		.long	0x147d
 4864 1474 1B       		.uleb128 0x1b
 4865 1475 02       		.uleb128 0x2
 4866 1476 74       		.byte	0x74
 4867 1477 00       		.sleb128 0
 4868 1478 03       		.uleb128 0x3
 4869 1479 0A       		.byte	0xa
 4870 147a E803     		.value	0x3e8
 4871 147c 00       		.byte	0
 4872 147d 1A       		.uleb128 0x1a
 4873 147e 2D0B0000 		.long	.LVL175
 4874 1482 9F1C0000 		.long	0x1c9f
 4875 1486 9B140000 		.long	0x149b
 4876 148a 1B       		.uleb128 0x1b
 4877 148b 02       		.uleb128 0x2
 4878 148c 74       		.byte	0x74
 4879 148d 00       		.sleb128 0
 4880 148e 05       		.uleb128 0x5
 4881 148f 03       		.byte	0x3
 4882 1490 40000000 		.long	iq.2139
GAS LISTING /tmp/ccmTSJ1m.s 			page 106


 4883 1494 1B       		.uleb128 0x1b
 4884 1495 02       		.uleb128 0x2
 4885 1496 74       		.byte	0x74
 4886 1497 04       		.sleb128 4
 4887 1498 01       		.uleb128 0x1
 4888 1499 30       		.byte	0x30
 4889 149a 00       		.byte	0
 4890 149b 1A       		.uleb128 0x1a
 4891 149c 410B0000 		.long	.LVL176
 4892 14a0 9F1C0000 		.long	0x1c9f
 4893 14a4 B9140000 		.long	0x14b9
 4894 14a8 1B       		.uleb128 0x1b
 4895 14a9 02       		.uleb128 0x2
 4896 14aa 74       		.byte	0x74
 4897 14ab 00       		.sleb128 0
 4898 14ac 05       		.uleb128 0x5
 4899 14ad 03       		.byte	0x3
 4900 14ae 40000000 		.long	iq.2139
 4901 14b2 1B       		.uleb128 0x1b
 4902 14b3 02       		.uleb128 0x2
 4903 14b4 74       		.byte	0x74
 4904 14b5 04       		.sleb128 4
 4905 14b6 01       		.uleb128 0x1
 4906 14b7 31       		.byte	0x31
 4907 14b8 00       		.byte	0
 4908 14b9 1A       		.uleb128 0x1a
 4909 14ba 550B0000 		.long	.LVL177
 4910 14be 9F1C0000 		.long	0x1c9f
 4911 14c2 D7140000 		.long	0x14d7
 4912 14c6 1B       		.uleb128 0x1b
 4913 14c7 02       		.uleb128 0x2
 4914 14c8 74       		.byte	0x74
 4915 14c9 00       		.sleb128 0
 4916 14ca 05       		.uleb128 0x5
 4917 14cb 03       		.byte	0x3
 4918 14cc 40000000 		.long	iq.2139
 4919 14d0 1B       		.uleb128 0x1b
 4920 14d1 02       		.uleb128 0x2
 4921 14d2 74       		.byte	0x74
 4922 14d3 04       		.sleb128 4
 4923 14d4 01       		.uleb128 0x1
 4924 14d5 32       		.byte	0x32
 4925 14d6 00       		.byte	0
 4926 14d7 1A       		.uleb128 0x1a
 4927 14d8 690B0000 		.long	.LVL178
 4928 14dc 9F1C0000 		.long	0x1c9f
 4929 14e0 F5140000 		.long	0x14f5
 4930 14e4 1B       		.uleb128 0x1b
 4931 14e5 02       		.uleb128 0x2
 4932 14e6 74       		.byte	0x74
 4933 14e7 00       		.sleb128 0
 4934 14e8 05       		.uleb128 0x5
 4935 14e9 03       		.byte	0x3
 4936 14ea 40000000 		.long	iq.2139
 4937 14ee 1B       		.uleb128 0x1b
 4938 14ef 02       		.uleb128 0x2
 4939 14f0 74       		.byte	0x74
GAS LISTING /tmp/ccmTSJ1m.s 			page 107


 4940 14f1 04       		.sleb128 4
 4941 14f2 01       		.uleb128 0x1
 4942 14f3 33       		.byte	0x33
 4943 14f4 00       		.byte	0
 4944 14f5 1A       		.uleb128 0x1a
 4945 14f6 810B0000 		.long	.LVL180
 4946 14fa BA1C0000 		.long	0x1cba
 4947 14fe 14150000 		.long	0x1514
 4948 1502 1B       		.uleb128 0x1b
 4949 1503 02       		.uleb128 0x2
 4950 1504 74       		.byte	0x74
 4951 1505 00       		.sleb128 0
 4952 1506 05       		.uleb128 0x5
 4953 1507 03       		.byte	0x3
 4954 1508 40000000 		.long	iq.2139
 4955 150c 1B       		.uleb128 0x1b
 4956 150d 02       		.uleb128 0x2
 4957 150e 74       		.byte	0x74
 4958 150f 04       		.sleb128 4
 4959 1510 02       		.uleb128 0x2
 4960 1511 09       		.byte	0x9
 4961 1512 FF       		.byte	0xff
 4962 1513 00       		.byte	0
 4963 1514 1A       		.uleb128 0x1a
 4964 1515 950B0000 		.long	.LVL181
 4965 1519 BA1C0000 		.long	0x1cba
 4966 151d 33150000 		.long	0x1533
 4967 1521 1B       		.uleb128 0x1b
 4968 1522 02       		.uleb128 0x2
 4969 1523 74       		.byte	0x74
 4970 1524 00       		.sleb128 0
 4971 1525 05       		.uleb128 0x5
 4972 1526 03       		.byte	0x3
 4973 1527 40000000 		.long	iq.2139
 4974 152b 1B       		.uleb128 0x1b
 4975 152c 02       		.uleb128 0x2
 4976 152d 74       		.byte	0x74
 4977 152e 04       		.sleb128 4
 4978 152f 02       		.uleb128 0x2
 4979 1530 09       		.byte	0x9
 4980 1531 FF       		.byte	0xff
 4981 1532 00       		.byte	0
 4982 1533 1A       		.uleb128 0x1a
 4983 1534 A90B0000 		.long	.LVL182
 4984 1538 BA1C0000 		.long	0x1cba
 4985 153c 52150000 		.long	0x1552
 4986 1540 1B       		.uleb128 0x1b
 4987 1541 02       		.uleb128 0x2
 4988 1542 74       		.byte	0x74
 4989 1543 00       		.sleb128 0
 4990 1544 05       		.uleb128 0x5
 4991 1545 03       		.byte	0x3
 4992 1546 40000000 		.long	iq.2139
 4993 154a 1B       		.uleb128 0x1b
 4994 154b 02       		.uleb128 0x2
 4995 154c 74       		.byte	0x74
 4996 154d 04       		.sleb128 4
GAS LISTING /tmp/ccmTSJ1m.s 			page 108


 4997 154e 02       		.uleb128 0x2
 4998 154f 09       		.byte	0x9
 4999 1550 FF       		.byte	0xff
 5000 1551 00       		.byte	0
 5001 1552 1A       		.uleb128 0x1a
 5002 1553 BD0B0000 		.long	.LVL183
 5003 1557 BA1C0000 		.long	0x1cba
 5004 155b 71150000 		.long	0x1571
 5005 155f 1B       		.uleb128 0x1b
 5006 1560 02       		.uleb128 0x2
 5007 1561 74       		.byte	0x74
 5008 1562 00       		.sleb128 0
 5009 1563 05       		.uleb128 0x5
 5010 1564 03       		.byte	0x3
 5011 1565 40000000 		.long	iq.2139
 5012 1569 1B       		.uleb128 0x1b
 5013 156a 02       		.uleb128 0x2
 5014 156b 74       		.byte	0x74
 5015 156c 04       		.sleb128 4
 5016 156d 02       		.uleb128 0x2
 5017 156e 09       		.byte	0x9
 5018 156f FF       		.byte	0xff
 5019 1570 00       		.byte	0
 5020 1571 1E       		.uleb128 0x1e
 5021 1572 C20B0000 		.long	.LVL184
 5022 1576 961B0000 		.long	0x1b96
 5023 157a 1A       		.uleb128 0x1a
 5024 157b DE0B0000 		.long	.LVL186
 5025 157f 0C1B0000 		.long	0x1b0c
 5026 1583 92150000 		.long	0x1592
 5027 1587 1B       		.uleb128 0x1b
 5028 1588 02       		.uleb128 0x2
 5029 1589 74       		.byte	0x74
 5030 158a 00       		.sleb128 0
 5031 158b 05       		.uleb128 0x5
 5032 158c 03       		.byte	0x3
 5033 158d 89000000 		.long	.LC11
 5034 1591 00       		.byte	0
 5035 1592 1A       		.uleb128 0x1a
 5036 1593 E60B0000 		.long	.LVL187
 5037 1597 1D1B0000 		.long	0x1b1d
 5038 159b A7150000 		.long	0x15a7
 5039 159f 1B       		.uleb128 0x1b
 5040 15a0 02       		.uleb128 0x2
 5041 15a1 74       		.byte	0x74
 5042 15a2 00       		.sleb128 0
 5043 15a3 02       		.uleb128 0x2
 5044 15a4 73       		.byte	0x73
 5045 15a5 00       		.sleb128 0
 5046 15a6 00       		.byte	0
 5047 15a7 1C       		.uleb128 0x1c
 5048 15a8 F20B0000 		.long	.LVL188
 5049 15ac 2E1B0000 		.long	0x1b2e
 5050 15b0 1B       		.uleb128 0x1b
 5051 15b1 02       		.uleb128 0x2
 5052 15b2 74       		.byte	0x74
 5053 15b3 00       		.sleb128 0
GAS LISTING /tmp/ccmTSJ1m.s 			page 109


 5054 15b4 05       		.uleb128 0x5
 5055 15b5 03       		.byte	0x3
 5056 15b6 C6000000 		.long	.LC16
 5057 15ba 00       		.byte	0
 5058 15bb 00       		.byte	0
 5059 15bc 19       		.uleb128 0x19
 5060 15bd DB010000 		.long	.LASF112
 5061 15c1 01       		.byte	0x1
 5062 15c2 F801     		.value	0x1f8
 5063 15c4 000C0000 		.long	.LFB24
 5064 15c8 B2000000 		.long	.LFE24-.LFB24
 5065 15cc 01       		.uleb128 0x1
 5066 15cd 9C       		.byte	0x9c
 5067 15ce FC160000 		.long	0x16fc
 5068 15d2 27       		.uleb128 0x27
 5069 15d3 76743100 		.string	"vt1"
 5070 15d7 01       		.byte	0x1
 5071 15d8 F901     		.value	0x1f9
 5072 15da 0C030000 		.long	0x30c
 5073 15de 05       		.uleb128 0x5
 5074 15df 03       		.byte	0x3
 5075 15e0 14000000 		.long	vt1.2149
 5076 15e4 27       		.uleb128 0x27
 5077 15e5 76743200 		.string	"vt2"
 5078 15e9 01       		.byte	0x1
 5079 15ea F901     		.value	0x1f9
 5080 15ec 0C030000 		.long	0x30c
 5081 15f0 05       		.uleb128 0x5
 5082 15f1 03       		.byte	0x3
 5083 15f2 00000000 		.long	vt2.2150
 5084 15f6 21       		.uleb128 0x21
 5085 15f7 6E00     		.string	"n"
 5086 15f9 01       		.byte	0x1
 5087 15fa FA01     		.value	0x1fa
 5088 15fc 7E000000 		.long	0x7e
 5089 1600 9E020000 		.long	.LLST19
 5090 1604 1E       		.uleb128 0x1e
 5091 1605 0B0C0000 		.long	.LVL190
 5092 1609 601B0000 		.long	0x1b60
 5093 160d 1A       		.uleb128 0x1a
 5094 160e 170C0000 		.long	.LVL191
 5095 1612 6B1B0000 		.long	0x1b6b
 5096 1616 23160000 		.long	0x1623
 5097 161a 1B       		.uleb128 0x1b
 5098 161b 02       		.uleb128 0x2
 5099 161c 74       		.byte	0x74
 5100 161d 00       		.sleb128 0
 5101 161e 03       		.uleb128 0x3
 5102 161f 0A       		.byte	0xa
 5103 1620 E803     		.value	0x3e8
 5104 1622 00       		.byte	0
 5105 1623 1A       		.uleb128 0x1a
 5106 1624 3D0C0000 		.long	.LVL192
 5107 1628 D51C0000 		.long	0x1cd5
 5108 162c 51160000 		.long	0x1651
 5109 1630 1B       		.uleb128 0x1b
 5110 1631 02       		.uleb128 0x2
GAS LISTING /tmp/ccmTSJ1m.s 			page 110


 5111 1632 74       		.byte	0x74
 5112 1633 00       		.sleb128 0
 5113 1634 05       		.uleb128 0x5
 5114 1635 03       		.byte	0x3
 5115 1636 14000000 		.long	vt1.2149
 5116 163a 1B       		.uleb128 0x1b
 5117 163b 02       		.uleb128 0x2
 5118 163c 74       		.byte	0x74
 5119 163d 04       		.sleb128 4
 5120 163e 01       		.uleb128 0x1
 5121 163f 31       		.byte	0x31
 5122 1640 1B       		.uleb128 0x1b
 5123 1641 02       		.uleb128 0x2
 5124 1642 74       		.byte	0x74
 5125 1643 08       		.sleb128 8
 5126 1644 05       		.uleb128 0x5
 5127 1645 03       		.byte	0x3
 5128 1646 10000000 		.long	tmo
 5129 164a 1B       		.uleb128 0x1b
 5130 164b 02       		.uleb128 0x2
 5131 164c 74       		.byte	0x74
 5132 164d 0C       		.sleb128 12
 5133 164e 01       		.uleb128 0x1
 5134 164f 30       		.byte	0x30
 5135 1650 00       		.byte	0
 5136 1651 1A       		.uleb128 0x1a
 5137 1652 610C0000 		.long	.LVL193
 5138 1656 D51C0000 		.long	0x1cd5
 5139 165a 81160000 		.long	0x1681
 5140 165e 1B       		.uleb128 0x1b
 5141 165f 02       		.uleb128 0x2
 5142 1660 74       		.byte	0x74
 5143 1661 00       		.sleb128 0
 5144 1662 05       		.uleb128 0x5
 5145 1663 03       		.byte	0x3
 5146 1664 00000000 		.long	vt2.2150
 5147 1668 1B       		.uleb128 0x1b
 5148 1669 02       		.uleb128 0x2
 5149 166a 74       		.byte	0x74
 5150 166b 04       		.sleb128 4
 5151 166c 03       		.uleb128 0x3
 5152 166d 0A       		.byte	0xa
 5153 166e 1027     		.value	0x2710
 5154 1670 1B       		.uleb128 0x1b
 5155 1671 02       		.uleb128 0x2
 5156 1672 74       		.byte	0x74
 5157 1673 08       		.sleb128 8
 5158 1674 05       		.uleb128 0x5
 5159 1675 03       		.byte	0x3
 5160 1676 10000000 		.long	tmo
 5161 167a 1B       		.uleb128 0x1b
 5162 167b 02       		.uleb128 0x2
 5163 167c 74       		.byte	0x74
 5164 167d 0C       		.sleb128 12
 5165 167e 01       		.uleb128 0x1
 5166 167f 30       		.byte	0x30
 5167 1680 00       		.byte	0
GAS LISTING /tmp/ccmTSJ1m.s 			page 111


 5168 1681 1A       		.uleb128 0x1a
 5169 1682 6D0C0000 		.long	.LVL194
 5170 1686 F51C0000 		.long	0x1cf5
 5171 168a 99160000 		.long	0x1699
 5172 168e 1B       		.uleb128 0x1b
 5173 168f 02       		.uleb128 0x2
 5174 1690 74       		.byte	0x74
 5175 1691 00       		.sleb128 0
 5176 1692 05       		.uleb128 0x5
 5177 1693 03       		.byte	0x3
 5178 1694 14000000 		.long	vt1.2149
 5179 1698 00       		.byte	0
 5180 1699 1A       		.uleb128 0x1a
 5181 169a 790C0000 		.long	.LVL195
 5182 169e F51C0000 		.long	0x1cf5
 5183 16a2 B1160000 		.long	0x16b1
 5184 16a6 1B       		.uleb128 0x1b
 5185 16a7 02       		.uleb128 0x2
 5186 16a8 74       		.byte	0x74
 5187 16a9 00       		.sleb128 0
 5188 16aa 05       		.uleb128 0x5
 5189 16ab 03       		.byte	0x3
 5190 16ac 00000000 		.long	vt2.2150
 5191 16b0 00       		.byte	0
 5192 16b1 1E       		.uleb128 0x1e
 5193 16b2 820C0000 		.long	.LVL197
 5194 16b6 961B0000 		.long	0x1b96
 5195 16ba 1A       		.uleb128 0x1a
 5196 16bb 990C0000 		.long	.LVL199
 5197 16bf 0C1B0000 		.long	0x1b0c
 5198 16c3 D2160000 		.long	0x16d2
 5199 16c7 1B       		.uleb128 0x1b
 5200 16c8 02       		.uleb128 0x2
 5201 16c9 74       		.byte	0x74
 5202 16ca 00       		.sleb128 0
 5203 16cb 05       		.uleb128 0x5
 5204 16cc 03       		.byte	0x3
 5205 16cd 89000000 		.long	.LC11
 5206 16d1 00       		.byte	0
 5207 16d2 1A       		.uleb128 0x1a
 5208 16d3 A10C0000 		.long	.LVL200
 5209 16d7 1D1B0000 		.long	0x1b1d
 5210 16db E7160000 		.long	0x16e7
 5211 16df 1B       		.uleb128 0x1b
 5212 16e0 02       		.uleb128 0x2
 5213 16e1 74       		.byte	0x74
 5214 16e2 00       		.sleb128 0
 5215 16e3 02       		.uleb128 0x2
 5216 16e4 73       		.byte	0x73
 5217 16e5 00       		.sleb128 0
 5218 16e6 00       		.byte	0
 5219 16e7 1C       		.uleb128 0x1c
 5220 16e8 AD0C0000 		.long	.LVL201
 5221 16ec 2E1B0000 		.long	0x1b2e
 5222 16f0 1B       		.uleb128 0x1b
 5223 16f1 02       		.uleb128 0x2
 5224 16f2 74       		.byte	0x74
GAS LISTING /tmp/ccmTSJ1m.s 			page 112


 5225 16f3 00       		.sleb128 0
 5226 16f4 05       		.uleb128 0x5
 5227 16f5 03       		.byte	0x3
 5228 16f6 CF000000 		.long	.LC17
 5229 16fa 00       		.byte	0
 5230 16fb 00       		.byte	0
 5231 16fc 19       		.uleb128 0x19
 5232 16fd C5010000 		.long	.LASF113
 5233 1701 01       		.byte	0x1
 5234 1702 2602     		.value	0x226
 5235 1704 C00C0000 		.long	.LFB26
 5236 1708 B1000000 		.long	.LFE26-.LFB26
 5237 170c 01       		.uleb128 0x1
 5238 170d 9C       		.byte	0x9c
 5239 170e 4A180000 		.long	0x184a
 5240 1712 21       		.uleb128 0x21
 5241 1713 6E00     		.string	"n"
 5242 1715 01       		.byte	0x1
 5243 1716 2702     		.value	0x227
 5244 1718 7E000000 		.long	0x7e
 5245 171c BD020000 		.long	.LLST20
 5246 1720 1E       		.uleb128 0x1e
 5247 1721 CB0C0000 		.long	.LVL203
 5248 1725 601B0000 		.long	0x1b60
 5249 1729 1A       		.uleb128 0x1a
 5250 172a D70C0000 		.long	.LVL204
 5251 172e 6B1B0000 		.long	0x1b6b
 5252 1732 3F170000 		.long	0x173f
 5253 1736 1B       		.uleb128 0x1b
 5254 1737 02       		.uleb128 0x2
 5255 1738 74       		.byte	0x74
 5256 1739 00       		.sleb128 0
 5257 173a 03       		.uleb128 0x3
 5258 173b 0A       		.byte	0xa
 5259 173c E803     		.value	0x3e8
 5260 173e 00       		.byte	0
 5261 173f 1A       		.uleb128 0x1a
 5262 1740 E70C0000 		.long	.LVL206
 5263 1744 2E1C0000 		.long	0x1c2e
 5264 1748 57170000 		.long	0x1757
 5265 174c 1B       		.uleb128 0x1b
 5266 174d 02       		.uleb128 0x2
 5267 174e 74       		.byte	0x74
 5268 174f 00       		.sleb128 0
 5269 1750 05       		.uleb128 0x5
 5270 1751 03       		.byte	0x3
 5271 1752 74000000 		.long	sem1
 5272 1756 00       		.byte	0
 5273 1757 1A       		.uleb128 0x1a
 5274 1758 F30C0000 		.long	.LVL207
 5275 175c 061D0000 		.long	0x1d06
 5276 1760 6F170000 		.long	0x176f
 5277 1764 1B       		.uleb128 0x1b
 5278 1765 02       		.uleb128 0x2
 5279 1766 74       		.byte	0x74
 5280 1767 00       		.sleb128 0
 5281 1768 05       		.uleb128 0x5
GAS LISTING /tmp/ccmTSJ1m.s 			page 113


 5282 1769 03       		.byte	0x3
 5283 176a 74000000 		.long	sem1
 5284 176e 00       		.byte	0
 5285 176f 1A       		.uleb128 0x1a
 5286 1770 FF0C0000 		.long	.LVL208
 5287 1774 2E1C0000 		.long	0x1c2e
 5288 1778 87170000 		.long	0x1787
 5289 177c 1B       		.uleb128 0x1b
 5290 177d 02       		.uleb128 0x2
 5291 177e 74       		.byte	0x74
 5292 177f 00       		.sleb128 0
 5293 1780 05       		.uleb128 0x5
 5294 1781 03       		.byte	0x3
 5295 1782 74000000 		.long	sem1
 5296 1786 00       		.byte	0
 5297 1787 1A       		.uleb128 0x1a
 5298 1788 0B0D0000 		.long	.LVL209
 5299 178c 061D0000 		.long	0x1d06
 5300 1790 9F170000 		.long	0x179f
 5301 1794 1B       		.uleb128 0x1b
 5302 1795 02       		.uleb128 0x2
 5303 1796 74       		.byte	0x74
 5304 1797 00       		.sleb128 0
 5305 1798 05       		.uleb128 0x5
 5306 1799 03       		.byte	0x3
 5307 179a 74000000 		.long	sem1
 5308 179e 00       		.byte	0
 5309 179f 1A       		.uleb128 0x1a
 5310 17a0 170D0000 		.long	.LVL210
 5311 17a4 2E1C0000 		.long	0x1c2e
 5312 17a8 B7170000 		.long	0x17b7
 5313 17ac 1B       		.uleb128 0x1b
 5314 17ad 02       		.uleb128 0x2
 5315 17ae 74       		.byte	0x74
 5316 17af 00       		.sleb128 0
 5317 17b0 05       		.uleb128 0x5
 5318 17b1 03       		.byte	0x3
 5319 17b2 74000000 		.long	sem1
 5320 17b6 00       		.byte	0
 5321 17b7 1A       		.uleb128 0x1a
 5322 17b8 230D0000 		.long	.LVL211
 5323 17bc 061D0000 		.long	0x1d06
 5324 17c0 CF170000 		.long	0x17cf
 5325 17c4 1B       		.uleb128 0x1b
 5326 17c5 02       		.uleb128 0x2
 5327 17c6 74       		.byte	0x74
 5328 17c7 00       		.sleb128 0
 5329 17c8 05       		.uleb128 0x5
 5330 17c9 03       		.byte	0x3
 5331 17ca 74000000 		.long	sem1
 5332 17ce 00       		.byte	0
 5333 17cf 1A       		.uleb128 0x1a
 5334 17d0 2F0D0000 		.long	.LVL212
 5335 17d4 2E1C0000 		.long	0x1c2e
 5336 17d8 E7170000 		.long	0x17e7
 5337 17dc 1B       		.uleb128 0x1b
 5338 17dd 02       		.uleb128 0x2
GAS LISTING /tmp/ccmTSJ1m.s 			page 114


 5339 17de 74       		.byte	0x74
 5340 17df 00       		.sleb128 0
 5341 17e0 05       		.uleb128 0x5
 5342 17e1 03       		.byte	0x3
 5343 17e2 74000000 		.long	sem1
 5344 17e6 00       		.byte	0
 5345 17e7 1A       		.uleb128 0x1a
 5346 17e8 3B0D0000 		.long	.LVL213
 5347 17ec 061D0000 		.long	0x1d06
 5348 17f0 FF170000 		.long	0x17ff
 5349 17f4 1B       		.uleb128 0x1b
 5350 17f5 02       		.uleb128 0x2
 5351 17f6 74       		.byte	0x74
 5352 17f7 00       		.sleb128 0
 5353 17f8 05       		.uleb128 0x5
 5354 17f9 03       		.byte	0x3
 5355 17fa 74000000 		.long	sem1
 5356 17fe 00       		.byte	0
 5357 17ff 1E       		.uleb128 0x1e
 5358 1800 400D0000 		.long	.LVL214
 5359 1804 961B0000 		.long	0x1b96
 5360 1808 1A       		.uleb128 0x1a
 5361 1809 580D0000 		.long	.LVL216
 5362 180d 0C1B0000 		.long	0x1b0c
 5363 1811 20180000 		.long	0x1820
 5364 1815 1B       		.uleb128 0x1b
 5365 1816 02       		.uleb128 0x2
 5366 1817 74       		.byte	0x74
 5367 1818 00       		.sleb128 0
 5368 1819 05       		.uleb128 0x5
 5369 181a 03       		.byte	0x3
 5370 181b 89000000 		.long	.LC11
 5371 181f 00       		.byte	0
 5372 1820 1A       		.uleb128 0x1a
 5373 1821 600D0000 		.long	.LVL217
 5374 1825 1D1B0000 		.long	0x1b1d
 5375 1829 35180000 		.long	0x1835
 5376 182d 1B       		.uleb128 0x1b
 5377 182e 02       		.uleb128 0x2
 5378 182f 74       		.byte	0x74
 5379 1830 00       		.sleb128 0
 5380 1831 02       		.uleb128 0x2
 5381 1832 73       		.byte	0x73
 5382 1833 00       		.sleb128 0
 5383 1834 00       		.byte	0
 5384 1835 1C       		.uleb128 0x1c
 5385 1836 6C0D0000 		.long	.LVL218
 5386 183a 2E1B0000 		.long	0x1b2e
 5387 183e 1B       		.uleb128 0x1b
 5388 183f 02       		.uleb128 0x2
 5389 1840 74       		.byte	0x74
 5390 1841 00       		.sleb128 0
 5391 1842 05       		.uleb128 0x5
 5392 1843 03       		.byte	0x3
 5393 1844 D9000000 		.long	.LC18
 5394 1848 00       		.byte	0
 5395 1849 00       		.byte	0
GAS LISTING /tmp/ccmTSJ1m.s 			page 115


 5396 184a 19       		.uleb128 0x19
 5397 184b 86020000 		.long	.LASF114
 5398 184f 01       		.byte	0x1
 5399 1850 5602     		.value	0x256
 5400 1852 800D0000 		.long	.LFB28
 5401 1856 95000000 		.long	.LFE28-.LFB28
 5402 185a 01       		.uleb128 0x1
 5403 185b 9C       		.byte	0x9c
 5404 185c 5C190000 		.long	0x195c
 5405 1860 21       		.uleb128 0x21
 5406 1861 6E00     		.string	"n"
 5407 1863 01       		.byte	0x1
 5408 1864 5702     		.value	0x257
 5409 1866 7E000000 		.long	0x7e
 5410 186a F4020000 		.long	.LLST21
 5411 186e 1E       		.uleb128 0x1e
 5412 186f 8B0D0000 		.long	.LVL220
 5413 1873 601B0000 		.long	0x1b60
 5414 1877 1A       		.uleb128 0x1a
 5415 1878 970D0000 		.long	.LVL221
 5416 187c 6B1B0000 		.long	0x1b6b
 5417 1880 8D180000 		.long	0x188d
 5418 1884 1B       		.uleb128 0x1b
 5419 1885 02       		.uleb128 0x2
 5420 1886 74       		.byte	0x74
 5421 1887 00       		.sleb128 0
 5422 1888 03       		.uleb128 0x3
 5423 1889 0A       		.byte	0xa
 5424 188a E803     		.value	0x3e8
 5425 188c 00       		.byte	0
 5426 188d 1A       		.uleb128 0x1a
 5427 188e A70D0000 		.long	.LVL223
 5428 1892 171D0000 		.long	0x1d17
 5429 1896 A5180000 		.long	0x18a5
 5430 189a 1B       		.uleb128 0x1b
 5431 189b 02       		.uleb128 0x2
 5432 189c 74       		.byte	0x74
 5433 189d 00       		.sleb128 0
 5434 189e 05       		.uleb128 0x5
 5435 189f 03       		.byte	0x3
 5436 18a0 64000000 		.long	mtx1
 5437 18a4 00       		.byte	0
 5438 18a5 1E       		.uleb128 0x1e
 5439 18a6 AC0D0000 		.long	.LVL224
 5440 18aa 281D0000 		.long	0x1d28
 5441 18ae 1A       		.uleb128 0x1a
 5442 18af B80D0000 		.long	.LVL225
 5443 18b3 171D0000 		.long	0x1d17
 5444 18b7 C6180000 		.long	0x18c6
 5445 18bb 1B       		.uleb128 0x1b
 5446 18bc 02       		.uleb128 0x2
 5447 18bd 74       		.byte	0x74
 5448 18be 00       		.sleb128 0
 5449 18bf 05       		.uleb128 0x5
 5450 18c0 03       		.byte	0x3
 5451 18c1 64000000 		.long	mtx1
 5452 18c5 00       		.byte	0
GAS LISTING /tmp/ccmTSJ1m.s 			page 116


 5453 18c6 1E       		.uleb128 0x1e
 5454 18c7 BD0D0000 		.long	.LVL226
 5455 18cb 281D0000 		.long	0x1d28
 5456 18cf 1A       		.uleb128 0x1a
 5457 18d0 C90D0000 		.long	.LVL227
 5458 18d4 171D0000 		.long	0x1d17
 5459 18d8 E7180000 		.long	0x18e7
 5460 18dc 1B       		.uleb128 0x1b
 5461 18dd 02       		.uleb128 0x2
 5462 18de 74       		.byte	0x74
 5463 18df 00       		.sleb128 0
 5464 18e0 05       		.uleb128 0x5
 5465 18e1 03       		.byte	0x3
 5466 18e2 64000000 		.long	mtx1
 5467 18e6 00       		.byte	0
 5468 18e7 1E       		.uleb128 0x1e
 5469 18e8 CE0D0000 		.long	.LVL228
 5470 18ec 281D0000 		.long	0x1d28
 5471 18f0 1A       		.uleb128 0x1a
 5472 18f1 DA0D0000 		.long	.LVL229
 5473 18f5 171D0000 		.long	0x1d17
 5474 18f9 08190000 		.long	0x1908
 5475 18fd 1B       		.uleb128 0x1b
 5476 18fe 02       		.uleb128 0x2
 5477 18ff 74       		.byte	0x74
 5478 1900 00       		.sleb128 0
 5479 1901 05       		.uleb128 0x5
 5480 1902 03       		.byte	0x3
 5481 1903 64000000 		.long	mtx1
 5482 1907 00       		.byte	0
 5483 1908 1E       		.uleb128 0x1e
 5484 1909 DF0D0000 		.long	.LVL230
 5485 190d 281D0000 		.long	0x1d28
 5486 1911 1E       		.uleb128 0x1e
 5487 1912 E40D0000 		.long	.LVL231
 5488 1916 961B0000 		.long	0x1b96
 5489 191a 1A       		.uleb128 0x1a
 5490 191b FC0D0000 		.long	.LVL233
 5491 191f 0C1B0000 		.long	0x1b0c
 5492 1923 32190000 		.long	0x1932
 5493 1927 1B       		.uleb128 0x1b
 5494 1928 02       		.uleb128 0x2
 5495 1929 74       		.byte	0x74
 5496 192a 00       		.sleb128 0
 5497 192b 05       		.uleb128 0x5
 5498 192c 03       		.byte	0x3
 5499 192d 89000000 		.long	.LC11
 5500 1931 00       		.byte	0
 5501 1932 1A       		.uleb128 0x1a
 5502 1933 040E0000 		.long	.LVL234
 5503 1937 1D1B0000 		.long	0x1b1d
 5504 193b 47190000 		.long	0x1947
 5505 193f 1B       		.uleb128 0x1b
 5506 1940 02       		.uleb128 0x2
 5507 1941 74       		.byte	0x74
 5508 1942 00       		.sleb128 0
 5509 1943 02       		.uleb128 0x2
GAS LISTING /tmp/ccmTSJ1m.s 			page 117


 5510 1944 73       		.byte	0x73
 5511 1945 00       		.sleb128 0
 5512 1946 00       		.byte	0
 5513 1947 1C       		.uleb128 0x1c
 5514 1948 100E0000 		.long	.LVL235
 5515 194c 2E1B0000 		.long	0x1b2e
 5516 1950 1B       		.uleb128 0x1b
 5517 1951 02       		.uleb128 0x2
 5518 1952 74       		.byte	0x74
 5519 1953 00       		.sleb128 0
 5520 1954 05       		.uleb128 0x5
 5521 1955 03       		.byte	0x3
 5522 1956 E8000000 		.long	.LC19
 5523 195a 00       		.byte	0
 5524 195b 00       		.byte	0
 5525 195c 19       		.uleb128 0x19
 5526 195d 4E030000 		.long	.LASF115
 5527 1961 01       		.byte	0x1
 5528 1962 5102     		.value	0x251
 5529 1964 200E0000 		.long	.LFB27
 5530 1968 13000000 		.long	.LFE27-.LFB27
 5531 196c 01       		.uleb128 0x1
 5532 196d 9C       		.byte	0x9c
 5533 196e 87190000 		.long	0x1987
 5534 1972 1C       		.uleb128 0x1c
 5535 1973 2F0E0000 		.long	.LVL236
 5536 1977 331D0000 		.long	0x1d33
 5537 197b 1B       		.uleb128 0x1b
 5538 197c 02       		.uleb128 0x2
 5539 197d 74       		.byte	0x74
 5540 197e 00       		.sleb128 0
 5541 197f 05       		.uleb128 0x5
 5542 1980 03       		.byte	0x3
 5543 1981 64000000 		.long	mtx1
 5544 1985 00       		.byte	0
 5545 1986 00       		.byte	0
 5546 1987 28       		.uleb128 0x28
 5547 1988 97010000 		.long	.LASF116
 5548 198c 01       		.byte	0x1
 5549 198d 3B       		.byte	0x3b
 5550 198e EC030000 		.long	0x3ec
 5551 1992 05       		.uleb128 0x5
 5552 1993 03       		.byte	0x3
 5553 1994 74000000 		.long	sem1
 5554 1998 28       		.uleb128 0x28
 5555 1999 49020000 		.long	.LASF117
 5556 199d 01       		.byte	0x1
 5557 199e 3D       		.byte	0x3d
 5558 199f 2E040000 		.long	0x42e
 5559 19a3 05       		.uleb128 0x5
 5560 19a4 03       		.byte	0x3
 5561 19a5 64000000 		.long	mtx1
 5562 19a9 29       		.uleb128 0x29
 5563 19aa 4A060000 		.long	.LASF118
 5564 19ae 09       		.byte	0x9
 5565 19af 6F       		.byte	0x6f
 5566 19b0 BC030000 		.long	0x3bc
GAS LISTING /tmp/ccmTSJ1m.s 			page 118


 5567 19b4 0A       		.uleb128 0xa
 5568 19b5 2E020000 		.long	0x22e
 5569 19b9 C4190000 		.long	0x19c4
 5570 19bd 0B       		.uleb128 0xb
 5571 19be 6F020000 		.long	0x26f
 5572 19c2 04       		.byte	0x4
 5573 19c3 00       		.byte	0
 5574 19c4 29       		.uleb128 0x29
 5575 19c5 DD040000 		.long	.LASF119
 5576 19c9 0D       		.byte	0xd
 5577 19ca A5       		.byte	0xa5
 5578 19cb B4190000 		.long	0x19b4
 5579 19cf 0A       		.uleb128 0xa
 5580 19d0 81020000 		.long	0x281
 5581 19d4 DA190000 		.long	0x19da
 5582 19d8 2A       		.uleb128 0x2a
 5583 19d9 00       		.byte	0
 5584 19da 2B       		.uleb128 0x2b
 5585 19db 776100   		.string	"wa"
 5586 19de 0D       		.byte	0xd
 5587 19df A7       		.byte	0xa7
 5588 19e0 E4190000 		.long	0x19e4
 5589 19e4 12       		.uleb128 0x12
 5590 19e5 CF190000 		.long	0x19cf
 5591 19e9 29       		.uleb128 0x29
 5592 19ea FD010000 		.long	.LASF120
 5593 19ee 0D       		.byte	0xd
 5594 19ef A8       		.byte	0xa8
 5595 19f0 90000000 		.long	0x90
 5596 19f4 2C       		.uleb128 0x2c
 5597 19f5 A0020000 		.long	.LASF121
 5598 19f9 01       		.byte	0x1
 5599 19fa 76       		.byte	0x76
 5600 19fb 051A0000 		.long	0x1a05
 5601 19ff 05       		.uleb128 0x5
 5602 1a00 03       		.byte	0x3
 5603 1a01 00000000 		.long	testbmk1
 5604 1a05 12       		.uleb128 0x12
 5605 1a06 51050000 		.long	0x551
 5606 1a0a 2C       		.uleb128 0x2c
 5607 1a0b 0B030000 		.long	.LASF122
 5608 1a0f 01       		.byte	0x1
 5609 1a10 93       		.byte	0x93
 5610 1a11 051A0000 		.long	0x1a05
 5611 1a15 05       		.uleb128 0x5
 5612 1a16 03       		.byte	0x3
 5613 1a17 00000000 		.long	testbmk2
 5614 1a1b 2C       		.uleb128 0x2c
 5615 1a1c 14030000 		.long	.LASF123
 5616 1a20 01       		.byte	0x1
 5617 1a21 BA       		.byte	0xba
 5618 1a22 051A0000 		.long	0x1a05
 5619 1a26 05       		.uleb128 0x5
 5620 1a27 03       		.byte	0x3
 5621 1a28 00000000 		.long	testbmk3
 5622 1a2c 2C       		.uleb128 0x2c
 5623 1a2d 1D030000 		.long	.LASF124
GAS LISTING /tmp/ccmTSJ1m.s 			page 119


 5624 1a31 01       		.byte	0x1
 5625 1a32 F7       		.byte	0xf7
 5626 1a33 051A0000 		.long	0x1a05
 5627 1a37 05       		.uleb128 0x5
 5628 1a38 03       		.byte	0x3
 5629 1a39 00000000 		.long	testbmk4
 5630 1a3d 2D       		.uleb128 0x2d
 5631 1a3e C6020000 		.long	.LASF125
 5632 1a42 01       		.byte	0x1
 5633 1a43 1C01     		.value	0x11c
 5634 1a45 051A0000 		.long	0x1a05
 5635 1a49 05       		.uleb128 0x5
 5636 1a4a 03       		.byte	0x3
 5637 1a4b 00000000 		.long	testbmk5
 5638 1a4f 2D       		.uleb128 0x2d
 5639 1a50 0D020000 		.long	.LASF126
 5640 1a54 01       		.byte	0x1
 5641 1a55 4301     		.value	0x143
 5642 1a57 051A0000 		.long	0x1a05
 5643 1a5b 05       		.uleb128 0x5
 5644 1a5c 03       		.byte	0x3
 5645 1a5d 00000000 		.long	testbmk6
 5646 1a61 2D       		.uleb128 0x2d
 5647 1a62 DC020000 		.long	.LASF127
 5648 1a66 01       		.byte	0x1
 5649 1a67 8001     		.value	0x180
 5650 1a69 051A0000 		.long	0x1a05
 5651 1a6d 05       		.uleb128 0x5
 5652 1a6e 03       		.byte	0x3
 5653 1a6f 00000000 		.long	testbmk7
 5654 1a73 2D       		.uleb128 0x2d
 5655 1a74 E5020000 		.long	.LASF128
 5656 1a78 01       		.byte	0x1
 5657 1a79 B501     		.value	0x1b5
 5658 1a7b 051A0000 		.long	0x1a05
 5659 1a7f 05       		.uleb128 0x5
 5660 1a80 03       		.byte	0x3
 5661 1a81 00000000 		.long	testbmk8
 5662 1a85 2D       		.uleb128 0x2d
 5663 1a86 45030000 		.long	.LASF129
 5664 1a8a 01       		.byte	0x1
 5665 1a8b E501     		.value	0x1e5
 5666 1a8d 051A0000 		.long	0x1a05
 5667 1a91 05       		.uleb128 0x5
 5668 1a92 03       		.byte	0x3
 5669 1a93 00000000 		.long	testbmk9
 5670 1a97 2D       		.uleb128 0x2d
 5671 1a98 14050000 		.long	.LASF130
 5672 1a9c 01       		.byte	0x1
 5673 1a9d 0F02     		.value	0x20f
 5674 1a9f 051A0000 		.long	0x1a05
 5675 1aa3 05       		.uleb128 0x5
 5676 1aa4 03       		.byte	0x3
 5677 1aa5 00000000 		.long	testbmk10
 5678 1aa9 2D       		.uleb128 0x2d
 5679 1aaa 1E050000 		.long	.LASF131
 5680 1aae 01       		.byte	0x1
GAS LISTING /tmp/ccmTSJ1m.s 			page 120


 5681 1aaf 3E02     		.value	0x23e
 5682 1ab1 051A0000 		.long	0x1a05
 5683 1ab5 05       		.uleb128 0x5
 5684 1ab6 03       		.byte	0x3
 5685 1ab7 00000000 		.long	testbmk11
 5686 1abb 2D       		.uleb128 0x2d
 5687 1abc 8D010000 		.long	.LASF132
 5688 1ac0 01       		.byte	0x1
 5689 1ac1 6E02     		.value	0x26e
 5690 1ac3 051A0000 		.long	0x1a05
 5691 1ac7 05       		.uleb128 0x5
 5692 1ac8 03       		.byte	0x3
 5693 1ac9 00000000 		.long	testbmk12
 5694 1acd 2D       		.uleb128 0x2d
 5695 1ace 31050000 		.long	.LASF133
 5696 1ad2 01       		.byte	0x1
 5697 1ad3 AF02     		.value	0x2af
 5698 1ad5 051A0000 		.long	0x1a05
 5699 1ad9 05       		.uleb128 0x5
 5700 1ada 03       		.byte	0x3
 5701 1adb 00000000 		.long	testbmk13
 5702 1adf 0A       		.uleb128 0xa
 5703 1ae0 EF1A0000 		.long	0x1aef
 5704 1ae4 EF1A0000 		.long	0x1aef
 5705 1ae8 0B       		.uleb128 0xb
 5706 1ae9 6F020000 		.long	0x26f
 5707 1aed 0D       		.byte	0xd
 5708 1aee 00       		.byte	0
 5709 1aef 09       		.uleb128 0x9
 5710 1af0 04       		.byte	0x4
 5711 1af1 051A0000 		.long	0x1a05
 5712 1af5 2D       		.uleb128 0x2d
 5713 1af6 02050000 		.long	.LASF134
 5714 1afa 01       		.byte	0x1
 5715 1afb B902     		.value	0x2b9
 5716 1afd 071B0000 		.long	0x1b07
 5717 1b01 05       		.uleb128 0x5
 5718 1b02 03       		.byte	0x3
 5719 1b03 00000000 		.long	patternbmk
 5720 1b07 12       		.uleb128 0x12
 5721 1b08 DF1A0000 		.long	0x1adf
 5722 1b0c 2E       		.uleb128 0x2e
 5723 1b0d 31000000 		.long	.LASF135
 5724 1b11 0D       		.byte	0xd
 5725 1b12 54       		.byte	0x54
 5726 1b13 1D1B0000 		.long	0x1b1d
 5727 1b17 0F       		.uleb128 0xf
 5728 1b18 6E040000 		.long	0x46e
 5729 1b1c 00       		.byte	0
 5730 1b1d 2E       		.uleb128 0x2e
 5731 1b1e FD050000 		.long	.LASF136
 5732 1b22 0D       		.byte	0xd
 5733 1b23 53       		.byte	0x53
 5734 1b24 2E1B0000 		.long	0x1b2e
 5735 1b28 0F       		.uleb128 0xf
 5736 1b29 7E000000 		.long	0x7e
 5737 1b2d 00       		.byte	0
GAS LISTING /tmp/ccmTSJ1m.s 			page 121


 5738 1b2e 2E       		.uleb128 0x2e
 5739 1b2f DF000000 		.long	.LASF137
 5740 1b33 0D       		.byte	0xd
 5741 1b34 55       		.byte	0x55
 5742 1b35 3F1B0000 		.long	0x1b3f
 5743 1b39 0F       		.uleb128 0xf
 5744 1b3a 6E040000 		.long	0x46e
 5745 1b3e 00       		.byte	0
 5746 1b3f 2F       		.uleb128 0x2f
 5747 1b40 25060000 		.long	.LASF139
 5748 1b44 0E       		.byte	0xe
 5749 1b45 52       		.byte	0x52
 5750 1b46 2E020000 		.long	0x22e
 5751 1b4a 2E       		.uleb128 0x2e
 5752 1b4b E3060000 		.long	.LASF138
 5753 1b4f 0E       		.byte	0xe
 5754 1b50 53       		.byte	0x53
 5755 1b51 601B0000 		.long	0x1b60
 5756 1b55 0F       		.uleb128 0xf
 5757 1b56 2E020000 		.long	0x22e
 5758 1b5a 0F       		.uleb128 0xf
 5759 1b5b D9000000 		.long	0xd9
 5760 1b5f 00       		.byte	0
 5761 1b60 2F       		.uleb128 0x2f
 5762 1b61 A8040000 		.long	.LASF140
 5763 1b65 0D       		.byte	0xd
 5764 1b66 5D       		.byte	0x5d
 5765 1b67 EF000000 		.long	0xef
 5766 1b6b 2E       		.uleb128 0x2e
 5767 1b6c 6C010000 		.long	.LASF141
 5768 1b70 0D       		.byte	0xd
 5769 1b71 5E       		.byte	0x5e
 5770 1b72 7C1B0000 		.long	0x1b7c
 5771 1b76 0F       		.uleb128 0xf
 5772 1b77 37000000 		.long	0x37
 5773 1b7b 00       		.byte	0
 5774 1b7c 30       		.uleb128 0x30
 5775 1b7d 0D010000 		.long	.LASF142
 5776 1b81 0E       		.byte	0xe
 5777 1b82 51       		.byte	0x51
 5778 1b83 D9000000 		.long	0xd9
 5779 1b87 961B0000 		.long	0x1b96
 5780 1b8b 0F       		.uleb128 0xf
 5781 1b8c 2E020000 		.long	0x22e
 5782 1b90 0F       		.uleb128 0xf
 5783 1b91 D9000000 		.long	0xd9
 5784 1b95 00       		.byte	0
 5785 1b96 31       		.uleb128 0x31
 5786 1b97 98060000 		.long	.LASF144
 5787 1b9b 07       		.byte	0x7
 5788 1b9c F3       		.byte	0xf3
 5789 1b9d 32       		.uleb128 0x32
 5790 1b9e 38060000 		.long	.LASF143
 5791 1ba2 06       		.byte	0x6
 5792 1ba3 7001     		.value	0x170
 5793 1ba5 2E020000 		.long	0x22e
 5794 1ba9 C71B0000 		.long	0x1bc7
GAS LISTING /tmp/ccmTSJ1m.s 			page 122


 5795 1bad 0F       		.uleb128 0xf
 5796 1bae 81020000 		.long	0x281
 5797 1bb2 0F       		.uleb128 0xf
 5798 1bb3 2C000000 		.long	0x2c
 5799 1bb7 0F       		.uleb128 0xf
 5800 1bb8 CE000000 		.long	0xce
 5801 1bbc 0F       		.uleb128 0xf
 5802 1bbd 86040000 		.long	0x486
 5803 1bc1 0F       		.uleb128 0xf
 5804 1bc2 81020000 		.long	0x281
 5805 1bc6 00       		.byte	0
 5806 1bc7 31       		.uleb128 0x31
 5807 1bc8 6A030000 		.long	.LASF145
 5808 1bcc 0D       		.byte	0xd
 5809 1bcd 5C       		.byte	0x5c
 5810 1bce 2E       		.uleb128 0x2e
 5811 1bcf 3B050000 		.long	.LASF146
 5812 1bd3 09       		.byte	0x9
 5813 1bd4 93       		.byte	0x93
 5814 1bd5 DF1B0000 		.long	0x1bdf
 5815 1bd9 0F       		.uleb128 0xf
 5816 1bda AD000000 		.long	0xad
 5817 1bde 00       		.byte	0
 5818 1bdf 2E       		.uleb128 0x2e
 5819 1be0 59020000 		.long	.LASF147
 5820 1be4 09       		.byte	0x9
 5821 1be5 99       		.byte	0x99
 5822 1be6 F51B0000 		.long	0x1bf5
 5823 1bea 0F       		.uleb128 0xf
 5824 1beb 2E020000 		.long	0x22e
 5825 1bef 0F       		.uleb128 0xf
 5826 1bf0 D9000000 		.long	0xd9
 5827 1bf4 00       		.byte	0
 5828 1bf5 32       		.uleb128 0x32
 5829 1bf6 DC050000 		.long	.LASF148
 5830 1bfa 06       		.byte	0x6
 5831 1bfb 7B01     		.value	0x17b
 5832 1bfd D9000000 		.long	0xd9
 5833 1c01 0B1C0000 		.long	0x1c0b
 5834 1c05 0F       		.uleb128 0xf
 5835 1c06 2E020000 		.long	0x22e
 5836 1c0a 00       		.byte	0
 5837 1c0b 2E       		.uleb128 0x2e
 5838 1c0c 4E020000 		.long	.LASF149
 5839 1c10 0A       		.byte	0xa
 5840 1c11 36       		.byte	0x36
 5841 1c12 211C0000 		.long	0x1c21
 5842 1c16 0F       		.uleb128 0xf
 5843 1c17 211C0000 		.long	0x1c21
 5844 1c1b 0F       		.uleb128 0xf
 5845 1c1c FA000000 		.long	0xfa
 5846 1c20 00       		.byte	0
 5847 1c21 09       		.uleb128 0x9
 5848 1c22 04       		.byte	0x4
 5849 1c23 EC030000 		.long	0x3ec
 5850 1c27 31       		.uleb128 0x31
 5851 1c28 EF030000 		.long	.LASF150
GAS LISTING /tmp/ccmTSJ1m.s 			page 123


 5852 1c2c 0D       		.byte	0xd
 5853 1c2d 5B       		.byte	0x5b
 5854 1c2e 30       		.uleb128 0x30
 5855 1c2f AE050000 		.long	.LASF151
 5856 1c33 0A       		.byte	0xa
 5857 1c34 38       		.byte	0x38
 5858 1c35 D9000000 		.long	0xd9
 5859 1c39 431C0000 		.long	0x1c43
 5860 1c3d 0F       		.uleb128 0xf
 5861 1c3e 211C0000 		.long	0x1c21
 5862 1c42 00       		.byte	0
 5863 1c43 2E       		.uleb128 0x2e
 5864 1c44 D9060000 		.long	.LASF152
 5865 1c48 0A       		.byte	0xa
 5866 1c49 35       		.byte	0x35
 5867 1c4a 591C0000 		.long	0x1c59
 5868 1c4e 0F       		.uleb128 0xf
 5869 1c4f 211C0000 		.long	0x1c21
 5870 1c53 0F       		.uleb128 0xf
 5871 1c54 FA000000 		.long	0xfa
 5872 1c58 00       		.byte	0
 5873 1c59 33       		.uleb128 0x33
 5874 1c5a 54050000 		.long	.LASF153
 5875 1c5e 06       		.byte	0x6
 5876 1c5f 7501     		.value	0x175
 5877 1c61 6B1C0000 		.long	0x1c6b
 5878 1c65 0F       		.uleb128 0xf
 5879 1c66 EF000000 		.long	0xef
 5880 1c6a 00       		.byte	0
 5881 1c6b 34       		.uleb128 0x34
 5882 1c6c 58060000 		.long	.LASF154
 5883 1c70 06       		.byte	0x6
 5884 1c71 7701     		.value	0x177
 5885 1c73 33       		.uleb128 0x33
 5886 1c74 28000000 		.long	.LASF155
 5887 1c78 0C       		.byte	0xc
 5888 1c79 6201     		.value	0x162
 5889 1c7b 991C0000 		.long	0x1c99
 5890 1c7f 0F       		.uleb128 0xf
 5891 1c80 991C0000 		.long	0x1c99
 5892 1c84 0F       		.uleb128 0xf
 5893 1c85 40050000 		.long	0x540
 5894 1c89 0F       		.uleb128 0xf
 5895 1c8a 2C000000 		.long	0x2c
 5896 1c8e 0F       		.uleb128 0xf
 5897 1c8f 1E050000 		.long	0x51e
 5898 1c93 0F       		.uleb128 0xf
 5899 1c94 81020000 		.long	0x281
 5900 1c98 00       		.byte	0
 5901 1c99 09       		.uleb128 0x9
 5902 1c9a 04       		.byte	0x4
 5903 1c9b 46050000 		.long	0x546
 5904 1c9f 32       		.uleb128 0x32
 5905 1ca0 9C010000 		.long	.LASF156
 5906 1ca4 0C       		.byte	0xc
 5907 1ca5 6501     		.value	0x165
 5908 1ca7 D9000000 		.long	0xd9
GAS LISTING /tmp/ccmTSJ1m.s 			page 124


 5909 1cab BA1C0000 		.long	0x1cba
 5910 1caf 0F       		.uleb128 0xf
 5911 1cb0 991C0000 		.long	0x1c99
 5912 1cb4 0F       		.uleb128 0xf
 5913 1cb5 65000000 		.long	0x65
 5914 1cb9 00       		.byte	0
 5915 1cba 32       		.uleb128 0x32
 5916 1cbb 63060000 		.long	.LASF157
 5917 1cbf 0C       		.byte	0xc
 5918 1cc0 6601     		.value	0x166
 5919 1cc2 D9000000 		.long	0xd9
 5920 1cc6 D51C0000 		.long	0x1cd5
 5921 1cca 0F       		.uleb128 0xf
 5922 1ccb 991C0000 		.long	0x1c99
 5923 1ccf 0F       		.uleb128 0xf
 5924 1cd0 EF000000 		.long	0xef
 5925 1cd4 00       		.byte	0
 5926 1cd5 2E       		.uleb128 0x2e
 5927 1cd6 CC050000 		.long	.LASF158
 5928 1cda 08       		.byte	0x8
 5929 1cdb FE       		.byte	0xfe
 5930 1cdc F51C0000 		.long	0x1cf5
 5931 1ce0 0F       		.uleb128 0xf
 5932 1ce1 60030000 		.long	0x360
 5933 1ce5 0F       		.uleb128 0xf
 5934 1ce6 EF000000 		.long	0xef
 5935 1cea 0F       		.uleb128 0xf
 5936 1ceb F0020000 		.long	0x2f0
 5937 1cef 0F       		.uleb128 0xf
 5938 1cf0 81020000 		.long	0x281
 5939 1cf4 00       		.byte	0
 5940 1cf5 2E       		.uleb128 0x2e
 5941 1cf6 10060000 		.long	.LASF159
 5942 1cfa 08       		.byte	0x8
 5943 1cfb FF       		.byte	0xff
 5944 1cfc 061D0000 		.long	0x1d06
 5945 1d00 0F       		.uleb128 0xf
 5946 1d01 60030000 		.long	0x360
 5947 1d05 00       		.byte	0
 5948 1d06 2E       		.uleb128 0x2e
 5949 1d07 2D010000 		.long	.LASF160
 5950 1d0b 0A       		.byte	0xa
 5951 1d0c 3C       		.byte	0x3c
 5952 1d0d 171D0000 		.long	0x1d17
 5953 1d11 0F       		.uleb128 0xf
 5954 1d12 211C0000 		.long	0x1c21
 5955 1d16 00       		.byte	0
 5956 1d17 2E       		.uleb128 0x2e
 5957 1d18 60030000 		.long	.LASF161
 5958 1d1c 0B       		.byte	0xb
 5959 1d1d 39       		.byte	0x39
 5960 1d1e 281D0000 		.long	0x1d28
 5961 1d22 0F       		.uleb128 0xf
 5962 1d23 80040000 		.long	0x480
 5963 1d27 00       		.byte	0
 5964 1d28 2F       		.uleb128 0x2f
 5965 1d29 73000000 		.long	.LASF162
GAS LISTING /tmp/ccmTSJ1m.s 			page 125


 5966 1d2d 0B       		.byte	0xb
 5967 1d2e 3D       		.byte	0x3d
 5968 1d2f 80040000 		.long	0x480
 5969 1d33 35       		.uleb128 0x35
 5970 1d34 7C020000 		.long	.LASF167
 5971 1d38 0B       		.byte	0xb
 5972 1d39 38       		.byte	0x38
 5973 1d3a 0F       		.uleb128 0xf
 5974 1d3b 80040000 		.long	0x480
 5975 1d3f 00       		.byte	0
 5976 1d40 00       		.byte	0
 5977              		.section	.debug_abbrev,"",@progbits
 5978              	.Ldebug_abbrev0:
 5979 0000 01       		.uleb128 0x1
 5980 0001 11       		.uleb128 0x11
 5981 0002 01       		.byte	0x1
 5982 0003 25       		.uleb128 0x25
 5983 0004 0E       		.uleb128 0xe
 5984 0005 13       		.uleb128 0x13
 5985 0006 0B       		.uleb128 0xb
 5986 0007 03       		.uleb128 0x3
 5987 0008 0E       		.uleb128 0xe
 5988 0009 1B       		.uleb128 0x1b
 5989 000a 0E       		.uleb128 0xe
 5990 000b 11       		.uleb128 0x11
 5991 000c 01       		.uleb128 0x1
 5992 000d 12       		.uleb128 0x12
 5993 000e 06       		.uleb128 0x6
 5994 000f 10       		.uleb128 0x10
 5995 0010 17       		.uleb128 0x17
 5996 0011 00       		.byte	0
 5997 0012 00       		.byte	0
 5998 0013 02       		.uleb128 0x2
 5999 0014 24       		.uleb128 0x24
 6000 0015 00       		.byte	0
 6001 0016 0B       		.uleb128 0xb
 6002 0017 0B       		.uleb128 0xb
 6003 0018 3E       		.uleb128 0x3e
 6004 0019 0B       		.uleb128 0xb
 6005 001a 03       		.uleb128 0x3
 6006 001b 08       		.uleb128 0x8
 6007 001c 00       		.byte	0
 6008 001d 00       		.byte	0
 6009 001e 03       		.uleb128 0x3
 6010 001f 16       		.uleb128 0x16
 6011 0020 00       		.byte	0
 6012 0021 03       		.uleb128 0x3
 6013 0022 0E       		.uleb128 0xe
 6014 0023 3A       		.uleb128 0x3a
 6015 0024 0B       		.uleb128 0xb
 6016 0025 3B       		.uleb128 0x3b
 6017 0026 0B       		.uleb128 0xb
 6018 0027 49       		.uleb128 0x49
 6019 0028 13       		.uleb128 0x13
 6020 0029 00       		.byte	0
 6021 002a 00       		.byte	0
 6022 002b 04       		.uleb128 0x4
GAS LISTING /tmp/ccmTSJ1m.s 			page 126


 6023 002c 24       		.uleb128 0x24
 6024 002d 00       		.byte	0
 6025 002e 0B       		.uleb128 0xb
 6026 002f 0B       		.uleb128 0xb
 6027 0030 3E       		.uleb128 0x3e
 6028 0031 0B       		.uleb128 0xb
 6029 0032 03       		.uleb128 0x3
 6030 0033 0E       		.uleb128 0xe
 6031 0034 00       		.byte	0
 6032 0035 00       		.byte	0
 6033 0036 05       		.uleb128 0x5
 6034 0037 13       		.uleb128 0x13
 6035 0038 01       		.byte	0x1
 6036 0039 03       		.uleb128 0x3
 6037 003a 0E       		.uleb128 0xe
 6038 003b 0B       		.uleb128 0xb
 6039 003c 0B       		.uleb128 0xb
 6040 003d 3A       		.uleb128 0x3a
 6041 003e 0B       		.uleb128 0xb
 6042 003f 3B       		.uleb128 0x3b
 6043 0040 0B       		.uleb128 0xb
 6044 0041 01       		.uleb128 0x1
 6045 0042 13       		.uleb128 0x13
 6046 0043 00       		.byte	0
 6047 0044 00       		.byte	0
 6048 0045 06       		.uleb128 0x6
 6049 0046 0D       		.uleb128 0xd
 6050 0047 00       		.byte	0
 6051 0048 03       		.uleb128 0x3
 6052 0049 0E       		.uleb128 0xe
 6053 004a 3A       		.uleb128 0x3a
 6054 004b 0B       		.uleb128 0xb
 6055 004c 3B       		.uleb128 0x3b
 6056 004d 0B       		.uleb128 0xb
 6057 004e 49       		.uleb128 0x49
 6058 004f 13       		.uleb128 0x13
 6059 0050 38       		.uleb128 0x38
 6060 0051 0B       		.uleb128 0xb
 6061 0052 00       		.byte	0
 6062 0053 00       		.byte	0
 6063 0054 07       		.uleb128 0x7
 6064 0055 0D       		.uleb128 0xd
 6065 0056 00       		.byte	0
 6066 0057 03       		.uleb128 0x3
 6067 0058 08       		.uleb128 0x8
 6068 0059 3A       		.uleb128 0x3a
 6069 005a 0B       		.uleb128 0xb
 6070 005b 3B       		.uleb128 0x3b
 6071 005c 0B       		.uleb128 0xb
 6072 005d 49       		.uleb128 0x49
 6073 005e 13       		.uleb128 0x13
 6074 005f 38       		.uleb128 0x38
 6075 0060 0B       		.uleb128 0xb
 6076 0061 00       		.byte	0
 6077 0062 00       		.byte	0
 6078 0063 08       		.uleb128 0x8
 6079 0064 13       		.uleb128 0x13
GAS LISTING /tmp/ccmTSJ1m.s 			page 127


 6080 0065 01       		.byte	0x1
 6081 0066 0B       		.uleb128 0xb
 6082 0067 0B       		.uleb128 0xb
 6083 0068 3A       		.uleb128 0x3a
 6084 0069 0B       		.uleb128 0xb
 6085 006a 3B       		.uleb128 0x3b
 6086 006b 0B       		.uleb128 0xb
 6087 006c 01       		.uleb128 0x1
 6088 006d 13       		.uleb128 0x13
 6089 006e 00       		.byte	0
 6090 006f 00       		.byte	0
 6091 0070 09       		.uleb128 0x9
 6092 0071 0F       		.uleb128 0xf
 6093 0072 00       		.byte	0
 6094 0073 0B       		.uleb128 0xb
 6095 0074 0B       		.uleb128 0xb
 6096 0075 49       		.uleb128 0x49
 6097 0076 13       		.uleb128 0x13
 6098 0077 00       		.byte	0
 6099 0078 00       		.byte	0
 6100 0079 0A       		.uleb128 0xa
 6101 007a 01       		.uleb128 0x1
 6102 007b 01       		.byte	0x1
 6103 007c 49       		.uleb128 0x49
 6104 007d 13       		.uleb128 0x13
 6105 007e 01       		.uleb128 0x1
 6106 007f 13       		.uleb128 0x13
 6107 0080 00       		.byte	0
 6108 0081 00       		.byte	0
 6109 0082 0B       		.uleb128 0xb
 6110 0083 21       		.uleb128 0x21
 6111 0084 00       		.byte	0
 6112 0085 49       		.uleb128 0x49
 6113 0086 13       		.uleb128 0x13
 6114 0087 2F       		.uleb128 0x2f
 6115 0088 0B       		.uleb128 0xb
 6116 0089 00       		.byte	0
 6117 008a 00       		.byte	0
 6118 008b 0C       		.uleb128 0xc
 6119 008c 0F       		.uleb128 0xf
 6120 008d 00       		.byte	0
 6121 008e 0B       		.uleb128 0xb
 6122 008f 0B       		.uleb128 0xb
 6123 0090 00       		.byte	0
 6124 0091 00       		.byte	0
 6125 0092 0D       		.uleb128 0xd
 6126 0093 35       		.uleb128 0x35
 6127 0094 00       		.byte	0
 6128 0095 49       		.uleb128 0x49
 6129 0096 13       		.uleb128 0x13
 6130 0097 00       		.byte	0
 6131 0098 00       		.byte	0
 6132 0099 0E       		.uleb128 0xe
 6133 009a 15       		.uleb128 0x15
 6134 009b 01       		.byte	0x1
 6135 009c 27       		.uleb128 0x27
 6136 009d 19       		.uleb128 0x19
GAS LISTING /tmp/ccmTSJ1m.s 			page 128


 6137 009e 01       		.uleb128 0x1
 6138 009f 13       		.uleb128 0x13
 6139 00a0 00       		.byte	0
 6140 00a1 00       		.byte	0
 6141 00a2 0F       		.uleb128 0xf
 6142 00a3 05       		.uleb128 0x5
 6143 00a4 00       		.byte	0
 6144 00a5 49       		.uleb128 0x49
 6145 00a6 13       		.uleb128 0x13
 6146 00a7 00       		.byte	0
 6147 00a8 00       		.byte	0
 6148 00a9 10       		.uleb128 0x10
 6149 00aa 17       		.uleb128 0x17
 6150 00ab 01       		.byte	0x1
 6151 00ac 0B       		.uleb128 0xb
 6152 00ad 0B       		.uleb128 0xb
 6153 00ae 3A       		.uleb128 0x3a
 6154 00af 0B       		.uleb128 0xb
 6155 00b0 3B       		.uleb128 0x3b
 6156 00b1 0B       		.uleb128 0xb
 6157 00b2 01       		.uleb128 0x1
 6158 00b3 13       		.uleb128 0x13
 6159 00b4 00       		.byte	0
 6160 00b5 00       		.byte	0
 6161 00b6 11       		.uleb128 0x11
 6162 00b7 0D       		.uleb128 0xd
 6163 00b8 00       		.byte	0
 6164 00b9 03       		.uleb128 0x3
 6165 00ba 0E       		.uleb128 0xe
 6166 00bb 3A       		.uleb128 0x3a
 6167 00bc 0B       		.uleb128 0xb
 6168 00bd 3B       		.uleb128 0x3b
 6169 00be 0B       		.uleb128 0xb
 6170 00bf 49       		.uleb128 0x49
 6171 00c0 13       		.uleb128 0x13
 6172 00c1 00       		.byte	0
 6173 00c2 00       		.byte	0
 6174 00c3 12       		.uleb128 0x12
 6175 00c4 26       		.uleb128 0x26
 6176 00c5 00       		.byte	0
 6177 00c6 49       		.uleb128 0x49
 6178 00c7 13       		.uleb128 0x13
 6179 00c8 00       		.byte	0
 6180 00c9 00       		.byte	0
 6181 00ca 13       		.uleb128 0x13
 6182 00cb 15       		.uleb128 0x15
 6183 00cc 01       		.byte	0x1
 6184 00cd 27       		.uleb128 0x27
 6185 00ce 19       		.uleb128 0x19
 6186 00cf 49       		.uleb128 0x49
 6187 00d0 13       		.uleb128 0x13
 6188 00d1 01       		.uleb128 0x1
 6189 00d2 13       		.uleb128 0x13
 6190 00d3 00       		.byte	0
 6191 00d4 00       		.byte	0
 6192 00d5 14       		.uleb128 0x14
 6193 00d6 15       		.uleb128 0x15
GAS LISTING /tmp/ccmTSJ1m.s 			page 129


 6194 00d7 00       		.byte	0
 6195 00d8 27       		.uleb128 0x27
 6196 00d9 19       		.uleb128 0x19
 6197 00da 00       		.byte	0
 6198 00db 00       		.byte	0
 6199 00dc 15       		.uleb128 0x15
 6200 00dd 2E       		.uleb128 0x2e
 6201 00de 01       		.byte	0x1
 6202 00df 03       		.uleb128 0x3
 6203 00e0 0E       		.uleb128 0xe
 6204 00e1 3A       		.uleb128 0x3a
 6205 00e2 0B       		.uleb128 0xb
 6206 00e3 3B       		.uleb128 0x3b
 6207 00e4 0B       		.uleb128 0xb
 6208 00e5 27       		.uleb128 0x27
 6209 00e6 19       		.uleb128 0x19
 6210 00e7 49       		.uleb128 0x49
 6211 00e8 13       		.uleb128 0x13
 6212 00e9 11       		.uleb128 0x11
 6213 00ea 01       		.uleb128 0x1
 6214 00eb 12       		.uleb128 0x12
 6215 00ec 06       		.uleb128 0x6
 6216 00ed 40       		.uleb128 0x40
 6217 00ee 18       		.uleb128 0x18
 6218 00ef 9742     		.uleb128 0x2117
 6219 00f1 19       		.uleb128 0x19
 6220 00f2 01       		.uleb128 0x1
 6221 00f3 13       		.uleb128 0x13
 6222 00f4 00       		.byte	0
 6223 00f5 00       		.byte	0
 6224 00f6 16       		.uleb128 0x16
 6225 00f7 05       		.uleb128 0x5
 6226 00f8 00       		.byte	0
 6227 00f9 03       		.uleb128 0x3
 6228 00fa 08       		.uleb128 0x8
 6229 00fb 3A       		.uleb128 0x3a
 6230 00fc 0B       		.uleb128 0xb
 6231 00fd 3B       		.uleb128 0x3b
 6232 00fe 0B       		.uleb128 0xb
 6233 00ff 49       		.uleb128 0x49
 6234 0100 13       		.uleb128 0x13
 6235 0101 02       		.uleb128 0x2
 6236 0102 18       		.uleb128 0x18
 6237 0103 00       		.byte	0
 6238 0104 00       		.byte	0
 6239 0105 17       		.uleb128 0x17
 6240 0106 2E       		.uleb128 0x2e
 6241 0107 01       		.byte	0x1
 6242 0108 03       		.uleb128 0x3
 6243 0109 08       		.uleb128 0x8
 6244 010a 3A       		.uleb128 0x3a
 6245 010b 0B       		.uleb128 0xb
 6246 010c 3B       		.uleb128 0x3b
 6247 010d 05       		.uleb128 0x5
 6248 010e 27       		.uleb128 0x27
 6249 010f 19       		.uleb128 0x19
 6250 0110 11       		.uleb128 0x11
GAS LISTING /tmp/ccmTSJ1m.s 			page 130


 6251 0111 01       		.uleb128 0x1
 6252 0112 12       		.uleb128 0x12
 6253 0113 06       		.uleb128 0x6
 6254 0114 40       		.uleb128 0x40
 6255 0115 18       		.uleb128 0x18
 6256 0116 9742     		.uleb128 0x2117
 6257 0118 19       		.uleb128 0x19
 6258 0119 01       		.uleb128 0x1
 6259 011a 13       		.uleb128 0x13
 6260 011b 00       		.byte	0
 6261 011c 00       		.byte	0
 6262 011d 18       		.uleb128 0x18
 6263 011e 05       		.uleb128 0x5
 6264 011f 00       		.byte	0
 6265 0120 03       		.uleb128 0x3
 6266 0121 0E       		.uleb128 0xe
 6267 0122 3A       		.uleb128 0x3a
 6268 0123 0B       		.uleb128 0xb
 6269 0124 3B       		.uleb128 0x3b
 6270 0125 05       		.uleb128 0x5
 6271 0126 49       		.uleb128 0x49
 6272 0127 13       		.uleb128 0x13
 6273 0128 02       		.uleb128 0x2
 6274 0129 18       		.uleb128 0x18
 6275 012a 00       		.byte	0
 6276 012b 00       		.byte	0
 6277 012c 19       		.uleb128 0x19
 6278 012d 2E       		.uleb128 0x2e
 6279 012e 01       		.byte	0x1
 6280 012f 03       		.uleb128 0x3
 6281 0130 0E       		.uleb128 0xe
 6282 0131 3A       		.uleb128 0x3a
 6283 0132 0B       		.uleb128 0xb
 6284 0133 3B       		.uleb128 0x3b
 6285 0134 05       		.uleb128 0x5
 6286 0135 27       		.uleb128 0x27
 6287 0136 19       		.uleb128 0x19
 6288 0137 11       		.uleb128 0x11
 6289 0138 01       		.uleb128 0x1
 6290 0139 12       		.uleb128 0x12
 6291 013a 06       		.uleb128 0x6
 6292 013b 40       		.uleb128 0x40
 6293 013c 18       		.uleb128 0x18
 6294 013d 9742     		.uleb128 0x2117
 6295 013f 19       		.uleb128 0x19
 6296 0140 01       		.uleb128 0x1
 6297 0141 13       		.uleb128 0x13
 6298 0142 00       		.byte	0
 6299 0143 00       		.byte	0
 6300 0144 1A       		.uleb128 0x1a
 6301 0145 898201   		.uleb128 0x4109
 6302 0148 01       		.byte	0x1
 6303 0149 11       		.uleb128 0x11
 6304 014a 01       		.uleb128 0x1
 6305 014b 31       		.uleb128 0x31
 6306 014c 13       		.uleb128 0x13
 6307 014d 01       		.uleb128 0x1
GAS LISTING /tmp/ccmTSJ1m.s 			page 131


 6308 014e 13       		.uleb128 0x13
 6309 014f 00       		.byte	0
 6310 0150 00       		.byte	0
 6311 0151 1B       		.uleb128 0x1b
 6312 0152 8A8201   		.uleb128 0x410a
 6313 0155 00       		.byte	0
 6314 0156 02       		.uleb128 0x2
 6315 0157 18       		.uleb128 0x18
 6316 0158 9142     		.uleb128 0x2111
 6317 015a 18       		.uleb128 0x18
 6318 015b 00       		.byte	0
 6319 015c 00       		.byte	0
 6320 015d 1C       		.uleb128 0x1c
 6321 015e 898201   		.uleb128 0x4109
 6322 0161 01       		.byte	0x1
 6323 0162 11       		.uleb128 0x11
 6324 0163 01       		.uleb128 0x1
 6325 0164 31       		.uleb128 0x31
 6326 0165 13       		.uleb128 0x13
 6327 0166 00       		.byte	0
 6328 0167 00       		.byte	0
 6329 0168 1D       		.uleb128 0x1d
 6330 0169 34       		.uleb128 0x34
 6331 016a 00       		.byte	0
 6332 016b 03       		.uleb128 0x3
 6333 016c 08       		.uleb128 0x8
 6334 016d 3A       		.uleb128 0x3a
 6335 016e 0B       		.uleb128 0xb
 6336 016f 3B       		.uleb128 0x3b
 6337 0170 0B       		.uleb128 0xb
 6338 0171 49       		.uleb128 0x49
 6339 0172 13       		.uleb128 0x13
 6340 0173 02       		.uleb128 0x2
 6341 0174 17       		.uleb128 0x17
 6342 0175 00       		.byte	0
 6343 0176 00       		.byte	0
 6344 0177 1E       		.uleb128 0x1e
 6345 0178 898201   		.uleb128 0x4109
 6346 017b 00       		.byte	0
 6347 017c 11       		.uleb128 0x11
 6348 017d 01       		.uleb128 0x1
 6349 017e 31       		.uleb128 0x31
 6350 017f 13       		.uleb128 0x13
 6351 0180 00       		.byte	0
 6352 0181 00       		.byte	0
 6353 0182 1F       		.uleb128 0x1f
 6354 0183 05       		.uleb128 0x5
 6355 0184 00       		.byte	0
 6356 0185 03       		.uleb128 0x3
 6357 0186 08       		.uleb128 0x8
 6358 0187 3A       		.uleb128 0x3a
 6359 0188 0B       		.uleb128 0xb
 6360 0189 3B       		.uleb128 0x3b
 6361 018a 0B       		.uleb128 0xb
 6362 018b 49       		.uleb128 0x49
 6363 018c 13       		.uleb128 0x13
 6364 018d 02       		.uleb128 0x2
GAS LISTING /tmp/ccmTSJ1m.s 			page 132


 6365 018e 17       		.uleb128 0x17
 6366 018f 00       		.byte	0
 6367 0190 00       		.byte	0
 6368 0191 20       		.uleb128 0x20
 6369 0192 2E       		.uleb128 0x2e
 6370 0193 01       		.byte	0x1
 6371 0194 03       		.uleb128 0x3
 6372 0195 0E       		.uleb128 0xe
 6373 0196 3A       		.uleb128 0x3a
 6374 0197 0B       		.uleb128 0xb
 6375 0198 3B       		.uleb128 0x3b
 6376 0199 0B       		.uleb128 0xb
 6377 019a 27       		.uleb128 0x27
 6378 019b 19       		.uleb128 0x19
 6379 019c 11       		.uleb128 0x11
 6380 019d 01       		.uleb128 0x1
 6381 019e 12       		.uleb128 0x12
 6382 019f 06       		.uleb128 0x6
 6383 01a0 40       		.uleb128 0x40
 6384 01a1 18       		.uleb128 0x18
 6385 01a2 9742     		.uleb128 0x2117
 6386 01a4 19       		.uleb128 0x19
 6387 01a5 01       		.uleb128 0x1
 6388 01a6 13       		.uleb128 0x13
 6389 01a7 00       		.byte	0
 6390 01a8 00       		.byte	0
 6391 01a9 21       		.uleb128 0x21
 6392 01aa 34       		.uleb128 0x34
 6393 01ab 00       		.byte	0
 6394 01ac 03       		.uleb128 0x3
 6395 01ad 08       		.uleb128 0x8
 6396 01ae 3A       		.uleb128 0x3a
 6397 01af 0B       		.uleb128 0xb
 6398 01b0 3B       		.uleb128 0x3b
 6399 01b1 05       		.uleb128 0x5
 6400 01b2 49       		.uleb128 0x49
 6401 01b3 13       		.uleb128 0x13
 6402 01b4 02       		.uleb128 0x2
 6403 01b5 17       		.uleb128 0x17
 6404 01b6 00       		.byte	0
 6405 01b7 00       		.byte	0
 6406 01b8 22       		.uleb128 0x22
 6407 01b9 34       		.uleb128 0x34
 6408 01ba 00       		.byte	0
 6409 01bb 03       		.uleb128 0x3
 6410 01bc 0E       		.uleb128 0xe
 6411 01bd 3A       		.uleb128 0x3a
 6412 01be 0B       		.uleb128 0xb
 6413 01bf 3B       		.uleb128 0x3b
 6414 01c0 05       		.uleb128 0x5
 6415 01c1 49       		.uleb128 0x49
 6416 01c2 13       		.uleb128 0x13
 6417 01c3 02       		.uleb128 0x2
 6418 01c4 17       		.uleb128 0x17
 6419 01c5 00       		.byte	0
 6420 01c6 00       		.byte	0
 6421 01c7 23       		.uleb128 0x23
GAS LISTING /tmp/ccmTSJ1m.s 			page 133


 6422 01c8 2E       		.uleb128 0x2e
 6423 01c9 01       		.byte	0x1
 6424 01ca 3F       		.uleb128 0x3f
 6425 01cb 19       		.uleb128 0x19
 6426 01cc 03       		.uleb128 0x3
 6427 01cd 0E       		.uleb128 0xe
 6428 01ce 3A       		.uleb128 0x3a
 6429 01cf 0B       		.uleb128 0xb
 6430 01d0 3B       		.uleb128 0x3b
 6431 01d1 0B       		.uleb128 0xb
 6432 01d2 27       		.uleb128 0x27
 6433 01d3 19       		.uleb128 0x19
 6434 01d4 49       		.uleb128 0x49
 6435 01d5 13       		.uleb128 0x13
 6436 01d6 11       		.uleb128 0x11
 6437 01d7 01       		.uleb128 0x1
 6438 01d8 12       		.uleb128 0x12
 6439 01d9 06       		.uleb128 0x6
 6440 01da 40       		.uleb128 0x40
 6441 01db 18       		.uleb128 0x18
 6442 01dc 9742     		.uleb128 0x2117
 6443 01de 19       		.uleb128 0x19
 6444 01df 01       		.uleb128 0x1
 6445 01e0 13       		.uleb128 0x13
 6446 01e1 00       		.byte	0
 6447 01e2 00       		.byte	0
 6448 01e3 24       		.uleb128 0x24
 6449 01e4 34       		.uleb128 0x34
 6450 01e5 00       		.byte	0
 6451 01e6 03       		.uleb128 0x3
 6452 01e7 0E       		.uleb128 0xe
 6453 01e8 3A       		.uleb128 0x3a
 6454 01e9 0B       		.uleb128 0xb
 6455 01ea 3B       		.uleb128 0x3b
 6456 01eb 0B       		.uleb128 0xb
 6457 01ec 49       		.uleb128 0x49
 6458 01ed 13       		.uleb128 0x13
 6459 01ee 02       		.uleb128 0x2
 6460 01ef 17       		.uleb128 0x17
 6461 01f0 00       		.byte	0
 6462 01f1 00       		.byte	0
 6463 01f2 25       		.uleb128 0x25
 6464 01f3 2E       		.uleb128 0x2e
 6465 01f4 01       		.byte	0x1
 6466 01f5 03       		.uleb128 0x3
 6467 01f6 0E       		.uleb128 0xe
 6468 01f7 3A       		.uleb128 0x3a
 6469 01f8 0B       		.uleb128 0xb
 6470 01f9 3B       		.uleb128 0x3b
 6471 01fa 05       		.uleb128 0x5
 6472 01fb 27       		.uleb128 0x27
 6473 01fc 19       		.uleb128 0x19
 6474 01fd 49       		.uleb128 0x49
 6475 01fe 13       		.uleb128 0x13
 6476 01ff 11       		.uleb128 0x11
 6477 0200 01       		.uleb128 0x1
 6478 0201 12       		.uleb128 0x12
GAS LISTING /tmp/ccmTSJ1m.s 			page 134


 6479 0202 06       		.uleb128 0x6
 6480 0203 40       		.uleb128 0x40
 6481 0204 18       		.uleb128 0x18
 6482 0205 9742     		.uleb128 0x2117
 6483 0207 19       		.uleb128 0x19
 6484 0208 01       		.uleb128 0x1
 6485 0209 13       		.uleb128 0x13
 6486 020a 00       		.byte	0
 6487 020b 00       		.byte	0
 6488 020c 26       		.uleb128 0x26
 6489 020d 05       		.uleb128 0x5
 6490 020e 00       		.byte	0
 6491 020f 03       		.uleb128 0x3
 6492 0210 08       		.uleb128 0x8
 6493 0211 3A       		.uleb128 0x3a
 6494 0212 0B       		.uleb128 0xb
 6495 0213 3B       		.uleb128 0x3b
 6496 0214 05       		.uleb128 0x5
 6497 0215 49       		.uleb128 0x49
 6498 0216 13       		.uleb128 0x13
 6499 0217 02       		.uleb128 0x2
 6500 0218 18       		.uleb128 0x18
 6501 0219 00       		.byte	0
 6502 021a 00       		.byte	0
 6503 021b 27       		.uleb128 0x27
 6504 021c 34       		.uleb128 0x34
 6505 021d 00       		.byte	0
 6506 021e 03       		.uleb128 0x3
 6507 021f 08       		.uleb128 0x8
 6508 0220 3A       		.uleb128 0x3a
 6509 0221 0B       		.uleb128 0xb
 6510 0222 3B       		.uleb128 0x3b
 6511 0223 05       		.uleb128 0x5
 6512 0224 49       		.uleb128 0x49
 6513 0225 13       		.uleb128 0x13
 6514 0226 02       		.uleb128 0x2
 6515 0227 18       		.uleb128 0x18
 6516 0228 00       		.byte	0
 6517 0229 00       		.byte	0
 6518 022a 28       		.uleb128 0x28
 6519 022b 34       		.uleb128 0x34
 6520 022c 00       		.byte	0
 6521 022d 03       		.uleb128 0x3
 6522 022e 0E       		.uleb128 0xe
 6523 022f 3A       		.uleb128 0x3a
 6524 0230 0B       		.uleb128 0xb
 6525 0231 3B       		.uleb128 0x3b
 6526 0232 0B       		.uleb128 0xb
 6527 0233 49       		.uleb128 0x49
 6528 0234 13       		.uleb128 0x13
 6529 0235 02       		.uleb128 0x2
 6530 0236 18       		.uleb128 0x18
 6531 0237 00       		.byte	0
 6532 0238 00       		.byte	0
 6533 0239 29       		.uleb128 0x29
 6534 023a 34       		.uleb128 0x34
 6535 023b 00       		.byte	0
GAS LISTING /tmp/ccmTSJ1m.s 			page 135


 6536 023c 03       		.uleb128 0x3
 6537 023d 0E       		.uleb128 0xe
 6538 023e 3A       		.uleb128 0x3a
 6539 023f 0B       		.uleb128 0xb
 6540 0240 3B       		.uleb128 0x3b
 6541 0241 0B       		.uleb128 0xb
 6542 0242 49       		.uleb128 0x49
 6543 0243 13       		.uleb128 0x13
 6544 0244 3F       		.uleb128 0x3f
 6545 0245 19       		.uleb128 0x19
 6546 0246 3C       		.uleb128 0x3c
 6547 0247 19       		.uleb128 0x19
 6548 0248 00       		.byte	0
 6549 0249 00       		.byte	0
 6550 024a 2A       		.uleb128 0x2a
 6551 024b 21       		.uleb128 0x21
 6552 024c 00       		.byte	0
 6553 024d 00       		.byte	0
 6554 024e 00       		.byte	0
 6555 024f 2B       		.uleb128 0x2b
 6556 0250 34       		.uleb128 0x34
 6557 0251 00       		.byte	0
 6558 0252 03       		.uleb128 0x3
 6559 0253 08       		.uleb128 0x8
 6560 0254 3A       		.uleb128 0x3a
 6561 0255 0B       		.uleb128 0xb
 6562 0256 3B       		.uleb128 0x3b
 6563 0257 0B       		.uleb128 0xb
 6564 0258 49       		.uleb128 0x49
 6565 0259 13       		.uleb128 0x13
 6566 025a 3F       		.uleb128 0x3f
 6567 025b 19       		.uleb128 0x19
 6568 025c 3C       		.uleb128 0x3c
 6569 025d 19       		.uleb128 0x19
 6570 025e 00       		.byte	0
 6571 025f 00       		.byte	0
 6572 0260 2C       		.uleb128 0x2c
 6573 0261 34       		.uleb128 0x34
 6574 0262 00       		.byte	0
 6575 0263 03       		.uleb128 0x3
 6576 0264 0E       		.uleb128 0xe
 6577 0265 3A       		.uleb128 0x3a
 6578 0266 0B       		.uleb128 0xb
 6579 0267 3B       		.uleb128 0x3b
 6580 0268 0B       		.uleb128 0xb
 6581 0269 49       		.uleb128 0x49
 6582 026a 13       		.uleb128 0x13
 6583 026b 3F       		.uleb128 0x3f
 6584 026c 19       		.uleb128 0x19
 6585 026d 02       		.uleb128 0x2
 6586 026e 18       		.uleb128 0x18
 6587 026f 00       		.byte	0
 6588 0270 00       		.byte	0
 6589 0271 2D       		.uleb128 0x2d
 6590 0272 34       		.uleb128 0x34
 6591 0273 00       		.byte	0
 6592 0274 03       		.uleb128 0x3
GAS LISTING /tmp/ccmTSJ1m.s 			page 136


 6593 0275 0E       		.uleb128 0xe
 6594 0276 3A       		.uleb128 0x3a
 6595 0277 0B       		.uleb128 0xb
 6596 0278 3B       		.uleb128 0x3b
 6597 0279 05       		.uleb128 0x5
 6598 027a 49       		.uleb128 0x49
 6599 027b 13       		.uleb128 0x13
 6600 027c 3F       		.uleb128 0x3f
 6601 027d 19       		.uleb128 0x19
 6602 027e 02       		.uleb128 0x2
 6603 027f 18       		.uleb128 0x18
 6604 0280 00       		.byte	0
 6605 0281 00       		.byte	0
 6606 0282 2E       		.uleb128 0x2e
 6607 0283 2E       		.uleb128 0x2e
 6608 0284 01       		.byte	0x1
 6609 0285 3F       		.uleb128 0x3f
 6610 0286 19       		.uleb128 0x19
 6611 0287 03       		.uleb128 0x3
 6612 0288 0E       		.uleb128 0xe
 6613 0289 3A       		.uleb128 0x3a
 6614 028a 0B       		.uleb128 0xb
 6615 028b 3B       		.uleb128 0x3b
 6616 028c 0B       		.uleb128 0xb
 6617 028d 27       		.uleb128 0x27
 6618 028e 19       		.uleb128 0x19
 6619 028f 3C       		.uleb128 0x3c
 6620 0290 19       		.uleb128 0x19
 6621 0291 01       		.uleb128 0x1
 6622 0292 13       		.uleb128 0x13
 6623 0293 00       		.byte	0
 6624 0294 00       		.byte	0
 6625 0295 2F       		.uleb128 0x2f
 6626 0296 2E       		.uleb128 0x2e
 6627 0297 00       		.byte	0
 6628 0298 3F       		.uleb128 0x3f
 6629 0299 19       		.uleb128 0x19
 6630 029a 03       		.uleb128 0x3
 6631 029b 0E       		.uleb128 0xe
 6632 029c 3A       		.uleb128 0x3a
 6633 029d 0B       		.uleb128 0xb
 6634 029e 3B       		.uleb128 0x3b
 6635 029f 0B       		.uleb128 0xb
 6636 02a0 27       		.uleb128 0x27
 6637 02a1 19       		.uleb128 0x19
 6638 02a2 49       		.uleb128 0x49
 6639 02a3 13       		.uleb128 0x13
 6640 02a4 3C       		.uleb128 0x3c
 6641 02a5 19       		.uleb128 0x19
 6642 02a6 00       		.byte	0
 6643 02a7 00       		.byte	0
 6644 02a8 30       		.uleb128 0x30
 6645 02a9 2E       		.uleb128 0x2e
 6646 02aa 01       		.byte	0x1
 6647 02ab 3F       		.uleb128 0x3f
 6648 02ac 19       		.uleb128 0x19
 6649 02ad 03       		.uleb128 0x3
GAS LISTING /tmp/ccmTSJ1m.s 			page 137


 6650 02ae 0E       		.uleb128 0xe
 6651 02af 3A       		.uleb128 0x3a
 6652 02b0 0B       		.uleb128 0xb
 6653 02b1 3B       		.uleb128 0x3b
 6654 02b2 0B       		.uleb128 0xb
 6655 02b3 27       		.uleb128 0x27
 6656 02b4 19       		.uleb128 0x19
 6657 02b5 49       		.uleb128 0x49
 6658 02b6 13       		.uleb128 0x13
 6659 02b7 3C       		.uleb128 0x3c
 6660 02b8 19       		.uleb128 0x19
 6661 02b9 01       		.uleb128 0x1
 6662 02ba 13       		.uleb128 0x13
 6663 02bb 00       		.byte	0
 6664 02bc 00       		.byte	0
 6665 02bd 31       		.uleb128 0x31
 6666 02be 2E       		.uleb128 0x2e
 6667 02bf 00       		.byte	0
 6668 02c0 3F       		.uleb128 0x3f
 6669 02c1 19       		.uleb128 0x19
 6670 02c2 03       		.uleb128 0x3
 6671 02c3 0E       		.uleb128 0xe
 6672 02c4 3A       		.uleb128 0x3a
 6673 02c5 0B       		.uleb128 0xb
 6674 02c6 3B       		.uleb128 0x3b
 6675 02c7 0B       		.uleb128 0xb
 6676 02c8 27       		.uleb128 0x27
 6677 02c9 19       		.uleb128 0x19
 6678 02ca 3C       		.uleb128 0x3c
 6679 02cb 19       		.uleb128 0x19
 6680 02cc 00       		.byte	0
 6681 02cd 00       		.byte	0
 6682 02ce 32       		.uleb128 0x32
 6683 02cf 2E       		.uleb128 0x2e
 6684 02d0 01       		.byte	0x1
 6685 02d1 3F       		.uleb128 0x3f
 6686 02d2 19       		.uleb128 0x19
 6687 02d3 03       		.uleb128 0x3
 6688 02d4 0E       		.uleb128 0xe
 6689 02d5 3A       		.uleb128 0x3a
 6690 02d6 0B       		.uleb128 0xb
 6691 02d7 3B       		.uleb128 0x3b
 6692 02d8 05       		.uleb128 0x5
 6693 02d9 27       		.uleb128 0x27
 6694 02da 19       		.uleb128 0x19
 6695 02db 49       		.uleb128 0x49
 6696 02dc 13       		.uleb128 0x13
 6697 02dd 3C       		.uleb128 0x3c
 6698 02de 19       		.uleb128 0x19
 6699 02df 01       		.uleb128 0x1
 6700 02e0 13       		.uleb128 0x13
 6701 02e1 00       		.byte	0
 6702 02e2 00       		.byte	0
 6703 02e3 33       		.uleb128 0x33
 6704 02e4 2E       		.uleb128 0x2e
 6705 02e5 01       		.byte	0x1
 6706 02e6 3F       		.uleb128 0x3f
GAS LISTING /tmp/ccmTSJ1m.s 			page 138


 6707 02e7 19       		.uleb128 0x19
 6708 02e8 03       		.uleb128 0x3
 6709 02e9 0E       		.uleb128 0xe
 6710 02ea 3A       		.uleb128 0x3a
 6711 02eb 0B       		.uleb128 0xb
 6712 02ec 3B       		.uleb128 0x3b
 6713 02ed 05       		.uleb128 0x5
 6714 02ee 27       		.uleb128 0x27
 6715 02ef 19       		.uleb128 0x19
 6716 02f0 3C       		.uleb128 0x3c
 6717 02f1 19       		.uleb128 0x19
 6718 02f2 01       		.uleb128 0x1
 6719 02f3 13       		.uleb128 0x13
 6720 02f4 00       		.byte	0
 6721 02f5 00       		.byte	0
 6722 02f6 34       		.uleb128 0x34
 6723 02f7 2E       		.uleb128 0x2e
 6724 02f8 00       		.byte	0
 6725 02f9 3F       		.uleb128 0x3f
 6726 02fa 19       		.uleb128 0x19
 6727 02fb 03       		.uleb128 0x3
 6728 02fc 0E       		.uleb128 0xe
 6729 02fd 3A       		.uleb128 0x3a
 6730 02fe 0B       		.uleb128 0xb
 6731 02ff 3B       		.uleb128 0x3b
 6732 0300 05       		.uleb128 0x5
 6733 0301 27       		.uleb128 0x27
 6734 0302 19       		.uleb128 0x19
 6735 0303 3C       		.uleb128 0x3c
 6736 0304 19       		.uleb128 0x19
 6737 0305 00       		.byte	0
 6738 0306 00       		.byte	0
 6739 0307 35       		.uleb128 0x35
 6740 0308 2E       		.uleb128 0x2e
 6741 0309 01       		.byte	0x1
 6742 030a 3F       		.uleb128 0x3f
 6743 030b 19       		.uleb128 0x19
 6744 030c 03       		.uleb128 0x3
 6745 030d 0E       		.uleb128 0xe
 6746 030e 3A       		.uleb128 0x3a
 6747 030f 0B       		.uleb128 0xb
 6748 0310 3B       		.uleb128 0x3b
 6749 0311 0B       		.uleb128 0xb
 6750 0312 27       		.uleb128 0x27
 6751 0313 19       		.uleb128 0x19
 6752 0314 3C       		.uleb128 0x3c
 6753 0315 19       		.uleb128 0x19
 6754 0316 00       		.byte	0
 6755 0317 00       		.byte	0
 6756 0318 00       		.byte	0
 6757              		.section	.debug_loc,"",@progbits
 6758              	.Ldebug_loc0:
 6759              	.LLST0:
 6760 0000 9D010000 		.long	.LVL33-.Ltext0
 6761 0004 AB010000 		.long	.LVL35-1-.Ltext0
 6762 0008 0100     		.value	0x1
 6763 000a 50       		.byte	0x50
GAS LISTING /tmp/ccmTSJ1m.s 			page 139


 6764 000b 00000000 		.long	0
 6765 000f 00000000 		.long	0
 6766              	.LLST1:
 6767 0013 A0010000 		.long	.LVL34-.Ltext0
 6768 0017 B6010000 		.long	.LVL36-.Ltext0
 6769 001b 0100     		.value	0x1
 6770 001d 53       		.byte	0x53
 6771 001e 00000000 		.long	0
 6772 0022 00000000 		.long	0
 6773              	.LLST2:
 6774 0026 C0010000 		.long	.LVL37-.Ltext0
 6775 002a CD010000 		.long	.LVL38-1-.Ltext0
 6776 002e 0100     		.value	0x1
 6777 0030 50       		.byte	0x50
 6778 0031 CD010000 		.long	.LVL38-1-.Ltext0
 6779 0035 18020000 		.long	.LVL45-.Ltext0
 6780 0039 0100     		.value	0x1
 6781 003b 56       		.byte	0x56
 6782 003c 18020000 		.long	.LVL45-.Ltext0
 6783 0040 19020000 		.long	.LFE8-.Ltext0
 6784 0044 0400     		.value	0x4
 6785 0046 F3       		.byte	0xf3
 6786 0047 01       		.uleb128 0x1
 6787 0048 50       		.byte	0x50
 6788 0049 9F       		.byte	0x9f
 6789 004a 00000000 		.long	0
 6790 004e 00000000 		.long	0
 6791              	.LLST3:
 6792 0052 C0010000 		.long	.LVL37-.Ltext0
 6793 0056 DA010000 		.long	.LVL39-.Ltext0
 6794 005a 0200     		.value	0x2
 6795 005c 30       		.byte	0x30
 6796 005d 9F       		.byte	0x9f
 6797 005e DA010000 		.long	.LVL39-.Ltext0
 6798 0062 EB010000 		.long	.LVL40-.Ltext0
 6799 0066 0100     		.value	0x1
 6800 0068 53       		.byte	0x53
 6801 0069 EB010000 		.long	.LVL40-.Ltext0
 6802 006d F3010000 		.long	.LVL41-.Ltext0
 6803 0071 0300     		.value	0x3
 6804 0073 73       		.byte	0x73
 6805 0074 7F       		.sleb128 -1
 6806 0075 9F       		.byte	0x9f
 6807 0076 F3010000 		.long	.LVL41-.Ltext0
 6808 007a 17020000 		.long	.LVL44-.Ltext0
 6809 007e 0100     		.value	0x1
 6810 0080 53       		.byte	0x53
 6811 0081 17020000 		.long	.LVL44-.Ltext0
 6812 0085 19020000 		.long	.LFE8-.Ltext0
 6813 0089 0100     		.value	0x1
 6814 008b 50       		.byte	0x50
 6815 008c 00000000 		.long	0
 6816 0090 00000000 		.long	0
 6817              	.LLST4:
 6818 0094 64020000 		.long	.LVL48-.Ltext0
 6819 0098 68020000 		.long	.LVL49-1-.Ltext0
 6820 009c 0100     		.value	0x1
GAS LISTING /tmp/ccmTSJ1m.s 			page 140


 6821 009e 50       		.byte	0x50
 6822 009f 68020000 		.long	.LVL49-1-.Ltext0
 6823 00a3 7A020000 		.long	.LVL51-.Ltext0
 6824 00a7 0100     		.value	0x1
 6825 00a9 53       		.byte	0x53
 6826 00aa 7A020000 		.long	.LVL51-.Ltext0
 6827 00ae 7E020000 		.long	.LVL52-1-.Ltext0
 6828 00b2 0200     		.value	0x2
 6829 00b4 74       		.byte	0x74
 6830 00b5 00       		.sleb128 0
 6831 00b6 00000000 		.long	0
 6832 00ba 00000000 		.long	0
 6833              	.LLST5:
 6834 00be F4020000 		.long	.LVL58-.Ltext0
 6835 00c2 F8020000 		.long	.LVL59-1-.Ltext0
 6836 00c6 0100     		.value	0x1
 6837 00c8 50       		.byte	0x50
 6838 00c9 F8020000 		.long	.LVL59-1-.Ltext0
 6839 00cd 0A030000 		.long	.LVL61-.Ltext0
 6840 00d1 0100     		.value	0x1
 6841 00d3 53       		.byte	0x53
 6842 00d4 0A030000 		.long	.LVL61-.Ltext0
 6843 00d8 0E030000 		.long	.LVL62-1-.Ltext0
 6844 00dc 0200     		.value	0x2
 6845 00de 74       		.byte	0x74
 6846 00df 00       		.sleb128 0
 6847 00e0 00000000 		.long	0
 6848 00e4 00000000 		.long	0
 6849              	.LLST6:
 6850 00e8 6D040000 		.long	.LVL72-.Ltext0
 6851 00ec 71040000 		.long	.LVL73-1-.Ltext0
 6852 00f0 0100     		.value	0x1
 6853 00f2 50       		.byte	0x50
 6854 00f3 71040000 		.long	.LVL73-1-.Ltext0
 6855 00f7 83040000 		.long	.LVL75-.Ltext0
 6856 00fb 0100     		.value	0x1
 6857 00fd 53       		.byte	0x53
 6858 00fe 83040000 		.long	.LVL75-.Ltext0
 6859 0102 87040000 		.long	.LVL76-1-.Ltext0
 6860 0106 0200     		.value	0x2
 6861 0108 74       		.byte	0x74
 6862 0109 00       		.sleb128 0
 6863 010a 00000000 		.long	0
 6864 010e 00000000 		.long	0
 6865              	.LLST7:
 6866 0112 B0040000 		.long	.LVL80-.Ltext0
 6867 0116 DA040000 		.long	.LVL84-.Ltext0
 6868 011a 0200     		.value	0x2
 6869 011c 30       		.byte	0x30
 6870 011d 9F       		.byte	0x9f
 6871 011e DA040000 		.long	.LVL84-.Ltext0
 6872 0122 EB040000 		.long	.LVL85-.Ltext0
 6873 0126 0100     		.value	0x1
 6874 0128 53       		.byte	0x53
 6875 0129 EB040000 		.long	.LVL85-.Ltext0
 6876 012d 07050000 		.long	.LVL86-.Ltext0
 6877 0131 0300     		.value	0x3
GAS LISTING /tmp/ccmTSJ1m.s 			page 141


 6878 0133 73       		.byte	0x73
 6879 0134 7F       		.sleb128 -1
 6880 0135 9F       		.byte	0x9f
 6881 0136 07050000 		.long	.LVL86-.Ltext0
 6882 013a 39050000 		.long	.LVL91-.Ltext0
 6883 013e 0100     		.value	0x1
 6884 0140 53       		.byte	0x53
 6885 0141 00000000 		.long	0
 6886 0145 00000000 		.long	0
 6887              	.LLST8:
 6888 0149 C3040000 		.long	.LVL81-.Ltext0
 6889 014d 3B050000 		.long	.LVL93-.Ltext0
 6890 0151 0100     		.value	0x1
 6891 0153 57       		.byte	0x57
 6892 0154 00000000 		.long	0
 6893 0158 00000000 		.long	0
 6894              	.LLST9:
 6895 015c DA040000 		.long	.LVL84-.Ltext0
 6896 0160 3A050000 		.long	.LVL92-.Ltext0
 6897 0164 0100     		.value	0x1
 6898 0166 56       		.byte	0x56
 6899 0167 00000000 		.long	0
 6900 016b 00000000 		.long	0
 6901              	.LLST10:
 6902 016f 5C050000 		.long	.LVL96-.Ltext0
 6903 0173 6A050000 		.long	.LVL97-.Ltext0
 6904 0177 0200     		.value	0x2
 6905 0179 73       		.byte	0x73
 6906 017a 24       		.sleb128 36
 6907 017b 00000000 		.long	0
 6908 017f 00000000 		.long	0
 6909              	.LLST11:
 6910 0183 4A050000 		.long	.LVL95-.Ltext0
 6911 0187 6A050000 		.long	.LVL97-.Ltext0
 6912 018b 0100     		.value	0x1
 6913 018d 53       		.byte	0x53
 6914 018e 00000000 		.long	0
 6915 0192 00000000 		.long	0
 6916              	.LLST12:
 6917 0196 B2050000 		.long	.LVL99-.Ltext0
 6918 019a B6050000 		.long	.LVL100-1-.Ltext0
 6919 019e 0100     		.value	0x1
 6920 01a0 50       		.byte	0x50
 6921 01a1 B6050000 		.long	.LVL100-1-.Ltext0
 6922 01a5 58060000 		.long	.LVL114-.Ltext0
 6923 01a9 0100     		.value	0x1
 6924 01ab 53       		.byte	0x53
 6925 01ac 00000000 		.long	0
 6926 01b0 00000000 		.long	0
 6927              	.LLST13:
 6928 01b4 B2050000 		.long	.LVL99-.Ltext0
 6929 01b8 C3050000 		.long	.LVL101-.Ltext0
 6930 01bc 0200     		.value	0x2
 6931 01be 30       		.byte	0x30
 6932 01bf 9F       		.byte	0x9f
 6933 01c0 C3050000 		.long	.LVL101-.Ltext0
 6934 01c4 34060000 		.long	.LVL110-.Ltext0
GAS LISTING /tmp/ccmTSJ1m.s 			page 142


 6935 01c8 0100     		.value	0x1
 6936 01ca 56       		.byte	0x56
 6937 01cb 00000000 		.long	0
 6938 01cf 00000000 		.long	0
 6939              	.LLST14:
 6940 01d3 60060000 		.long	.LVL115-.Ltext0
 6941 01d7 8A060000 		.long	.LVL119-.Ltext0
 6942 01db 0200     		.value	0x2
 6943 01dd 30       		.byte	0x30
 6944 01de 9F       		.byte	0x9f
 6945 01df 8A060000 		.long	.LVL119-.Ltext0
 6946 01e3 9B060000 		.long	.LVL120-.Ltext0
 6947 01e7 0100     		.value	0x1
 6948 01e9 53       		.byte	0x53
 6949 01ea 9B060000 		.long	.LVL120-.Ltext0
 6950 01ee BF060000 		.long	.LVL122-.Ltext0
 6951 01f2 0300     		.value	0x3
 6952 01f4 73       		.byte	0x73
 6953 01f5 7F       		.sleb128 -1
 6954 01f6 9F       		.byte	0x9f
 6955 01f7 BF060000 		.long	.LVL122-.Ltext0
 6956 01fb F1060000 		.long	.LVL127-.Ltext0
 6957 01ff 0100     		.value	0x1
 6958 0201 53       		.byte	0x53
 6959 0202 00000000 		.long	0
 6960 0206 00000000 		.long	0
 6961              	.LLST15:
 6962 020a 73060000 		.long	.LVL116-.Ltext0
 6963 020e F3060000 		.long	.LVL129-.Ltext0
 6964 0212 0100     		.value	0x1
 6965 0214 57       		.byte	0x57
 6966 0215 00000000 		.long	0
 6967 0219 00000000 		.long	0
 6968              	.LLST16:
 6969 021d 8A060000 		.long	.LVL119-.Ltext0
 6970 0221 F2060000 		.long	.LVL128-.Ltext0
 6971 0225 0100     		.value	0x1
 6972 0227 56       		.byte	0x56
 6973 0228 00000000 		.long	0
 6974 022c 00000000 		.long	0
 6975              	.LLST17:
 6976 0230 23080000 		.long	.LVL135-.Ltext0
 6977 0234 34080000 		.long	.LVL137-.Ltext0
 6978 0238 0200     		.value	0x2
 6979 023a 30       		.byte	0x30
 6980 023b 9F       		.byte	0x9f
 6981 023c 34080000 		.long	.LVL137-.Ltext0
 6982 0240 43080000 		.long	.LVL138-.Ltext0
 6983 0244 0100     		.value	0x1
 6984 0246 53       		.byte	0x53
 6985 0247 43080000 		.long	.LVL138-.Ltext0
 6986 024b 4F080000 		.long	.LVL139-.Ltext0
 6987 024f 0300     		.value	0x3
 6988 0251 73       		.byte	0x73
 6989 0252 7F       		.sleb128 -1
 6990 0253 9F       		.byte	0x9f
 6991 0254 4F080000 		.long	.LVL139-.Ltext0
GAS LISTING /tmp/ccmTSJ1m.s 			page 143


 6992 0258 B8080000 		.long	.LVL149-.Ltext0
 6993 025c 0100     		.value	0x1
 6994 025e 53       		.byte	0x53
 6995 025f 00000000 		.long	0
 6996 0263 00000000 		.long	0
 6997              	.LLST18:
 6998 0267 020B0000 		.long	.LVL172-.Ltext0
 6999 026b 130B0000 		.long	.LVL174-.Ltext0
 7000 026f 0200     		.value	0x2
 7001 0271 30       		.byte	0x30
 7002 0272 9F       		.byte	0x9f
 7003 0273 130B0000 		.long	.LVL174-.Ltext0
 7004 0277 750B0000 		.long	.LVL179-.Ltext0
 7005 027b 0100     		.value	0x1
 7006 027d 53       		.byte	0x53
 7007 027e 750B0000 		.long	.LVL179-.Ltext0
 7008 0282 BD0B0000 		.long	.LVL183-.Ltext0
 7009 0286 0300     		.value	0x3
 7010 0288 73       		.byte	0x73
 7011 0289 7F       		.sleb128 -1
 7012 028a 9F       		.byte	0x9f
 7013 028b BD0B0000 		.long	.LVL183-.Ltext0
 7014 028f D90B0000 		.long	.LVL185-.Ltext0
 7015 0293 0100     		.value	0x1
 7016 0295 53       		.byte	0x53
 7017 0296 00000000 		.long	0
 7018 029a 00000000 		.long	0
 7019              	.LLST19:
 7020 029e 000C0000 		.long	.LVL189-.Ltext0
 7021 02a2 170C0000 		.long	.LVL191-.Ltext0
 7022 02a6 0200     		.value	0x2
 7023 02a8 30       		.byte	0x30
 7024 02a9 9F       		.byte	0x9f
 7025 02aa 170C0000 		.long	.LVL191-.Ltext0
 7026 02ae 940C0000 		.long	.LVL198-.Ltext0
 7027 02b2 0100     		.value	0x1
 7028 02b4 53       		.byte	0x53
 7029 02b5 00000000 		.long	0
 7030 02b9 00000000 		.long	0
 7031              	.LLST20:
 7032 02bd C00C0000 		.long	.LVL202-.Ltext0
 7033 02c1 D70C0000 		.long	.LVL204-.Ltext0
 7034 02c5 0200     		.value	0x2
 7035 02c7 30       		.byte	0x30
 7036 02c8 9F       		.byte	0x9f
 7037 02c9 D70C0000 		.long	.LVL204-.Ltext0
 7038 02cd E20C0000 		.long	.LVL205-.Ltext0
 7039 02d1 0100     		.value	0x1
 7040 02d3 53       		.byte	0x53
 7041 02d4 E20C0000 		.long	.LVL205-.Ltext0
 7042 02d8 3B0D0000 		.long	.LVL213-.Ltext0
 7043 02dc 0300     		.value	0x3
 7044 02de 73       		.byte	0x73
 7045 02df 7F       		.sleb128 -1
 7046 02e0 9F       		.byte	0x9f
 7047 02e1 3B0D0000 		.long	.LVL213-.Ltext0
 7048 02e5 530D0000 		.long	.LVL215-.Ltext0
GAS LISTING /tmp/ccmTSJ1m.s 			page 144


 7049 02e9 0100     		.value	0x1
 7050 02eb 53       		.byte	0x53
 7051 02ec 00000000 		.long	0
 7052 02f0 00000000 		.long	0
 7053              	.LLST21:
 7054 02f4 800D0000 		.long	.LVL219-.Ltext0
 7055 02f8 970D0000 		.long	.LVL221-.Ltext0
 7056 02fc 0200     		.value	0x2
 7057 02fe 30       		.byte	0x30
 7058 02ff 9F       		.byte	0x9f
 7059 0300 970D0000 		.long	.LVL221-.Ltext0
 7060 0304 A20D0000 		.long	.LVL222-.Ltext0
 7061 0308 0100     		.value	0x1
 7062 030a 53       		.byte	0x53
 7063 030b A20D0000 		.long	.LVL222-.Ltext0
 7064 030f DF0D0000 		.long	.LVL230-.Ltext0
 7065 0313 0300     		.value	0x3
 7066 0315 73       		.byte	0x73
 7067 0316 7F       		.sleb128 -1
 7068 0317 9F       		.byte	0x9f
 7069 0318 DF0D0000 		.long	.LVL230-.Ltext0
 7070 031c F70D0000 		.long	.LVL232-.Ltext0
 7071 0320 0100     		.value	0x1
 7072 0322 53       		.byte	0x53
 7073 0323 00000000 		.long	0
 7074 0327 00000000 		.long	0
 7075              		.section	.debug_aranges,"",@progbits
 7076 0000 1C000000 		.long	0x1c
 7077 0004 0200     		.value	0x2
 7078 0006 00000000 		.long	.Ldebug_info0
 7079 000a 04       		.byte	0x4
 7080 000b 00       		.byte	0
 7081 000c 0000     		.value	0
 7082 000e 0000     		.value	0
 7083 0010 00000000 		.long	.Ltext0
 7084 0014 330E0000 		.long	.Letext0-.Ltext0
 7085 0018 00000000 		.long	0
 7086 001c 00000000 		.long	0
 7087              		.section	.debug_line,"",@progbits
 7088              	.Ldebug_line0:
 7089 0000 82040000 		.section	.debug_str,"MS",@progbits,1
 7089      02003A01 
 7089      00000101 
 7089      FB0E0D00 
 7089      01010101 
 7090              	.LASF75:
 7091 0000 7466756E 		.string	"tfunc_t"
 7091      635F7400 
 7092              	.LASF38:
 7093 0008 705F6D73 		.string	"p_msg"
 7093      6700
 7094              	.LASF69:
 7095 000e 6D5F6E65 		.string	"m_next"
 7095      787400
 7096              	.LASF4:
 7097 0015 73697A65 		.string	"size_t"
 7097      5F7400
GAS LISTING /tmp/ccmTSJ1m.s 			page 145


 7098              	.LASF101:
 7099 001c 7072696F 		.string	"prio"
 7099      00
 7100              	.LASF70:
 7101 0021 7264796D 		.string	"rdymsg"
 7101      736700
 7102              	.LASF155:
 7103 0028 63684951 		.string	"chIQInit"
 7103      496E6974 
 7103      00
 7104              	.LASF135:
 7105 0031 74657374 		.string	"test_print"
 7105      5F707269 
 7105      6E7400
 7106              	.LASF77:
 7107 003c 715F7761 		.string	"q_waiting"
 7107      6974696E 
 7107      6700
 7108              	.LASF11:
 7109 0046 6C6F6E67 		.string	"long long unsigned int"
 7109      206C6F6E 
 7109      6720756E 
 7109      7369676E 
 7109      65642069 
 7110              	.LASF71:
 7111 005d 65786974 		.string	"exitcode"
 7111      636F6465 
 7111      00
 7112              	.LASF105:
 7113 0066 626D6B37 		.string	"bmk7_execute"
 7113      5F657865 
 7113      63757465 
 7113      00
 7114              	.LASF162:
 7115 0073 63684D74 		.string	"chMtxUnlock"
 7115      78556E6C 
 7115      6F636B00 
 7116              	.LASF26:
 7117 007f 705F7072 		.string	"p_prio"
 7117      696F00
 7118              	.LASF6:
 7119 0086 6C6F6E67 		.string	"long long int"
 7119      206C6F6E 
 7119      6720696E 
 7119      7400
 7120              	.LASF2:
 7121 0094 7369676E 		.string	"signed char"
 7121      65642063 
 7121      68617200 
 7122              	.LASF42:
 7123 00a0 705F6D70 		.string	"p_mpool"
 7123      6F6F6C00 
 7124              	.LASF12:
 7125 00a8 626F6F6C 		.string	"bool_t"
 7125      5F7400
 7126              	.LASF67:
 7127 00af 6D5F7175 		.string	"m_queue"
GAS LISTING /tmp/ccmTSJ1m.s 			page 146


 7127      65756500 
 7128              	.LASF165:
 7129 00b7 2F686F6D 		.string	"/home/tony/ChibiOS-RT/testhal/Posix/EXT"
 7129      652F746F 
 7129      6E792F43 
 7129      68696269 
 7129      4F532D52 
 7130              	.LASF137:
 7131 00df 74657374 		.string	"test_println"
 7131      5F707269 
 7131      6E746C6E 
 7131      00
 7132              	.LASF96:
 7133 00ec 6D73675F 		.string	"msg_loop_test"
 7133      6C6F6F70 
 7133      5F746573 
 7133      7400
 7134              	.LASF17:
 7135 00fa 74736C69 		.string	"tslices_t"
 7135      6365735F 
 7135      7400
 7136              	.LASF1:
 7137 0104 6C6F6E67 		.string	"long int"
 7137      20696E74 
 7137      00
 7138              	.LASF142:
 7139 010d 63684D73 		.string	"chMsgSend"
 7139      6753656E 
 7139      6400
 7140              	.LASF15:
 7141 0117 74737461 		.string	"tstate_t"
 7141      74655F74 
 7141      00
 7142              	.LASF97:
 7143 0120 626D6B31 		.string	"bmk1_execute"
 7143      5F657865 
 7143      63757465 
 7143      00
 7144              	.LASF160:
 7145 012d 63685365 		.string	"chSemSignal"
 7145      6D536967 
 7145      6E616C00 
 7146              	.LASF79:
 7147 0139 715F6275 		.string	"q_buffer"
 7147      66666572 
 7147      00
 7148              	.LASF81:
 7149 0142 715F7772 		.string	"q_wrptr"
 7149      70747200 
 7150              	.LASF28:
 7151 014a 705F6E65 		.string	"p_newer"
 7151      77657200 
 7152              	.LASF64:
 7153 0152 735F7175 		.string	"s_queue"
 7153      65756500 
 7154              	.LASF109:
 7155 015a 626D6B38 		.string	"bmk8_execute"
GAS LISTING /tmp/ccmTSJ1m.s 			page 147


 7155      5F657865 
 7155      63757465 
 7155      00
 7156              	.LASF102:
 7157 0167 73656C66 		.string	"self"
 7157      00
 7158              	.LASF141:
 7159 016c 74657374 		.string	"test_start_timer"
 7159      5F737461 
 7159      72745F74 
 7159      696D6572 
 7159      00
 7160              	.LASF59:
 7161 017d 725F6E65 		.string	"r_newer"
 7161      77657200 
 7162              	.LASF52:
 7163 0185 76745F70 		.string	"vt_prev"
 7163      72657600 
 7164              	.LASF132:
 7165 018d 74657374 		.string	"testbmk12"
 7165      626D6B31 
 7165      3200
 7166              	.LASF116:
 7167 0197 73656D31 		.string	"sem1"
 7167      00
 7168              	.LASF156:
 7169 019c 63684951 		.string	"chIQPutI"
 7169      50757449 
 7169      00
 7170              	.LASF111:
 7171 01a5 626D6B39 		.string	"bmk9_execute"
 7171      5F657865 
 7171      63757465 
 7171      00
 7172              	.LASF22:
 7173 01b2 636E745F 		.string	"cnt_t"
 7173      7400
 7174              	.LASF0:
 7175 01b8 756E7369 		.string	"unsigned int"
 7175      676E6564 
 7175      20696E74 
 7175      00
 7176              	.LASF113:
 7177 01c5 626D6B31 		.string	"bmk11_execute"
 7177      315F6578 
 7177      65637574 
 7177      6500
 7178              	.LASF51:
 7179 01d3 76745F6E 		.string	"vt_next"
 7179      65787400 
 7180              	.LASF112:
 7181 01db 626D6B31 		.string	"bmk10_execute"
 7181      305F6578 
 7181      65637574 
 7181      6500
 7182              	.LASF37:
 7183 01e9 705F6D73 		.string	"p_msgqueue"
GAS LISTING /tmp/ccmTSJ1m.s 			page 148


 7183      67717565 
 7183      756500
 7184              	.LASF90:
 7185 01f4 74656172 		.string	"teardown"
 7185      646F776E 
 7185      00
 7186              	.LASF120:
 7187 01fd 74657374 		.string	"test_timer_done"
 7187      5F74696D 
 7187      65725F64 
 7187      6F6E6500 
 7188              	.LASF126:
 7189 020d 74657374 		.string	"testbmk6"
 7189      626D6B36 
 7189      00
 7190              	.LASF98:
 7191 0216 626D6B32 		.string	"bmk2_execute"
 7191      5F657865 
 7191      63757465 
 7191      00
 7192              	.LASF88:
 7193 0223 6E616D65 		.string	"name"
 7193      00
 7194              	.LASF65:
 7195 0228 735F636E 		.string	"s_cnt"
 7195      7400
 7196              	.LASF48:
 7197 022e 636F6E74 		.string	"context"
 7197      65787400 
 7198              	.LASF9:
 7199 0236 73686F72 		.string	"short unsigned int"
 7199      7420756E 
 7199      7369676E 
 7199      65642069 
 7199      6E7400
 7200              	.LASF117:
 7201 0249 6D747831 		.string	"mtx1"
 7201      00
 7202              	.LASF149:
 7203 024e 63685365 		.string	"chSemReset"
 7203      6D526573 
 7203      657400
 7204              	.LASF147:
 7205 0259 63685363 		.string	"chSchWakeupS"
 7205      6857616B 
 7205      65757053 
 7205      00
 7206              	.LASF19:
 7207 0266 6D73675F 		.string	"msg_t"
 7207      7400
 7208              	.LASF106:
 7209 026c 74687265 		.string	"thread3"
 7209      61643300 
 7210              	.LASF14:
 7211 0274 746D6F64 		.string	"tmode_t"
 7211      655F7400 
 7212              	.LASF167:
GAS LISTING /tmp/ccmTSJ1m.s 			page 149


 7213 027c 63684D74 		.string	"chMtxInit"
 7213      78496E69 
 7213      7400
 7214              	.LASF114:
 7215 0286 626D6B31 		.string	"bmk12_execute"
 7215      325F6578 
 7215      65637574 
 7215      6500
 7216              	.LASF44:
 7217 0294 54687265 		.string	"ThreadsList"
 7217      6164734C 
 7217      69737400 
 7218              	.LASF121:
 7219 02a0 74657374 		.string	"testbmk1"
 7219      626D6B31 
 7219      00
 7220              	.LASF20:
 7221 02a9 6576656E 		.string	"eventmask_t"
 7221      746D6173 
 7221      6B5F7400 
 7222              	.LASF86:
 7223 02b5 496E7075 		.string	"InputQueue"
 7223      74517565 
 7223      756500
 7224              	.LASF66:
 7225 02c0 4D757465 		.string	"Mutex"
 7225      7800
 7226              	.LASF125:
 7227 02c6 74657374 		.string	"testbmk5"
 7227      626D6B35 
 7227      00
 7228              	.LASF76:
 7229 02cf 47656E65 		.string	"GenericQueue"
 7229      72696351 
 7229      75657565 
 7229      00
 7230              	.LASF127:
 7231 02dc 74657374 		.string	"testbmk7"
 7231      626D6B37 
 7231      00
 7232              	.LASF128:
 7233 02e5 74657374 		.string	"testbmk8"
 7233      626D6B38 
 7233      00
 7234              	.LASF53:
 7235 02ee 76745F74 		.string	"vt_time"
 7235      696D6500 
 7236              	.LASF108:
 7237 02f6 626D6B31 		.string	"bmk11_setup"
 7237      315F7365 
 7237      74757000 
 7238              	.LASF45:
 7239 0302 73697A65 		.string	"sizetype"
 7239      74797065 
 7239      00
 7240              	.LASF122:
 7241 030b 74657374 		.string	"testbmk2"
GAS LISTING /tmp/ccmTSJ1m.s 			page 150


 7241      626D6B32 
 7241      00
 7242              	.LASF123:
 7243 0314 74657374 		.string	"testbmk3"
 7243      626D6B33 
 7243      00
 7244              	.LASF124:
 7245 031d 74657374 		.string	"testbmk4"
 7245      626D6B34 
 7245      00
 7246              	.LASF78:
 7247 0326 715F636F 		.string	"q_counter"
 7247      756E7465 
 7247      7200
 7248              	.LASF54:
 7249 0330 76745F66 		.string	"vt_func"
 7249      756E6300 
 7250              	.LASF99:
 7251 0338 626D6B33 		.string	"bmk3_execute"
 7251      5F657865 
 7251      63757465 
 7251      00
 7252              	.LASF129:
 7253 0345 74657374 		.string	"testbmk9"
 7253      626D6B39 
 7253      00
 7254              	.LASF115:
 7255 034e 626D6B31 		.string	"bmk12_setup"
 7255      325F7365 
 7255      74757000 
 7256              	.LASF92:
 7257 035a 70617261 		.string	"param"
 7257      6D00
 7258              	.LASF161:
 7259 0360 63684D74 		.string	"chMtxLock"
 7259      784C6F63 
 7259      6B00
 7260              	.LASF145:
 7261 036a 74657374 		.string	"test_wait_threads"
 7261      5F776169 
 7261      745F7468 
 7261      72656164 
 7261      7300
 7262              	.LASF29:
 7263 037c 705F6F6C 		.string	"p_older"
 7263      64657200 
 7264              	.LASF95:
 7265 0384 74687265 		.string	"thread1"
 7265      61643100 
 7266              	.LASF94:
 7267 038c 74687265 		.string	"thread2"
 7267      61643200 
 7268              	.LASF58:
 7269 0394 725F6374 		.string	"r_ctx"
 7269      7800
 7270              	.LASF166:
 7271 039a 74687265 		.string	"thread4"
GAS LISTING /tmp/ccmTSJ1m.s 			page 151


 7271      61643400 
 7272              	.LASF43:
 7273 03a2 54687265 		.string	"ThreadsQueue"
 7273      61647351 
 7273      75657565 
 7273      00
 7274              	.LASF110:
 7275 03af 74687265 		.string	"thread8"
 7275      61643800 
 7276              	.LASF89:
 7277 03b7 73657475 		.string	"setup"
 7277      7000
 7278              	.LASF61:
 7279 03bd 725F6375 		.string	"r_current"
 7279      7272656E 
 7279      7400
 7280              	.LASF60:
 7281 03c7 725F6F6C 		.string	"r_older"
 7281      64657200 
 7282              	.LASF164:
 7283 03cf 2E2E2F2E 		.string	"../../../test/testbmk.c"
 7283      2E2F2E2E 
 7283      2F746573 
 7283      742F7465 
 7283      7374626D 
 7284              	.LASF16:
 7285 03e7 74726566 		.string	"trefs_t"
 7285      735F7400 
 7286              	.LASF150:
 7287 03ef 74657374 		.string	"test_terminate_threads"
 7287      5F746572 
 7287      6D696E61 
 7287      74655F74 
 7287      68726561 
 7288              	.LASF85:
 7289 0406 716E6F74 		.string	"qnotify_t"
 7289      6966795F 
 7289      7400
 7290              	.LASF25:
 7291 0410 705F7072 		.string	"p_prev"
 7291      657600
 7292              	.LASF91:
 7293 0417 65786563 		.string	"execute"
 7293      75746500 
 7294              	.LASF18:
 7295 041f 74707269 		.string	"tprio_t"
 7295      6F5F7400 
 7296              	.LASF82:
 7297 0427 715F7264 		.string	"q_rdptr"
 7297      70747200 
 7298              	.LASF13:
 7299 042f 5F426F6F 		.string	"_Bool"
 7299      6C00
 7300              	.LASF5:
 7301 0435 696E7433 		.string	"int32_t"
 7301      325F7400 
 7302              	.LASF8:
GAS LISTING /tmp/ccmTSJ1m.s 			page 152


 7303 043d 756E7369 		.string	"unsigned char"
 7303      676E6564 
 7303      20636861 
 7303      7200
 7304              	.LASF163:
 7305 044b 474E5520 		.string	"GNU C 4.8.2 -m32 -mtune=generic -march=i686 -ggdb -O2 -fomit-frame-pointer -fstack-protec
 7305      4320342E 
 7305      382E3220 
 7305      2D6D3332 
 7305      202D6D74 
 7306              	.LASF140:
 7307 04a8 74657374 		.string	"test_wait_tick"
 7307      5F776169 
 7307      745F7469 
 7307      636B00
 7308              	.LASF40:
 7309 04b7 705F6D74 		.string	"p_mtxlist"
 7309      786C6973 
 7309      7400
 7310              	.LASF3:
 7311 04c1 73686F72 		.string	"short int"
 7311      7420696E 
 7311      7400
 7312              	.LASF31:
 7313 04cb 705F7374 		.string	"p_state"
 7313      61746500 
 7314              	.LASF34:
 7315 04d3 705F7072 		.string	"p_preempt"
 7315      65656D70 
 7315      7400
 7316              	.LASF119:
 7317 04dd 74687265 		.string	"threads"
 7317      61647300 
 7318              	.LASF57:
 7319 04e5 725F7072 		.string	"r_prio"
 7319      696F00
 7320              	.LASF73:
 7321 04ec 65776D61 		.string	"ewmask"
 7321      736B00
 7322              	.LASF24:
 7323 04f3 705F6E65 		.string	"p_next"
 7323      787400
 7324              	.LASF32:
 7325 04fa 705F666C 		.string	"p_flags"
 7325      61677300 
 7326              	.LASF134:
 7327 0502 70617474 		.string	"patternbmk"
 7327      65726E62 
 7327      6D6B00
 7328              	.LASF23:
 7329 050d 54687265 		.string	"Thread"
 7329      616400
 7330              	.LASF130:
 7331 0514 74657374 		.string	"testbmk10"
 7331      626D6B31 
 7331      3000
 7332              	.LASF131:
GAS LISTING /tmp/ccmTSJ1m.s 			page 153


 7333 051e 74657374 		.string	"testbmk11"
 7333      626D6B31 
 7333      3100
 7334              	.LASF87:
 7335 0528 74657374 		.string	"testcase"
 7335      63617365 
 7335      00
 7336              	.LASF133:
 7337 0531 74657374 		.string	"testbmk13"
 7337      626D6B31 
 7337      3300
 7338              	.LASF146:
 7339 053b 63685363 		.string	"chSchGoSleepS"
 7339      68476F53 
 7339      6C656570 
 7339      5300
 7340              	.LASF39:
 7341 0549 705F6570 		.string	"p_epending"
 7341      656E6469 
 7341      6E6700
 7342              	.LASF153:
 7343 0554 63685468 		.string	"chThdSleep"
 7343      64536C65 
 7343      657000
 7344              	.LASF10:
 7345 055f 75696E74 		.string	"uint32_t"
 7345      33325F74 
 7345      00
 7346              	.LASF56:
 7347 0568 725F7175 		.string	"r_queue"
 7347      65756500 
 7348              	.LASF50:
 7349 0570 56697274 		.string	"VirtualTimer"
 7349      75616C54 
 7349      696D6572 
 7349      00
 7350              	.LASF74:
 7351 057d 63686172 		.string	"char"
 7351      00
 7352              	.LASF93:
 7353 0582 626D6B31 		.string	"bmk13_execute"
 7353      335F6578 
 7353      65637574 
 7353      6500
 7354              	.LASF21:
 7355 0590 73797374 		.string	"systime_t"
 7355      696D655F 
 7355      7400
 7356              	.LASF41:
 7357 059a 705F7265 		.string	"p_realprio"
 7357      616C7072 
 7357      696F00
 7358              	.LASF49:
 7359 05a5 76746675 		.string	"vtfunc_t"
 7359      6E635F74 
 7359      00
 7360              	.LASF151:
GAS LISTING /tmp/ccmTSJ1m.s 			page 154


 7361 05ae 63685365 		.string	"chSemWait"
 7361      6D576169 
 7361      7400
 7362              	.LASF104:
 7363 05b8 626D6B35 		.string	"bmk5_execute"
 7363      5F657865 
 7363      63757465 
 7363      00
 7364              	.LASF35:
 7365 05c5 705F7469 		.string	"p_time"
 7365      6D6500
 7366              	.LASF158:
 7367 05cc 63685654 		.string	"chVTSetI"
 7367      53657449 
 7367      00
 7368              	.LASF47:
 7369 05d5 696E7463 		.string	"intctx"
 7369      747800
 7370              	.LASF148:
 7371 05dc 63685468 		.string	"chThdWait"
 7371      64576169 
 7371      7400
 7372              	.LASF55:
 7373 05e6 76745F70 		.string	"vt_par"
 7373      617200
 7374              	.LASF63:
 7375 05ed 53656D61 		.string	"Semaphore"
 7375      70686F72 
 7375      6500
 7376              	.LASF80:
 7377 05f7 715F746F 		.string	"q_top"
 7377      7000
 7378              	.LASF136:
 7379 05fd 74657374 		.string	"test_printn"
 7379      5F707269 
 7379      6E746E00 
 7380              	.LASF33:
 7381 0609 705F7265 		.string	"p_refs"
 7381      667300
 7382              	.LASF159:
 7383 0610 63685654 		.string	"chVTResetI"
 7383      52657365 
 7383      744900
 7384              	.LASF62:
 7385 061b 52656164 		.string	"ReadyList"
 7385      794C6973 
 7385      7400
 7386              	.LASF139:
 7387 0625 63684D73 		.string	"chMsgWait"
 7387      67576169 
 7387      7400
 7388              	.LASF83:
 7389 062f 715F6E6F 		.string	"q_notify"
 7389      74696679 
 7389      00
 7390              	.LASF143:
 7391 0638 63685468 		.string	"chThdCreateStatic"
GAS LISTING /tmp/ccmTSJ1m.s 			page 155


 7391      64437265 
 7391      61746553 
 7391      74617469 
 7391      6300
 7392              	.LASF118:
 7393 064a 726C6973 		.string	"rlist"
 7393      7400
 7394              	.LASF7:
 7395 0650 75696E74 		.string	"uint8_t"
 7395      385F7400 
 7396              	.LASF154:
 7397 0658 63685468 		.string	"chThdYield"
 7397      64596965 
 7397      6C6400
 7398              	.LASF157:
 7399 0663 63684951 		.string	"chIQGetTimeout"
 7399      47657454 
 7399      696D656F 
 7399      757400
 7400              	.LASF72:
 7401 0672 77746F62 		.string	"wtobjp"
 7401      6A7000
 7402              	.LASF30:
 7403 0679 705F6E61 		.string	"p_name"
 7403      6D6500
 7404              	.LASF107:
 7405 0680 626D6B37 		.string	"bmk7_setup"
 7405      5F736574 
 7405      757000
 7406              	.LASF103:
 7407 068b 626D6B34 		.string	"bmk4_execute"
 7407      5F657865 
 7407      63757465 
 7407      00
 7408              	.LASF144:
 7409 0698 43686B49 		.string	"ChkIntSources"
 7409      6E74536F 
 7409      75726365 
 7409      7300
 7410              	.LASF46:
 7411 06a6 72656778 		.string	"regx86"
 7411      383600
 7412              	.LASF100:
 7413 06ad 626D6B36 		.string	"bmk6_execute"
 7413      5F657865 
 7413      63757465 
 7413      00
 7414              	.LASF84:
 7415 06ba 715F6C69 		.string	"q_link"
 7415      6E6B00
 7416              	.LASF68:
 7417 06c1 6D5F6F77 		.string	"m_owner"
 7417      6E657200 
 7418              	.LASF27:
 7419 06c9 705F6374 		.string	"p_ctx"
 7419      7800
 7420              	.LASF36:
GAS LISTING /tmp/ccmTSJ1m.s 			page 156


 7421 06cf 705F7761 		.string	"p_waiting"
 7421      6974696E 
 7421      6700
 7422              	.LASF152:
 7423 06d9 63685365 		.string	"chSemInit"
 7423      6D496E69 
 7423      7400
 7424              	.LASF138:
 7425 06e3 63684D73 		.string	"chMsgRelease"
 7425      6752656C 
 7425      65617365 
 7425      00
 7426              		.ident	"GCC: (Ubuntu 4.8.2-19ubuntu1) 4.8.2"
 7427              		.section	.note.GNU-stack,"",@progbits
GAS LISTING /tmp/ccmTSJ1m.s 			page 157


DEFINED SYMBOLS
                            *ABS*:0000000000000000 testbmk.c
     /tmp/ccmTSJ1m.s:59     .text:0000000000000000 thread2
     /tmp/ccmTSJ1m.s:73     .text:0000000000000010 tmo
     /tmp/ccmTSJ1m.s:108    .text:0000000000000020 bmk13_execute
     /tmp/ccmTSJ1m.s:244    .text:0000000000000190 thread1
     /tmp/ccmTSJ1m.s:285    .text:00000000000001c0 msg_loop_test
     /tmp/ccmTSJ1m.s:358    .text:0000000000000220 bmk1_execute
     /tmp/ccmTSJ1m.s:424    .text:00000000000002b0 bmk2_execute
     /tmp/ccmTSJ1m.s:490    .text:0000000000000340 bmk3_execute
     /tmp/ccmTSJ1m.s:621    .text:00000000000004b0 bmk6_execute
     /tmp/ccmTSJ1m.s:712    .text:0000000000000540 thread4
     /tmp/ccmTSJ1m.s:762    .text:0000000000000570 bmk4_execute
     /tmp/ccmTSJ1m.s:894    .text:0000000000000660 bmk5_execute
     /tmp/ccmTSJ1m.s:991    .text:0000000000000700 bmk7_execute
     /tmp/ccmTSJ1m.s:1148   .text:00000000000008c0 thread3
     /tmp/ccmTSJ1m.s:2088   .bss:0000000000000074 sem1
     /tmp/ccmTSJ1m.s:1184   .text:00000000000008f0 bmk7_setup
     /tmp/ccmTSJ1m.s:1204   .text:0000000000000910 bmk11_setup
     /tmp/ccmTSJ1m.s:1224   .text:0000000000000930 bmk8_execute
     /tmp/ccmTSJ1m.s:1350   .text:0000000000000a90 thread8
     /tmp/ccmTSJ1m.s:1403   .text:0000000000000ad0 bmk9_execute
     /tmp/ccmTSJ1m.s:1831   .bss:0000000000000028 ib.2138
     /tmp/ccmTSJ1m.s:1835   .bss:0000000000000040 iq.2139
     /tmp/ccmTSJ1m.s:1527   .text:0000000000000c00 bmk10_execute
     /tmp/ccmTSJ1m.s:1831   .bss:0000000000000014 vt1.2149
     /tmp/ccmTSJ1m.s:1829   .bss:0000000000000000 vt2.2150
     /tmp/ccmTSJ1m.s:1625   .text:0000000000000cc0 bmk11_execute
     /tmp/ccmTSJ1m.s:1722   .text:0000000000000d80 bmk12_execute
     /tmp/ccmTSJ1m.s:2086   .bss:0000000000000064 mtx1
     /tmp/ccmTSJ1m.s:1811   .text:0000000000000e20 bmk12_setup
     /tmp/ccmTSJ1m.s:1841   .rodata:0000000000000000 patternbmk
     /tmp/ccmTSJ1m.s:2076   .rodata:00000000000000f8 testbmk1
     /tmp/ccmTSJ1m.s:2059   .rodata:00000000000000e8 testbmk2
     /tmp/ccmTSJ1m.s:2042   .rodata:00000000000000d8 testbmk3
     /tmp/ccmTSJ1m.s:2025   .rodata:00000000000000c8 testbmk4
     /tmp/ccmTSJ1m.s:2008   .rodata:00000000000000b8 testbmk5
     /tmp/ccmTSJ1m.s:1990   .rodata:00000000000000a8 testbmk6
     /tmp/ccmTSJ1m.s:1972   .rodata:0000000000000098 testbmk7
     /tmp/ccmTSJ1m.s:1954   .rodata:0000000000000088 testbmk8
     /tmp/ccmTSJ1m.s:1936   .rodata:0000000000000078 testbmk9
     /tmp/ccmTSJ1m.s:1918   .rodata:0000000000000068 testbmk10
     /tmp/ccmTSJ1m.s:1900   .rodata:0000000000000058 testbmk11
     /tmp/ccmTSJ1m.s:1882   .rodata:0000000000000048 testbmk12
     /tmp/ccmTSJ1m.s:1864   .rodata:0000000000000038 testbmk13

UNDEFINED SYMBOLS
test_print
test_printn
test_println
chMsgWait
chMsgRelease
test_wait_tick
test_start_timer
chMsgSend
ChkIntSources
test_timer_done
GAS LISTING /tmp/ccmTSJ1m.s 			page 158


rlist
wa
chThdCreateStatic
threads
test_wait_threads
chSchGoSleepS
chSchWakeupS
chThdWait
chSemReset
test_terminate_threads
chSemWait
chSemInit
chThdSleep
chThdYield
chIQInit
chIQPutI
chIQGetTimeout
chVTSetI
chVTResetI
chSemSignal
chMtxLock
chMtxUnlock
chMtxInit
