GAS LISTING /tmp/cczVpjRc.s 			page 1


   1              		.file	"testdyn.c"
   2              	# GNU C (Ubuntu 4.8.2-19ubuntu1) version 4.8.2 (x86_64-linux-gnu)
   3              	#	compiled by GNU C version 4.8.2, GMP version 5.1.3, MPFR version 3.1.2-p3, MPC version 1.0.1
   4              	# GGC heuristics: --param ggc-min-expand=97 --param ggc-min-heapsize=126309
   5              	# options passed:  -I . -I ../../../os/ports/GCC/SIMIA32
   6              	# -I ../../../os/kernel/include -I ../../../test -I ../../../os/hal/include
   7              	# -I ../../../os/hal/platforms/Posix -I ../../../boards/simulator
   8              	# -I ../../../os/various -imultilib 32 -imultiarch i386-linux-gnu
   9              	# -MD ../../../test/testdyn.d -MF .dep/testdyn.o.d -MP
  10              	# -MQ ../../../test/testdyn.o -D SIMULATOR -D SHELL_USE_IPRINTF=FALSE
  11              	# ../../../test/testdyn.c -m32 -mtune=generic -march=i686
  12              	# -auxbase-strip ../../../test/testdyn.o -ggdb -O2 -Wall -Wextra
  13              	# -Wstrict-prototypes -fomit-frame-pointer -fverbose-asm -fstack-protector
  14              	# -Wformat -Wformat-security
  15              	# options enabled:  -faggressive-loop-optimizations
  16              	# -fasynchronous-unwind-tables -fauto-inc-dec -fbranch-count-reg
  17              	# -fcaller-saves -fcombine-stack-adjustments -fcommon -fcompare-elim
  18              	# -fcprop-registers -fcrossjumping -fcse-follow-jumps -fdefer-pop
  19              	# -fdelete-null-pointer-checks -fdevirtualize -fdwarf2-cfi-asm
  20              	# -fearly-inlining -feliminate-unused-debug-types -fexpensive-optimizations
  21              	# -fforward-propagate -ffunction-cse -fgcse -fgcse-lm -fgnu-runtime
  22              	# -fguess-branch-probability -fhoist-adjacent-loads -fident -fif-conversion
  23              	# -fif-conversion2 -findirect-inlining -finline -finline-atomics
  24              	# -finline-functions-called-once -finline-small-functions -fipa-cp
  25              	# -fipa-profile -fipa-pure-const -fipa-reference -fipa-sra
  26              	# -fira-hoist-pressure -fira-share-save-slots -fira-share-spill-slots
  27              	# -fivopts -fkeep-static-consts -fleading-underscore -fmath-errno
  28              	# -fmerge-constants -fmerge-debug-strings -fmove-loop-invariants
  29              	# -fomit-frame-pointer -foptimize-register-move -foptimize-sibling-calls
  30              	# -foptimize-strlen -fpartial-inlining -fpcc-struct-return -fpeephole
  31              	# -fpeephole2 -fprefetch-loop-arrays -free -fregmove -freorder-blocks
  32              	# -freorder-functions -frerun-cse-after-loop
  33              	# -fsched-critical-path-heuristic -fsched-dep-count-heuristic
  34              	# -fsched-group-heuristic -fsched-interblock -fsched-last-insn-heuristic
  35              	# -fsched-rank-heuristic -fsched-spec -fsched-spec-insn-heuristic
  36              	# -fsched-stalled-insns-dep -fschedule-insns2 -fshow-column -fshrink-wrap
  37              	# -fsigned-zeros -fsplit-ivs-in-unroller -fsplit-wide-types
  38              	# -fstack-protector -fstrict-aliasing -fstrict-overflow
  39              	# -fstrict-volatile-bitfields -fsync-libcalls -fthread-jumps
  40              	# -ftoplevel-reorder -ftrapping-math -ftree-bit-ccp -ftree-builtin-call-dce
  41              	# -ftree-ccp -ftree-ch -ftree-coalesce-vars -ftree-copy-prop
  42              	# -ftree-copyrename -ftree-cselim -ftree-dce -ftree-dominator-opts
  43              	# -ftree-dse -ftree-forwprop -ftree-fre -ftree-loop-if-convert
  44              	# -ftree-loop-im -ftree-loop-ivcanon -ftree-loop-optimize
  45              	# -ftree-parallelize-loops= -ftree-phiprop -ftree-pre -ftree-pta
  46              	# -ftree-reassoc -ftree-scev-cprop -ftree-sink -ftree-slp-vectorize
  47              	# -ftree-slsr -ftree-sra -ftree-switch-conversion -ftree-tail-merge
  48              	# -ftree-ter -ftree-vect-loop-version -ftree-vrp -funit-at-a-time
  49              	# -funwind-tables -fvar-tracking -fvar-tracking-assignments -fverbose-asm
  50              	# -fzero-initialized-in-bss -m32 -m80387 -m96bit-long-double
  51              	# -maccumulate-outgoing-args -malign-stringops -mfancy-math-387
  52              	# -mfp-ret-in-387 -mglibc -mieee-fp -mlong-double-80 -mno-red-zone
  53              	# -mno-sse4 -mpush-args -msahf -mtls-direct-seg-refs
  54              	
  55              		.text
  56              	.Ltext0:
  57              		.section	.rodata.str1.1,"aMS",@progbits,1
GAS LISTING /tmp/cczVpjRc.s 			page 2


  58              	.LC0:
  59 0000 4100     		.string	"A"
  60              	.LC1:
  61 0002 4200     		.string	"B"
  62              	.LC2:
  63 0004 4300     		.string	"C"
  64              	.LC3:
  65 0006 414200   		.string	"AB"
  66              		.text
  67              		.p2align 4,,15
  68              		.type	dyn1_execute, @function
  69              	dyn1_execute:
  70              	.LFB9:
  71              		.file 1 "../../../test/testdyn.c"
  72              		.loc 1 83 0
  73              		.cfi_startproc
  74 0000 57       		pushl	%edi	#
  75              		.cfi_def_cfa_offset 8
  76              		.cfi_offset 7, -8
  77 0001 56       		pushl	%esi	#
  78              		.cfi_def_cfa_offset 12
  79              		.cfi_offset 6, -12
  80 0002 53       		pushl	%ebx	#
  81              		.cfi_def_cfa_offset 16
  82              		.cfi_offset 3, -16
  83 0003 83EC30   		subl	$48, %esp	#,
  84              		.cfi_def_cfa_offset 64
  85              		.loc 1 86 0
  86 0006 A1180000 		movl	rlist+24, %eax	# rlist.r_current, rlist.r_current
  86      00
  87              		.loc 1 95 0
  88 000b 8D742428 		leal	40(%esp), %esi	#, tmp111
  89              		.loc 1 86 0
  90 000f 8B5808   		movl	8(%eax), %ebx	# _5->p_prio, prio
  91              	.LVL0:
  92              		.loc 1 88 0
  93 0012 8D44242C 		leal	44(%esp), %eax	#, tmp89
  94 0016 89442404 		movl	%eax, 4(%esp)	# tmp89,
  95 001a C7042420 		movl	$heap1, (%esp)	#,
  95      000000
  96 0021 E8FCFFFF 		call	chHeapStatus	#
  96      FF
  97              	.LVL1:
  98              		.loc 1 90 0
  99 0026 8D43FF   		leal	-1(%ebx), %eax	#, D.2279
 100 0029 C7442410 		movl	$.LC0, 16(%esp)	#,
 100      00000000 
 101 0031 C744240C 		movl	$thread, 12(%esp)	#,
 101      C0010000 
 102 0039 89442408 		movl	%eax, 8(%esp)	# D.2279,
 103 003d C7442404 		movl	$17008, 4(%esp)	#,
 103      70420000 
 104 0045 C7042420 		movl	$heap1, (%esp)	#,
 104      000000
 105 004c E8FCFFFF 		call	chThdCreateFromHeap	#
 105      FF
 106              	.LVL2:
GAS LISTING /tmp/cczVpjRc.s 			page 3


 107              		.loc 1 92 0
 108 0051 C7442410 		movl	$.LC1, 16(%esp)	#,
 108      02000000 
 109 0059 C744240C 		movl	$thread, 12(%esp)	#,
 109      C0010000 
 110 0061 C7442404 		movl	$17008, 4(%esp)	#,
 110      70420000 
 111 0069 C7042420 		movl	$heap1, (%esp)	#,
 111      000000
 112              		.loc 1 90 0
 113 0070 A3000000 		movl	%eax, threads	# D.2278, threads
 113      00
 114              		.loc 1 92 0
 115 0075 8D43FE   		leal	-2(%ebx), %eax	#, D.2279
 116              		.loc 1 97 0
 117 0078 83EB03   		subl	$3, %ebx	#, D.2279
 118              	.LVL3:
 119              		.loc 1 92 0
 120 007b 89442408 		movl	%eax, 8(%esp)	# D.2279,
 121 007f E8FCFFFF 		call	chThdCreateFromHeap	#
 121      FF
 122              	.LVL4:
 123              		.loc 1 95 0
 124 0084 89742404 		movl	%esi, 4(%esp)	# tmp111,
 125 0088 C7042420 		movl	$heap1, (%esp)	#,
 125      000000
 126              		.loc 1 92 0
 127 008f A3040000 		movl	%eax, threads+4	# D.2278, threads
 127      00
 128              		.loc 1 95 0
 129 0094 E8FCFFFF 		call	chHeapStatus	#
 129      FF
 130              	.LVL5:
 131              		.loc 1 96 0
 132 0099 8B442428 		movl	40(%esp), %eax	# n, n
 133 009d C7042420 		movl	$heap1, (%esp)	#,
 133      000000
 134 00a4 89442404 		movl	%eax, 4(%esp)	# n,
 135 00a8 E8FCFFFF 		call	chHeapAlloc	#
 135      FF
 136              	.LVL6:
 137              		.loc 1 97 0
 138 00ad C7442410 		movl	$.LC2, 16(%esp)	#,
 138      04000000 
 139 00b5 C744240C 		movl	$thread, 12(%esp)	#,
 139      C0010000 
 140 00bd 895C2408 		movl	%ebx, 8(%esp)	# D.2279,
 141 00c1 C7442404 		movl	$17008, 4(%esp)	#,
 141      70420000 
 142 00c9 C7042420 		movl	$heap1, (%esp)	#,
 142      000000
 143              		.loc 1 96 0
 144 00d0 89C7     		movl	%eax, %edi	#, p1
 145              	.LVL7:
 146              		.loc 1 97 0
 147 00d2 E8FCFFFF 		call	chThdCreateFromHeap	#
 147      FF
GAS LISTING /tmp/cczVpjRc.s 			page 4


 148              	.LVL8:
 149              		.loc 1 99 0
 150 00d7 893C24   		movl	%edi, (%esp)	# p1,
 151              		.loc 1 97 0
 152 00da A3080000 		movl	%eax, threads+8	# D.2278, threads
 152      00
 153              		.loc 1 99 0
 154 00df E8FCFFFF 		call	chHeapFree	#
 154      FF
 155              	.LVL9:
 156              		.loc 1 101 0
 157 00e4 8B150000 		movl	threads, %edx	# threads,
 157      0000
 158 00ea 31C0     		xorl	%eax, %eax	# iftmp.1
 159 00ec 85D2     		testl	%edx, %edx	#
 160 00ee 7418     		je	.L2	#,
 161              		.loc 1 101 0 is_stmt 0 discriminator 1
 162 00f0 8B3D0400 		movl	threads+4, %edi	# threads,
 162      0000
 163              	.LVL10:
 164 00f6 85FF     		testl	%edi, %edi	#
 165 00f8 740E     		je	.L2	#,
 166 00fa 8B1D0800 		movl	threads+8, %ebx	# threads,
 166      0000
 167              	.LVL11:
 168 0100 85DB     		testl	%ebx, %ebx	#
 169 0102 0F849000 		je	.L11	#,
 169      0000
 170              	.L2:
 171              		.loc 1 101 0 discriminator 4
 172 0108 89442404 		movl	%eax, 4(%esp)	# iftmp.1,
 173 010c C7042401 		movl	$1, (%esp)	#,
 173      000000
 174 0113 E8FCFFFF 		call	_test_assert	#
 174      FF
 175              	.LVL12:
 176 0118 84C0     		testb	%al, %al	# D.2277
 177 011a 740C     		je	.L12	#,
 178              	.L1:
 179              		.loc 1 115 0 is_stmt 1
 180 011c 83C430   		addl	$48, %esp	#,
 181              		.cfi_remember_state
 182              		.cfi_def_cfa_offset 16
 183 011f 5B       		popl	%ebx	#
 184              		.cfi_restore 3
 185              		.cfi_def_cfa_offset 12
 186 0120 5E       		popl	%esi	#
 187              		.cfi_restore 6
 188              		.cfi_def_cfa_offset 8
 189 0121 5F       		popl	%edi	#
 190              		.cfi_restore 7
 191              		.cfi_def_cfa_offset 4
 192 0122 C3       		ret
 193              		.p2align 4,,7
 194 0123 908D7426 		.p2align 3
 194      00
 195              	.L12:
GAS LISTING /tmp/cczVpjRc.s 			page 5


 196              		.cfi_restore_state
 197              		.loc 1 109 0
 198 0128 E8FCFFFF 		call	test_wait_threads	#
 198      FF
 199              	.LVL13:
 200              		.loc 1 110 0
 201 012d C7442404 		movl	$.LC3, 4(%esp)	#,
 201      06000000 
 202 0135 C7042402 		movl	$2, (%esp)	#,
 202      000000
 203 013c E8FCFFFF 		call	_test_assert_sequence	#
 203      FF
 204              	.LVL14:
 205 0141 84C0     		testb	%al, %al	# D.2277
 206 0143 75D7     		jne	.L1	#,
 207              		.loc 1 113 0
 208 0145 89742404 		movl	%esi, 4(%esp)	# tmp111,
 209 0149 C7042420 		movl	$heap1, (%esp)	#,
 209      000000
 210 0150 E8FCFFFF 		call	chHeapStatus	#
 210      FF
 211              	.LVL15:
 212 0155 C7042403 		movl	$3, (%esp)	#,
 212      000000
 213 015c 83F801   		cmpl	$1, %eax	#, D.2279
 214 015f 0F94C0   		sete	%al	#, D.2277
 215 0162 0FB6C0   		movzbl	%al, %eax	# D.2277, D.2277
 216 0165 89442404 		movl	%eax, 4(%esp)	# D.2277,
 217 0169 E8FCFFFF 		call	_test_assert	#
 217      FF
 218              	.LVL16:
 219 016e 84C0     		testb	%al, %al	# D.2277
 220 0170 75AA     		jne	.L1	#,
 221              		.loc 1 114 0
 222 0172 8B44242C 		movl	44(%esp), %eax	# sz, tmp112
 223 0176 39442428 		cmpl	%eax, 40(%esp)	# tmp112, n
 224 017a C7042404 		movl	$4, (%esp)	#,
 224      000000
 225 0181 0F94C0   		sete	%al	#, D.2277
 226 0184 0FB6C0   		movzbl	%al, %eax	# D.2277, D.2277
 227 0187 89442404 		movl	%eax, 4(%esp)	# D.2277,
 228 018b E8FCFFFF 		call	_test_assert	#
 228      FF
 229              	.LVL17:
 230 0190 EB8A     		jmp	.L1	#
 231              		.p2align 4,,7
 232 0192 8DB60000 		.p2align 3
 232      0000
 233              	.L11:
 234              		.loc 1 101 0 discriminator 1
 235 0198 8B0D0C00 		movl	threads+12, %ecx	# threads,
 235      0000
 236 019e 85C9     		testl	%ecx, %ecx	#
 237 01a0 0F8562FF 		jne	.L2	#,
 237      FFFF
 238 01a6 8B151000 		movl	threads+16, %edx	# threads,
 238      0000
GAS LISTING /tmp/cczVpjRc.s 			page 6


 239 01ac 31C0     		xorl	%eax, %eax	# iftmp.1
 240 01ae 85D2     		testl	%edx, %edx	#
 241 01b0 0F94C0   		sete	%al	#, iftmp.1
 242 01b3 E950FFFF 		jmp	.L2	#
 242      FF
 243              		.cfi_endproc
 244              	.LFE9:
 245              		.size	dyn1_execute, .-dyn1_execute
 246 01b8 908DB426 		.p2align 4,,15
 246      00000000 
 247              		.type	thread, @function
 248              	thread:
 249              	.LFB7:
 250              		.loc 1 71 0
 251              		.cfi_startproc
 252              	.LVL18:
 253 01c0 83EC1C   		subl	$28, %esp	#,
 254              		.cfi_def_cfa_offset 32
 255              		.loc 1 73 0
 256 01c3 8B442420 		movl	32(%esp), %eax	# p, p
 257 01c7 0FBE00   		movsbl	(%eax), %eax	# MEM[(char *)p_2(D)], MEM[(char *)p_2(D)]
 258 01ca 890424   		movl	%eax, (%esp)	# MEM[(char *)p_2(D)],
 259 01cd E8FCFFFF 		call	test_emit_token	#
 259      FF
 260              	.LVL19:
 261              		.loc 1 75 0
 262 01d2 31C0     		xorl	%eax, %eax	#
 263 01d4 83C41C   		addl	$28, %esp	#,
 264              		.cfi_def_cfa_offset 4
 265 01d7 C3       		ret
 266              		.cfi_endproc
 267              	.LFE7:
 268              		.size	thread, .-thread
 269 01d8 908DB426 		.p2align 4,,15
 269      00000000 
 270              		.type	dyn1_setup, @function
 271              	dyn1_setup:
 272              	.LFB8:
 273              		.loc 1 78 0
 274              		.cfi_startproc
 275 01e0 83EC1C   		subl	$28, %esp	#,
 276              		.cfi_def_cfa_offset 32
 277              		.loc 1 80 0
 278 01e3 C7442408 		movl	$85040, 8(%esp)	#,
 278      304C0100 
 279 01eb C7442404 		movl	$test, 4(%esp)	#,
 279      00000000 
 280 01f3 C7042420 		movl	$heap1, (%esp)	#,
 280      000000
 281 01fa E8FCFFFF 		call	chHeapInit	#
 281      FF
 282              	.LVL20:
 283              		.loc 1 81 0
 284 01ff 83C41C   		addl	$28, %esp	#,
 285              		.cfi_def_cfa_offset 4
 286 0202 C3       		ret
 287              		.cfi_endproc
GAS LISTING /tmp/cczVpjRc.s 			page 7


 288              	.LFE8:
 289              		.size	dyn1_setup, .-dyn1_setup
 290 0203 8DB60000 		.p2align 4,,15
 290      00008DBC 
 290      27000000 
 290      00
 291              		.type	dyn3_setup, @function
 292              	dyn3_setup:
 293              	.LFB13:
 294              		.loc 1 203 0
 295              		.cfi_startproc
 296 0210 83EC1C   		subl	$28, %esp	#,
 297              		.cfi_def_cfa_offset 32
 298              		.loc 1 205 0
 299 0213 C7442408 		movl	$85040, 8(%esp)	#,
 299      304C0100 
 300 021b C7442404 		movl	$test, 4(%esp)	#,
 300      00000000 
 301 0223 C7042420 		movl	$heap1, (%esp)	#,
 301      000000
 302 022a E8FCFFFF 		call	chHeapInit	#
 302      FF
 303              	.LVL21:
 304              		.loc 1 206 0
 305 022f 83C41C   		addl	$28, %esp	#,
 306              		.cfi_def_cfa_offset 4
 307 0232 C3       		ret
 308              		.cfi_endproc
 309              	.LFE13:
 310              		.size	dyn3_setup, .-dyn3_setup
 311              		.section	.rodata.str1.1
 312              	.LC4:
 313 0009 4400     		.string	"D"
 314              	.LC5:
 315 000b 4500     		.string	"E"
 316              	.LC6:
 317 000d 41424344 		.string	"ABCD"
 317      00
 318              		.text
 319 0233 8DB60000 		.p2align 4,,15
 319      00008DBC 
 319      27000000 
 319      00
 320              		.type	dyn2_execute, @function
 321              	dyn2_execute:
 322              	.LFB11:
 323              		.loc 1 141 0
 324              		.cfi_startproc
 325 0240 56       		pushl	%esi	#
 326              		.cfi_def_cfa_offset 8
 327              		.cfi_offset 6, -8
 328 0241 53       		pushl	%ebx	#
 329              		.cfi_def_cfa_offset 12
 330              		.cfi_offset 3, -12
 331              		.loc 1 146 0
 332 0242 31DB     		xorl	%ebx, %ebx	# i
 333              		.loc 1 141 0
GAS LISTING /tmp/cczVpjRc.s 			page 8


 334 0244 83EC14   		subl	$20, %esp	#,
 335              		.cfi_def_cfa_offset 32
 336              		.loc 1 143 0
 337 0247 A1180000 		movl	rlist+24, %eax	# rlist.r_current, rlist.r_current
 337      00
 338 024c 8B7008   		movl	8(%eax), %esi	# _8->p_prio, prio
 339              	.LVL22:
 340              	.L21:
 341              		.loc 1 147 0 discriminator 2
 342 024f 8B049D00 		movl	wa(,%ebx,4), %eax	# MEM[symbol: wa, index: _62, step: 4, offset: 0B], MEM[symbol: wa, index: 
 342      000000
 343              		.loc 1 146 0 discriminator 2
 344 0256 83C301   		addl	$1, %ebx	#, i
 345              	.LVL23:
 346              		.loc 1 147 0 discriminator 2
 347 0259 C7042400 		movl	$mp1, (%esp)	#,
 347      000000
 348 0260 89442404 		movl	%eax, 4(%esp)	# MEM[symbol: wa, index: _62, step: 4, offset: 0B],
 349 0264 E8FCFFFF 		call	chPoolFree	#
 349      FF
 350              	.LVL24:
 351              		.loc 1 146 0 discriminator 2
 352 0269 83FB04   		cmpl	$4, %ebx	#, i
 353 026c 75E1     		jne	.L21	#,
 354              		.loc 1 150 0
 355 026e 8D46FF   		leal	-1(%esi), %eax	#, D.2313
 356 0271 C744240C 		movl	$.LC0, 12(%esp)	#,
 356      00000000 
 357 0279 C7442408 		movl	$thread, 8(%esp)	#,
 357      C0010000 
 358 0281 89442404 		movl	%eax, 4(%esp)	# D.2313,
 359 0285 C7042400 		movl	$mp1, (%esp)	#,
 359      000000
 360 028c E8FCFFFF 		call	chThdCreateFromMemoryPool	#
 360      FF
 361              	.LVL25:
 362              		.loc 1 151 0
 363 0291 C744240C 		movl	$.LC1, 12(%esp)	#,
 363      02000000 
 364 0299 C7442408 		movl	$thread, 8(%esp)	#,
 364      C0010000 
 365 02a1 C7042400 		movl	$mp1, (%esp)	#,
 365      000000
 366              		.loc 1 150 0
 367 02a8 A3000000 		movl	%eax, threads	# D.2311, threads
 367      00
 368              		.loc 1 151 0
 369 02ad 8D46FE   		leal	-2(%esi), %eax	#, D.2313
 370 02b0 89442404 		movl	%eax, 4(%esp)	# D.2313,
 371 02b4 E8FCFFFF 		call	chThdCreateFromMemoryPool	#
 371      FF
 372              	.LVL26:
 373              		.loc 1 152 0
 374 02b9 C744240C 		movl	$.LC2, 12(%esp)	#,
 374      04000000 
 375 02c1 C7442408 		movl	$thread, 8(%esp)	#,
 375      C0010000 
GAS LISTING /tmp/cczVpjRc.s 			page 9


 376 02c9 C7042400 		movl	$mp1, (%esp)	#,
 376      000000
 377              		.loc 1 151 0
 378 02d0 A3040000 		movl	%eax, threads+4	# D.2311, threads
 378      00
 379              		.loc 1 152 0
 380 02d5 8D46FD   		leal	-3(%esi), %eax	#, D.2313
 381 02d8 89442404 		movl	%eax, 4(%esp)	# D.2313,
 382 02dc E8FCFFFF 		call	chThdCreateFromMemoryPool	#
 382      FF
 383              	.LVL27:
 384              		.loc 1 153 0
 385 02e1 C744240C 		movl	$.LC4, 12(%esp)	#,
 385      09000000 
 386 02e9 C7442408 		movl	$thread, 8(%esp)	#,
 386      C0010000 
 387 02f1 C7042400 		movl	$mp1, (%esp)	#,
 387      000000
 388              		.loc 1 152 0
 389 02f8 A3080000 		movl	%eax, threads+8	# D.2311, threads
 389      00
 390              		.loc 1 153 0
 391 02fd 8D46FC   		leal	-4(%esi), %eax	#, D.2313
 392              		.loc 1 154 0
 393 0300 83EE05   		subl	$5, %esi	#, D.2313
 394              	.LVL28:
 395              		.loc 1 153 0
 396 0303 89442404 		movl	%eax, 4(%esp)	# D.2313,
 397 0307 E8FCFFFF 		call	chThdCreateFromMemoryPool	#
 397      FF
 398              	.LVL29:
 399              		.loc 1 154 0
 400 030c 89742404 		movl	%esi, 4(%esp)	# D.2313,
 401 0310 C744240C 		movl	$.LC5, 12(%esp)	#,
 401      0B000000 
 402 0318 C7442408 		movl	$thread, 8(%esp)	#,
 402      C0010000 
 403 0320 C7042400 		movl	$mp1, (%esp)	#,
 403      000000
 404              		.loc 1 153 0
 405 0327 A30C0000 		movl	%eax, threads+12	# D.2311, threads
 405      00
 406              		.loc 1 154 0
 407 032c E8FCFFFF 		call	chThdCreateFromMemoryPool	#
 407      FF
 408              	.LVL30:
 409              		.loc 1 156 0
 410 0331 8B350000 		movl	threads, %esi	# threads,
 410      0000
 411              	.LVL31:
 412 0337 85F6     		testl	%esi, %esi	#
 413              		.loc 1 154 0
 414 0339 A3100000 		movl	%eax, threads+16	# D.2311, threads
 414      00
 415              		.loc 1 156 0
 416 033e 7440     		je	.L31	#,
 417              		.loc 1 156 0 is_stmt 0 discriminator 1
GAS LISTING /tmp/cczVpjRc.s 			page 10


 418 0340 8B1D0400 		movl	threads+4, %ebx	# threads,
 418      0000
 419              	.LVL32:
 420 0346 85DB     		testl	%ebx, %ebx	#
 421 0348 7436     		je	.L31	#,
 422 034a 8B0D0800 		movl	threads+8, %ecx	# threads,
 422      0000
 423 0350 85C9     		testl	%ecx, %ecx	#
 424 0352 742C     		je	.L31	#,
 425 0354 8B150C00 		movl	threads+12, %edx	# threads,
 425      0000
 426 035a 85D2     		testl	%edx, %edx	#
 427 035c 7422     		je	.L31	#,
 428 035e 85C0     		testl	%eax, %eax	# D.2311
 429 0360 0F94C0   		sete	%al	#, iftmp.3
 430 0363 0FB6C0   		movzbl	%al, %eax	# iftmp.3, iftmp.3
 431              	.L22:
 432              		.loc 1 156 0 discriminator 4
 433 0366 89442404 		movl	%eax, 4(%esp)	# iftmp.3,
 434 036a C7042401 		movl	$1, (%esp)	#,
 434      000000
 435 0371 E8FCFFFF 		call	_test_assert	#
 435      FF
 436              	.LVL33:
 437 0376 84C0     		testb	%al, %al	# D.2309
 438 0378 740E     		je	.L33	#,
 439              	.L19:
 440              		.loc 1 171 0 is_stmt 1
 441 037a 83C414   		addl	$20, %esp	#,
 442              		.cfi_remember_state
 443              		.cfi_def_cfa_offset 12
 444 037d 5B       		popl	%ebx	#
 445              		.cfi_restore 3
 446              		.cfi_def_cfa_offset 8
 447 037e 5E       		popl	%esi	#
 448              		.cfi_restore 6
 449              		.cfi_def_cfa_offset 4
 450 037f C3       		ret
 451              		.p2align 4,,7
 452              		.p2align 3
 453              	.L31:
 454              		.cfi_restore_state
 455              		.loc 1 156 0
 456 0380 31C0     		xorl	%eax, %eax	# iftmp.3
 457 0382 EBE2     		jmp	.L22	#
 458              		.p2align 4,,7
 459 0384 8D742600 		.p2align 3
 460              	.L33:
 461              		.loc 1 164 0
 462 0388 E8FCFFFF 		call	test_wait_threads	#
 462      FF
 463              	.LVL34:
 464              		.loc 1 165 0
 465 038d C7442404 		movl	$.LC6, 4(%esp)	#,
 465      0D000000 
 466 0395 C7042402 		movl	$2, (%esp)	#,
 466      000000
GAS LISTING /tmp/cczVpjRc.s 			page 11


 467 039c E8FCFFFF 		call	_test_assert_sequence	#
 467      FF
 468              	.LVL35:
 469 03a1 84C0     		testb	%al, %al	# D.2309
 470 03a3 75D5     		jne	.L19	#,
 471 03a5 BB040000 		movl	$4, %ebx	#, D.2310
 471      00
 472              	.L27:
 473              	.LVL36:
 474              		.loc 1 169 0
 475 03aa C7042400 		movl	$mp1, (%esp)	#,
 475      000000
 476 03b1 E8FCFFFF 		call	chPoolAlloc	#
 476      FF
 477              	.LVL37:
 478 03b6 C7042403 		movl	$3, (%esp)	#,
 478      000000
 479 03bd 85C0     		testl	%eax, %eax	# D.2312
 480 03bf 0F95C0   		setne	%al	#, D.2309
 481 03c2 0FB6C0   		movzbl	%al, %eax	# D.2309, D.2309
 482 03c5 89442404 		movl	%eax, 4(%esp)	# D.2309,
 483 03c9 E8FCFFFF 		call	_test_assert	#
 483      FF
 484              	.LVL38:
 485 03ce 84C0     		testb	%al, %al	# D.2309
 486 03d0 75A8     		jne	.L19	#,
 487              	.LVL39:
 488              		.loc 1 168 0
 489 03d2 83EB01   		subl	$1, %ebx	#, D.2310
 490              	.LVL40:
 491 03d5 75D3     		jne	.L27	#,
 492              		.loc 1 170 0
 493 03d7 C7042400 		movl	$mp1, (%esp)	#,
 493      000000
 494 03de E8FCFFFF 		call	chPoolAlloc	#
 494      FF
 495              	.LVL41:
 496 03e3 C7042404 		movl	$4, (%esp)	#,
 496      000000
 497 03ea 85C0     		testl	%eax, %eax	# D.2312
 498 03ec 0F94C0   		sete	%al	#, D.2309
 499 03ef 0FB6C0   		movzbl	%al, %eax	# D.2309, D.2309
 500 03f2 89442404 		movl	%eax, 4(%esp)	# D.2309,
 501 03f6 E8FCFFFF 		call	_test_assert	#
 501      FF
 502              	.LVL42:
 503              		.loc 1 171 0
 504 03fb 83C414   		addl	$20, %esp	#,
 505              		.cfi_def_cfa_offset 12
 506 03fe 5B       		popl	%ebx	#
 507              		.cfi_restore 3
 508              		.cfi_def_cfa_offset 8
 509              	.LVL43:
 510 03ff 5E       		popl	%esi	#
 511              		.cfi_restore 6
 512              		.cfi_def_cfa_offset 4
 513 0400 C3       		ret
GAS LISTING /tmp/cczVpjRc.s 			page 12


 514              		.cfi_endproc
 515              	.LFE11:
 516              		.size	dyn2_execute, .-dyn2_execute
 517 0401 EB0D9090 		.p2align 4,,15
 517      90909090 
 517      90909090 
 517      909090
 518              		.type	dyn2_setup, @function
 519              	dyn2_setup:
 520              	.LFB10:
 521              		.loc 1 136 0
 522              		.cfi_startproc
 523 0410 83EC1C   		subl	$28, %esp	#,
 524              		.cfi_def_cfa_offset 32
 525              		.loc 1 138 0
 526 0413 C7442408 		movl	$0, 8(%esp)	#,
 526      00000000 
 527 041b C7442404 		movl	$17008, 4(%esp)	#,
 527      70420000 
 528 0423 C7042400 		movl	$mp1, (%esp)	#,
 528      000000
 529 042a E8FCFFFF 		call	chPoolInit	#
 529      FF
 530              	.LVL44:
 531              		.loc 1 139 0
 532 042f 83C41C   		addl	$28, %esp	#,
 533              		.cfi_def_cfa_offset 4
 534 0432 C3       		ret
 535              		.cfi_endproc
 536              	.LFE10:
 537              		.size	dyn2_setup, .-dyn2_setup
 538 0433 8DB60000 		.p2align 4,,15
 538      00008DBC 
 538      27000000 
 538      00
 539              		.type	regfind, @function
 540              	regfind:
 541              	.LFB12:
 542              		.loc 1 191 0
 543              		.cfi_startproc
 544              	.LVL45:
 545 0440 56       		pushl	%esi	#
 546              		.cfi_def_cfa_offset 8
 547              		.cfi_offset 6, -8
 548 0441 89C6     		movl	%eax, %esi	# tp, tp
 549 0443 53       		pushl	%ebx	#
 550              		.cfi_def_cfa_offset 12
 551              		.cfi_offset 3, -12
 552              		.loc 1 193 0
 553 0444 31DB     		xorl	%ebx, %ebx	# found
 554              		.loc 1 191 0
 555 0446 83EC14   		subl	$20, %esp	#,
 556              		.cfi_def_cfa_offset 32
 557              		.loc 1 195 0
 558 0449 E8FCFFFF 		call	chRegFirstThread	#
 558      FF
 559              	.LVL46:
GAS LISTING /tmp/cczVpjRc.s 			page 13


 560 044e 6690     		.p2align 4,,7
 561              		.p2align 3
 562              	.L38:
 563              		.loc 1 197 0 discriminator 1
 564 0450 39F0     		cmpl	%esi, %eax	# tp, ftp
 565 0452 0F94C1   		sete	%cl	#, D.2323
 566              		.loc 1 198 0 discriminator 1
 567 0455 890424   		movl	%eax, (%esp)	# ftp,
 568              		.loc 1 197 0 discriminator 1
 569 0458 09CB     		orl	%ecx, %ebx	# D.2323, found
 570              	.LVL47:
 571              		.loc 1 198 0 discriminator 1
 572 045a E8FCFFFF 		call	chRegNextThread	#
 572      FF
 573              	.LVL48:
 574              		.loc 1 199 0 discriminator 1
 575 045f 85C0     		testl	%eax, %eax	# ftp
 576 0461 75ED     		jne	.L38	#,
 577              		.loc 1 201 0
 578 0463 83C414   		addl	$20, %esp	#,
 579              		.cfi_def_cfa_offset 12
 580 0466 89D8     		movl	%ebx, %eax	# found,
 581              	.LVL49:
 582 0468 5B       		popl	%ebx	#
 583              		.cfi_restore 3
 584              		.cfi_def_cfa_offset 8
 585              	.LVL50:
 586 0469 5E       		popl	%esi	#
 587              		.cfi_restore 6
 588              		.cfi_def_cfa_offset 4
 589              	.LVL51:
 590 046a C3       		ret
 591              		.cfi_endproc
 592              	.LFE12:
 593              		.size	regfind, .-regfind
 594 046b 908D7426 		.p2align 4,,15
 594      00
 595              		.type	dyn3_execute, @function
 596              	dyn3_execute:
 597              	.LFB14:
 598              		.loc 1 208 0
 599              		.cfi_startproc
 600              	.LVL52:
 601 0470 53       		pushl	%ebx	#
 602              		.cfi_def_cfa_offset 8
 603              		.cfi_offset 3, -8
 604              	.LVL53:
 605 0471 83EC28   		subl	$40, %esp	#,
 606              		.cfi_def_cfa_offset 48
 607              		.loc 1 210 0
 608 0474 A1180000 		movl	rlist+24, %eax	# rlist.r_current, rlist.r_current
 608      00
 609              		.loc 1 213 0
 610 0479 C7442410 		movl	$.LC0, 16(%esp)	#,
 610      00000000 
 611 0481 C744240C 		movl	$thread, 12(%esp)	#,
 611      C0010000 
GAS LISTING /tmp/cczVpjRc.s 			page 14


 612 0489 8B4008   		movl	8(%eax), %eax	# _3->p_prio, _3->p_prio
 613 048c C7442404 		movl	$17008, 4(%esp)	#,
 613      70420000 
 614 0494 C7042420 		movl	$heap1, (%esp)	#,
 614      000000
 615 049b 83E801   		subl	$1, %eax	#, D.2327
 616 049e 89442408 		movl	%eax, 8(%esp)	# D.2327,
 617 04a2 E8FCFFFF 		call	chThdCreateFromHeap	#
 617      FF
 618              	.LVL54:
 619 04a7 89C3     		movl	%eax, %ebx	#, tp
 620              	.LVL55:
 621              		.loc 1 214 0
 622 04a9 31C0     		xorl	%eax, %eax	# D.2329
 623              	.LVL56:
 624 04ab 807B1E01 		cmpb	$1, 30(%ebx)	#, tp_7->p_refs
 625 04af C7042401 		movl	$1, (%esp)	#,
 625      000000
 626 04b6 0F94C0   		sete	%al	#, D.2329
 627 04b9 89442404 		movl	%eax, 4(%esp)	# D.2329,
 628 04bd E8FCFFFF 		call	_test_assert	#
 628      FF
 629              	.LVL57:
 630 04c2 84C0     		testb	%al, %al	# D.2329
 631 04c4 740A     		je	.L45	#,
 632              	.L40:
 633              		.loc 1 236 0
 634 04c6 83C428   		addl	$40, %esp	#,
 635              		.cfi_remember_state
 636              		.cfi_def_cfa_offset 8
 637 04c9 5B       		popl	%ebx	#
 638              		.cfi_restore 3
 639              		.cfi_def_cfa_offset 4
 640              	.LVL58:
 641 04ca C3       		ret
 642              	.LVL59:
 643 04cb 908D7426 		.p2align 4,,7
 643      00
 644              		.p2align 3
 645              	.L45:
 646              		.cfi_restore_state
 647              		.loc 1 215 0
 648 04d0 891C24   		movl	%ebx, (%esp)	# tp,
 649 04d3 E8FCFFFF 		call	chThdAddRef	#
 649      FF
 650              	.LVL60:
 651              		.loc 1 216 0
 652 04d8 31C0     		xorl	%eax, %eax	# D.2329
 653 04da 807B1E02 		cmpb	$2, 30(%ebx)	#, tp_7->p_refs
 654 04de C7042402 		movl	$2, (%esp)	#,
 654      000000
 655 04e5 0F94C0   		sete	%al	#, D.2329
 656 04e8 89442404 		movl	%eax, 4(%esp)	# D.2329,
 657 04ec E8FCFFFF 		call	_test_assert	#
 657      FF
 658              	.LVL61:
 659 04f1 84C0     		testb	%al, %al	# D.2329
GAS LISTING /tmp/cczVpjRc.s 			page 15


 660 04f3 75D1     		jne	.L40	#,
 661              		.loc 1 217 0
 662 04f5 891C24   		movl	%ebx, (%esp)	# tp,
 663 04f8 E8FCFFFF 		call	chThdRelease	#
 663      FF
 664              	.LVL62:
 665              		.loc 1 218 0
 666 04fd 31C0     		xorl	%eax, %eax	# D.2329
 667 04ff 807B1E01 		cmpb	$1, 30(%ebx)	#, tp_7->p_refs
 668 0503 C7042403 		movl	$3, (%esp)	#,
 668      000000
 669 050a 0F94C0   		sete	%al	#, D.2329
 670 050d 89442404 		movl	%eax, 4(%esp)	# D.2329,
 671 0511 E8FCFFFF 		call	_test_assert	#
 671      FF
 672              	.LVL63:
 673 0516 84C0     		testb	%al, %al	# D.2329
 674 0518 75AC     		jne	.L40	#,
 675              		.loc 1 221 0
 676 051a 89D8     		movl	%ebx, %eax	# tp,
 677 051c E81FFFFF 		call	regfind	#
 677      FF
 678              	.LVL64:
 679 0521 C7042404 		movl	$4, (%esp)	#,
 679      000000
 680 0528 0FB6C0   		movzbl	%al, %eax	# D.2329, D.2329
 681 052b 89442404 		movl	%eax, 4(%esp)	# D.2329,
 682 052f E8FCFFFF 		call	_test_assert	#
 682      FF
 683              	.LVL65:
 684 0534 84C0     		testb	%al, %al	# D.2329
 685 0536 758E     		jne	.L40	#,
 686              		.loc 1 222 0
 687 0538 89D8     		movl	%ebx, %eax	# tp,
 688 053a E801FFFF 		call	regfind	#
 688      FF
 689              	.LVL66:
 690 053f C7042405 		movl	$5, (%esp)	#,
 690      000000
 691 0546 0FB6C0   		movzbl	%al, %eax	# D.2329, D.2329
 692 0549 89442404 		movl	%eax, 4(%esp)	# D.2329,
 693 054d E8FCFFFF 		call	_test_assert	#
 693      FF
 694              	.LVL67:
 695 0552 84C0     		testb	%al, %al	# D.2329
 696 0554 0F856CFF 		jne	.L40	#,
 696      FFFF
 697              		.loc 1 225 0
 698 055a 891C24   		movl	%ebx, (%esp)	# tp,
 699 055d E8FCFFFF 		call	chThdRelease	#
 699      FF
 700              	.LVL68:
 701              		.loc 1 226 0
 702 0562 31C0     		xorl	%eax, %eax	# D.2329
 703 0564 807B1E00 		cmpb	$0, 30(%ebx)	#, tp_7->p_refs
 704 0568 C7042406 		movl	$6, (%esp)	#,
 704      000000
GAS LISTING /tmp/cczVpjRc.s 			page 16


 705 056f 0F94C0   		sete	%al	#, D.2329
 706 0572 89442404 		movl	%eax, 4(%esp)	# D.2329,
 707 0576 E8FCFFFF 		call	_test_assert	#
 707      FF
 708              	.LVL69:
 709 057b 84C0     		testb	%al, %al	# D.2329
 710 057d 0F8543FF 		jne	.L40	#,
 710      FFFF
 711              		.loc 1 227 0
 712 0583 31C0     		xorl	%eax, %eax	# D.2329
 713 0585 807B1C00 		cmpb	$0, 28(%ebx)	#, tp_7->p_state
 714 0589 C7042407 		movl	$7, (%esp)	#,
 714      000000
 715 0590 0F94C0   		sete	%al	#, D.2329
 716 0593 89442404 		movl	%eax, 4(%esp)	# D.2329,
 717 0597 E8FCFFFF 		call	_test_assert	#
 717      FF
 718              	.LVL70:
 719 059c 84C0     		testb	%al, %al	# D.2329
 720 059e 0F8522FF 		jne	.L40	#,
 720      FFFF
 721              		.loc 1 228 0
 722 05a4 89D8     		movl	%ebx, %eax	# tp,
 723 05a6 E895FEFF 		call	regfind	#
 723      FF
 724              	.LVL71:
 725 05ab C7042408 		movl	$8, (%esp)	#,
 725      000000
 726 05b2 0FB6C0   		movzbl	%al, %eax	# D.2329, D.2329
 727 05b5 89442404 		movl	%eax, 4(%esp)	# D.2329,
 728 05b9 E8FCFFFF 		call	_test_assert	#
 728      FF
 729              	.LVL72:
 730 05be 84C0     		testb	%al, %al	# D.2329
 731 05c0 0F8500FF 		jne	.L40	#,
 731      FFFF
 732              		.loc 1 229 0
 733 05c6 89D8     		movl	%ebx, %eax	# tp,
 734 05c8 E873FEFF 		call	regfind	#
 734      FF
 735              	.LVL73:
 736 05cd C7042409 		movl	$9, (%esp)	#,
 736      000000
 737 05d4 0FB6C0   		movzbl	%al, %eax	# D.2329, D.2329
 738 05d7 89442404 		movl	%eax, 4(%esp)	# D.2329,
 739 05db E8FCFFFF 		call	_test_assert	#
 739      FF
 740              	.LVL74:
 741 05e0 84C0     		testb	%al, %al	# D.2329
 742 05e2 0F85DEFE 		jne	.L40	#,
 742      FFFF
 743              		.loc 1 230 0
 744 05e8 C7042432 		movl	$50, (%esp)	#,
 744      000000
 745 05ef E8FCFFFF 		call	chThdSleep	#
 745      FF
 746              	.LVL75:
GAS LISTING /tmp/cczVpjRc.s 			page 17


 747              		.loc 1 231 0
 748 05f4 31C0     		xorl	%eax, %eax	# D.2329
 749 05f6 807B1C0E 		cmpb	$14, 28(%ebx)	#, tp_7->p_state
 750 05fa C704240A 		movl	$10, (%esp)	#,
 750      000000
 751 0601 0F94C0   		sete	%al	#, D.2329
 752 0604 89442404 		movl	%eax, 4(%esp)	# D.2329,
 753 0608 E8FCFFFF 		call	_test_assert	#
 753      FF
 754              	.LVL76:
 755 060d 84C0     		testb	%al, %al	# D.2329
 756 060f 0F85B1FE 		jne	.L40	#,
 756      FFFF
 757              		.loc 1 234 0
 758 0615 89D8     		movl	%ebx, %eax	# tp,
 759 0617 E824FEFF 		call	regfind	#
 759      FF
 760              	.LVL77:
 761 061c C704240B 		movl	$11, (%esp)	#,
 761      000000
 762 0623 0FB6C0   		movzbl	%al, %eax	# D.2329, D.2329
 763 0626 89442404 		movl	%eax, 4(%esp)	# D.2329,
 764 062a E8FCFFFF 		call	_test_assert	#
 764      FF
 765              	.LVL78:
 766 062f 84C0     		testb	%al, %al	# D.2329
 767 0631 0F858FFE 		jne	.L40	#,
 767      FFFF
 768              		.loc 1 235 0
 769 0637 89D8     		movl	%ebx, %eax	# tp,
 770 0639 E802FEFF 		call	regfind	#
 770      FF
 771              	.LVL79:
 772 063e C704240C 		movl	$12, (%esp)	#,
 772      000000
 773 0645 83F001   		xorl	$1, %eax	#, D.2329
 774 0648 0FB6C0   		movzbl	%al, %eax	# D.2329, D.2329
 775 064b 89442404 		movl	%eax, 4(%esp)	# D.2329,
 776 064f E8FCFFFF 		call	_test_assert	#
 776      FF
 777              	.LVL80:
 778 0654 E96DFEFF 		jmp	.L40	#
 778      FF
 779              		.cfi_endproc
 780              	.LFE14:
 781              		.size	dyn3_execute, .-dyn3_execute
 782              		.globl	patterndyn
 783              		.section	.rodata
 784              		.align 4
 785              		.type	patterndyn, @object
 786              		.size	patterndyn, 16
 787              	patterndyn:
 788 0000 00000000 		.long	testdyn1
 789 0004 00000000 		.long	testdyn2
 790 0008 00000000 		.long	testdyn3
 791 000c 00000000 		.long	0
 792              		.globl	testdyn3
GAS LISTING /tmp/cczVpjRc.s 			page 18


 793              		.section	.rodata.str1.4,"aMS",@progbits,1
 794              		.align 4
 795              	.LC7:
 796 0000 44796E61 		.string	"Dynamic APIs, registry and references"
 796      6D696320 
 796      41504973 
 796      2C207265 
 796      67697374 
 797              		.section	.rodata
 798              		.align 4
 799              		.type	testdyn3, @object
 800              		.size	testdyn3, 16
 801              	testdyn3:
 802              	# name:
 803 0010 00000000 		.long	.LC7
 804              	# setup:
 805 0014 10020000 		.long	dyn3_setup
 806              	# teardown:
 807 0018 00000000 		.long	0
 808              	# execute:
 809 001c 70040000 		.long	dyn3_execute
 810              		.globl	testdyn2
 811              		.section	.rodata.str1.4
 812 0026 0000     		.align 4
 813              	.LC8:
 814 0028 44796E61 		.string	"Dynamic APIs, threads creation from memory pool"
 814      6D696320 
 814      41504973 
 814      2C207468 
 814      72656164 
 815              		.section	.rodata
 816              		.align 4
 817              		.type	testdyn2, @object
 818              		.size	testdyn2, 16
 819              	testdyn2:
 820              	# name:
 821 0020 28000000 		.long	.LC8
 822              	# setup:
 823 0024 10040000 		.long	dyn2_setup
 824              	# teardown:
 825 0028 00000000 		.long	0
 826              	# execute:
 827 002c 40020000 		.long	dyn2_execute
 828              		.globl	testdyn1
 829              		.section	.rodata.str1.4
 830              		.align 4
 831              	.LC9:
 832 0058 44796E61 		.string	"Dynamic APIs, threads creation from heap"
 832      6D696320 
 832      41504973 
 832      2C207468 
 832      72656164 
 833              		.section	.rodata
 834              		.align 4
 835              		.type	testdyn1, @object
 836              		.size	testdyn1, 16
 837              	testdyn1:
GAS LISTING /tmp/cczVpjRc.s 			page 19


 838              	# name:
 839 0030 58000000 		.long	.LC9
 840              	# setup:
 841 0034 E0010000 		.long	dyn1_setup
 842              	# teardown:
 843 0038 00000000 		.long	0
 844              	# execute:
 845 003c 00000000 		.long	dyn1_execute
 846              		.local	mp1
 847              		.comm	mp1,12,4
 848              		.local	heap1
 849              		.comm	heap1,48,32
 850              		.text
 851              	.Letext0:
 852              		.file 2 "/usr/lib/gcc/x86_64-linux-gnu/4.8/include/stddef.h"
 853              		.file 3 "/usr/include/stdint.h"
 854              		.file 4 "../../../os/ports/GCC/SIMIA32/chtypes.h"
 855              		.file 5 "../../../os/kernel/include/chlists.h"
 856              		.file 6 "../../../os/kernel/include/chthreads.h"
 857              		.file 7 "../../../os/ports/GCC/SIMIA32/chcore.h"
 858              		.file 8 "../../../os/kernel/include/chschd.h"
 859              		.file 9 "../../../os/kernel/include/chmtx.h"
 860              		.file 10 "../../../os/kernel/include/chmemcore.h"
 861              		.file 11 "../../../os/kernel/include/chheap.h"
 862              		.file 12 "../../../os/kernel/include/chmempools.h"
 863              		.file 13 "../../../test/test.h"
 864              		.file 14 "../../../os/kernel/include/chdynamic.h"
 865              		.file 15 "../../../os/kernel/include/chregistry.h"
 4009              		.section	.note.GNU-stack,"",@progbits
GAS LISTING /tmp/cczVpjRc.s 			page 79

