GAS LISTING /tmp/cctuymYX.s 			page 1


   1              		.file	"testevt.c"
   2              	# GNU C (Ubuntu 4.8.2-19ubuntu1) version 4.8.2 (x86_64-linux-gnu)
   3              	#	compiled by GNU C version 4.8.2, GMP version 5.1.3, MPFR version 3.1.2-p3, MPC version 1.0.1
   4              	# GGC heuristics: --param ggc-min-expand=97 --param ggc-min-heapsize=126309
   5              	# options passed:  -I . -I ../../../os/ports/GCC/SIMIA32
   6              	# -I ../../../os/kernel/include -I ../../../test -I ../../../os/hal/include
   7              	# -I ../../../os/hal/platforms/Posix -I ../../../boards/simulator
   8              	# -I ../../../os/various -imultilib 32 -imultiarch i386-linux-gnu
   9              	# -MD ../../../test/testevt.d -MF .dep/testevt.o.d -MP
  10              	# -MQ ../../../test/testevt.o -D SIMULATOR -D SHELL_USE_IPRINTF=FALSE
  11              	# ../../../test/testevt.c -m32 -mtune=generic -march=i686
  12              	# -auxbase-strip ../../../test/testevt.o -ggdb -O2 -Wall -Wextra
  13              	# -Wstrict-prototypes -fomit-frame-pointer -fverbose-asm -fstack-protector
  14              	# -Wformat -Wformat-security
  15              	# options enabled:  -faggressive-loop-optimizations
  16              	# -fasynchronous-unwind-tables -fauto-inc-dec -fbranch-count-reg
  17              	# -fcaller-saves -fcombine-stack-adjustments -fcommon -fcompare-elim
  18              	# -fcprop-registers -fcrossjumping -fcse-follow-jumps -fdefer-pop
  19              	# -fdelete-null-pointer-checks -fdevirtualize -fdwarf2-cfi-asm
  20              	# -fearly-inlining -feliminate-unused-debug-types -fexpensive-optimizations
  21              	# -fforward-propagate -ffunction-cse -fgcse -fgcse-lm -fgnu-runtime
  22              	# -fguess-branch-probability -fhoist-adjacent-loads -fident -fif-conversion
  23              	# -fif-conversion2 -findirect-inlining -finline -finline-atomics
  24              	# -finline-functions-called-once -finline-small-functions -fipa-cp
  25              	# -fipa-profile -fipa-pure-const -fipa-reference -fipa-sra
  26              	# -fira-hoist-pressure -fira-share-save-slots -fira-share-spill-slots
  27              	# -fivopts -fkeep-static-consts -fleading-underscore -fmath-errno
  28              	# -fmerge-constants -fmerge-debug-strings -fmove-loop-invariants
  29              	# -fomit-frame-pointer -foptimize-register-move -foptimize-sibling-calls
  30              	# -foptimize-strlen -fpartial-inlining -fpcc-struct-return -fpeephole
  31              	# -fpeephole2 -fprefetch-loop-arrays -free -fregmove -freorder-blocks
  32              	# -freorder-functions -frerun-cse-after-loop
  33              	# -fsched-critical-path-heuristic -fsched-dep-count-heuristic
  34              	# -fsched-group-heuristic -fsched-interblock -fsched-last-insn-heuristic
  35              	# -fsched-rank-heuristic -fsched-spec -fsched-spec-insn-heuristic
  36              	# -fsched-stalled-insns-dep -fschedule-insns2 -fshow-column -fshrink-wrap
  37              	# -fsigned-zeros -fsplit-ivs-in-unroller -fsplit-wide-types
  38              	# -fstack-protector -fstrict-aliasing -fstrict-overflow
  39              	# -fstrict-volatile-bitfields -fsync-libcalls -fthread-jumps
  40              	# -ftoplevel-reorder -ftrapping-math -ftree-bit-ccp -ftree-builtin-call-dce
  41              	# -ftree-ccp -ftree-ch -ftree-coalesce-vars -ftree-copy-prop
  42              	# -ftree-copyrename -ftree-cselim -ftree-dce -ftree-dominator-opts
  43              	# -ftree-dse -ftree-forwprop -ftree-fre -ftree-loop-if-convert
  44              	# -ftree-loop-im -ftree-loop-ivcanon -ftree-loop-optimize
  45              	# -ftree-parallelize-loops= -ftree-phiprop -ftree-pre -ftree-pta
  46              	# -ftree-reassoc -ftree-scev-cprop -ftree-sink -ftree-slp-vectorize
  47              	# -ftree-slsr -ftree-sra -ftree-switch-conversion -ftree-tail-merge
  48              	# -ftree-ter -ftree-vect-loop-version -ftree-vrp -funit-at-a-time
  49              	# -funwind-tables -fvar-tracking -fvar-tracking-assignments -fverbose-asm
  50              	# -fzero-initialized-in-bss -m32 -m80387 -m96bit-long-double
  51              	# -maccumulate-outgoing-args -malign-stringops -mfancy-math-387
  52              	# -mfp-ret-in-387 -mglibc -mieee-fp -mlong-double-80 -mno-red-zone
  53              	# -mno-sse4 -mpush-args -msahf -mtls-direct-seg-refs
  54              	
  55              		.text
  56              	.Ltext0:
  57              		.section	.rodata.str1.1,"aMS",@progbits,1
GAS LISTING /tmp/cctuymYX.s 			page 2


  58              	.LC0:
  59 0000 41424300 		.string	"ABC"
  60              		.text
  61              		.p2align 4,,15
  62              		.type	evt1_execute, @function
  63              	evt1_execute:
  64              	.LFB11:
  65              		.file 1 "../../../test/testevt.c"
  66              		.loc 1 85 0
  67              		.cfi_startproc
  68 0000 56       		pushl	%esi	#
  69              		.cfi_def_cfa_offset 8
  70              		.cfi_offset 6, -8
  71 0001 53       		pushl	%ebx	#
  72              		.cfi_def_cfa_offset 12
  73              		.cfi_offset 3, -12
  74 0002 83EC34   		subl	$52, %esp	#,
  75              		.cfi_def_cfa_offset 64
  76              		.loc 1 92 0
  77 0005 8D5C2410 		leal	16(%esp), %ebx	#, tmp72
  78 0009 C7442408 		movl	$1, 8(%esp)	#,
  78      01000000 
  79              		.loc 1 93 0
  80 0011 8D742420 		leal	32(%esp), %esi	#, tmp73
  81              		.loc 1 92 0
  82 0015 895C2404 		movl	%ebx, 4(%esp)	# tmp72,
  83 0019 C7042404 		movl	$es1, (%esp)	#,
  83      000000
  84              		.loc 1 91 0
  85 0020 C7050400 		movl	$es1, es1	#, es1.es_next
  85      00000400 
  85      0000
  86              		.loc 1 92 0
  87 002a E8FCFFFF 		call	chEvtRegisterMask	#
  87      FF
  88              	.LVL0:
  89              		.loc 1 93 0
  90 002f C7442408 		movl	$2, 8(%esp)	#,
  90      02000000 
  91 0037 89742404 		movl	%esi, 4(%esp)	# tmp73,
  92 003b C7042404 		movl	$es1, (%esp)	#,
  92      000000
  93 0042 E8FCFFFF 		call	chEvtRegisterMask	#
  93      FF
  94              	.LVL1:
  95              		.loc 1 94 0
  96 0047 31C0     		xorl	%eax, %eax	# D.2237
  97 0049 813D0400 		cmpl	$es1, es1	#, es1.es_next
  97      00000400 
  97      0000
  98 0053 C7042401 		movl	$1, (%esp)	#,
  98      000000
  99 005a 0F95C0   		setne	%al	#, D.2237
 100 005d 89442404 		movl	%eax, 4(%esp)	# D.2237,
 101 0061 E8FCFFFF 		call	_test_assert	#
 101      FF
 102              	.LVL2:
GAS LISTING /tmp/cctuymYX.s 			page 3


 103 0066 84C0     		testb	%al, %al	# D.2237
 104 0068 7406     		je	.L6	#,
 105              	.L1:
 106              		.loc 1 105 0
 107 006a 83C434   		addl	$52, %esp	#,
 108              		.cfi_remember_state
 109              		.cfi_def_cfa_offset 12
 110 006d 5B       		popl	%ebx	#
 111              		.cfi_restore 3
 112              		.cfi_def_cfa_offset 8
 113 006e 5E       		popl	%esi	#
 114              		.cfi_restore 6
 115              		.cfi_def_cfa_offset 4
 116 006f C3       		ret
 117              		.p2align 4,,7
 118              		.p2align 3
 119              	.L6:
 120              		.cfi_restore_state
 121              		.loc 1 95 0
 122 0070 895C2404 		movl	%ebx, 4(%esp)	# tmp72,
 123 0074 C7042404 		movl	$es1, (%esp)	#,
 123      000000
 124 007b E8FCFFFF 		call	chEvtUnregister	#
 124      FF
 125              	.LVL3:
 126              		.loc 1 96 0
 127 0080 31C0     		xorl	%eax, %eax	# D.2237
 128 0082 813D0400 		cmpl	$es1, es1	#, es1.es_next
 128      00000400 
 128      0000
 129 008c C7042402 		movl	$2, (%esp)	#,
 129      000000
 130 0093 0F95C0   		setne	%al	#, D.2237
 131 0096 89442404 		movl	%eax, 4(%esp)	# D.2237,
 132 009a E8FCFFFF 		call	_test_assert	#
 132      FF
 133              	.LVL4:
 134 009f 84C0     		testb	%al, %al	# D.2237
 135 00a1 75C7     		jne	.L1	#,
 136              		.loc 1 97 0
 137 00a3 89742404 		movl	%esi, 4(%esp)	# tmp73,
 138 00a7 C7042404 		movl	$es1, (%esp)	#,
 138      000000
 139 00ae E8FCFFFF 		call	chEvtUnregister	#
 139      FF
 140              	.LVL5:
 141              		.loc 1 98 0
 142 00b3 31C0     		xorl	%eax, %eax	# D.2237
 143 00b5 813D0400 		cmpl	$es1, es1	#, es1.es_next
 143      00000400 
 143      0000
 144 00bf C7042403 		movl	$3, (%esp)	#,
 144      000000
 145 00c6 0F94C0   		sete	%al	#, D.2237
 146 00c9 89442404 		movl	%eax, 4(%esp)	# D.2237,
 147 00cd E8FCFFFF 		call	_test_assert	#
 147      FF
GAS LISTING /tmp/cctuymYX.s 			page 4


 148              	.LVL6:
 149 00d2 84C0     		testb	%al, %al	# D.2237
 150 00d4 7594     		jne	.L1	#,
 151              		.loc 1 103 0
 152 00d6 C7442404 		movl	$7, 4(%esp)	#,
 152      07000000 
 153 00de C7042440 		movl	$evhndl, (%esp)	#,
 153      000000
 154 00e5 E8FCFFFF 		call	chEvtDispatch	#
 154      FF
 155              	.LVL7:
 156              		.loc 1 104 0
 157 00ea C7442404 		movl	$.LC0, 4(%esp)	#,
 157      00000000 
 158 00f2 C7042404 		movl	$4, (%esp)	#,
 158      000000
 159 00f9 E8FCFFFF 		call	_test_assert_sequence	#
 159      FF
 160              	.LVL8:
 161 00fe E967FFFF 		jmp	.L1	#
 161      FF
 162              		.cfi_endproc
 163              	.LFE11:
 164              		.size	evt1_execute, .-evt1_execute
 165 0103 8DB60000 		.p2align 4,,15
 165      00008DBC 
 165      27000000 
 165      00
 166              		.type	h3, @function
 167              	h3:
 168              	.LFB10:
 169              		.loc 1 82 0
 170              		.cfi_startproc
 171              	.LVL9:
 172              		.loc 1 82 0
 173 0110 C7442404 		movl	$67, 4(%esp)	#,
 173      43000000 
 174              	.LVL10:
 175 0118 E9FCFFFF 		jmp	test_emit_token	#
 175      FF
 176              	.LVL11:
 177              		.cfi_endproc
 178              	.LFE10:
 179              		.size	h3, .-h3
 180 011d 8D7600   		.p2align 4,,15
 181              		.type	h2, @function
 182              	h2:
 183              	.LFB9:
 184              		.loc 1 81 0
 185              		.cfi_startproc
 186              	.LVL12:
 187              		.loc 1 81 0
 188 0120 C7442404 		movl	$66, 4(%esp)	#,
 188      42000000 
 189              	.LVL13:
 190 0128 E9FCFFFF 		jmp	test_emit_token	#
 190      FF
GAS LISTING /tmp/cctuymYX.s 			page 5


 191              	.LVL14:
 192              		.cfi_endproc
 193              	.LFE9:
 194              		.size	h2, .-h2
 195 012d 8D7600   		.p2align 4,,15
 196              		.type	h1, @function
 197              	h1:
 198              	.LFB8:
 199              		.loc 1 80 0
 200              		.cfi_startproc
 201              	.LVL15:
 202              		.loc 1 80 0
 203 0130 C7442404 		movl	$65, 4(%esp)	#,
 203      41000000 
 204              	.LVL16:
 205 0138 E9FCFFFF 		jmp	test_emit_token	#
 205      FF
 206              	.LVL17:
 207              		.cfi_endproc
 208              	.LFE8:
 209              		.size	h1, .-h1
 210 013d 8D7600   		.p2align 4,,15
 211              		.type	evt1_setup, @function
 212              	evt1_setup:
 213              	.LFB7:
 214              		.loc 1 75 0
 215              		.cfi_startproc
 216 0140 83EC1C   		subl	$28, %esp	#,
 217              		.cfi_def_cfa_offset 32
 218              		.loc 1 77 0
 219 0143 C70424FF 		movl	$-1, (%esp)	#,
 219      FFFFFF
 220 014a E8FCFFFF 		call	chEvtGetAndClearEvents	#
 220      FF
 221              	.LVL18:
 222              		.loc 1 78 0
 223 014f 83C41C   		addl	$28, %esp	#,
 224              		.cfi_def_cfa_offset 4
 225 0152 C3       		ret
 226              		.cfi_endproc
 227              	.LFE7:
 228              		.size	evt1_setup, .-evt1_setup
 229 0153 8DB60000 		.p2align 4,,15
 229      00008DBC 
 229      27000000 
 229      00
 230              		.type	evt2_setup, @function
 231              	evt2_setup:
 232              	.LFB12:
 233              		.loc 1 128 0
 234              		.cfi_startproc
 235 0160 83EC1C   		subl	$28, %esp	#,
 236              		.cfi_def_cfa_offset 32
 237              		.loc 1 130 0
 238 0163 C70424FF 		movl	$-1, (%esp)	#,
 238      FFFFFF
 239 016a E8FCFFFF 		call	chEvtGetAndClearEvents	#
GAS LISTING /tmp/cctuymYX.s 			page 6


 239      FF
 240              	.LVL19:
 241              		.loc 1 131 0
 242 016f 83C41C   		addl	$28, %esp	#,
 243              		.cfi_def_cfa_offset 4
 244 0172 C3       		ret
 245              		.cfi_endproc
 246              	.LFE12:
 247              		.size	evt2_setup, .-evt2_setup
 248 0173 8DB60000 		.p2align 4,,15
 248      00008DBC 
 248      27000000 
 248      00
 249              		.type	evt3_setup, @function
 250              	evt3_setup:
 251              	.LFB16:
 252              		.loc 1 247 0
 253              		.cfi_startproc
 254 0180 83EC1C   		subl	$28, %esp	#,
 255              		.cfi_def_cfa_offset 32
 256              		.loc 1 249 0
 257 0183 C70424FF 		movl	$-1, (%esp)	#,
 257      FFFFFF
 258 018a E8FCFFFF 		call	chEvtGetAndClearEvents	#
 258      FF
 259              	.LVL20:
 260              		.loc 1 250 0
 261 018f 83C41C   		addl	$28, %esp	#,
 262              		.cfi_def_cfa_offset 4
 263 0192 C3       		ret
 264              		.cfi_endproc
 265              	.LFE16:
 266              		.size	evt3_setup, .-evt3_setup
 267              		.section	.rodata.str1.1
 268              	.LC1:
 269 0004 4100     		.string	"A"
 270              		.text
 271 0193 8DB60000 		.p2align 4,,15
 271      00008DBC 
 271      27000000 
 271      00
 272              		.type	evt2_execute, @function
 273              	evt2_execute:
 274              	.LFB15:
 275              		.loc 1 149 0
 276              		.cfi_startproc
 277 01a0 55       		pushl	%ebp	#
 278              		.cfi_def_cfa_offset 8
 279              		.cfi_offset 5, -8
 280 01a1 57       		pushl	%edi	#
 281              		.cfi_def_cfa_offset 12
 282              		.cfi_offset 7, -12
 283 01a2 56       		pushl	%esi	#
 284              		.cfi_def_cfa_offset 16
 285              		.cfi_offset 6, -16
 286 01a3 53       		pushl	%ebx	#
 287              		.cfi_def_cfa_offset 20
GAS LISTING /tmp/cctuymYX.s 			page 7


 288              		.cfi_offset 3, -20
 289 01a4 83EC4C   		subl	$76, %esp	#,
 290              		.cfi_def_cfa_offset 96
 291              		.loc 1 157 0
 292 01a7 C7042405 		movl	$5, (%esp)	#,
 292      000000
 293 01ae E8FCFFFF 		call	chEvtAddEvents	#
 293      FF
 294              	.LVL21:
 295              		.loc 1 158 0
 296 01b3 C70424FF 		movl	$-1, (%esp)	#,
 296      FFFFFF
 297 01ba E8FCFFFF 		call	chEvtWaitOne	#
 297      FF
 298              	.LVL22:
 299              		.loc 1 159 0
 300 01bf C7042401 		movl	$1, (%esp)	#,
 300      000000
 301 01c6 83F801   		cmpl	$1, %eax	#, m
 302 01c9 0F94C0   		sete	%al	#, D.2254
 303              	.LVL23:
 304 01cc 0FB6C0   		movzbl	%al, %eax	# D.2254, D.2254
 305 01cf 89442404 		movl	%eax, 4(%esp)	# D.2254,
 306 01d3 E8FCFFFF 		call	_test_assert	#
 306      FF
 307              	.LVL24:
 308 01d8 84C0     		testb	%al, %al	# D.2254
 309 01da 740C     		je	.L20	#,
 310              	.L16:
 311              		.loc 1 222 0
 312 01dc 83C44C   		addl	$76, %esp	#,
 313              		.cfi_remember_state
 314              		.cfi_def_cfa_offset 20
 315 01df 5B       		popl	%ebx	#
 316              		.cfi_restore 3
 317              		.cfi_def_cfa_offset 16
 318 01e0 5E       		popl	%esi	#
 319              		.cfi_restore 6
 320              		.cfi_def_cfa_offset 12
 321 01e1 5F       		popl	%edi	#
 322              		.cfi_restore 7
 323              		.cfi_def_cfa_offset 8
 324 01e2 5D       		popl	%ebp	#
 325              		.cfi_restore 5
 326              		.cfi_def_cfa_offset 4
 327 01e3 C3       		ret
 328              		.p2align 4,,7
 329 01e4 8D742600 		.p2align 3
 330              	.L20:
 331              		.cfi_restore_state
 332              		.loc 1 160 0
 333 01e8 C70424FF 		movl	$-1, (%esp)	#,
 333      FFFFFF
 334 01ef E8FCFFFF 		call	chEvtWaitOne	#
 334      FF
 335              	.LVL25:
 336              		.loc 1 161 0
GAS LISTING /tmp/cctuymYX.s 			page 8


 337 01f4 C7042402 		movl	$2, (%esp)	#,
 337      000000
 338 01fb 83F804   		cmpl	$4, %eax	#, m
 339 01fe 0F94C0   		sete	%al	#, D.2254
 340              	.LVL26:
 341 0201 0FB6C0   		movzbl	%al, %eax	# D.2254, D.2254
 342 0204 89442404 		movl	%eax, 4(%esp)	# D.2254,
 343 0208 E8FCFFFF 		call	_test_assert	#
 343      FF
 344              	.LVL27:
 345 020d 84C0     		testb	%al, %al	# D.2254
 346 020f 75CB     		jne	.L16	#,
 347              		.loc 1 162 0
 348 0211 C70424FF 		movl	$-1, (%esp)	#,
 348      FFFFFF
 349 0218 E8FCFFFF 		call	chEvtGetAndClearEvents	#
 349      FF
 350              	.LVL28:
 351              		.loc 1 163 0
 352 021d C7042403 		movl	$3, (%esp)	#,
 352      000000
 353 0224 85C0     		testl	%eax, %eax	# m
 354 0226 0F94C0   		sete	%al	#, D.2254
 355              	.LVL29:
 356 0229 0FB6C0   		movzbl	%al, %eax	# D.2254, D.2254
 357 022c 89442404 		movl	%eax, 4(%esp)	# D.2254,
 358 0230 E8FCFFFF 		call	_test_assert	#
 358      FF
 359              	.LVL30:
 360 0235 84C0     		testb	%al, %al	# D.2254
 361 0237 75A3     		jne	.L16	#,
 362              		.loc 1 168 0
 363 0239 E8FCFFFF 		call	test_wait_tick	#
 363      FF
 364              	.LVL31:
 365              		.loc 1 170 0
 366 023e A1180000 		movl	rlist+24, %eax	# rlist.r_current, D.2257
 366      00
 367 0243 C744240C 		movl	$thread1, 12(%esp)	#,
 367      C0050000 
 368 024b 8B350000 		movl	wa, %esi	# wa, D.2258
 368      0000
 369              		.loc 1 169 0
 370 0251 8B1D0C00 		movl	vtlist+12, %ebx	# vtlist.vt_systime, D.2256
 370      0000
 371              	.LVL32:
 372              		.loc 1 170 0
 373 0257 89442410 		movl	%eax, 16(%esp)	# D.2257,
 374 025b 8B4008   		movl	8(%eax), %eax	# _26->p_prio, _26->p_prio
 375 025e C7442404 		movl	$17008, 4(%esp)	#,
 375      70420000 
 376 0266 893424   		movl	%esi, (%esp)	# D.2258,
 377 0269 83E801   		subl	$1, %eax	#, D.2256
 378 026c 89442408 		movl	%eax, 8(%esp)	# D.2256,
 379 0270 E8FCFFFF 		call	chThdCreateStatic	#
 379      FF
 380              	.LVL33:
GAS LISTING /tmp/cctuymYX.s 			page 9


 381              		.loc 1 172 0
 382 0275 C70424FF 		movl	$-1, (%esp)	#,
 382      FFFFFF
 383              		.loc 1 170 0
 384 027c A3000000 		movl	%eax, threads	# D.2257, threads
 384      00
 385              		.loc 1 172 0
 386 0281 E8FCFFFF 		call	chEvtWaitOne	#
 386      FF
 387              	.LVL34:
 388              		.loc 1 173 0
 389 0286 C7042404 		movl	$4, (%esp)	#,
 389      000000
 390              		.loc 1 172 0
 391 028d 89C7     		movl	%eax, %edi	#, m
 392              	.LVL35:
 393              		.loc 1 173 0
 394 028f 8D4337   		leal	55(%ebx), %eax	#, D.2256
 395              	.LVL36:
 396              		.loc 1 169 0
 397 0292 83C332   		addl	$50, %ebx	#, target_time
 398              	.LVL37:
 399              		.loc 1 173 0
 400 0295 89442408 		movl	%eax, 8(%esp)	# D.2256,
 401 0299 895C2404 		movl	%ebx, 4(%esp)	# target_time,
 402 029d E8FCFFFF 		call	_test_assert_time_window	#
 402      FF
 403              	.LVL38:
 404 02a2 84C0     		testb	%al, %al	# D.2254
 405 02a4 0F8532FF 		jne	.L16	#,
 405      FFFF
 406              		.loc 1 174 0
 407 02aa 31C0     		xorl	%eax, %eax	# D.2254
 408 02ac 83FF01   		cmpl	$1, %edi	#, m
 409 02af 0F94C0   		sete	%al	#, D.2254
 410 02b2 89442404 		movl	%eax, 4(%esp)	# D.2254,
 411 02b6 C7042405 		movl	$5, (%esp)	#,
 411      000000
 412 02bd E8FCFFFF 		call	_test_assert	#
 412      FF
 413              	.LVL39:
 414 02c2 84C0     		testb	%al, %al	# D.2254
 415 02c4 0F8512FF 		jne	.L16	#,
 415      FFFF
 416              		.loc 1 175 0
 417 02ca C70424FF 		movl	$-1, (%esp)	#,
 417      FFFFFF
 418 02d1 E8FCFFFF 		call	chEvtGetAndClearEvents	#
 418      FF
 419              	.LVL40:
 420              		.loc 1 176 0
 421 02d6 C7042406 		movl	$6, (%esp)	#,
 421      000000
 422 02dd 85C0     		testl	%eax, %eax	# m
 423 02df 0F94C0   		sete	%al	#, D.2254
 424              	.LVL41:
 425 02e2 0FB6C0   		movzbl	%al, %eax	# D.2254, D.2254
GAS LISTING /tmp/cctuymYX.s 			page 10


 426 02e5 89442404 		movl	%eax, 4(%esp)	# D.2254,
 427 02e9 E8FCFFFF 		call	_test_assert	#
 427      FF
 428              	.LVL42:
 429 02ee 84C0     		testb	%al, %al	# D.2254
 430 02f0 0F85E6FE 		jne	.L16	#,
 430      FFFF
 431              		.loc 1 177 0
 432 02f6 E8FCFFFF 		call	test_wait_threads	#
 432      FF
 433              	.LVL43:
 434              		.loc 1 182 0
 435 02fb C7042405 		movl	$5, (%esp)	#,
 435      000000
 436 0302 E8FCFFFF 		call	chEvtAddEvents	#
 436      FF
 437              	.LVL44:
 438              		.loc 1 183 0
 439 0307 C70424FF 		movl	$-1, (%esp)	#,
 439      FFFFFF
 440 030e E8FCFFFF 		call	chEvtWaitAny	#
 440      FF
 441              	.LVL45:
 442              		.loc 1 184 0
 443 0313 C7042407 		movl	$7, (%esp)	#,
 443      000000
 444 031a 83F805   		cmpl	$5, %eax	#, m
 445 031d 0F94C0   		sete	%al	#, D.2254
 446              	.LVL46:
 447 0320 0FB6C0   		movzbl	%al, %eax	# D.2254, D.2254
 448 0323 89442404 		movl	%eax, 4(%esp)	# D.2254,
 449 0327 E8FCFFFF 		call	_test_assert	#
 449      FF
 450              	.LVL47:
 451 032c 84C0     		testb	%al, %al	# D.2254
 452 032e 0F85A8FE 		jne	.L16	#,
 452      FFFF
 453              		.loc 1 185 0
 454 0334 C70424FF 		movl	$-1, (%esp)	#,
 454      FFFFFF
 455 033b E8FCFFFF 		call	chEvtGetAndClearEvents	#
 455      FF
 456              	.LVL48:
 457              		.loc 1 186 0
 458 0340 C7042408 		movl	$8, (%esp)	#,
 458      000000
 459 0347 85C0     		testl	%eax, %eax	# m
 460 0349 0F94C0   		sete	%al	#, D.2254
 461              	.LVL49:
 462 034c 0FB6C0   		movzbl	%al, %eax	# D.2254, D.2254
 463 034f 89442404 		movl	%eax, 4(%esp)	# D.2254,
 464 0353 E8FCFFFF 		call	_test_assert	#
 464      FF
 465              	.LVL50:
 466 0358 84C0     		testb	%al, %al	# D.2254
 467 035a 0F857CFE 		jne	.L16	#,
 467      FFFF
GAS LISTING /tmp/cctuymYX.s 			page 11


 468              		.loc 1 191 0
 469 0360 E8FCFFFF 		call	test_wait_tick	#
 469      FF
 470              	.LVL51:
 471              		.loc 1 193 0
 472 0365 A1180000 		movl	rlist+24, %eax	# rlist.r_current, D.2257
 472      00
 473 036a C744240C 		movl	$thread1, 12(%esp)	#,
 473      C0050000 
 474              		.loc 1 192 0
 475 0372 8B1D0C00 		movl	vtlist+12, %ebx	# vtlist.vt_systime, D.2256
 475      0000
 476              	.LVL52:
 477              		.loc 1 193 0
 478 0378 89442410 		movl	%eax, 16(%esp)	# D.2257,
 479 037c 8B4008   		movl	8(%eax), %eax	# _65->p_prio, _65->p_prio
 480 037f C7442404 		movl	$17008, 4(%esp)	#,
 480      70420000 
 481 0387 893424   		movl	%esi, (%esp)	# D.2258,
 482 038a 83E801   		subl	$1, %eax	#, D.2256
 483 038d 89442408 		movl	%eax, 8(%esp)	# D.2256,
 484 0391 E8FCFFFF 		call	chThdCreateStatic	#
 484      FF
 485              	.LVL53:
 486              		.loc 1 195 0
 487 0396 C70424FF 		movl	$-1, (%esp)	#,
 487      FFFFFF
 488              		.loc 1 193 0
 489 039d A3000000 		movl	%eax, threads	# D.2257, threads
 489      00
 490              		.loc 1 195 0
 491 03a2 E8FCFFFF 		call	chEvtWaitAny	#
 491      FF
 492              	.LVL54:
 493              		.loc 1 196 0
 494 03a7 C7042409 		movl	$9, (%esp)	#,
 494      000000
 495              		.loc 1 195 0
 496 03ae 89C7     		movl	%eax, %edi	#, m
 497              	.LVL55:
 498              		.loc 1 196 0
 499 03b0 8D4337   		leal	55(%ebx), %eax	#, D.2256
 500              	.LVL56:
 501              		.loc 1 192 0
 502 03b3 83C332   		addl	$50, %ebx	#, target_time
 503              	.LVL57:
 504              		.loc 1 196 0
 505 03b6 89442408 		movl	%eax, 8(%esp)	# D.2256,
 506 03ba 895C2404 		movl	%ebx, 4(%esp)	# target_time,
 507 03be E8FCFFFF 		call	_test_assert_time_window	#
 507      FF
 508              	.LVL58:
 509 03c3 84C0     		testb	%al, %al	# D.2254
 510 03c5 0F8511FE 		jne	.L16	#,
 510      FFFF
 511              		.loc 1 197 0
 512 03cb 31C0     		xorl	%eax, %eax	# D.2254
GAS LISTING /tmp/cctuymYX.s 			page 12


 513 03cd 83EF01   		subl	$1, %edi	#, m
 514              	.LVL59:
 515 03d0 0F94C0   		sete	%al	#, D.2254
 516 03d3 89442404 		movl	%eax, 4(%esp)	# D.2254,
 517 03d7 C704240A 		movl	$10, (%esp)	#,
 517      000000
 518 03de E8FCFFFF 		call	_test_assert	#
 518      FF
 519              	.LVL60:
 520 03e3 84C0     		testb	%al, %al	# D.2254
 521 03e5 0F85F1FD 		jne	.L16	#,
 521      FFFF
 522              		.loc 1 198 0
 523 03eb C70424FF 		movl	$-1, (%esp)	#,
 523      FFFFFF
 524 03f2 E8FCFFFF 		call	chEvtGetAndClearEvents	#
 524      FF
 525              	.LVL61:
 526              		.loc 1 199 0
 527 03f7 C704240B 		movl	$11, (%esp)	#,
 527      000000
 528 03fe 85C0     		testl	%eax, %eax	# m
 529 0400 0F94C0   		sete	%al	#, D.2254
 530              	.LVL62:
 531 0403 0FB6C0   		movzbl	%al, %eax	# D.2254, D.2254
 532 0406 89442404 		movl	%eax, 4(%esp)	# D.2254,
 533 040a E8FCFFFF 		call	_test_assert	#
 533      FF
 534              	.LVL63:
 535 040f 84C0     		testb	%al, %al	# D.2254
 536 0411 0F85C5FD 		jne	.L16	#,
 536      FFFF
 537              		.loc 1 207 0
 538 0417 8D7C2420 		leal	32(%esp), %edi	#, tmp165
 539              		.loc 1 200 0
 540 041b E8FCFFFF 		call	test_wait_threads	#
 540      FF
 541              	.LVL64:
 542              		.loc 1 208 0
 543 0420 8D5C2430 		leal	48(%esp), %ebx	#, tmp166
 544              	.LVL65:
 545              		.loc 1 207 0
 546 0424 C7442408 		movl	$1, 8(%esp)	#,
 546      01000000 
 547 042c 897C2404 		movl	%edi, 4(%esp)	# tmp165,
 548 0430 C7042404 		movl	$es1, (%esp)	#,
 548      000000
 549              		.loc 1 205 0
 550 0437 C7050400 		movl	$es1, es1	#, es1.es_next
 550      00000400 
 550      0000
 551              		.loc 1 206 0
 552 0441 C7050000 		movl	$es2, es2	#, es2.es_next
 552      00000000 
 552      0000
 553              		.loc 1 207 0
 554 044b E8FCFFFF 		call	chEvtRegisterMask	#
GAS LISTING /tmp/cctuymYX.s 			page 13


 554      FF
 555              	.LVL66:
 556              		.loc 1 208 0
 557 0450 C7442408 		movl	$4, 8(%esp)	#,
 557      04000000 
 558 0458 895C2404 		movl	%ebx, 4(%esp)	# tmp166,
 559 045c C7042400 		movl	$es2, (%esp)	#,
 559      000000
 560 0463 E8FCFFFF 		call	chEvtRegisterMask	#
 560      FF
 561              	.LVL67:
 562              		.loc 1 209 0
 563 0468 E8FCFFFF 		call	test_wait_tick	#
 563      FF
 564              	.LVL68:
 565              		.loc 1 211 0
 566 046d A1180000 		movl	rlist+24, %eax	# rlist.r_current, rlist.r_current
 566      00
 567 0472 C7442410 		movl	$.LC1, 16(%esp)	#,
 567      04000000 
 568              		.loc 1 210 0
 569 047a 8B2D0C00 		movl	vtlist+12, %ebp	# vtlist.vt_systime, D.2256
 569      0000
 570              	.LVL69:
 571              		.loc 1 211 0
 572 0480 C744240C 		movl	$thread2, 12(%esp)	#,
 572      80050000 
 573 0488 8B4008   		movl	8(%eax), %eax	# _94->p_prio, _94->p_prio
 574 048b C7442404 		movl	$17008, 4(%esp)	#,
 574      70420000 
 575 0493 893424   		movl	%esi, (%esp)	# D.2258,
 576 0496 83E801   		subl	$1, %eax	#, D.2256
 577 0499 89442408 		movl	%eax, 8(%esp)	# D.2256,
 578 049d E8FCFFFF 		call	chThdCreateStatic	#
 578      FF
 579              	.LVL70:
 580              		.loc 1 213 0
 581 04a2 C7042405 		movl	$5, (%esp)	#,
 581      000000
 582              		.loc 1 211 0
 583 04a9 A3000000 		movl	%eax, threads	# D.2257, threads
 583      00
 584              		.loc 1 213 0
 585 04ae E8FCFFFF 		call	chEvtWaitAll	#
 585      FF
 586              	.LVL71:
 587              		.loc 1 214 0
 588 04b3 8D4537   		leal	55(%ebp), %eax	#, D.2256
 589              		.loc 1 210 0
 590 04b6 83C532   		addl	$50, %ebp	#, target_time
 591              	.LVL72:
 592              		.loc 1 214 0
 593 04b9 89442408 		movl	%eax, 8(%esp)	# D.2256,
 594 04bd 896C2404 		movl	%ebp, 4(%esp)	# target_time,
 595 04c1 C704240C 		movl	$12, (%esp)	#,
 595      000000
 596 04c8 E8FCFFFF 		call	_test_assert_time_window	#
GAS LISTING /tmp/cctuymYX.s 			page 14


 596      FF
 597              	.LVL73:
 598 04cd 84C0     		testb	%al, %al	# D.2254
 599 04cf 0F8507FD 		jne	.L16	#,
 599      FFFF
 600              		.loc 1 215 0
 601 04d5 C70424FF 		movl	$-1, (%esp)	#,
 601      FFFFFF
 602 04dc E8FCFFFF 		call	chEvtGetAndClearEvents	#
 602      FF
 603              	.LVL74:
 604              		.loc 1 216 0
 605 04e1 C704240D 		movl	$13, (%esp)	#,
 605      000000
 606 04e8 85C0     		testl	%eax, %eax	# m
 607 04ea 0F94C0   		sete	%al	#, D.2254
 608              	.LVL75:
 609 04ed 0FB6C0   		movzbl	%al, %eax	# D.2254, D.2254
 610 04f0 89442404 		movl	%eax, 4(%esp)	# D.2254,
 611 04f4 E8FCFFFF 		call	_test_assert	#
 611      FF
 612              	.LVL76:
 613 04f9 84C0     		testb	%al, %al	# D.2254
 614 04fb 0F85DBFC 		jne	.L16	#,
 614      FFFF
 615              		.loc 1 217 0
 616 0501 E8FCFFFF 		call	test_wait_threads	#
 616      FF
 617              	.LVL77:
 618              		.loc 1 218 0
 619 0506 897C2404 		movl	%edi, 4(%esp)	# tmp165,
 620 050a C7042404 		movl	$es1, (%esp)	#,
 620      000000
 621 0511 E8FCFFFF 		call	chEvtUnregister	#
 621      FF
 622              	.LVL78:
 623              		.loc 1 219 0
 624 0516 895C2404 		movl	%ebx, 4(%esp)	# tmp166,
 625 051a C7042400 		movl	$es2, (%esp)	#,
 625      000000
 626 0521 E8FCFFFF 		call	chEvtUnregister	#
 626      FF
 627              	.LVL79:
 628              		.loc 1 220 0
 629 0526 31C0     		xorl	%eax, %eax	# D.2254
 630 0528 813D0400 		cmpl	$es1, es1	#, es1.es_next
 630      00000400 
 630      0000
 631 0532 C704240E 		movl	$14, (%esp)	#,
 631      000000
 632 0539 0F94C0   		sete	%al	#, D.2254
 633 053c 89442404 		movl	%eax, 4(%esp)	# D.2254,
 634 0540 E8FCFFFF 		call	_test_assert	#
 634      FF
 635              	.LVL80:
 636 0545 84C0     		testb	%al, %al	# D.2254
 637 0547 0F858FFC 		jne	.L16	#,
GAS LISTING /tmp/cctuymYX.s 			page 15


 637      FFFF
 638              		.loc 1 221 0
 639 054d 31C0     		xorl	%eax, %eax	# D.2254
 640 054f 813D0000 		cmpl	$es2, es2	#, es2.es_next
 640      00000000 
 640      0000
 641 0559 C704240F 		movl	$15, (%esp)	#,
 641      000000
 642 0560 0F94C0   		sete	%al	#, D.2254
 643 0563 89442404 		movl	%eax, 4(%esp)	# D.2254,
 644 0567 E8FCFFFF 		call	_test_assert	#
 644      FF
 645              	.LVL81:
 646 056c E96BFCFF 		jmp	.L16	#
 646      FF
 647              		.cfi_endproc
 648              	.LFE15:
 649              		.size	evt2_execute, .-evt2_execute
 650 0571 EB0D9090 		.p2align 4,,15
 650      90909090 
 650      90909090 
 650      909090
 651              		.type	thread2, @function
 652              	thread2:
 653              	.LFB14:
 654              		.loc 1 140 0
 655              		.cfi_startproc
 656              	.LVL82:
 657 0580 83EC1C   		subl	$28, %esp	#,
 658              		.cfi_def_cfa_offset 32
 659              		.loc 1 143 0
 660 0583 C7442404 		movl	$0, 4(%esp)	#,
 660      00000000 
 661 058b C7042404 		movl	$es1, (%esp)	#,
 661      000000
 662 0592 E8FCFFFF 		call	chEvtBroadcastFlags	#
 662      FF
 663              	.LVL83:
 664              		.loc 1 144 0
 665 0597 C7042432 		movl	$50, (%esp)	#,
 665      000000
 666 059e E8FCFFFF 		call	chThdSleep	#
 666      FF
 667              	.LVL84:
 668              		.loc 1 145 0
 669 05a3 C7442404 		movl	$0, 4(%esp)	#,
 669      00000000 
 670 05ab C7042400 		movl	$es2, (%esp)	#,
 670      000000
 671 05b2 E8FCFFFF 		call	chEvtBroadcastFlags	#
 671      FF
 672              	.LVL85:
 673              		.loc 1 147 0
 674 05b7 31C0     		xorl	%eax, %eax	#
 675 05b9 83C41C   		addl	$28, %esp	#,
 676              		.cfi_def_cfa_offset 4
 677 05bc C3       		ret
GAS LISTING /tmp/cctuymYX.s 			page 16


 678              		.cfi_endproc
 679              	.LFE14:
 680              		.size	thread2, .-thread2
 681 05bd 8D7600   		.p2align 4,,15
 682              		.type	thread1, @function
 683              	thread1:
 684              	.LFB13:
 685              		.loc 1 133 0
 686              		.cfi_startproc
 687              	.LVL86:
 688 05c0 83EC1C   		subl	$28, %esp	#,
 689              		.cfi_def_cfa_offset 32
 690              		.loc 1 135 0
 691 05c3 C7042432 		movl	$50, (%esp)	#,
 691      000000
 692 05ca E8FCFFFF 		call	chThdSleep	#
 692      FF
 693              	.LVL87:
 694              		.loc 1 136 0
 695 05cf 8B442420 		movl	32(%esp), %eax	# p, p
 696 05d3 C7442404 		movl	$1, 4(%esp)	#,
 696      01000000 
 697 05db 890424   		movl	%eax, (%esp)	# p,
 698 05de E8FCFFFF 		call	chEvtSignal	#
 698      FF
 699              	.LVL88:
 700              		.loc 1 138 0
 701 05e3 31C0     		xorl	%eax, %eax	#
 702 05e5 83C41C   		addl	$28, %esp	#,
 703              		.cfi_def_cfa_offset 4
 704 05e8 C3       		ret
 705              		.cfi_endproc
 706              	.LFE13:
 707              		.size	thread1, .-thread1
 708 05e9 8DB42600 		.p2align 4,,15
 708      000000
 709              		.type	evt3_execute, @function
 710              	evt3_execute:
 711              	.LFB17:
 712              		.loc 1 252 0
 713              		.cfi_startproc
 714 05f0 83EC1C   		subl	$28, %esp	#,
 715              		.cfi_def_cfa_offset 32
 716              		.loc 1 258 0
 717 05f3 C7442404 		movl	$0, 4(%esp)	#,
 717      00000000 
 718 05fb C70424FF 		movl	$-1, (%esp)	#,
 718      FFFFFF
 719 0602 E8FCFFFF 		call	chEvtWaitOneTimeout	#
 719      FF
 720              	.LVL89:
 721              		.loc 1 259 0
 722 0607 C7042401 		movl	$1, (%esp)	#,
 722      000000
 723 060e 85C0     		testl	%eax, %eax	# m
 724 0610 0F94C0   		sete	%al	#, D.2268
 725              	.LVL90:
GAS LISTING /tmp/cctuymYX.s 			page 17


 726 0613 0FB6C0   		movzbl	%al, %eax	# D.2268, D.2268
 727 0616 89442404 		movl	%eax, 4(%esp)	# D.2268,
 728 061a E8FCFFFF 		call	_test_assert	#
 728      FF
 729              	.LVL91:
 730 061f 84C0     		testb	%al, %al	# D.2268
 731 0621 7405     		je	.L30	#,
 732              	.L25:
 733              		.loc 1 270 0
 734 0623 83C41C   		addl	$28, %esp	#,
 735              		.cfi_remember_state
 736              		.cfi_def_cfa_offset 4
 737 0626 C3       		ret
 738              		.p2align 4,,7
 739 0627 90       		.p2align 3
 740              	.L30:
 741              		.cfi_restore_state
 742              		.loc 1 260 0
 743 0628 C7442404 		movl	$0, 4(%esp)	#,
 743      00000000 
 744 0630 C70424FF 		movl	$-1, (%esp)	#,
 744      FFFFFF
 745 0637 E8FCFFFF 		call	chEvtWaitAnyTimeout	#
 745      FF
 746              	.LVL92:
 747              		.loc 1 261 0
 748 063c C7042402 		movl	$2, (%esp)	#,
 748      000000
 749 0643 85C0     		testl	%eax, %eax	# m
 750 0645 0F94C0   		sete	%al	#, D.2268
 751              	.LVL93:
 752 0648 0FB6C0   		movzbl	%al, %eax	# D.2268, D.2268
 753 064b 89442404 		movl	%eax, 4(%esp)	# D.2268,
 754 064f E8FCFFFF 		call	_test_assert	#
 754      FF
 755              	.LVL94:
 756 0654 84C0     		testb	%al, %al	# D.2268
 757 0656 75CB     		jne	.L25	#,
 758              		.loc 1 262 0
 759 0658 C7442404 		movl	$0, 4(%esp)	#,
 759      00000000 
 760 0660 C70424FF 		movl	$-1, (%esp)	#,
 760      FFFFFF
 761 0667 E8FCFFFF 		call	chEvtWaitAllTimeout	#
 761      FF
 762              	.LVL95:
 763              		.loc 1 263 0
 764 066c C7042403 		movl	$3, (%esp)	#,
 764      000000
 765 0673 85C0     		testl	%eax, %eax	# m
 766 0675 0F94C0   		sete	%al	#, D.2268
 767              	.LVL96:
 768 0678 0FB6C0   		movzbl	%al, %eax	# D.2268, D.2268
 769 067b 89442404 		movl	%eax, 4(%esp)	# D.2268,
 770 067f E8FCFFFF 		call	_test_assert	#
 770      FF
 771              	.LVL97:
GAS LISTING /tmp/cctuymYX.s 			page 18


 772 0684 84C0     		testb	%al, %al	# D.2268
 773 0686 759B     		jne	.L25	#,
 774              	.LBB4:
 775              	.LBB5:
 776              		.loc 1 264 0
 777 0688 C7442404 		movl	$10, 4(%esp)	#,
 777      0A000000 
 778 0690 C70424FF 		movl	$-1, (%esp)	#,
 778      FFFFFF
 779 0697 E8FCFFFF 		call	chEvtWaitOneTimeout	#
 779      FF
 780              	.LVL98:
 781              		.loc 1 265 0
 782 069c C7042404 		movl	$4, (%esp)	#,
 782      000000
 783 06a3 85C0     		testl	%eax, %eax	# m
 784 06a5 0F94C0   		sete	%al	#, D.2268
 785              	.LVL99:
 786 06a8 0FB6C0   		movzbl	%al, %eax	# D.2268, D.2268
 787 06ab 89442404 		movl	%eax, 4(%esp)	# D.2268,
 788 06af E8FCFFFF 		call	_test_assert	#
 788      FF
 789              	.LVL100:
 790 06b4 84C0     		testb	%al, %al	# D.2268
 791 06b6 0F8567FF 		jne	.L25	#,
 791      FFFF
 792              		.loc 1 266 0
 793 06bc C7442404 		movl	$10, 4(%esp)	#,
 793      0A000000 
 794 06c4 C70424FF 		movl	$-1, (%esp)	#,
 794      FFFFFF
 795 06cb E8FCFFFF 		call	chEvtWaitAnyTimeout	#
 795      FF
 796              	.LVL101:
 797              		.loc 1 267 0
 798 06d0 C7042405 		movl	$5, (%esp)	#,
 798      000000
 799 06d7 85C0     		testl	%eax, %eax	# m
 800 06d9 0F94C0   		sete	%al	#, D.2268
 801              	.LVL102:
 802 06dc 0FB6C0   		movzbl	%al, %eax	# D.2268, D.2268
 803 06df 89442404 		movl	%eax, 4(%esp)	# D.2268,
 804 06e3 E8FCFFFF 		call	_test_assert	#
 804      FF
 805              	.LVL103:
 806 06e8 84C0     		testb	%al, %al	# D.2268
 807 06ea 0F8533FF 		jne	.L25	#,
 807      FFFF
 808              		.loc 1 268 0
 809 06f0 C7442404 		movl	$10, 4(%esp)	#,
 809      0A000000 
 810 06f8 C70424FF 		movl	$-1, (%esp)	#,
 810      FFFFFF
 811 06ff E8FCFFFF 		call	chEvtWaitAllTimeout	#
 811      FF
 812              	.LVL104:
 813              		.loc 1 269 0
GAS LISTING /tmp/cctuymYX.s 			page 19


 814 0704 C7042406 		movl	$6, (%esp)	#,
 814      000000
 815 070b 85C0     		testl	%eax, %eax	# m
 816 070d 0F94C0   		sete	%al	#, D.2268
 817              	.LVL105:
 818 0710 0FB6C0   		movzbl	%al, %eax	# D.2268, D.2268
 819 0713 89442404 		movl	%eax, 4(%esp)	# D.2268,
 820 0717 E8FCFFFF 		call	_test_assert	#
 820      FF
 821              	.LVL106:
 822 071c E902FFFF 		jmp	.L25	#
 822      FF
 823              	.LBE5:
 824              	.LBE4:
 825              		.cfi_endproc
 826              	.LFE17:
 827              		.size	evt3_execute, .-evt3_execute
 828              		.globl	patternevt
 829              		.section	.rodata
 830              		.align 4
 831              		.type	patternevt, @object
 832              		.size	patternevt, 16
 833              	patternevt:
 834 0000 00000000 		.long	testevt1
 835 0004 00000000 		.long	testevt2
 836 0008 00000000 		.long	testevt3
 837 000c 00000000 		.long	0
 838              		.globl	testevt3
 839              		.section	.rodata.str1.1
 840              	.LC2:
 841 0006 4576656E 		.string	"Events, timeouts"
 841      74732C20 
 841      74696D65 
 841      6F757473 
 841      00
 842              		.section	.rodata
 843              		.align 4
 844              		.type	testevt3, @object
 845              		.size	testevt3, 16
 846              	testevt3:
 847              	# name:
 848 0010 06000000 		.long	.LC2
 849              	# setup:
 850 0014 80010000 		.long	evt3_setup
 851              	# teardown:
 852 0018 00000000 		.long	0
 853              	# execute:
 854 001c F0050000 		.long	evt3_execute
 855              		.globl	testevt2
 856              		.section	.rodata.str1.1
 857              	.LC3:
 858 0017 4576656E 		.string	"Events, wait and broadcast"
 858      74732C20 
 858      77616974 
 858      20616E64 
 858      2062726F 
 859              		.section	.rodata
GAS LISTING /tmp/cctuymYX.s 			page 20


 860              		.align 4
 861              		.type	testevt2, @object
 862              		.size	testevt2, 16
 863              	testevt2:
 864              	# name:
 865 0020 17000000 		.long	.LC3
 866              	# setup:
 867 0024 60010000 		.long	evt2_setup
 868              	# teardown:
 869 0028 00000000 		.long	0
 870              	# execute:
 871 002c A0010000 		.long	evt2_execute
 872              		.globl	testevt1
 873              		.section	.rodata.str1.4,"aMS",@progbits,1
 874              		.align 4
 875              	.LC4:
 876 0000 4576656E 		.string	"Events, registration and dispatch"
 876      74732C20 
 876      72656769 
 876      73747261 
 876      74696F6E 
 877              		.section	.rodata
 878              		.align 4
 879              		.type	testevt1, @object
 880              		.size	testevt1, 16
 881              	testevt1:
 882              	# name:
 883 0030 00000000 		.long	.LC4
 884              	# setup:
 885 0034 40010000 		.long	evt1_setup
 886              	# teardown:
 887 0038 00000000 		.long	0
 888              	# execute:
 889 003c 00000000 		.long	evt1_execute
 890              		.align 4
 891              		.type	evhndl, @object
 892              		.size	evhndl, 12
 893              	evhndl:
 894 0040 30010000 		.long	h1
 895 0044 20010000 		.long	h2
 896 0048 10010000 		.long	h3
 897              		.data
 898              		.align 4
 899              		.type	es2, @object
 900              		.size	es2, 4
 901              	es2:
 902              	# es_next:
 903 0000 00000000 		.long	es2
 904              		.align 4
 905              		.type	es1, @object
 906              		.size	es1, 4
 907              	es1:
 908              	# es_next:
 909 0004 04000000 		.long	es1
 910              		.text
 911              	.Letext0:
 912              		.file 2 "/usr/lib/gcc/x86_64-linux-gnu/4.8/include/stddef.h"
GAS LISTING /tmp/cctuymYX.s 			page 21


 913              		.file 3 "/usr/include/stdint.h"
 914              		.file 4 "../../../os/ports/GCC/SIMIA32/chtypes.h"
 915              		.file 5 "../../../os/kernel/include/chlists.h"
 916              		.file 6 "../../../os/kernel/include/chthreads.h"
 917              		.file 7 "../../../os/ports/GCC/SIMIA32/chcore.h"
 918              		.file 8 "../../../os/kernel/include/chvt.h"
 919              		.file 9 "../../../os/kernel/include/chschd.h"
 920              		.file 10 "../../../os/kernel/include/chmtx.h"
 921              		.file 11 "../../../os/kernel/include/chevents.h"
 922              		.file 12 "../../../test/test.h"
 4312              		.section	.note.GNU-stack,"",@progbits
GAS LISTING /tmp/cctuymYX.s 			page 86

