GAS LISTING /tmp/ccLAgjRM.s 			page 1


   1              		.file	"testmsg.c"
   2              	# GNU C (Ubuntu 4.8.2-19ubuntu1) version 4.8.2 (x86_64-linux-gnu)
   3              	#	compiled by GNU C version 4.8.2, GMP version 5.1.3, MPFR version 3.1.2-p3, MPC version 1.0.1
   4              	# GGC heuristics: --param ggc-min-expand=97 --param ggc-min-heapsize=126309
   5              	# options passed:  -I . -I ../../../os/ports/GCC/SIMIA32
   6              	# -I ../../../os/kernel/include -I ../../../test -I ../../../os/hal/include
   7              	# -I ../../../os/hal/platforms/Posix -I ../../../boards/simulator
   8              	# -I ../../../os/various -imultilib 32 -imultiarch i386-linux-gnu
   9              	# -MD ../../../test/testmsg.d -MF .dep/testmsg.o.d -MP
  10              	# -MQ ../../../test/testmsg.o -D SIMULATOR -D SHELL_USE_IPRINTF=FALSE
  11              	# ../../../test/testmsg.c -m32 -mtune=generic -march=i686
  12              	# -auxbase-strip ../../../test/testmsg.o -ggdb -O2 -Wall -Wextra
  13              	# -Wstrict-prototypes -fomit-frame-pointer -fverbose-asm -fstack-protector
  14              	# -Wformat -Wformat-security
  15              	# options enabled:  -faggressive-loop-optimizations
  16              	# -fasynchronous-unwind-tables -fauto-inc-dec -fbranch-count-reg
  17              	# -fcaller-saves -fcombine-stack-adjustments -fcommon -fcompare-elim
  18              	# -fcprop-registers -fcrossjumping -fcse-follow-jumps -fdefer-pop
  19              	# -fdelete-null-pointer-checks -fdevirtualize -fdwarf2-cfi-asm
  20              	# -fearly-inlining -feliminate-unused-debug-types -fexpensive-optimizations
  21              	# -fforward-propagate -ffunction-cse -fgcse -fgcse-lm -fgnu-runtime
  22              	# -fguess-branch-probability -fhoist-adjacent-loads -fident -fif-conversion
  23              	# -fif-conversion2 -findirect-inlining -finline -finline-atomics
  24              	# -finline-functions-called-once -finline-small-functions -fipa-cp
  25              	# -fipa-profile -fipa-pure-const -fipa-reference -fipa-sra
  26              	# -fira-hoist-pressure -fira-share-save-slots -fira-share-spill-slots
  27              	# -fivopts -fkeep-static-consts -fleading-underscore -fmath-errno
  28              	# -fmerge-constants -fmerge-debug-strings -fmove-loop-invariants
  29              	# -fomit-frame-pointer -foptimize-register-move -foptimize-sibling-calls
  30              	# -foptimize-strlen -fpartial-inlining -fpcc-struct-return -fpeephole
  31              	# -fpeephole2 -fprefetch-loop-arrays -free -fregmove -freorder-blocks
  32              	# -freorder-functions -frerun-cse-after-loop
  33              	# -fsched-critical-path-heuristic -fsched-dep-count-heuristic
  34              	# -fsched-group-heuristic -fsched-interblock -fsched-last-insn-heuristic
  35              	# -fsched-rank-heuristic -fsched-spec -fsched-spec-insn-heuristic
  36              	# -fsched-stalled-insns-dep -fschedule-insns2 -fshow-column -fshrink-wrap
  37              	# -fsigned-zeros -fsplit-ivs-in-unroller -fsplit-wide-types
  38              	# -fstack-protector -fstrict-aliasing -fstrict-overflow
  39              	# -fstrict-volatile-bitfields -fsync-libcalls -fthread-jumps
  40              	# -ftoplevel-reorder -ftrapping-math -ftree-bit-ccp -ftree-builtin-call-dce
  41              	# -ftree-ccp -ftree-ch -ftree-coalesce-vars -ftree-copy-prop
  42              	# -ftree-copyrename -ftree-cselim -ftree-dce -ftree-dominator-opts
  43              	# -ftree-dse -ftree-forwprop -ftree-fre -ftree-loop-if-convert
  44              	# -ftree-loop-im -ftree-loop-ivcanon -ftree-loop-optimize
  45              	# -ftree-parallelize-loops= -ftree-phiprop -ftree-pre -ftree-pta
  46              	# -ftree-reassoc -ftree-scev-cprop -ftree-sink -ftree-slp-vectorize
  47              	# -ftree-slsr -ftree-sra -ftree-switch-conversion -ftree-tail-merge
  48              	# -ftree-ter -ftree-vect-loop-version -ftree-vrp -funit-at-a-time
  49              	# -funwind-tables -fvar-tracking -fvar-tracking-assignments -fverbose-asm
  50              	# -fzero-initialized-in-bss -m32 -m80387 -m96bit-long-double
  51              	# -maccumulate-outgoing-args -malign-stringops -mfancy-math-387
  52              	# -mfp-ret-in-387 -mglibc -mieee-fp -mlong-double-80 -mno-red-zone
  53              	# -mno-sse4 -mpush-args -msahf -mtls-direct-seg-refs
  54              	
  55              		.text
  56              	.Ltext0:
  57              		.section	.rodata.str1.1,"aMS",@progbits,1
GAS LISTING /tmp/ccLAgjRM.s 			page 2


  58              	.LC0:
  59 0000 41424300 		.string	"ABC"
  60              		.text
  61              		.p2align 4,,15
  62              		.type	msg1_execute, @function
  63              	msg1_execute:
  64              	.LFB8:
  65              		.file 1 "../../../test/testmsg.c"
  66              		.loc 1 67 0
  67              		.cfi_startproc
  68 0000 53       		pushl	%ebx	#
  69              		.cfi_def_cfa_offset 8
  70              		.cfi_offset 3, -8
  71 0001 83EC28   		subl	$40, %esp	#,
  72              		.cfi_def_cfa_offset 48
  73              		.loc 1 74 0
  74 0004 A1180000 		movl	rlist+24, %eax	# rlist.r_current, D.2072
  74      00
  75 0009 C744240C 		movl	$thread, 12(%esp)	#,
  75      B0000000 
  76 0011 89442410 		movl	%eax, 16(%esp)	# D.2072,
  77 0015 8B4008   		movl	8(%eax), %eax	# _2->p_prio, _2->p_prio
  78 0018 C7442404 		movl	$17008, 4(%esp)	#,
  78      70420000 
  79 0020 83C001   		addl	$1, %eax	#, D.2073
  80 0023 89442408 		movl	%eax, 8(%esp)	# D.2073,
  81 0027 A1000000 		movl	wa, %eax	# wa, wa
  81      00
  82 002c 890424   		movl	%eax, (%esp)	# wa,
  83 002f E8FCFFFF 		call	chThdCreateStatic	#
  83      FF
  84              	.LVL0:
  85 0034 A3000000 		movl	%eax, threads	# D.2072, threads
  85      00
  86              		.loc 1 76 0
  87 0039 E8FCFFFF 		call	chMsgWait	#
  87      FF
  88              	.LVL1:
  89              		.loc 1 77 0
  90 003e 8B5834   		movl	52(%eax), %ebx	# tp_10->p_msg, msg
  91              	.LVL2:
  92              		.loc 1 78 0
  93 0041 890424   		movl	%eax, (%esp)	# tp,
  94 0044 895C2404 		movl	%ebx, 4(%esp)	# msg,
  95              		.loc 1 79 0
  96 0048 0FBEDB   		movsbl	%bl, %ebx	# msg, msg
  97              	.LVL3:
  98              		.loc 1 78 0
  99 004b E8FCFFFF 		call	chMsgRelease	#
  99      FF
 100              	.LVL4:
 101              		.loc 1 79 0
 102 0050 891C24   		movl	%ebx, (%esp)	# msg,
 103 0053 E8FCFFFF 		call	test_emit_token	#
 103      FF
 104              	.LVL5:
 105              		.loc 1 80 0
GAS LISTING /tmp/ccLAgjRM.s 			page 3


 106 0058 E8FCFFFF 		call	chMsgWait	#
 106      FF
 107              	.LVL6:
 108              		.loc 1 81 0
 109 005d 8B5834   		movl	52(%eax), %ebx	# tp_17->p_msg, msg
 110              	.LVL7:
 111              		.loc 1 82 0
 112 0060 890424   		movl	%eax, (%esp)	# tp,
 113 0063 895C2404 		movl	%ebx, 4(%esp)	# msg,
 114              		.loc 1 83 0
 115 0067 0FBEDB   		movsbl	%bl, %ebx	# msg, msg
 116              	.LVL8:
 117              		.loc 1 82 0
 118 006a E8FCFFFF 		call	chMsgRelease	#
 118      FF
 119              	.LVL9:
 120              		.loc 1 83 0
 121 006f 891C24   		movl	%ebx, (%esp)	# msg,
 122 0072 E8FCFFFF 		call	test_emit_token	#
 122      FF
 123              	.LVL10:
 124              		.loc 1 84 0
 125 0077 E8FCFFFF 		call	chMsgWait	#
 125      FF
 126              	.LVL11:
 127              		.loc 1 85 0
 128 007c 8B5834   		movl	52(%eax), %ebx	# tp_24->p_msg, msg
 129              	.LVL12:
 130              		.loc 1 86 0
 131 007f 890424   		movl	%eax, (%esp)	# tp,
 132 0082 895C2404 		movl	%ebx, 4(%esp)	# msg,
 133              		.loc 1 87 0
 134 0086 0FBEDB   		movsbl	%bl, %ebx	# msg, msg
 135              	.LVL13:
 136              		.loc 1 86 0
 137 0089 E8FCFFFF 		call	chMsgRelease	#
 137      FF
 138              	.LVL14:
 139              		.loc 1 87 0
 140 008e 891C24   		movl	%ebx, (%esp)	# msg,
 141 0091 E8FCFFFF 		call	test_emit_token	#
 141      FF
 142              	.LVL15:
 143              		.loc 1 88 0
 144 0096 C7442404 		movl	$.LC0, 4(%esp)	#,
 144      00000000 
 145 009e C7042401 		movl	$1, (%esp)	#,
 145      000000
 146 00a5 E8FCFFFF 		call	_test_assert_sequence	#
 146      FF
 147              	.LVL16:
 148              		.loc 1 89 0
 149 00aa 83C428   		addl	$40, %esp	#,
 150              		.cfi_def_cfa_offset 8
 151 00ad 5B       		popl	%ebx	#
 152              		.cfi_restore 3
 153              		.cfi_def_cfa_offset 4
GAS LISTING /tmp/ccLAgjRM.s 			page 4


 154 00ae C3       		ret
 155              		.cfi_endproc
 156              	.LFE8:
 157              		.size	msg1_execute, .-msg1_execute
 158 00af 90       		.p2align 4,,15
 159              		.type	thread, @function
 160              	thread:
 161              	.LFB7:
 162              		.loc 1 59 0
 163              		.cfi_startproc
 164              	.LVL17:
 165 00b0 53       		pushl	%ebx	#
 166              		.cfi_def_cfa_offset 8
 167              		.cfi_offset 3, -8
 168 00b1 83EC18   		subl	$24, %esp	#,
 169              		.cfi_def_cfa_offset 32
 170              		.loc 1 59 0
 171 00b4 8B5C2420 		movl	32(%esp), %ebx	# p, p
 172              		.loc 1 61 0
 173 00b8 C7442404 		movl	$65, 4(%esp)	#,
 173      41000000 
 174 00c0 891C24   		movl	%ebx, (%esp)	# p,
 175 00c3 E8FCFFFF 		call	chMsgSend	#
 175      FF
 176              	.LVL18:
 177              		.loc 1 62 0
 178 00c8 891C24   		movl	%ebx, (%esp)	# p,
 179 00cb C7442404 		movl	$66, 4(%esp)	#,
 179      42000000 
 180 00d3 E8FCFFFF 		call	chMsgSend	#
 180      FF
 181              	.LVL19:
 182              		.loc 1 63 0
 183 00d8 891C24   		movl	%ebx, (%esp)	# p,
 184 00db C7442404 		movl	$67, 4(%esp)	#,
 184      43000000 
 185 00e3 E8FCFFFF 		call	chMsgSend	#
 185      FF
 186              	.LVL20:
 187              		.loc 1 65 0
 188 00e8 83C418   		addl	$24, %esp	#,
 189              		.cfi_def_cfa_offset 8
 190 00eb 31C0     		xorl	%eax, %eax	#
 191 00ed 5B       		popl	%ebx	#
 192              		.cfi_restore 3
 193              		.cfi_def_cfa_offset 4
 194 00ee C3       		ret
 195              		.cfi_endproc
 196              	.LFE7:
 197              		.size	thread, .-thread
 198              		.globl	patternmsg
 199              		.section	.rodata
 200              		.align 4
 201              		.type	patternmsg, @object
 202              		.size	patternmsg, 8
 203              	patternmsg:
 204 0000 00000000 		.long	testmsg1
GAS LISTING /tmp/ccLAgjRM.s 			page 5


 205 0004 00000000 		.long	0
 206              		.globl	testmsg1
 207              		.section	.rodata.str1.1
 208              	.LC1:
 209 0004 4D657373 		.string	"Messages, loop"
 209      61676573 
 209      2C206C6F 
 209      6F7000
 210              		.section	.rodata
 211              		.align 4
 212              		.type	testmsg1, @object
 213              		.size	testmsg1, 16
 214              	testmsg1:
 215              	# name:
 216 0008 04000000 		.long	.LC1
 217              	# setup:
 218 000c 00000000 		.long	0
 219              	# teardown:
 220 0010 00000000 		.long	0
 221              	# execute:
 222 0014 00000000 		.long	msg1_execute
 223              		.text
 224              	.Letext0:
 225              		.file 2 "/usr/lib/gcc/x86_64-linux-gnu/4.8/include/stddef.h"
 226              		.file 3 "/usr/include/stdint.h"
 227              		.file 4 "../../../os/ports/GCC/SIMIA32/chtypes.h"
 228              		.file 5 "../../../os/kernel/include/chlists.h"
 229              		.file 6 "../../../os/kernel/include/chthreads.h"
 230              		.file 7 "../../../os/ports/GCC/SIMIA32/chcore.h"
 231              		.file 8 "../../../os/kernel/include/chschd.h"
 232              		.file 9 "../../../os/kernel/include/chmtx.h"
 233              		.file 10 "../../../test/test.h"
 234              		.file 11 "../../../os/kernel/include/chmsg.h"
 1793              		.section	.note.GNU-stack,"",@progbits
GAS LISTING /tmp/ccLAgjRM.s 			page 36

