GAS LISTING /tmp/ccmTSJ1m.s 			page 1


   1              		.file	"testbmk.c"
   2              	# GNU C (Ubuntu 4.8.2-19ubuntu1) version 4.8.2 (x86_64-linux-gnu)
   3              	#	compiled by GNU C version 4.8.2, GMP version 5.1.3, MPFR version 3.1.2-p3, MPC version 1.0.1
   4              	# GGC heuristics: --param ggc-min-expand=97 --param ggc-min-heapsize=126309
   5              	# options passed:  -I . -I ../../../os/ports/GCC/SIMIA32
   6              	# -I ../../../os/kernel/include -I ../../../test -I ../../../os/hal/include
   7              	# -I ../../../os/hal/platforms/Posix -I ../../../boards/simulator
   8              	# -I ../../../os/various -imultilib 32 -imultiarch i386-linux-gnu
   9              	# -MD ../../../test/testbmk.d -MF .dep/testbmk.o.d -MP
  10              	# -MQ ../../../test/testbmk.o -D SIMULATOR -D SHELL_USE_IPRINTF=FALSE
  11              	# ../../../test/testbmk.c -m32 -mtune=generic -march=i686
  12              	# -auxbase-strip ../../../test/testbmk.o -ggdb -O2 -Wall -Wextra
  13              	# -Wstrict-prototypes -fomit-frame-pointer -fverbose-asm -fstack-protector
  14              	# -Wformat -Wformat-security
  15              	# options enabled:  -faggressive-loop-optimizations
  16              	# -fasynchronous-unwind-tables -fauto-inc-dec -fbranch-count-reg
  17              	# -fcaller-saves -fcombine-stack-adjustments -fcommon -fcompare-elim
  18              	# -fcprop-registers -fcrossjumping -fcse-follow-jumps -fdefer-pop
  19              	# -fdelete-null-pointer-checks -fdevirtualize -fdwarf2-cfi-asm
  20              	# -fearly-inlining -feliminate-unused-debug-types -fexpensive-optimizations
  21              	# -fforward-propagate -ffunction-cse -fgcse -fgcse-lm -fgnu-runtime
  22              	# -fguess-branch-probability -fhoist-adjacent-loads -fident -fif-conversion
  23              	# -fif-conversion2 -findirect-inlining -finline -finline-atomics
  24              	# -finline-functions-called-once -finline-small-functions -fipa-cp
  25              	# -fipa-profile -fipa-pure-const -fipa-reference -fipa-sra
  26              	# -fira-hoist-pressure -fira-share-save-slots -fira-share-spill-slots
  27              	# -fivopts -fkeep-static-consts -fleading-underscore -fmath-errno
  28              	# -fmerge-constants -fmerge-debug-strings -fmove-loop-invariants
  29              	# -fomit-frame-pointer -foptimize-register-move -foptimize-sibling-calls
  30              	# -foptimize-strlen -fpartial-inlining -fpcc-struct-return -fpeephole
  31              	# -fpeephole2 -fprefetch-loop-arrays -free -fregmove -freorder-blocks
  32              	# -freorder-functions -frerun-cse-after-loop
  33              	# -fsched-critical-path-heuristic -fsched-dep-count-heuristic
  34              	# -fsched-group-heuristic -fsched-interblock -fsched-last-insn-heuristic
  35              	# -fsched-rank-heuristic -fsched-spec -fsched-spec-insn-heuristic
  36              	# -fsched-stalled-insns-dep -fschedule-insns2 -fshow-column -fshrink-wrap
  37              	# -fsigned-zeros -fsplit-ivs-in-unroller -fsplit-wide-types
  38              	# -fstack-protector -fstrict-aliasing -fstrict-overflow
  39              	# -fstrict-volatile-bitfields -fsync-libcalls -fthread-jumps
  40              	# -ftoplevel-reorder -ftrapping-math -ftree-bit-ccp -ftree-builtin-call-dce
  41              	# -ftree-ccp -ftree-ch -ftree-coalesce-vars -ftree-copy-prop
  42              	# -ftree-copyrename -ftree-cselim -ftree-dce -ftree-dominator-opts
  43              	# -ftree-dse -ftree-forwprop -ftree-fre -ftree-loop-if-convert
  44              	# -ftree-loop-im -ftree-loop-ivcanon -ftree-loop-optimize
  45              	# -ftree-parallelize-loops= -ftree-phiprop -ftree-pre -ftree-pta
  46              	# -ftree-reassoc -ftree-scev-cprop -ftree-sink -ftree-slp-vectorize
  47              	# -ftree-slsr -ftree-sra -ftree-switch-conversion -ftree-tail-merge
  48              	# -ftree-ter -ftree-vect-loop-version -ftree-vrp -funit-at-a-time
  49              	# -funwind-tables -fvar-tracking -fvar-tracking-assignments -fverbose-asm
  50              	# -fzero-initialized-in-bss -m32 -m80387 -m96bit-long-double
  51              	# -maccumulate-outgoing-args -malign-stringops -mfancy-math-387
  52              	# -mfp-ret-in-387 -mglibc -mieee-fp -mlong-double-80 -mno-red-zone
  53              	# -mno-sse4 -mpush-args -msahf -mtls-direct-seg-refs
  54              	
  55              		.text
  56              	.Ltext0:
  57              		.p2align 4,,15
GAS LISTING /tmp/ccmTSJ1m.s 			page 2


  58              		.type	thread2, @function
  59              	thread2:
  60              	.LFB11:
  61              		.file 1 "../../../test/testbmk.c"
  62              		.loc 1 154 0
  63              		.cfi_startproc
  64              	.LVL0:
  65              		.loc 1 157 0
  66 0000 8B442404 		movl	4(%esp), %eax	# p,
  67 0004 C3       		ret
  68              		.cfi_endproc
  69              	.LFE11:
  70              		.size	thread2, .-thread2
  71 0005 8D742600 		.p2align 4,,15
  71      8DBC2700 
  71      000000
  72              		.type	tmo, @function
  73              	tmo:
  74              	.LFB23:
  75              		.loc 1 502 0
  76              		.cfi_startproc
  77              	.LVL1:
  78 0010 F3C3     		rep ret
  79              		.cfi_endproc
  80              	.LFE23:
  81              		.size	tmo, .-tmo
  82              		.section	.rodata.str1.1,"aMS",@progbits,1
  83              	.LC0:
  84 0000 2D2D2D20 		.string	"--- System: "
  84      53797374 
  84      656D3A20 
  84      00
  85              	.LC1:
  86 000d 20627974 		.string	" bytes"
  86      657300
  87              	.LC2:
  88 0014 2D2D2D20 		.string	"--- Thread: "
  88      54687265 
  88      61643A20 
  88      00
  89              	.LC3:
  90 0021 2D2D2D20 		.string	"--- Timer : "
  90      54696D65 
  90      72203A20 
  90      00
  91              	.LC4:
  92 002e 2D2D2D20 		.string	"--- Semaph: "
  92      53656D61 
  92      70683A20 
  92      00
  93              	.LC5:
  94 003b 2D2D2D20 		.string	"--- EventS: "
  94      4576656E 
  94      74533A20 
  94      00
  95              	.LC6:
  96 0048 2D2D2D20 		.string	"--- EventL: "
GAS LISTING /tmp/ccmTSJ1m.s 			page 3


  96      4576656E 
  96      744C3A20 
  96      00
  97              	.LC7:
  98 0055 2D2D2D20 		.string	"--- Mutex : "
  98      4D757465 
  98      78203A20 
  98      00
  99              	.LC8:
 100 0062 2D2D2D20 		.string	"--- CondV.: "
 100      436F6E64 
 100      562E3A20 
 100      00
 101              	.LC9:
 102 006f 2D2D2D20 		.string	"--- Queue : "
 102      51756575 
 102      65203A20 
 102      00
 103              	.LC10:
 104 007c 2D2D2D20 		.string	"--- MailB.: "
 104      4D61696C 
 104      422E3A20 
 104      00
 105              		.text
 106 0012 8DB42600 		.p2align 4,,15
 106      0000008D 
 106      BC270000 
 106      0000
 107              		.type	bmk13_execute, @function
 108              	bmk13_execute:
 109              	.LFB29:
 110              		.loc 1 637 0
 111              		.cfi_startproc
 112              		.loc 1 637 0
 113 0020 83EC1C   		subl	$28, %esp	#,
 114              		.cfi_def_cfa_offset 32
 115              		.loc 1 639 0
 116 0023 C7042400 		movl	$.LC0, (%esp)	#,
 116      000000
 117 002a E8FCFFFF 		call	test_print	#
 117      FF
 118              	.LVL2:
 119              		.loc 1 640 0
 120 002f C70424E4 		movl	$33252, (%esp)	#,
 120      810000
 121 0036 E8FCFFFF 		call	test_printn	#
 121      FF
 122              	.LVL3:
 123              		.loc 1 645 0
 124 003b C704240D 		movl	$.LC1, (%esp)	#,
 124      000000
 125 0042 E8FCFFFF 		call	test_println	#
 125      FF
 126              	.LVL4:
 127              		.loc 1 646 0
 128 0047 C7042414 		movl	$.LC2, (%esp)	#,
 128      000000
GAS LISTING /tmp/ccmTSJ1m.s 			page 4


 129 004e E8FCFFFF 		call	test_print	#
 129      FF
 130              	.LVL5:
 131              		.loc 1 647 0
 132 0053 C7042448 		movl	$72, (%esp)	#,
 132      000000
 133 005a E8FCFFFF 		call	test_printn	#
 133      FF
 134              	.LVL6:
 135              		.loc 1 648 0
 136 005f C704240D 		movl	$.LC1, (%esp)	#,
 136      000000
 137 0066 E8FCFFFF 		call	test_println	#
 137      FF
 138              	.LVL7:
 139              		.loc 1 649 0
 140 006b C7042421 		movl	$.LC3, (%esp)	#,
 140      000000
 141 0072 E8FCFFFF 		call	test_print	#
 141      FF
 142              	.LVL8:
 143              		.loc 1 650 0
 144 0077 C7042414 		movl	$20, (%esp)	#,
 144      000000
 145 007e E8FCFFFF 		call	test_printn	#
 145      FF
 146              	.LVL9:
 147              		.loc 1 651 0
 148 0083 C704240D 		movl	$.LC1, (%esp)	#,
 148      000000
 149 008a E8FCFFFF 		call	test_println	#
 149      FF
 150              	.LVL10:
 151              		.loc 1 653 0
 152 008f C704242E 		movl	$.LC4, (%esp)	#,
 152      000000
 153 0096 E8FCFFFF 		call	test_print	#
 153      FF
 154              	.LVL11:
 155              		.loc 1 654 0
 156 009b C704240C 		movl	$12, (%esp)	#,
 156      000000
 157 00a2 E8FCFFFF 		call	test_printn	#
 157      FF
 158              	.LVL12:
 159              		.loc 1 655 0
 160 00a7 C704240D 		movl	$.LC1, (%esp)	#,
 160      000000
 161 00ae E8FCFFFF 		call	test_println	#
 161      FF
 162              	.LVL13:
 163              		.loc 1 658 0
 164 00b3 C704243B 		movl	$.LC5, (%esp)	#,
 164      000000
 165 00ba E8FCFFFF 		call	test_print	#
 165      FF
 166              	.LVL14:
GAS LISTING /tmp/ccmTSJ1m.s 			page 5


 167              		.loc 1 659 0
 168 00bf C7042404 		movl	$4, (%esp)	#,
 168      000000
 169 00c6 E8FCFFFF 		call	test_printn	#
 169      FF
 170              	.LVL15:
 171              		.loc 1 660 0
 172 00cb C704240D 		movl	$.LC1, (%esp)	#,
 172      000000
 173 00d2 E8FCFFFF 		call	test_println	#
 173      FF
 174              	.LVL16:
 175              		.loc 1 661 0
 176 00d7 C7042448 		movl	$.LC6, (%esp)	#,
 176      000000
 177 00de E8FCFFFF 		call	test_print	#
 177      FF
 178              	.LVL17:
 179              		.loc 1 662 0
 180 00e3 C7042410 		movl	$16, (%esp)	#,
 180      000000
 181 00ea E8FCFFFF 		call	test_printn	#
 181      FF
 182              	.LVL18:
 183              		.loc 1 663 0
 184 00ef C704240D 		movl	$.LC1, (%esp)	#,
 184      000000
 185 00f6 E8FCFFFF 		call	test_println	#
 185      FF
 186              	.LVL19:
 187              		.loc 1 666 0
 188 00fb C7042455 		movl	$.LC7, (%esp)	#,
 188      000000
 189 0102 E8FCFFFF 		call	test_print	#
 189      FF
 190              	.LVL20:
 191              		.loc 1 667 0
 192 0107 C7042410 		movl	$16, (%esp)	#,
 192      000000
 193 010e E8FCFFFF 		call	test_printn	#
 193      FF
 194              	.LVL21:
 195              		.loc 1 668 0
 196 0113 C704240D 		movl	$.LC1, (%esp)	#,
 196      000000
 197 011a E8FCFFFF 		call	test_println	#
 197      FF
 198              	.LVL22:
 199              		.loc 1 671 0
 200 011f C7042462 		movl	$.LC8, (%esp)	#,
 200      000000
 201 0126 E8FCFFFF 		call	test_print	#
 201      FF
 202              	.LVL23:
 203              		.loc 1 672 0
 204 012b C7042408 		movl	$8, (%esp)	#,
 204      000000
GAS LISTING /tmp/ccmTSJ1m.s 			page 6


 205 0132 E8FCFFFF 		call	test_printn	#
 205      FF
 206              	.LVL24:
 207              		.loc 1 673 0
 208 0137 C704240D 		movl	$.LC1, (%esp)	#,
 208      000000
 209 013e E8FCFFFF 		call	test_println	#
 209      FF
 210              	.LVL25:
 211              		.loc 1 676 0
 212 0143 C704246F 		movl	$.LC9, (%esp)	#,
 212      000000
 213 014a E8FCFFFF 		call	test_print	#
 213      FF
 214              	.LVL26:
 215              		.loc 1 677 0
 216 014f C7042424 		movl	$36, (%esp)	#,
 216      000000
 217 0156 E8FCFFFF 		call	test_printn	#
 217      FF
 218              	.LVL27:
 219              		.loc 1 678 0
 220 015b C704240D 		movl	$.LC1, (%esp)	#,
 220      000000
 221 0162 E8FCFFFF 		call	test_println	#
 221      FF
 222              	.LVL28:
 223              		.loc 1 681 0
 224 0167 C704247C 		movl	$.LC10, (%esp)	#,
 224      000000
 225 016e E8FCFFFF 		call	test_print	#
 225      FF
 226              	.LVL29:
 227              		.loc 1 682 0
 228 0173 C7042428 		movl	$40, (%esp)	#,
 228      000000
 229 017a E8FCFFFF 		call	test_printn	#
 229      FF
 230              	.LVL30:
 231              		.loc 1 683 0
 232 017f C704240D 		movl	$.LC1, (%esp)	#,
 232      000000
 233 0186 E8FCFFFF 		call	test_println	#
 233      FF
 234              	.LVL31:
 235              		.loc 1 685 0
 236 018b 83C41C   		addl	$28, %esp	#,
 237              		.cfi_def_cfa_offset 4
 238 018e C3       		ret
 239              		.cfi_endproc
 240              	.LFE29:
 241              		.size	bmk13_execute, .-bmk13_execute
 242 018f 90       		.p2align 4,,15
 243              		.type	thread1, @function
 244              	thread1:
 245              	.LFB7:
 246              		.loc 1 64 0
GAS LISTING /tmp/ccmTSJ1m.s 			page 7


 247              		.cfi_startproc
 248              	.LVL32:
 249 0190 53       		pushl	%ebx	#
 250              		.cfi_def_cfa_offset 8
 251              		.cfi_offset 3, -8
 252 0191 83EC18   		subl	$24, %esp	#,
 253              		.cfi_def_cfa_offset 32
 254              		.p2align 4,,7
 255 0194 8D742600 		.p2align 3
 256              	.L7:
 257              		.loc 1 70 0 discriminator 1
 258 0198 E8FCFFFF 		call	chMsgWait	#
 258      FF
 259              	.LVL33:
 260              		.loc 1 71 0 discriminator 1
 261 019d 8B5834   		movl	52(%eax), %ebx	# tp_4->p_msg, msg
 262              	.LVL34:
 263              		.loc 1 72 0 discriminator 1
 264 01a0 890424   		movl	%eax, (%esp)	# tp,
 265 01a3 895C2404 		movl	%ebx, 4(%esp)	# msg,
 266 01a7 E8FCFFFF 		call	chMsgRelease	#
 266      FF
 267              	.LVL35:
 268              		.loc 1 73 0 discriminator 1
 269 01ac 85DB     		testl	%ebx, %ebx	# msg
 270 01ae 75E8     		jne	.L7	#,
 271              		.loc 1 75 0
 272 01b0 83C418   		addl	$24, %esp	#,
 273              		.cfi_def_cfa_offset 8
 274 01b3 31C0     		xorl	%eax, %eax	#
 275 01b5 5B       		popl	%ebx	#
 276              		.cfi_restore 3
 277              		.cfi_def_cfa_offset 4
 278              	.LVL36:
 279 01b6 C3       		ret
 280              		.cfi_endproc
 281              	.LFE7:
 282              		.size	thread1, .-thread1
 283 01b7 89F68DBC 		.p2align 4,,15
 283      27000000 
 283      00
 284              		.type	msg_loop_test, @function
 285              	msg_loop_test:
 286              	.LFB8:
 287              		.loc 1 80 0
 288              		.cfi_startproc
 289              	.LVL37:
 290 01c0 56       		pushl	%esi	#
 291              		.cfi_def_cfa_offset 8
 292              		.cfi_offset 6, -8
 293 01c1 89C6     		movl	%eax, %esi	# tp, tp
 294 01c3 53       		pushl	%ebx	#
 295              		.cfi_def_cfa_offset 12
 296              		.cfi_offset 3, -12
 297              		.loc 1 82 0
 298 01c4 31DB     		xorl	%ebx, %ebx	# n
 299              		.loc 1 80 0
GAS LISTING /tmp/ccmTSJ1m.s 			page 8


 300 01c6 83EC14   		subl	$20, %esp	#,
 301              		.cfi_def_cfa_offset 32
 302              		.loc 1 83 0
 303 01c9 E8FCFFFF 		call	test_wait_tick	#
 303      FF
 304              	.LVL38:
 305              		.loc 1 84 0
 306 01ce C70424E8 		movl	$1000, (%esp)	#,
 306      030000
 307 01d5 E8FCFFFF 		call	test_start_timer	#
 307      FF
 308              	.LVL39:
 309 01da 8DB60000 		.p2align 4,,7
 309      0000
 310              		.p2align 3
 311              	.L12:
 312              		.loc 1 86 0 discriminator 1
 313 01e0 C7442404 		movl	$1, 4(%esp)	#,
 313      01000000 
 314              		.loc 1 87 0 discriminator 1
 315 01e8 83C301   		addl	$1, %ebx	#, n
 316              	.LVL40:
 317              		.loc 1 86 0 discriminator 1
 318 01eb 893424   		movl	%esi, (%esp)	# tp,
 319 01ee E8FCFFFF 		call	chMsgSend	#
 319      FF
 320              	.LVL41:
 321              		.loc 1 89 0 discriminator 1
 322 01f3 E8FCFFFF 		call	ChkIntSources	#
 322      FF
 323              	.LVL42:
 324              		.loc 1 91 0 discriminator 1
 325 01f8 803D0000 		cmpb	$0, test_timer_done	#, test_timer_done
 325      000000
 326 01ff 74DF     		je	.L12	#,
 327              		.loc 1 92 0
 328 0201 893424   		movl	%esi, (%esp)	# tp,
 329 0204 C7442404 		movl	$0, 4(%esp)	#,
 329      00000000 
 330 020c E8FCFFFF 		call	chMsgSend	#
 330      FF
 331              	.LVL43:
 332              		.loc 1 94 0
 333 0211 83C414   		addl	$20, %esp	#,
 334              		.cfi_def_cfa_offset 12
 335 0214 89D8     		movl	%ebx, %eax	# n,
 336 0216 5B       		popl	%ebx	#
 337              		.cfi_restore 3
 338              		.cfi_def_cfa_offset 8
 339              	.LVL44:
 340 0217 5E       		popl	%esi	#
 341              		.cfi_restore 6
 342              		.cfi_def_cfa_offset 4
 343              	.LVL45:
 344 0218 C3       		ret
 345              		.cfi_endproc
 346              	.LFE8:
GAS LISTING /tmp/ccmTSJ1m.s 			page 9


 347              		.size	msg_loop_test, .-msg_loop_test
 348              		.section	.rodata.str1.1
 349              	.LC11:
 350 0089 2D2D2D20 		.string	"--- Score : "
 350      53636F72 
 350      65203A20 
 350      00
 351              	.LC12:
 352 0096 206D7367 		.string	" msgs/S, "
 352      732F532C 
 352      2000
 353              	.LC13:
 354 00a0 20637478 		.string	" ctxswc/S"
 354      7377632F 
 354      5300
 355              		.text
 356 0219 8DB42600 		.p2align 4,,15
 356      000000
 357              		.type	bmk1_execute, @function
 358              	bmk1_execute:
 359              	.LFB9:
 360              		.loc 1 105 0
 361              		.cfi_startproc
 362 0220 53       		pushl	%ebx	#
 363              		.cfi_def_cfa_offset 8
 364              		.cfi_offset 3, -8
 365 0221 83EC28   		subl	$40, %esp	#,
 366              		.cfi_def_cfa_offset 48
 367              		.loc 1 108 0
 368 0224 A1180000 		movl	rlist+24, %eax	# rlist.r_current, rlist.r_current
 368      00
 369 0229 C7442410 		movl	$0, 16(%esp)	#,
 369      00000000 
 370 0231 C744240C 		movl	$thread1, 12(%esp)	#,
 370      90010000 
 371 0239 8B4008   		movl	8(%eax), %eax	# _2->p_prio, _2->p_prio
 372 023c C7442404 		movl	$17008, 4(%esp)	#,
 372      70420000 
 373 0244 83E801   		subl	$1, %eax	#, D.2375
 374 0247 89442408 		movl	%eax, 8(%esp)	# D.2375,
 375 024b A1000000 		movl	wa, %eax	# wa, wa
 375      00
 376 0250 890424   		movl	%eax, (%esp)	# wa,
 377 0253 E8FCFFFF 		call	chThdCreateStatic	#
 377      FF
 378              	.LVL46:
 379 0258 A3000000 		movl	%eax, threads	# D.2374, threads
 379      00
 380              		.loc 1 109 0
 381 025d E85EFFFF 		call	msg_loop_test	#
 381      FF
 382              	.LVL47:
 383 0262 89C3     		movl	%eax, %ebx	#, n
 384              	.LVL48:
 385              		.loc 1 110 0
 386 0264 E8FCFFFF 		call	test_wait_threads	#
 386      FF
GAS LISTING /tmp/ccmTSJ1m.s 			page 10


 387              	.LVL49:
 388              		.loc 1 111 0
 389 0269 C7042489 		movl	$.LC11, (%esp)	#,
 389      000000
 390 0270 E8FCFFFF 		call	test_print	#
 390      FF
 391              	.LVL50:
 392              		.loc 1 112 0
 393 0275 891C24   		movl	%ebx, (%esp)	# n,
 394              		.loc 1 114 0
 395 0278 01DB     		addl	%ebx, %ebx	# D.2375
 396              	.LVL51:
 397              		.loc 1 112 0
 398 027a E8FCFFFF 		call	test_printn	#
 398      FF
 399              	.LVL52:
 400              		.loc 1 113 0
 401 027f C7042496 		movl	$.LC12, (%esp)	#,
 401      000000
 402 0286 E8FCFFFF 		call	test_print	#
 402      FF
 403              	.LVL53:
 404              		.loc 1 114 0
 405 028b 891C24   		movl	%ebx, (%esp)	# D.2375,
 406 028e E8FCFFFF 		call	test_printn	#
 406      FF
 407              	.LVL54:
 408              		.loc 1 115 0
 409 0293 C70424A0 		movl	$.LC13, (%esp)	#,
 409      000000
 410 029a E8FCFFFF 		call	test_println	#
 410      FF
 411              	.LVL55:
 412              		.loc 1 116 0
 413 029f 83C428   		addl	$40, %esp	#,
 414              		.cfi_def_cfa_offset 8
 415 02a2 5B       		popl	%ebx	#
 416              		.cfi_restore 3
 417              		.cfi_def_cfa_offset 4
 418 02a3 C3       		ret
 419              		.cfi_endproc
 420              	.LFE9:
 421              		.size	bmk1_execute, .-bmk1_execute
 422 02a4 8DB60000 		.p2align 4,,15
 422      00008DBF 
 422      00000000 
 423              		.type	bmk2_execute, @function
 424              	bmk2_execute:
 425              	.LFB10:
 426              		.loc 1 134 0
 427              		.cfi_startproc
 428 02b0 53       		pushl	%ebx	#
 429              		.cfi_def_cfa_offset 8
 430              		.cfi_offset 3, -8
 431 02b1 83EC28   		subl	$40, %esp	#,
 432              		.cfi_def_cfa_offset 48
 433              		.loc 1 137 0
GAS LISTING /tmp/ccmTSJ1m.s 			page 11


 434 02b4 A1180000 		movl	rlist+24, %eax	# rlist.r_current, rlist.r_current
 434      00
 435 02b9 C7442410 		movl	$0, 16(%esp)	#,
 435      00000000 
 436 02c1 C744240C 		movl	$thread1, 12(%esp)	#,
 436      90010000 
 437 02c9 8B4008   		movl	8(%eax), %eax	# _2->p_prio, _2->p_prio
 438 02cc C7442404 		movl	$17008, 4(%esp)	#,
 438      70420000 
 439 02d4 83C001   		addl	$1, %eax	#, D.2383
 440 02d7 89442408 		movl	%eax, 8(%esp)	# D.2383,
 441 02db A1000000 		movl	wa, %eax	# wa, wa
 441      00
 442 02e0 890424   		movl	%eax, (%esp)	# wa,
 443 02e3 E8FCFFFF 		call	chThdCreateStatic	#
 443      FF
 444              	.LVL56:
 445 02e8 A3000000 		movl	%eax, threads	# D.2382, threads
 445      00
 446              		.loc 1 138 0
 447 02ed E8CEFEFF 		call	msg_loop_test	#
 447      FF
 448              	.LVL57:
 449 02f2 89C3     		movl	%eax, %ebx	#, n
 450              	.LVL58:
 451              		.loc 1 139 0
 452 02f4 E8FCFFFF 		call	test_wait_threads	#
 452      FF
 453              	.LVL59:
 454              		.loc 1 140 0
 455 02f9 C7042489 		movl	$.LC11, (%esp)	#,
 455      000000
 456 0300 E8FCFFFF 		call	test_print	#
 456      FF
 457              	.LVL60:
 458              		.loc 1 141 0
 459 0305 891C24   		movl	%ebx, (%esp)	# n,
 460              		.loc 1 143 0
 461 0308 01DB     		addl	%ebx, %ebx	# D.2383
 462              	.LVL61:
 463              		.loc 1 141 0
 464 030a E8FCFFFF 		call	test_printn	#
 464      FF
 465              	.LVL62:
 466              		.loc 1 142 0
 467 030f C7042496 		movl	$.LC12, (%esp)	#,
 467      000000
 468 0316 E8FCFFFF 		call	test_print	#
 468      FF
 469              	.LVL63:
 470              		.loc 1 143 0
 471 031b 891C24   		movl	%ebx, (%esp)	# D.2383,
 472 031e E8FCFFFF 		call	test_printn	#
 472      FF
 473              	.LVL64:
 474              		.loc 1 144 0
 475 0323 C70424A0 		movl	$.LC13, (%esp)	#,
GAS LISTING /tmp/ccmTSJ1m.s 			page 12


 475      000000
 476 032a E8FCFFFF 		call	test_println	#
 476      FF
 477              	.LVL65:
 478              		.loc 1 145 0
 479 032f 83C428   		addl	$40, %esp	#,
 480              		.cfi_def_cfa_offset 8
 481 0332 5B       		popl	%ebx	#
 482              		.cfi_restore 3
 483              		.cfi_def_cfa_offset 4
 484 0333 C3       		ret
 485              		.cfi_endproc
 486              	.LFE10:
 487              		.size	bmk2_execute, .-bmk2_execute
 488 0334 8DB60000 		.p2align 4,,15
 488      00008DBF 
 488      00000000 
 489              		.type	bmk3_execute, @function
 490              	bmk3_execute:
 491              	.LFB12:
 492              		.loc 1 169 0
 493              		.cfi_startproc
 494 0340 53       		pushl	%ebx	#
 495              		.cfi_def_cfa_offset 8
 496              		.cfi_offset 3, -8
 497 0341 83EC28   		subl	$40, %esp	#,
 498              		.cfi_def_cfa_offset 48
 499              		.loc 1 172 0
 500 0344 A1180000 		movl	rlist+24, %eax	# rlist.r_current, rlist.r_current
 500      00
 501 0349 C7442410 		movl	$0, 16(%esp)	#,
 501      00000000 
 502 0351 C744240C 		movl	$thread1, 12(%esp)	#,
 502      90010000 
 503 0359 8B4008   		movl	8(%eax), %eax	# _2->p_prio, _2->p_prio
 504 035c C7442404 		movl	$17008, 4(%esp)	#,
 504      70420000 
 505 0364 83C001   		addl	$1, %eax	#, D.2388
 506 0367 89442408 		movl	%eax, 8(%esp)	# D.2388,
 507 036b A1000000 		movl	wa, %eax	# wa, wa
 507      00
 508 0370 890424   		movl	%eax, (%esp)	# wa,
 509 0373 E8FCFFFF 		call	chThdCreateStatic	#
 509      FF
 510              	.LVL66:
 511              		.loc 1 173 0
 512 0378 C7442410 		movl	$0, 16(%esp)	#,
 512      00000000 
 513 0380 C744240C 		movl	$thread2, 12(%esp)	#,
 513      00000000 
 514              		.loc 1 172 0
 515 0388 A3000000 		movl	%eax, threads	# D.2387, threads
 515      00
 516              		.loc 1 173 0
 517 038d A1180000 		movl	rlist+24, %eax	# rlist.r_current, rlist.r_current
 517      00
 518 0392 8B4008   		movl	8(%eax), %eax	# _9->p_prio, _9->p_prio
GAS LISTING /tmp/ccmTSJ1m.s 			page 13


 519 0395 C7442404 		movl	$17008, 4(%esp)	#,
 519      70420000 
 520 039d 83E802   		subl	$2, %eax	#, D.2388
 521 03a0 89442408 		movl	%eax, 8(%esp)	# D.2388,
 522 03a4 A1040000 		movl	wa+4, %eax	# wa, wa
 522      00
 523 03a9 890424   		movl	%eax, (%esp)	# wa,
 524 03ac E8FCFFFF 		call	chThdCreateStatic	#
 524      FF
 525              	.LVL67:
 526              		.loc 1 174 0
 527 03b1 C7442410 		movl	$0, 16(%esp)	#,
 527      00000000 
 528 03b9 C744240C 		movl	$thread2, 12(%esp)	#,
 528      00000000 
 529              		.loc 1 173 0
 530 03c1 A3040000 		movl	%eax, threads+4	# D.2387, threads
 530      00
 531              		.loc 1 174 0
 532 03c6 A1180000 		movl	rlist+24, %eax	# rlist.r_current, rlist.r_current
 532      00
 533 03cb 8B4008   		movl	8(%eax), %eax	# _16->p_prio, _16->p_prio
 534 03ce C7442404 		movl	$17008, 4(%esp)	#,
 534      70420000 
 535 03d6 83E803   		subl	$3, %eax	#, D.2388
 536 03d9 89442408 		movl	%eax, 8(%esp)	# D.2388,
 537 03dd A1080000 		movl	wa+8, %eax	# wa, wa
 537      00
 538 03e2 890424   		movl	%eax, (%esp)	# wa,
 539 03e5 E8FCFFFF 		call	chThdCreateStatic	#
 539      FF
 540              	.LVL68:
 541              		.loc 1 175 0
 542 03ea C7442410 		movl	$0, 16(%esp)	#,
 542      00000000 
 543 03f2 C744240C 		movl	$thread2, 12(%esp)	#,
 543      00000000 
 544              		.loc 1 174 0
 545 03fa A3080000 		movl	%eax, threads+8	# D.2387, threads
 545      00
 546              		.loc 1 175 0
 547 03ff A1180000 		movl	rlist+24, %eax	# rlist.r_current, rlist.r_current
 547      00
 548 0404 8B4008   		movl	8(%eax), %eax	# _23->p_prio, _23->p_prio
 549 0407 C7442404 		movl	$17008, 4(%esp)	#,
 549      70420000 
 550 040f 83E804   		subl	$4, %eax	#, D.2388
 551 0412 89442408 		movl	%eax, 8(%esp)	# D.2388,
 552 0416 A10C0000 		movl	wa+12, %eax	# wa, wa
 552      00
 553 041b 890424   		movl	%eax, (%esp)	# wa,
 554 041e E8FCFFFF 		call	chThdCreateStatic	#
 554      FF
 555              	.LVL69:
 556              		.loc 1 176 0
 557 0423 C7442410 		movl	$0, 16(%esp)	#,
 557      00000000 
GAS LISTING /tmp/ccmTSJ1m.s 			page 14


 558 042b C744240C 		movl	$thread2, 12(%esp)	#,
 558      00000000 
 559              		.loc 1 175 0
 560 0433 A30C0000 		movl	%eax, threads+12	# D.2387, threads
 560      00
 561              		.loc 1 176 0
 562 0438 A1180000 		movl	rlist+24, %eax	# rlist.r_current, rlist.r_current
 562      00
 563 043d 8B4008   		movl	8(%eax), %eax	# _30->p_prio, _30->p_prio
 564 0440 C7442404 		movl	$17008, 4(%esp)	#,
 564      70420000 
 565 0448 83E805   		subl	$5, %eax	#, D.2388
 566 044b 89442408 		movl	%eax, 8(%esp)	# D.2388,
 567 044f A1100000 		movl	wa+16, %eax	# wa, wa
 567      00
 568 0454 890424   		movl	%eax, (%esp)	# wa,
 569 0457 E8FCFFFF 		call	chThdCreateStatic	#
 569      FF
 570              	.LVL70:
 571 045c A3100000 		movl	%eax, threads+16	# D.2387, threads
 571      00
 572              		.loc 1 177 0
 573 0461 A1000000 		movl	threads, %eax	# threads,
 573      00
 574 0466 E855FDFF 		call	msg_loop_test	#
 574      FF
 575              	.LVL71:
 576 046b 89C3     		movl	%eax, %ebx	#, n
 577              	.LVL72:
 578              		.loc 1 178 0
 579 046d E8FCFFFF 		call	test_wait_threads	#
 579      FF
 580              	.LVL73:
 581              		.loc 1 179 0
 582 0472 C7042489 		movl	$.LC11, (%esp)	#,
 582      000000
 583 0479 E8FCFFFF 		call	test_print	#
 583      FF
 584              	.LVL74:
 585              		.loc 1 180 0
 586 047e 891C24   		movl	%ebx, (%esp)	# n,
 587              		.loc 1 182 0
 588 0481 01DB     		addl	%ebx, %ebx	# D.2388
 589              	.LVL75:
 590              		.loc 1 180 0
 591 0483 E8FCFFFF 		call	test_printn	#
 591      FF
 592              	.LVL76:
 593              		.loc 1 181 0
 594 0488 C7042496 		movl	$.LC12, (%esp)	#,
 594      000000
 595 048f E8FCFFFF 		call	test_print	#
 595      FF
 596              	.LVL77:
 597              		.loc 1 182 0
 598 0494 891C24   		movl	%ebx, (%esp)	# D.2388,
 599 0497 E8FCFFFF 		call	test_printn	#
GAS LISTING /tmp/ccmTSJ1m.s 			page 15


 599      FF
 600              	.LVL78:
 601              		.loc 1 183 0
 602 049c C70424A0 		movl	$.LC13, (%esp)	#,
 602      000000
 603 04a3 E8FCFFFF 		call	test_println	#
 603      FF
 604              	.LVL79:
 605              		.loc 1 184 0
 606 04a8 83C428   		addl	$40, %esp	#,
 607              		.cfi_def_cfa_offset 8
 608 04ab 5B       		popl	%ebx	#
 609              		.cfi_restore 3
 610              		.cfi_def_cfa_offset 4
 611 04ac C3       		ret
 612              		.cfi_endproc
 613              	.LFE12:
 614              		.size	bmk3_execute, .-bmk3_execute
 615              		.section	.rodata.str1.1
 616              	.LC14:
 617 00aa 20746872 		.string	" threads/S"
 617      65616473 
 617      2F5300
 618              		.text
 619 04ad 8D7600   		.p2align 4,,15
 620              		.type	bmk6_execute, @function
 621              	bmk6_execute:
 622              	.LFB16:
 623              		.loc 1 304 0
 624              		.cfi_startproc
 625              	.LVL80:
 626 04b0 57       		pushl	%edi	#
 627              		.cfi_def_cfa_offset 8
 628              		.cfi_offset 7, -8
 629 04b1 56       		pushl	%esi	#
 630              		.cfi_def_cfa_offset 12
 631              		.cfi_offset 6, -12
 632 04b2 53       		pushl	%ebx	#
 633              		.cfi_def_cfa_offset 16
 634              		.cfi_offset 3, -16
 635              		.loc 1 306 0
 636 04b3 31DB     		xorl	%ebx, %ebx	# n
 637              		.loc 1 304 0
 638 04b5 83EC20   		subl	$32, %esp	#,
 639              		.cfi_def_cfa_offset 48
 640              		.loc 1 308 0
 641 04b8 A1180000 		movl	rlist+24, %eax	# rlist.r_current, rlist.r_current
 641      00
 642              		.loc 1 307 0
 643 04bd 8B3D0000 		movl	wa, %edi	# wa, wap
 643      0000
 644              	.LVL81:
 645              		.loc 1 308 0
 646 04c3 8B7008   		movl	8(%eax), %esi	# _5->p_prio, _5->p_prio
 647              		.loc 1 309 0
 648 04c6 E8FCFFFF 		call	test_wait_tick	#
 648      FF
GAS LISTING /tmp/ccmTSJ1m.s 			page 16


 649              	.LVL82:
 650              		.loc 1 310 0
 651 04cb C70424E8 		movl	$1000, (%esp)	#,
 651      030000
 652 04d2 E8FCFFFF 		call	test_start_timer	#
 652      FF
 653              	.LVL83:
 654              		.loc 1 308 0
 655 04d7 83C601   		addl	$1, %esi	#, prio
 656              	.LVL84:
 657 04da 8DB60000 		.p2align 4,,7
 657      0000
 658              		.p2align 3
 659              	.L22:
 660              		.loc 1 312 0 discriminator 1
 661 04e0 C7442410 		movl	$0, 16(%esp)	#,
 661      00000000 
 662              		.loc 1 313 0 discriminator 1
 663 04e8 83C301   		addl	$1, %ebx	#, n
 664              	.LVL85:
 665              		.loc 1 312 0 discriminator 1
 666 04eb C744240C 		movl	$thread2, 12(%esp)	#,
 666      00000000 
 667 04f3 89742408 		movl	%esi, 8(%esp)	# prio,
 668 04f7 C7442404 		movl	$17008, 4(%esp)	#,
 668      70420000 
 669 04ff 893C24   		movl	%edi, (%esp)	# wap,
 670 0502 E8FCFFFF 		call	chThdCreateStatic	#
 670      FF
 671              	.LVL86:
 672              		.loc 1 315 0 discriminator 1
 673 0507 E8FCFFFF 		call	ChkIntSources	#
 673      FF
 674              	.LVL87:
 675              		.loc 1 317 0 discriminator 1
 676 050c 803D0000 		cmpb	$0, test_timer_done	#, test_timer_done
 676      000000
 677 0513 74CB     		je	.L22	#,
 678              		.loc 1 318 0
 679 0515 C7042489 		movl	$.LC11, (%esp)	#,
 679      000000
 680 051c E8FCFFFF 		call	test_print	#
 680      FF
 681              	.LVL88:
 682              		.loc 1 319 0
 683 0521 891C24   		movl	%ebx, (%esp)	# n,
 684 0524 E8FCFFFF 		call	test_printn	#
 684      FF
 685              	.LVL89:
 686              		.loc 1 320 0
 687 0529 C70424AA 		movl	$.LC14, (%esp)	#,
 687      000000
 688 0530 E8FCFFFF 		call	test_println	#
 688      FF
 689              	.LVL90:
 690              		.loc 1 321 0
 691 0535 83C420   		addl	$32, %esp	#,
GAS LISTING /tmp/ccmTSJ1m.s 			page 17


 692              		.cfi_def_cfa_offset 16
 693 0538 5B       		popl	%ebx	#
 694              		.cfi_restore 3
 695              		.cfi_def_cfa_offset 12
 696              	.LVL91:
 697 0539 5E       		popl	%esi	#
 698              		.cfi_restore 6
 699              		.cfi_def_cfa_offset 8
 700              	.LVL92:
 701 053a 5F       		popl	%edi	#
 702              		.cfi_restore 7
 703              		.cfi_def_cfa_offset 4
 704              	.LVL93:
 705 053b C3       		ret
 706              		.cfi_endproc
 707              	.LFE16:
 708              		.size	bmk6_execute, .-bmk6_execute
 709 053c 8D742600 		.p2align 4,,15
 710              		.globl	thread4
 711              		.type	thread4, @function
 712              	thread4:
 713              	.LFB13:
 714              		.loc 1 203 0
 715              		.cfi_startproc
 716              	.LVL94:
 717 0540 53       		pushl	%ebx	#
 718              		.cfi_def_cfa_offset 8
 719              		.cfi_offset 3, -8
 720 0541 83EC18   		subl	$24, %esp	#,
 721              		.cfi_def_cfa_offset 32
 722              		.loc 1 205 0
 723 0544 8B1D1800 		movl	rlist+24, %ebx	# rlist.r_current, self
 723      0000
 724              	.LVL95:
 725              		.loc 1 208 0
 726              	#APP
 727              	# 208 "../../../test/testbmk.c" 1
   1              	/*
   2              	    ChibiOS/RT - Copyright (C) 2006-2013 Giovanni Di Sirio
   3              	
   4              	    Licensed under the Apache License, Version 2.0 (the "License");
   5              	    you may not use this file except in compliance with the License.
   6              	    You may obtain a copy of the License at
   7              	
   8              	        http://www.apache.org/licenses/LICENSE-2.0
   9              	
  10              	    Unless required by applicable law or agreed to in writing, software
  11              	    distributed under the License is distributed on an "AS IS" BASIS,
  12              	    WITHOUT WARRANTIES OR CONDITIONS OF ANY KIND, either express or implied.
  13              	    See the License for the specific language governing permissions and
  14              	    limitations under the License.
  15              	*/
  16              	
  17              	#include "ch.h"
  18              	#include "test.h"
  19              	
  20              	/**
GAS LISTING /tmp/ccmTSJ1m.s 			page 18


  21              	 * @page test_benchmarks Kernel Benchmarks
  22              	 *
  23              	 * File: @ref testbmk.c
  24              	 *
  25              	 * <h2>Description</h2>
  26              	 * This module implements a series of system benchmarks. The benchmarks are
  27              	 * useful as a stress test and as a reference when comparing ChibiOS/RT
  28              	 * with similar systems.
  29              	 *
  30              	 * <h2>Objective</h2>
  31              	 * Objective of the test module is to provide a performance index for the
  32              	 * most critical system subsystems. The performance numbers allow to
  33              	 * discover performance regressions between successive ChibiOS/RT releases.
  34              	 *
  35              	 * <h2>Preconditions</h2>
  36              	 * None.
  37              	 *
  38              	 * <h2>Test Cases</h2>
  39              	 * - @subpage test_benchmarks_001
  40              	 * - @subpage test_benchmarks_002
  41              	 * - @subpage test_benchmarks_003
  42              	 * - @subpage test_benchmarks_004
  43              	 * - @subpage test_benchmarks_005
  44              	 * - @subpage test_benchmarks_006
  45              	 * - @subpage test_benchmarks_007
  46              	 * - @subpage test_benchmarks_008
  47              	 * - @subpage test_benchmarks_009
  48              	 * - @subpage test_benchmarks_010
  49              	 * - @subpage test_benchmarks_011
  50              	 * - @subpage test_benchmarks_012
  51              	 * - @subpage test_benchmarks_013
  52              	 * .
  53              	 * @file testbmk.c Kernel Benchmarks
  54              	 * @brief Kernel Benchmarks source file
  55              	 * @file testbmk.h
  56              	 * @brief Kernel Benchmarks header file
  57              	 */
  58              	
  59              	static Semaphore sem1;
  60              	#if CH_USE_MUTEXES || defined(__DOXYGEN__)
  61              	static Mutex mtx1;
  62              	#endif
  63              	
  64              	static msg_t thread1(void *p) {
  65              	  Thread *tp;
  66              	  msg_t msg;
  67              	
  68              	  (void)p;
  69              	  do {
  70              	    tp = chMsgWait();
  71              	    msg = chMsgGet(tp);
  72              	    chMsgRelease(tp, msg);
  73              	  } while (msg);
  74              	  return 0;
  75              	}
  76              	
  77              	#ifdef __GNUC__
GAS LISTING /tmp/ccmTSJ1m.s 			page 19


  78              	__attribute__((noinline))
  79              	#endif
  80              	static unsigned int msg_loop_test(Thread *tp) {
  81              	
  82              	  uint32_t n = 0;
  83              	  test_wait_tick();
  84              	  test_start_timer(1000);
  85              	  do {
  86              	    (void)chMsgSend(tp, 1);
  87              	    n++;
  88              	#if defined(SIMULATOR)
  89              	    ChkIntSources();
  90              	#endif
  91              	  } while (!test_timer_done);
  92              	  (void)chMsgSend(tp, 0);
  93              	  return n;
  94              	}
  95              	
  96              	/**
  97              	 * @page test_benchmarks_001 Messages performance #1
  98              	 *
  99              	 * <h2>Description</h2>
 100              	 * A message server thread is created with a lower priority than the client
 101              	 * thread, the messages throughput per second is measured and the result
 102              	 * printed in the output log.
 103              	 */
 104              	
 105              	static void bmk1_execute(void) {
 106              	  uint32_t n;
 107              	
 108              	  threads[0] = chThdCreateStatic(wa[0], WA_SIZE, chThdGetPriority()-1, thread1, NULL);
 109              	  n = msg_loop_test(threads[0]);
 110              	  test_wait_threads();
 111              	  test_print("--- Score : ");
 112              	  test_printn(n);
 113              	  test_print(" msgs/S, ");
 114              	  test_printn(n << 1);
 115              	  test_println(" ctxswc/S");
 116              	}
 117              	
 118              	ROMCONST struct testcase testbmk1 = {
 119              	  "Benchmark, messages #1",
 120              	  NULL,
 121              	  NULL,
 122              	  bmk1_execute
 123              	};
 124              	
 125              	/**
 126              	 * @page test_benchmarks_002 Messages performance #2
 127              	 *
 128              	 * <h2>Description</h2>
 129              	 * A message server thread is created with an higher priority than the client
 130              	 * thread, the messages throughput per second is measured and the result
 131              	 * printed in the output log.
 132              	 */
 133              	
 134              	static void bmk2_execute(void) {
GAS LISTING /tmp/ccmTSJ1m.s 			page 20


 135              	  uint32_t n;
 136              	
 137              	  threads[0] = chThdCreateStatic(wa[0], WA_SIZE, chThdGetPriority()+1, thread1, NULL);
 138              	  n = msg_loop_test(threads[0]);
 139              	  test_wait_threads();
 140              	  test_print("--- Score : ");
 141              	  test_printn(n);
 142              	  test_print(" msgs/S, ");
 143              	  test_printn(n << 1);
 144              	  test_println(" ctxswc/S");
 145              	}
 146              	
 147              	ROMCONST struct testcase testbmk2 = {
 148              	  "Benchmark, messages #2",
 149              	  NULL,
 150              	  NULL,
 151              	  bmk2_execute
 152              	};
 153              	
 154              	static msg_t thread2(void *p) {
 155              	
 156              	  return (msg_t)p;
 157              	}
 158              	
 159              	/**
 160              	 * @page test_benchmarks_003 Messages performance #3
 161              	 *
 162              	 * <h2>Description</h2>
 163              	 * A message server thread is created with an higher priority than the client
 164              	 * thread, four lower priority threads crowd the ready list, the messages
 165              	 * throughput per second is measured while the ready list and the result
 166              	 * printed in the output log.
 167              	 */
 168              	
 169              	static void bmk3_execute(void) {
 170              	  uint32_t n;
 171              	
 172              	  threads[0] = chThdCreateStatic(wa[0], WA_SIZE, chThdGetPriority()+1, thread1, NULL);
 173              	  threads[1] = chThdCreateStatic(wa[1], WA_SIZE, chThdGetPriority()-2, thread2, NULL);
 174              	  threads[2] = chThdCreateStatic(wa[2], WA_SIZE, chThdGetPriority()-3, thread2, NULL);
 175              	  threads[3] = chThdCreateStatic(wa[3], WA_SIZE, chThdGetPriority()-4, thread2, NULL);
 176              	  threads[4] = chThdCreateStatic(wa[4], WA_SIZE, chThdGetPriority()-5, thread2, NULL);
 177              	  n = msg_loop_test(threads[0]);
 178              	  test_wait_threads();
 179              	  test_print("--- Score : ");
 180              	  test_printn(n);
 181              	  test_print(" msgs/S, ");
 182              	  test_printn(n << 1);
 183              	  test_println(" ctxswc/S");
 184              	}
 185              	
 186              	ROMCONST struct testcase testbmk3 = {
 187              	  "Benchmark, messages #3",
 188              	  NULL,
 189              	  NULL,
 190              	  bmk3_execute
 191              	};
GAS LISTING /tmp/ccmTSJ1m.s 			page 21


 192              	
 193              	/**
 194              	 * @page test_benchmarks_004 Context Switch performance
 195              	 *
 196              	 * <h2>Description</h2>
 197              	 * A thread is created that just performs a @p chSchGoSleepS() into a loop,
 198              	 * the thread is awakened as fast is possible by the tester thread.<br>
 199              	 * The Context Switch performance is calculated by measuring the number of
 200              	 * iterations after a second of continuous operations.
 201              	 */
 202              	
 203              	msg_t thread4(void *p) {
 204              	  msg_t msg;
 205              	  Thread *self = chThdSelf();
 206              	
 207              	  (void)p;
 208 054a 90       	  chSysLock();
 209              	  do {
 728              		nop
 729              	# 0 "" 2
 730 054b 908D7426 		.p2align 4,,7
 730      00
 731              		.p2align 3
 732              	#NO_APP
 733              	.L26:
 734              		.loc 1 210 0 discriminator 1
 735 0550 C7042402 		movl	$2, (%esp)	#,
 735      000000
 736 0557 E8FCFFFF 		call	chSchGoSleepS	#
 736      FF
 737              	.LVL96:
 738              		.loc 1 212 0 discriminator 1
 739 055c 8B4324   		movl	36(%ebx), %eax	# self_3->p_u.rdymsg,
 740 055f 85C0     		testl	%eax, %eax	#
 741 0561 74ED     		je	.L26	#,
 742              		.loc 1 213 0
 743              	#APP
 744              	# 213 "../../../test/testbmk.c" 1
 210              	    chSchGoSleepS(THD_STATE_SUSPENDED);
 211              	    msg = self->p_u.rdymsg;
 212              	  } while (msg == RDY_OK);
 213 0563 90       	  chSysUnlock();
 214              	  return 0;
 745              		nop
 746              	# 0 "" 2
 747              		.loc 1 215 0
 748              	#NO_APP
 749 0564 83C418   		addl	$24, %esp	#,
 750              		.cfi_def_cfa_offset 8
 751 0567 31C0     		xorl	%eax, %eax	#
 752 0569 5B       		popl	%ebx	#
 753              		.cfi_restore 3
 754              		.cfi_def_cfa_offset 4
 755              	.LVL97:
 756 056a C3       		ret
 757              		.cfi_endproc
 758              	.LFE13:
GAS LISTING /tmp/ccmTSJ1m.s 			page 22


 759              		.size	thread4, .-thread4
 760 056b 908D7426 		.p2align 4,,15
 760      00
 761              		.type	bmk4_execute, @function
 762              	bmk4_execute:
 763              	.LFB14:
 764              		.loc 1 217 0
 765              		.cfi_startproc
 766 0570 56       		pushl	%esi	#
 767              		.cfi_def_cfa_offset 8
 768              		.cfi_offset 6, -8
 769              		.loc 1 222 0
 770 0571 31F6     		xorl	%esi, %esi	# n
 771              		.loc 1 217 0
 772 0573 53       		pushl	%ebx	#
 773              		.cfi_def_cfa_offset 12
 774              		.cfi_offset 3, -12
 775 0574 83EC24   		subl	$36, %esp	#,
 776              		.cfi_def_cfa_offset 48
 777              		.loc 1 221 0
 778 0577 A1180000 		movl	rlist+24, %eax	# rlist.r_current, rlist.r_current
 778      00
 779 057c C7442410 		movl	$0, 16(%esp)	#,
 779      00000000 
 780 0584 C744240C 		movl	$thread4, 12(%esp)	#,
 780      00000000 
 781 058c 8B4008   		movl	8(%eax), %eax	# _4->p_prio, _4->p_prio
 782 058f C7442404 		movl	$17008, 4(%esp)	#,
 782      70420000 
 783 0597 83C001   		addl	$1, %eax	#, D.2405
 784 059a 89442408 		movl	%eax, 8(%esp)	# D.2405,
 785 059e A1000000 		movl	wa, %eax	# wa, wa
 785      00
 786 05a3 890424   		movl	%eax, (%esp)	# wa,
 787 05a6 E8FCFFFF 		call	chThdCreateStatic	#
 787      FF
 788              	.LVL98:
 789 05ab 89C3     		movl	%eax, %ebx	#, D.2404
 790 05ad A3000000 		movl	%eax, threads	# D.2404, threads
 790      00
 791              	.LVL99:
 792              		.loc 1 223 0
 793 05b2 E8FCFFFF 		call	test_wait_tick	#
 793      FF
 794              	.LVL100:
 795              		.loc 1 224 0
 796 05b7 C70424E8 		movl	$1000, (%esp)	#,
 796      030000
 797 05be E8FCFFFF 		call	test_start_timer	#
 797      FF
 798              	.LVL101:
 799              		.p2align 4,,7
 800 05c3 908D7426 		.p2align 3
 800      00
 801              	.L30:
 802              		.loc 1 226 0 discriminator 1
 803              	#APP
GAS LISTING /tmp/ccmTSJ1m.s 			page 23


 804              	# 226 "../../../test/testbmk.c" 1
 215              	}
 216              	
 217              	static void bmk4_execute(void) {
 218              	  Thread *tp;
 219              	  uint32_t n;
 220              	
 221              	  tp = threads[0] = chThdCreateStatic(wa[0], WA_SIZE, chThdGetPriority()+1, thread4, NULL);
 222              	  n = 0;
 223              	  test_wait_tick();
 224              	  test_start_timer(1000);
 225              	  do {
 226 05c8 90       	    chSysLock();
 227              	    chSchWakeupS(tp, RDY_OK);
 805              		nop
 806              	# 0 "" 2
 807              		.loc 1 227 0 discriminator 1
 808              	#NO_APP
 809 05c9 C7442404 		movl	$0, 4(%esp)	#,
 809      00000000 
 810 05d1 891C24   		movl	%ebx, (%esp)	# D.2404,
 811 05d4 E8FCFFFF 		call	chSchWakeupS	#
 811      FF
 812              	.LVL102:
 813              		.loc 1 228 0 discriminator 1
 814 05d9 C7442404 		movl	$0, 4(%esp)	#,
 814      00000000 
 815 05e1 891C24   		movl	%ebx, (%esp)	# D.2404,
 816 05e4 E8FCFFFF 		call	chSchWakeupS	#
 816      FF
 817              	.LVL103:
 818              		.loc 1 229 0 discriminator 1
 819 05e9 C7442404 		movl	$0, 4(%esp)	#,
 819      00000000 
 820 05f1 891C24   		movl	%ebx, (%esp)	# D.2404,
 821 05f4 E8FCFFFF 		call	chSchWakeupS	#
 821      FF
 822              	.LVL104:
 823              		.loc 1 230 0 discriminator 1
 824 05f9 C7442404 		movl	$0, 4(%esp)	#,
 824      00000000 
 825 0601 891C24   		movl	%ebx, (%esp)	# D.2404,
 826 0604 E8FCFFFF 		call	chSchWakeupS	#
 826      FF
 827              	.LVL105:
 828              		.loc 1 231 0 discriminator 1
 829              	#APP
 830              	# 231 "../../../test/testbmk.c" 1
 228              	    chSchWakeupS(tp, RDY_OK);
 229              	    chSchWakeupS(tp, RDY_OK);
 230              	    chSchWakeupS(tp, RDY_OK);
 231 0609 90       	    chSysUnlock();
 232              	    n += 4;
 831              		nop
 832              	# 0 "" 2
 833              		.loc 1 232 0 discriminator 1
 834              	#NO_APP
GAS LISTING /tmp/ccmTSJ1m.s 			page 24


 835 060a 83C604   		addl	$4, %esi	#, n
 836              	.LVL106:
 837              		.loc 1 234 0 discriminator 1
 838 060d E8FCFFFF 		call	ChkIntSources	#
 838      FF
 839              	.LVL107:
 840              		.loc 1 236 0 discriminator 1
 841 0612 803D0000 		cmpb	$0, test_timer_done	#, test_timer_done
 841      000000
 842 0619 74AD     		je	.L30	#,
 843              		.loc 1 237 0
 844              	#APP
 845              	# 237 "../../../test/testbmk.c" 1
 233              	#if defined(SIMULATOR)
 234              	    ChkIntSources();
 235              	#endif
 236              	  } while (!test_timer_done);
 237 061b 90       	  chSysLock();
 238              	  chSchWakeupS(tp, RDY_TIMEOUT);
 846              		nop
 847              	# 0 "" 2
 848              		.loc 1 238 0
 849              	#NO_APP
 850 061c C7442404 		movl	$-1, 4(%esp)	#,
 850      FFFFFFFF 
 851 0624 891C24   		movl	%ebx, (%esp)	# D.2404,
 852 0627 E8FCFFFF 		call	chSchWakeupS	#
 852      FF
 853              	.LVL108:
 854              		.loc 1 239 0
 855              	#APP
 856              	# 239 "../../../test/testbmk.c" 1
 239 062c 90       	  chSysUnlock();
 240              	
 857              		nop
 858              	# 0 "" 2
 859              		.loc 1 241 0
 860              	#NO_APP
 861 062d E8FCFFFF 		call	test_wait_threads	#
 861      FF
 862              	.LVL109:
 863              		.loc 1 243 0
 864 0632 01F6     		addl	%esi, %esi	# D.2405
 865              	.LVL110:
 866              		.loc 1 242 0
 867 0634 C7042489 		movl	$.LC11, (%esp)	#,
 867      000000
 868 063b E8FCFFFF 		call	test_print	#
 868      FF
 869              	.LVL111:
 870              		.loc 1 243 0
 871 0640 893424   		movl	%esi, (%esp)	# D.2405,
 872 0643 E8FCFFFF 		call	test_printn	#
 872      FF
 873              	.LVL112:
 874              		.loc 1 244 0
 875 0648 C70424A0 		movl	$.LC13, (%esp)	#,
GAS LISTING /tmp/ccmTSJ1m.s 			page 25


 875      000000
 876 064f E8FCFFFF 		call	test_println	#
 876      FF
 877              	.LVL113:
 878              		.loc 1 245 0
 879 0654 83C424   		addl	$36, %esp	#,
 880              		.cfi_def_cfa_offset 12
 881 0657 5B       		popl	%ebx	#
 882              		.cfi_restore 3
 883              		.cfi_def_cfa_offset 8
 884              	.LVL114:
 885 0658 5E       		popl	%esi	#
 886              		.cfi_restore 6
 887              		.cfi_def_cfa_offset 4
 888 0659 C3       		ret
 889              		.cfi_endproc
 890              	.LFE14:
 891              		.size	bmk4_execute, .-bmk4_execute
 892 065a 8DB60000 		.p2align 4,,15
 892      0000
 893              		.type	bmk5_execute, @function
 894              	bmk5_execute:
 895              	.LFB15:
 896              		.loc 1 265 0
 897              		.cfi_startproc
 898              	.LVL115:
 899 0660 57       		pushl	%edi	#
 900              		.cfi_def_cfa_offset 8
 901              		.cfi_offset 7, -8
 902 0661 56       		pushl	%esi	#
 903              		.cfi_def_cfa_offset 12
 904              		.cfi_offset 6, -12
 905 0662 53       		pushl	%ebx	#
 906              		.cfi_def_cfa_offset 16
 907              		.cfi_offset 3, -16
 908              		.loc 1 267 0
 909 0663 31DB     		xorl	%ebx, %ebx	# n
 910              		.loc 1 265 0
 911 0665 83EC20   		subl	$32, %esp	#,
 912              		.cfi_def_cfa_offset 48
 913              		.loc 1 269 0
 914 0668 A1180000 		movl	rlist+24, %eax	# rlist.r_current, rlist.r_current
 914      00
 915              		.loc 1 268 0
 916 066d 8B3D0000 		movl	wa, %edi	# wa, wap
 916      0000
 917              	.LVL116:
 918              		.loc 1 269 0
 919 0673 8B7008   		movl	8(%eax), %esi	# _5->p_prio, _5->p_prio
 920              		.loc 1 270 0
 921 0676 E8FCFFFF 		call	test_wait_tick	#
 921      FF
 922              	.LVL117:
 923              		.loc 1 271 0
 924 067b C70424E8 		movl	$1000, (%esp)	#,
 924      030000
 925 0682 E8FCFFFF 		call	test_start_timer	#
GAS LISTING /tmp/ccmTSJ1m.s 			page 26


 925      FF
 926              	.LVL118:
 927              		.loc 1 269 0
 928 0687 83EE01   		subl	$1, %esi	#, prio
 929              	.LVL119:
 930 068a 8DB60000 		.p2align 4,,7
 930      0000
 931              		.p2align 3
 932              	.L34:
 933              		.loc 1 273 0 discriminator 1
 934 0690 C7442410 		movl	$0, 16(%esp)	#,
 934      00000000 
 935              		.loc 1 274 0 discriminator 1
 936 0698 83C301   		addl	$1, %ebx	#, n
 937              	.LVL120:
 938              		.loc 1 273 0 discriminator 1
 939 069b C744240C 		movl	$thread2, 12(%esp)	#,
 939      00000000 
 940 06a3 89742408 		movl	%esi, 8(%esp)	# prio,
 941 06a7 C7442404 		movl	$17008, 4(%esp)	#,
 941      70420000 
 942 06af 893C24   		movl	%edi, (%esp)	# wap,
 943 06b2 E8FCFFFF 		call	chThdCreateStatic	#
 943      FF
 944              	.LVL121:
 945 06b7 890424   		movl	%eax, (%esp)	# D.2411,
 946 06ba E8FCFFFF 		call	chThdWait	#
 946      FF
 947              	.LVL122:
 948              		.loc 1 276 0 discriminator 1
 949 06bf E8FCFFFF 		call	ChkIntSources	#
 949      FF
 950              	.LVL123:
 951              		.loc 1 278 0 discriminator 1
 952 06c4 803D0000 		cmpb	$0, test_timer_done	#, test_timer_done
 952      000000
 953 06cb 74C3     		je	.L34	#,
 954              		.loc 1 279 0
 955 06cd C7042489 		movl	$.LC11, (%esp)	#,
 955      000000
 956 06d4 E8FCFFFF 		call	test_print	#
 956      FF
 957              	.LVL124:
 958              		.loc 1 280 0
 959 06d9 891C24   		movl	%ebx, (%esp)	# n,
 960 06dc E8FCFFFF 		call	test_printn	#
 960      FF
 961              	.LVL125:
 962              		.loc 1 281 0
 963 06e1 C70424AA 		movl	$.LC14, (%esp)	#,
 963      000000
 964 06e8 E8FCFFFF 		call	test_println	#
 964      FF
 965              	.LVL126:
 966              		.loc 1 282 0
 967 06ed 83C420   		addl	$32, %esp	#,
 968              		.cfi_def_cfa_offset 16
GAS LISTING /tmp/ccmTSJ1m.s 			page 27


 969 06f0 5B       		popl	%ebx	#
 970              		.cfi_restore 3
 971              		.cfi_def_cfa_offset 12
 972              	.LVL127:
 973 06f1 5E       		popl	%esi	#
 974              		.cfi_restore 6
 975              		.cfi_def_cfa_offset 8
 976              	.LVL128:
 977 06f2 5F       		popl	%edi	#
 978              		.cfi_restore 7
 979              		.cfi_def_cfa_offset 4
 980              	.LVL129:
 981 06f3 C3       		ret
 982              		.cfi_endproc
 983              	.LFE15:
 984              		.size	bmk5_execute, .-bmk5_execute
 985              		.section	.rodata.str1.1
 986              	.LC15:
 987 00b5 20726573 		.string	" reschedules/S, "
 987      63686564 
 987      756C6573 
 987      2F532C20 
 987      00
 988              		.text
 989 06f4 8DB60000 		.p2align 4,,15
 989      00008DBF 
 989      00000000 
 990              		.type	bmk7_execute, @function
 991              	bmk7_execute:
 992              	.LFB19:
 993              		.loc 1 354 0
 994              		.cfi_startproc
 995 0700 53       		pushl	%ebx	#
 996              		.cfi_def_cfa_offset 8
 997              		.cfi_offset 3, -8
 998              		.loc 1 363 0
 999 0701 31DB     		xorl	%ebx, %ebx	# n
 1000              		.loc 1 354 0
 1001 0703 83EC28   		subl	$40, %esp	#,
 1002              		.cfi_def_cfa_offset 48
 1003              		.loc 1 357 0
 1004 0706 A1180000 		movl	rlist+24, %eax	# rlist.r_current, rlist.r_current
 1004      00
 1005 070b C7442410 		movl	$0, 16(%esp)	#,
 1005      00000000 
 1006 0713 C744240C 		movl	$thread3, 12(%esp)	#,
 1006      C0080000 
 1007 071b 8B4008   		movl	8(%eax), %eax	# _4->p_prio, _4->p_prio
 1008 071e C7442404 		movl	$17008, 4(%esp)	#,
 1008      70420000 
 1009 0726 83C005   		addl	$5, %eax	#, D.2418
 1010 0729 89442408 		movl	%eax, 8(%esp)	# D.2418,
 1011 072d A1000000 		movl	wa, %eax	# wa, wa
 1011      00
 1012 0732 890424   		movl	%eax, (%esp)	# wa,
 1013 0735 E8FCFFFF 		call	chThdCreateStatic	#
 1013      FF
GAS LISTING /tmp/ccmTSJ1m.s 			page 28


 1014              	.LVL130:
 1015              		.loc 1 358 0
 1016 073a C7442410 		movl	$0, 16(%esp)	#,
 1016      00000000 
 1017 0742 C744240C 		movl	$thread3, 12(%esp)	#,
 1017      C0080000 
 1018              		.loc 1 357 0
 1019 074a A3000000 		movl	%eax, threads	# D.2417, threads
 1019      00
 1020              		.loc 1 358 0
 1021 074f A1180000 		movl	rlist+24, %eax	# rlist.r_current, rlist.r_current
 1021      00
 1022 0754 8B4008   		movl	8(%eax), %eax	# _11->p_prio, _11->p_prio
 1023 0757 C7442404 		movl	$17008, 4(%esp)	#,
 1023      70420000 
 1024 075f 83C004   		addl	$4, %eax	#, D.2418
 1025 0762 89442408 		movl	%eax, 8(%esp)	# D.2418,
 1026 0766 A1040000 		movl	wa+4, %eax	# wa, wa
 1026      00
 1027 076b 890424   		movl	%eax, (%esp)	# wa,
 1028 076e E8FCFFFF 		call	chThdCreateStatic	#
 1028      FF
 1029              	.LVL131:
 1030              		.loc 1 359 0
 1031 0773 C7442410 		movl	$0, 16(%esp)	#,
 1031      00000000 
 1032 077b C744240C 		movl	$thread3, 12(%esp)	#,
 1032      C0080000 
 1033              		.loc 1 358 0
 1034 0783 A3040000 		movl	%eax, threads+4	# D.2417, threads
 1034      00
 1035              		.loc 1 359 0
 1036 0788 A1180000 		movl	rlist+24, %eax	# rlist.r_current, rlist.r_current
 1036      00
 1037 078d 8B4008   		movl	8(%eax), %eax	# _18->p_prio, _18->p_prio
 1038 0790 C7442404 		movl	$17008, 4(%esp)	#,
 1038      70420000 
 1039 0798 83C003   		addl	$3, %eax	#, D.2418
 1040 079b 89442408 		movl	%eax, 8(%esp)	# D.2418,
 1041 079f A1080000 		movl	wa+8, %eax	# wa, wa
 1041      00
 1042 07a4 890424   		movl	%eax, (%esp)	# wa,
 1043 07a7 E8FCFFFF 		call	chThdCreateStatic	#
 1043      FF
 1044              	.LVL132:
 1045              		.loc 1 360 0
 1046 07ac C7442410 		movl	$0, 16(%esp)	#,
 1046      00000000 
 1047 07b4 C744240C 		movl	$thread3, 12(%esp)	#,
 1047      C0080000 
 1048              		.loc 1 359 0
 1049 07bc A3080000 		movl	%eax, threads+8	# D.2417, threads
 1049      00
 1050              		.loc 1 360 0
 1051 07c1 A1180000 		movl	rlist+24, %eax	# rlist.r_current, rlist.r_current
 1051      00
 1052 07c6 8B4008   		movl	8(%eax), %eax	# _25->p_prio, _25->p_prio
GAS LISTING /tmp/ccmTSJ1m.s 			page 29


 1053 07c9 C7442404 		movl	$17008, 4(%esp)	#,
 1053      70420000 
 1054 07d1 83C002   		addl	$2, %eax	#, D.2418
 1055 07d4 89442408 		movl	%eax, 8(%esp)	# D.2418,
 1056 07d8 A10C0000 		movl	wa+12, %eax	# wa, wa
 1056      00
 1057 07dd 890424   		movl	%eax, (%esp)	# wa,
 1058 07e0 E8FCFFFF 		call	chThdCreateStatic	#
 1058      FF
 1059              	.LVL133:
 1060              		.loc 1 361 0
 1061 07e5 C7442410 		movl	$0, 16(%esp)	#,
 1061      00000000 
 1062 07ed C744240C 		movl	$thread3, 12(%esp)	#,
 1062      C0080000 
 1063              		.loc 1 360 0
 1064 07f5 A30C0000 		movl	%eax, threads+12	# D.2417, threads
 1064      00
 1065              		.loc 1 361 0
 1066 07fa A1180000 		movl	rlist+24, %eax	# rlist.r_current, rlist.r_current
 1066      00
 1067 07ff 8B4008   		movl	8(%eax), %eax	# _32->p_prio, _32->p_prio
 1068 0802 C7442404 		movl	$17008, 4(%esp)	#,
 1068      70420000 
 1069 080a 83C001   		addl	$1, %eax	#, D.2418
 1070 080d 89442408 		movl	%eax, 8(%esp)	# D.2418,
 1071 0811 A1100000 		movl	wa+16, %eax	# wa, wa
 1071      00
 1072 0816 890424   		movl	%eax, (%esp)	# wa,
 1073 0819 E8FCFFFF 		call	chThdCreateStatic	#
 1073      FF
 1074              	.LVL134:
 1075 081e A3100000 		movl	%eax, threads+16	# D.2417, threads
 1075      00
 1076              	.LVL135:
 1077              		.loc 1 364 0
 1078 0823 E8FCFFFF 		call	test_wait_tick	#
 1078      FF
 1079              	.LVL136:
 1080              		.loc 1 365 0
 1081 0828 C70424E8 		movl	$1000, (%esp)	#,
 1081      030000
 1082 082f E8FCFFFF 		call	test_start_timer	#
 1082      FF
 1083              	.LVL137:
 1084              		.p2align 4,,7
 1085 0834 8D742600 		.p2align 3
 1086              	.L38:
 1087              		.loc 1 367 0 discriminator 1
 1088 0838 C7442404 		movl	$0, 4(%esp)	#,
 1088      00000000 
 1089              		.loc 1 368 0 discriminator 1
 1090 0840 83C301   		addl	$1, %ebx	#, n
 1091              	.LVL138:
 1092              		.loc 1 367 0 discriminator 1
 1093 0843 C7042474 		movl	$sem1, (%esp)	#,
 1093      000000
GAS LISTING /tmp/ccmTSJ1m.s 			page 30


 1094 084a E8FCFFFF 		call	chSemReset	#
 1094      FF
 1095              	.LVL139:
 1096              		.loc 1 370 0 discriminator 1
 1097 084f E8FCFFFF 		call	ChkIntSources	#
 1097      FF
 1098              	.LVL140:
 1099              		.loc 1 372 0 discriminator 1
 1100 0854 803D0000 		cmpb	$0, test_timer_done	#, test_timer_done
 1100      000000
 1101 085b 74DB     		je	.L38	#,
 1102              		.loc 1 373 0
 1103 085d E8FCFFFF 		call	test_terminate_threads	#
 1103      FF
 1104              	.LVL141:
 1105              		.loc 1 374 0
 1106 0862 C7442404 		movl	$0, 4(%esp)	#,
 1106      00000000 
 1107 086a C7042474 		movl	$sem1, (%esp)	#,
 1107      000000
 1108 0871 E8FCFFFF 		call	chSemReset	#
 1108      FF
 1109              	.LVL142:
 1110              		.loc 1 375 0
 1111 0876 E8FCFFFF 		call	test_wait_threads	#
 1111      FF
 1112              	.LVL143:
 1113              		.loc 1 377 0
 1114 087b C7042489 		movl	$.LC11, (%esp)	#,
 1114      000000
 1115 0882 E8FCFFFF 		call	test_print	#
 1115      FF
 1116              	.LVL144:
 1117              		.loc 1 378 0
 1118 0887 891C24   		movl	%ebx, (%esp)	# n,
 1119 088a E8FCFFFF 		call	test_printn	#
 1119      FF
 1120              	.LVL145:
 1121              		.loc 1 379 0
 1122 088f C70424B5 		movl	$.LC15, (%esp)	#,
 1122      000000
 1123 0896 E8FCFFFF 		call	test_print	#
 1123      FF
 1124              	.LVL146:
 1125              		.loc 1 380 0
 1126 089b 8D045B   		leal	(%ebx,%ebx,2), %eax	#, D.2418
 1127 089e 01C0     		addl	%eax, %eax	# tmp120
 1128 08a0 890424   		movl	%eax, (%esp)	# tmp120,
 1129 08a3 E8FCFFFF 		call	test_printn	#
 1129      FF
 1130              	.LVL147:
 1131              		.loc 1 381 0
 1132 08a8 C70424A0 		movl	$.LC13, (%esp)	#,
 1132      000000
 1133 08af E8FCFFFF 		call	test_println	#
 1133      FF
 1134              	.LVL148:
GAS LISTING /tmp/ccmTSJ1m.s 			page 31


 1135              		.loc 1 382 0
 1136 08b4 83C428   		addl	$40, %esp	#,
 1137              		.cfi_def_cfa_offset 8
 1138 08b7 5B       		popl	%ebx	#
 1139              		.cfi_restore 3
 1140              		.cfi_def_cfa_offset 4
 1141              	.LVL149:
 1142 08b8 C3       		ret
 1143              		.cfi_endproc
 1144              	.LFE19:
 1145              		.size	bmk7_execute, .-bmk7_execute
 1146 08b9 8DB42600 		.p2align 4,,15
 1146      000000
 1147              		.type	thread3, @function
 1148              	thread3:
 1149              	.LFB17:
 1150              		.loc 1 341 0
 1151              		.cfi_startproc
 1152              	.LVL150:
 1153              		.loc 1 344 0
 1154 08c0 A1180000 		movl	rlist+24, %eax	# rlist.r_current, rlist.r_current
 1154      00
 1155 08c5 F6401D04 		testb	$4, 29(%eax)	#, _8->p_flags
 1156 08c9 7522     		jne	.L48	#,
 1157              		.loc 1 341 0
 1158 08cb 83EC1C   		subl	$28, %esp	#,
 1159              		.cfi_def_cfa_offset 32
 1160 08ce 6690     		.p2align 4,,7
 1161              		.p2align 3
 1162              	.L45:
 1163              		.loc 1 345 0
 1164 08d0 C7042474 		movl	$sem1, (%esp)	#,
 1164      000000
 1165 08d7 E8FCFFFF 		call	chSemWait	#
 1165      FF
 1166              	.LVL151:
 1167              		.loc 1 344 0
 1168 08dc A1180000 		movl	rlist+24, %eax	# rlist.r_current, rlist.r_current
 1168      00
 1169 08e1 F6401D04 		testb	$4, 29(%eax)	#, _3->p_flags
 1170 08e5 74E9     		je	.L45	#,
 1171              		.loc 1 347 0
 1172 08e7 31C0     		xorl	%eax, %eax	#
 1173 08e9 83C41C   		addl	$28, %esp	#,
 1174              		.cfi_def_cfa_offset 4
 1175 08ec C3       		ret
 1176              	.L48:
 1177 08ed 31C0     		xorl	%eax, %eax	#
 1178 08ef C3       		ret
 1179              		.cfi_endproc
 1180              	.LFE17:
 1181              		.size	thread3, .-thread3
 1182              		.p2align 4,,15
 1183              		.type	bmk7_setup, @function
 1184              	bmk7_setup:
 1185              	.LFB18:
 1186              		.loc 1 349 0
GAS LISTING /tmp/ccmTSJ1m.s 			page 32


 1187              		.cfi_startproc
 1188 08f0 83EC1C   		subl	$28, %esp	#,
 1189              		.cfi_def_cfa_offset 32
 1190              		.loc 1 351 0
 1191 08f3 C7442404 		movl	$0, 4(%esp)	#,
 1191      00000000 
 1192 08fb C7042474 		movl	$sem1, (%esp)	#,
 1192      000000
 1193 0902 E8FCFFFF 		call	chSemInit	#
 1193      FF
 1194              	.LVL152:
 1195              		.loc 1 352 0
 1196 0907 83C41C   		addl	$28, %esp	#,
 1197              		.cfi_def_cfa_offset 4
 1198 090a C3       		ret
 1199              		.cfi_endproc
 1200              	.LFE18:
 1201              		.size	bmk7_setup, .-bmk7_setup
 1202 090b 908D7426 		.p2align 4,,15
 1202      00
 1203              		.type	bmk11_setup, @function
 1204              	bmk11_setup:
 1205              	.LFB25:
 1206              		.loc 1 545 0
 1207              		.cfi_startproc
 1208 0910 83EC1C   		subl	$28, %esp	#,
 1209              		.cfi_def_cfa_offset 32
 1210              		.loc 1 547 0
 1211 0913 C7442404 		movl	$1, 4(%esp)	#,
 1211      01000000 
 1212 091b C7042474 		movl	$sem1, (%esp)	#,
 1212      000000
 1213 0922 E8FCFFFF 		call	chSemInit	#
 1213      FF
 1214              	.LVL153:
 1215              		.loc 1 548 0
 1216 0927 83C41C   		addl	$28, %esp	#,
 1217              		.cfi_def_cfa_offset 4
 1218 092a C3       		ret
 1219              		.cfi_endproc
 1220              	.LFE25:
 1221              		.size	bmk11_setup, .-bmk11_setup
 1222 092b 908D7426 		.p2align 4,,15
 1222      00
 1223              		.type	bmk8_execute, @function
 1224              	bmk8_execute:
 1225              	.LFB21:
 1226              		.loc 1 416 0
 1227              		.cfi_startproc
 1228 0930 53       		pushl	%ebx	#
 1229              		.cfi_def_cfa_offset 8
 1230              		.cfi_offset 3, -8
 1231 0931 83EC38   		subl	$56, %esp	#,
 1232              		.cfi_def_cfa_offset 64
 1233              		.loc 1 419 0
 1234 0934 C744242C 		movl	$0, 44(%esp)	#, n
 1234      00000000 
GAS LISTING /tmp/ccmTSJ1m.s 			page 33


 1235              		.loc 1 422 0
 1236 093c 8D5C242C 		leal	44(%esp), %ebx	#, tmp85
 1237              		.loc 1 420 0
 1238 0940 E8FCFFFF 		call	test_wait_tick	#
 1238      FF
 1239              	.LVL154:
 1240              		.loc 1 422 0
 1241 0945 A1180000 		movl	rlist+24, %eax	# rlist.r_current, rlist.r_current
 1241      00
 1242 094a 895C2410 		movl	%ebx, 16(%esp)	# tmp85,
 1243 094e C744240C 		movl	$thread8, 12(%esp)	#,
 1243      900A0000 
 1244 0956 8B4008   		movl	8(%eax), %eax	# _4->p_prio, _4->p_prio
 1245 0959 C7442404 		movl	$17008, 4(%esp)	#,
 1245      70420000 
 1246 0961 83E801   		subl	$1, %eax	#, D.2432
 1247 0964 89442408 		movl	%eax, 8(%esp)	# D.2432,
 1248 0968 A1000000 		movl	wa, %eax	# wa, wa
 1248      00
 1249 096d 890424   		movl	%eax, (%esp)	# wa,
 1250 0970 E8FCFFFF 		call	chThdCreateStatic	#
 1250      FF
 1251              	.LVL155:
 1252              		.loc 1 423 0
 1253 0975 895C2410 		movl	%ebx, 16(%esp)	# tmp85,
 1254 0979 C744240C 		movl	$thread8, 12(%esp)	#,
 1254      900A0000 
 1255              		.loc 1 422 0
 1256 0981 A3000000 		movl	%eax, threads	# D.2431, threads
 1256      00
 1257              		.loc 1 423 0
 1258 0986 A1180000 		movl	rlist+24, %eax	# rlist.r_current, rlist.r_current
 1258      00
 1259 098b 8B4008   		movl	8(%eax), %eax	# _11->p_prio, _11->p_prio
 1260 098e C7442404 		movl	$17008, 4(%esp)	#,
 1260      70420000 
 1261 0996 83E801   		subl	$1, %eax	#, D.2432
 1262 0999 89442408 		movl	%eax, 8(%esp)	# D.2432,
 1263 099d A1040000 		movl	wa+4, %eax	# wa, wa
 1263      00
 1264 09a2 890424   		movl	%eax, (%esp)	# wa,
 1265 09a5 E8FCFFFF 		call	chThdCreateStatic	#
 1265      FF
 1266              	.LVL156:
 1267              		.loc 1 424 0
 1268 09aa 895C2410 		movl	%ebx, 16(%esp)	# tmp85,
 1269 09ae C744240C 		movl	$thread8, 12(%esp)	#,
 1269      900A0000 
 1270              		.loc 1 423 0
 1271 09b6 A3040000 		movl	%eax, threads+4	# D.2431, threads
 1271      00
 1272              		.loc 1 424 0
 1273 09bb A1180000 		movl	rlist+24, %eax	# rlist.r_current, rlist.r_current
 1273      00
 1274 09c0 8B4008   		movl	8(%eax), %eax	# _18->p_prio, _18->p_prio
 1275 09c3 C7442404 		movl	$17008, 4(%esp)	#,
 1275      70420000 
GAS LISTING /tmp/ccmTSJ1m.s 			page 34


 1276 09cb 83E801   		subl	$1, %eax	#, D.2432
 1277 09ce 89442408 		movl	%eax, 8(%esp)	# D.2432,
 1278 09d2 A1080000 		movl	wa+8, %eax	# wa, wa
 1278      00
 1279 09d7 890424   		movl	%eax, (%esp)	# wa,
 1280 09da E8FCFFFF 		call	chThdCreateStatic	#
 1280      FF
 1281              	.LVL157:
 1282              		.loc 1 425 0
 1283 09df 895C2410 		movl	%ebx, 16(%esp)	# tmp85,
 1284 09e3 C744240C 		movl	$thread8, 12(%esp)	#,
 1284      900A0000 
 1285              		.loc 1 424 0
 1286 09eb A3080000 		movl	%eax, threads+8	# D.2431, threads
 1286      00
 1287              		.loc 1 425 0
 1288 09f0 A1180000 		movl	rlist+24, %eax	# rlist.r_current, rlist.r_current
 1288      00
 1289 09f5 8B4008   		movl	8(%eax), %eax	# _25->p_prio, _25->p_prio
 1290 09f8 C7442404 		movl	$17008, 4(%esp)	#,
 1290      70420000 
 1291 0a00 83E801   		subl	$1, %eax	#, D.2432
 1292 0a03 89442408 		movl	%eax, 8(%esp)	# D.2432,
 1293 0a07 A10C0000 		movl	wa+12, %eax	# wa, wa
 1293      00
 1294 0a0c 890424   		movl	%eax, (%esp)	# wa,
 1295 0a0f E8FCFFFF 		call	chThdCreateStatic	#
 1295      FF
 1296              	.LVL158:
 1297              		.loc 1 426 0
 1298 0a14 895C2410 		movl	%ebx, 16(%esp)	# tmp85,
 1299 0a18 C744240C 		movl	$thread8, 12(%esp)	#,
 1299      900A0000 
 1300              		.loc 1 425 0
 1301 0a20 A30C0000 		movl	%eax, threads+12	# D.2431, threads
 1301      00
 1302              		.loc 1 426 0
 1303 0a25 A1180000 		movl	rlist+24, %eax	# rlist.r_current, rlist.r_current
 1303      00
 1304 0a2a 8B4008   		movl	8(%eax), %eax	# _32->p_prio, _32->p_prio
 1305 0a2d C7442404 		movl	$17008, 4(%esp)	#,
 1305      70420000 
 1306 0a35 83E801   		subl	$1, %eax	#, D.2432
 1307 0a38 89442408 		movl	%eax, 8(%esp)	# D.2432,
 1308 0a3c A1100000 		movl	wa+16, %eax	# wa, wa
 1308      00
 1309 0a41 890424   		movl	%eax, (%esp)	# wa,
 1310 0a44 E8FCFFFF 		call	chThdCreateStatic	#
 1310      FF
 1311              	.LVL159:
 1312              		.loc 1 428 0
 1313 0a49 C70424E8 		movl	$1000, (%esp)	#,
 1313      030000
 1314              		.loc 1 426 0
 1315 0a50 A3100000 		movl	%eax, threads+16	# D.2431, threads
 1315      00
 1316              		.loc 1 428 0
GAS LISTING /tmp/ccmTSJ1m.s 			page 35


 1317 0a55 E8FCFFFF 		call	chThdSleep	#
 1317      FF
 1318              	.LVL160:
 1319              		.loc 1 429 0
 1320 0a5a E8FCFFFF 		call	test_terminate_threads	#
 1320      FF
 1321              	.LVL161:
 1322              		.loc 1 430 0
 1323 0a5f E8FCFFFF 		call	test_wait_threads	#
 1323      FF
 1324              	.LVL162:
 1325              		.loc 1 432 0
 1326 0a64 C7042489 		movl	$.LC11, (%esp)	#,
 1326      000000
 1327 0a6b E8FCFFFF 		call	test_print	#
 1327      FF
 1328              	.LVL163:
 1329              		.loc 1 433 0
 1330 0a70 8B44242C 		movl	44(%esp), %eax	# n, n
 1331 0a74 890424   		movl	%eax, (%esp)	# n,
 1332 0a77 E8FCFFFF 		call	test_printn	#
 1332      FF
 1333              	.LVL164:
 1334              		.loc 1 434 0
 1335 0a7c C70424A0 		movl	$.LC13, (%esp)	#,
 1335      000000
 1336 0a83 E8FCFFFF 		call	test_println	#
 1336      FF
 1337              	.LVL165:
 1338              		.loc 1 435 0
 1339 0a88 83C438   		addl	$56, %esp	#,
 1340              		.cfi_def_cfa_offset 8
 1341 0a8b 5B       		popl	%ebx	#
 1342              		.cfi_restore 3
 1343              		.cfi_def_cfa_offset 4
 1344 0a8c C3       		ret
 1345              		.cfi_endproc
 1346              	.LFE21:
 1347              		.size	bmk8_execute, .-bmk8_execute
 1348 0a8d 8D7600   		.p2align 4,,15
 1349              		.type	thread8, @function
 1350              	thread8:
 1351              	.LFB20:
 1352              		.loc 1 401 0
 1353              		.cfi_startproc
 1354              	.LVL166:
 1355 0a90 53       		pushl	%ebx	#
 1356              		.cfi_def_cfa_offset 8
 1357              		.cfi_offset 3, -8
 1358 0a91 83EC08   		subl	$8, %esp	#,
 1359              		.cfi_def_cfa_offset 16
 1360 0a94 8B5C2410 		movl	16(%esp), %ebx	# p, p
 1361              		.p2align 4,,7
 1362              		.p2align 3
 1363              	.L57:
 1364              		.loc 1 404 0 discriminator 1
 1365 0a98 E8FCFFFF 		call	chThdYield	#
GAS LISTING /tmp/ccmTSJ1m.s 			page 36


 1365      FF
 1366              	.LVL167:
 1367              		.loc 1 405 0 discriminator 1
 1368 0a9d E8FCFFFF 		call	chThdYield	#
 1368      FF
 1369              	.LVL168:
 1370              		.loc 1 406 0 discriminator 1
 1371 0aa2 E8FCFFFF 		call	chThdYield	#
 1371      FF
 1372              	.LVL169:
 1373              		.loc 1 407 0 discriminator 1
 1374              		.p2align 4,,5
 1375 0aa7 E8FCFFFF 		call	chThdYield	#
 1375      FF
 1376              	.LVL170:
 1377              		.loc 1 408 0 discriminator 1
 1378 0aac 830304   		addl	$4, (%ebx)	#, MEM[(uint32_t *)p_7(D)]
 1379              		.loc 1 410 0 discriminator 1
 1380 0aaf E8FCFFFF 		call	ChkIntSources	#
 1380      FF
 1381              	.LVL171:
 1382              		.loc 1 412 0 discriminator 1
 1383 0ab4 A1180000 		movl	rlist+24, %eax	# rlist.r_current, rlist.r_current
 1383      00
 1384 0ab9 F6401D04 		testb	$4, 29(%eax)	#, _12->p_flags
 1385 0abd 74D9     		je	.L57	#,
 1386              		.loc 1 414 0
 1387 0abf 83C408   		addl	$8, %esp	#,
 1388              		.cfi_def_cfa_offset 8
 1389 0ac2 31C0     		xorl	%eax, %eax	#
 1390 0ac4 5B       		popl	%ebx	#
 1391              		.cfi_restore 3
 1392              		.cfi_def_cfa_offset 4
 1393 0ac5 C3       		ret
 1394              		.cfi_endproc
 1395              	.LFE20:
 1396              		.size	thread8, .-thread8
 1397              		.section	.rodata.str1.1
 1398              	.LC16:
 1399 00c6 20627974 		.string	" bytes/S"
 1399      65732F53 
 1399      00
 1400              		.text
 1401 0ac6 8D76008D 		.p2align 4,,15
 1401      BC270000 
 1401      0000
 1402              		.type	bmk9_execute, @function
 1403              	bmk9_execute:
 1404              	.LFB22:
 1405              		.loc 1 455 0
 1406              		.cfi_startproc
 1407 0ad0 53       		pushl	%ebx	#
 1408              		.cfi_def_cfa_offset 8
 1409              		.cfi_offset 3, -8
 1410              		.loc 1 461 0
 1411 0ad1 31DB     		xorl	%ebx, %ebx	# n
 1412              		.loc 1 455 0
GAS LISTING /tmp/ccmTSJ1m.s 			page 37


 1413 0ad3 83EC28   		subl	$40, %esp	#,
 1414              		.cfi_def_cfa_offset 48
 1415              		.loc 1 460 0
 1416 0ad6 C7442410 		movl	$0, 16(%esp)	#,
 1416      00000000 
 1417 0ade C744240C 		movl	$0, 12(%esp)	#,
 1417      00000000 
 1418 0ae6 C7442408 		movl	$16, 8(%esp)	#,
 1418      10000000 
 1419 0aee C7442404 		movl	$ib.2138, 4(%esp)	#,
 1419      28000000 
 1420 0af6 C7042440 		movl	$iq.2139, (%esp)	#,
 1420      000000
 1421 0afd E8FCFFFF 		call	chIQInit	#
 1421      FF
 1422              	.LVL172:
 1423              		.loc 1 462 0
 1424 0b02 E8FCFFFF 		call	test_wait_tick	#
 1424      FF
 1425              	.LVL173:
 1426              		.loc 1 463 0
 1427 0b07 C70424E8 		movl	$1000, (%esp)	#,
 1427      030000
 1428 0b0e E8FCFFFF 		call	test_start_timer	#
 1428      FF
 1429              	.LVL174:
 1430              		.p2align 4,,7
 1431 0b13 908D7426 		.p2align 3
 1431      00
 1432              	.L61:
 1433              		.loc 1 465 0 discriminator 1
 1434              	#APP
 1435              	# 465 "../../../test/testbmk.c" 1
 241              	  test_wait_threads();
 242              	  test_print("--- Score : ");
 243              	  test_printn(n * 2);
 244              	  test_println(" ctxswc/S");
 245              	}
 246              	
 247              	ROMCONST struct testcase testbmk4 = {
 248              	  "Benchmark, context switch",
 249              	  NULL,
 250              	  NULL,
 251              	  bmk4_execute
 252              	};
 253              	
 254              	/**
 255              	 * @page test_benchmarks_005 Threads performance, full cycle
 256              	 *
 257              	 * <h2>Description</h2>
 258              	 * Threads are continuously created and terminated into a loop. A full
 259              	 * @p chThdCreateStatic() / @p chThdExit() / @p chThdWait() cycle is performed
 260              	 * in each iteration.<br>
 261              	 * The performance is calculated by measuring the number of iterations after
 262              	 * a second of continuous operations.
 263              	 */
 264              	
GAS LISTING /tmp/ccmTSJ1m.s 			page 38


 265              	static void bmk5_execute(void) {
 266              	
 267              	  uint32_t n = 0;
 268              	  void *wap = wa[0];
 269              	  tprio_t prio = chThdGetPriority() - 1;
 270              	  test_wait_tick();
 271              	  test_start_timer(1000);
 272              	  do {
 273              	    chThdWait(chThdCreateStatic(wap, WA_SIZE, prio, thread2, NULL));
 274              	    n++;
 275              	#if defined(SIMULATOR)
 276              	    ChkIntSources();
 277              	#endif
 278              	  } while (!test_timer_done);
 279              	  test_print("--- Score : ");
 280              	  test_printn(n);
 281              	  test_println(" threads/S");
 282              	}
 283              	
 284              	ROMCONST struct testcase testbmk5 = {
 285              	  "Benchmark, threads, full cycle",
 286              	  NULL,
 287              	  NULL,
 288              	  bmk5_execute
 289              	};
 290              	
 291              	/**
 292              	 * @page test_benchmarks_006 Threads performance, create/exit only
 293              	 *
 294              	 * <h2>Description</h2>
 295              	 * Threads are continuously created and terminated into a loop. A partial
 296              	 * @p chThdCreateStatic() / @p chThdExit() cycle is performed in each
 297              	 * iteration, the @p chThdWait() is not necessary because the thread is
 298              	 * created at an higher priority so there is no need to wait for it to
 299              	 * terminate.<br>
 300              	 * The performance is calculated by measuring the number of iterations after
 301              	 * a second of continuous operations.
 302              	 */
 303              	
 304              	static void bmk6_execute(void) {
 305              	
 306              	  uint32_t n = 0;
 307              	  void *wap = wa[0];
 308              	  tprio_t prio = chThdGetPriority() + 1;
 309              	  test_wait_tick();
 310              	  test_start_timer(1000);
 311              	  do {
 312              	    chThdCreateStatic(wap, WA_SIZE, prio, thread2, NULL);
 313              	    n++;
 314              	#if defined(SIMULATOR)
 315              	    ChkIntSources();
 316              	#endif
 317              	  } while (!test_timer_done);
 318              	  test_print("--- Score : ");
 319              	  test_printn(n);
 320              	  test_println(" threads/S");
 321              	}
GAS LISTING /tmp/ccmTSJ1m.s 			page 39


 322              	
 323              	ROMCONST struct testcase testbmk6 = {
 324              	  "Benchmark, threads, create only",
 325              	  NULL,
 326              	  NULL,
 327              	  bmk6_execute
 328              	};
 329              	
 330              	/**
 331              	 * @page test_benchmarks_007 Mass reschedule performance
 332              	 *
 333              	 * <h2>Description</h2>
 334              	 * Five threads are created and atomically rescheduled by resetting the
 335              	 * semaphore where they are waiting on. The operation is performed into a
 336              	 * continuous loop.<br>
 337              	 * The performance is calculated by measuring the number of iterations after
 338              	 * a second of continuous operations.
 339              	 */
 340              	
 341              	static msg_t thread3(void *p) {
 342              	
 343              	  (void)p;
 344              	  while (!chThdShouldTerminate())
 345              	    chSemWait(&sem1);
 346              	  return 0;
 347              	}
 348              	
 349              	static void bmk7_setup(void) {
 350              	
 351              	  chSemInit(&sem1, 0);
 352              	}
 353              	
 354              	static void bmk7_execute(void) {
 355              	  uint32_t n;
 356              	
 357              	  threads[0] = chThdCreateStatic(wa[0], WA_SIZE, chThdGetPriority()+5, thread3, NULL);
 358              	  threads[1] = chThdCreateStatic(wa[1], WA_SIZE, chThdGetPriority()+4, thread3, NULL);
 359              	  threads[2] = chThdCreateStatic(wa[2], WA_SIZE, chThdGetPriority()+3, thread3, NULL);
 360              	  threads[3] = chThdCreateStatic(wa[3], WA_SIZE, chThdGetPriority()+2, thread3, NULL);
 361              	  threads[4] = chThdCreateStatic(wa[4], WA_SIZE, chThdGetPriority()+1, thread3, NULL);
 362              	
 363              	  n = 0;
 364              	  test_wait_tick();
 365              	  test_start_timer(1000);
 366              	  do {
 367              	    chSemReset(&sem1, 0);
 368              	    n++;
 369              	#if defined(SIMULATOR)
 370              	    ChkIntSources();
 371              	#endif
 372              	  } while (!test_timer_done);
 373              	  test_terminate_threads();
 374              	  chSemReset(&sem1, 0);
 375              	  test_wait_threads();
 376              	
 377              	  test_print("--- Score : ");
 378              	  test_printn(n);
GAS LISTING /tmp/ccmTSJ1m.s 			page 40


 379              	  test_print(" reschedules/S, ");
 380              	  test_printn(n * 6);
 381              	  test_println(" ctxswc/S");
 382              	}
 383              	
 384              	ROMCONST struct testcase testbmk7 = {
 385              	  "Benchmark, mass reschedule, 5 threads",
 386              	  bmk7_setup,
 387              	  NULL,
 388              	  bmk7_execute
 389              	};
 390              	
 391              	/**
 392              	 * @page test_benchmarks_008 I/O Round-Robin voluntary reschedule.
 393              	 *
 394              	 * <h2>Description</h2>
 395              	 * Five threads are created at equal priority, each thread just increases a
 396              	 * variable and yields.<br>
 397              	 * The performance is calculated by measuring the number of iterations after
 398              	 * a second of continuous operations.
 399              	 */
 400              	
 401              	static msg_t thread8(void *p) {
 402              	
 403              	  do {
 404              	    chThdYield();
 405              	    chThdYield();
 406              	    chThdYield();
 407              	    chThdYield();
 408              	    (*(uint32_t *)p) += 4;
 409              	#if defined(SIMULATOR)
 410              	    ChkIntSources();
 411              	#endif
 412              	  } while(!chThdShouldTerminate());
 413              	  return 0;
 414              	}
 415              	
 416              	static void bmk8_execute(void) {
 417              	  uint32_t n;
 418              	
 419              	  n = 0;
 420              	  test_wait_tick();
 421              	
 422              	  threads[0] = chThdCreateStatic(wa[0], WA_SIZE, chThdGetPriority()-1, thread8, (void *)&n);
 423              	  threads[1] = chThdCreateStatic(wa[1], WA_SIZE, chThdGetPriority()-1, thread8, (void *)&n);
 424              	  threads[2] = chThdCreateStatic(wa[2], WA_SIZE, chThdGetPriority()-1, thread8, (void *)&n);
 425              	  threads[3] = chThdCreateStatic(wa[3], WA_SIZE, chThdGetPriority()-1, thread8, (void *)&n);
 426              	  threads[4] = chThdCreateStatic(wa[4], WA_SIZE, chThdGetPriority()-1, thread8, (void *)&n);
 427              	
 428              	  chThdSleepSeconds(1);
 429              	  test_terminate_threads();
 430              	  test_wait_threads();
 431              	
 432              	  test_print("--- Score : ");
 433              	  test_printn(n);
 434              	  test_println(" ctxswc/S");
 435              	}
GAS LISTING /tmp/ccmTSJ1m.s 			page 41


 436              	
 437              	ROMCONST struct testcase testbmk8 = {
 438              	  "Benchmark, round robin context switching",
 439              	  NULL,
 440              	  NULL,
 441              	  bmk8_execute
 442              	};
 443              	
 444              	#if CH_USE_QUEUES || defined(__DOXYGEN__)
 445              	/**
 446              	 * @page test_benchmarks_009 I/O Queues throughput
 447              	 *
 448              	 * <h2>Description</h2>
 449              	 * Four bytes are written and then read from an @p InputQueue into a continuous
 450              	 * loop.<br>
 451              	 * The performance is calculated by measuring the number of iterations after
 452              	 * a second of continuous operations.
 453              	 */
 454              	
 455              	static void bmk9_execute(void) {
 456              	  uint32_t n;
 457              	  static uint8_t ib[16];
 458              	  static InputQueue iq;
 459              	
 460              	  chIQInit(&iq, ib, sizeof(ib), NULL, NULL);
 461              	  n = 0;
 462              	  test_wait_tick();
 463              	  test_start_timer(1000);
 464              	  do {
 465 0b18 90       	    chSysLock();
 466              	    chIQPutI(&iq, 0);
 1436              		nop
 1437              	# 0 "" 2
 1438              		.loc 1 466 0 discriminator 1
 1439              	#NO_APP
 1440 0b19 C7442404 		movl	$0, 4(%esp)	#,
 1440      00000000 
 1441 0b21 C7042440 		movl	$iq.2139, (%esp)	#,
 1441      000000
 1442 0b28 E8FCFFFF 		call	chIQPutI	#
 1442      FF
 1443              	.LVL175:
 1444              		.loc 1 467 0 discriminator 1
 1445 0b2d C7442404 		movl	$1, 4(%esp)	#,
 1445      01000000 
 1446 0b35 C7042440 		movl	$iq.2139, (%esp)	#,
 1446      000000
 1447 0b3c E8FCFFFF 		call	chIQPutI	#
 1447      FF
 1448              	.LVL176:
 1449              		.loc 1 468 0 discriminator 1
 1450 0b41 C7442404 		movl	$2, 4(%esp)	#,
 1450      02000000 
 1451 0b49 C7042440 		movl	$iq.2139, (%esp)	#,
 1451      000000
 1452 0b50 E8FCFFFF 		call	chIQPutI	#
 1452      FF
GAS LISTING /tmp/ccmTSJ1m.s 			page 42


 1453              	.LVL177:
 1454              		.loc 1 469 0 discriminator 1
 1455 0b55 C7442404 		movl	$3, 4(%esp)	#,
 1455      03000000 
 1456 0b5d C7042440 		movl	$iq.2139, (%esp)	#,
 1456      000000
 1457 0b64 E8FCFFFF 		call	chIQPutI	#
 1457      FF
 1458              	.LVL178:
 1459              		.loc 1 470 0 discriminator 1
 1460              	#APP
 1461              	# 470 "../../../test/testbmk.c" 1
 467              	    chIQPutI(&iq, 1);
 468              	    chIQPutI(&iq, 2);
 469              	    chIQPutI(&iq, 3);
 470 0b69 90       	    chSysUnlock();
 471              	    (void)chIQGet(&iq);
 1462              		nop
 1463              	# 0 "" 2
 1464              		.loc 1 471 0 discriminator 1
 1465              	#NO_APP
 1466 0b6a C7442404 		movl	$-1, 4(%esp)	#,
 1466      FFFFFFFF 
 1467              		.loc 1 475 0 discriminator 1
 1468 0b72 83C301   		addl	$1, %ebx	#, n
 1469              	.LVL179:
 1470              		.loc 1 471 0 discriminator 1
 1471 0b75 C7042440 		movl	$iq.2139, (%esp)	#,
 1471      000000
 1472 0b7c E8FCFFFF 		call	chIQGetTimeout	#
 1472      FF
 1473              	.LVL180:
 1474              		.loc 1 472 0 discriminator 1
 1475 0b81 C7442404 		movl	$-1, 4(%esp)	#,
 1475      FFFFFFFF 
 1476 0b89 C7042440 		movl	$iq.2139, (%esp)	#,
 1476      000000
 1477 0b90 E8FCFFFF 		call	chIQGetTimeout	#
 1477      FF
 1478              	.LVL181:
 1479              		.loc 1 473 0 discriminator 1
 1480 0b95 C7442404 		movl	$-1, 4(%esp)	#,
 1480      FFFFFFFF 
 1481 0b9d C7042440 		movl	$iq.2139, (%esp)	#,
 1481      000000
 1482 0ba4 E8FCFFFF 		call	chIQGetTimeout	#
 1482      FF
 1483              	.LVL182:
 1484              		.loc 1 474 0 discriminator 1
 1485 0ba9 C7442404 		movl	$-1, 4(%esp)	#,
 1485      FFFFFFFF 
 1486 0bb1 C7042440 		movl	$iq.2139, (%esp)	#,
 1486      000000
 1487 0bb8 E8FCFFFF 		call	chIQGetTimeout	#
 1487      FF
 1488              	.LVL183:
 1489              		.loc 1 477 0 discriminator 1
GAS LISTING /tmp/ccmTSJ1m.s 			page 43


 1490 0bbd E8FCFFFF 		call	ChkIntSources	#
 1490      FF
 1491              	.LVL184:
 1492              		.loc 1 479 0 discriminator 1
 1493 0bc2 803D0000 		cmpb	$0, test_timer_done	#, test_timer_done
 1493      000000
 1494 0bc9 0F8449FF 		je	.L61	#,
 1494      FFFF
 1495              		.loc 1 480 0
 1496 0bcf C7042489 		movl	$.LC11, (%esp)	#,
 1496      000000
 1497              		.loc 1 481 0
 1498 0bd6 C1E302   		sall	$2, %ebx	#, D.2443
 1499              	.LVL185:
 1500              		.loc 1 480 0
 1501 0bd9 E8FCFFFF 		call	test_print	#
 1501      FF
 1502              	.LVL186:
 1503              		.loc 1 481 0
 1504 0bde 891C24   		movl	%ebx, (%esp)	# D.2443,
 1505 0be1 E8FCFFFF 		call	test_printn	#
 1505      FF
 1506              	.LVL187:
 1507              		.loc 1 482 0
 1508 0be6 C70424C6 		movl	$.LC16, (%esp)	#,
 1508      000000
 1509 0bed E8FCFFFF 		call	test_println	#
 1509      FF
 1510              	.LVL188:
 1511              		.loc 1 483 0
 1512 0bf2 83C428   		addl	$40, %esp	#,
 1513              		.cfi_def_cfa_offset 8
 1514 0bf5 5B       		popl	%ebx	#
 1515              		.cfi_restore 3
 1516              		.cfi_def_cfa_offset 4
 1517 0bf6 C3       		ret
 1518              		.cfi_endproc
 1519              	.LFE22:
 1520              		.size	bmk9_execute, .-bmk9_execute
 1521              		.section	.rodata.str1.1
 1522              	.LC17:
 1523 00cf 2074696D 		.string	" timers/S"
 1523      6572732F 
 1523      5300
 1524              		.text
 1525 0bf7 89F68DBC 		.p2align 4,,15
 1525      27000000 
 1525      00
 1526              		.type	bmk10_execute, @function
 1527              	bmk10_execute:
 1528              	.LFB24:
 1529              		.loc 1 504 0
 1530              		.cfi_startproc
 1531              	.LVL189:
 1532 0c00 53       		pushl	%ebx	#
 1533              		.cfi_def_cfa_offset 8
 1534              		.cfi_offset 3, -8
GAS LISTING /tmp/ccmTSJ1m.s 			page 44


 1535              		.loc 1 506 0
 1536 0c01 31DB     		xorl	%ebx, %ebx	# n
 1537              		.loc 1 504 0
 1538 0c03 83EC18   		subl	$24, %esp	#,
 1539              		.cfi_def_cfa_offset 32
 1540              		.loc 1 508 0
 1541 0c06 E8FCFFFF 		call	test_wait_tick	#
 1541      FF
 1542              	.LVL190:
 1543              		.loc 1 509 0
 1544 0c0b C70424E8 		movl	$1000, (%esp)	#,
 1544      030000
 1545 0c12 E8FCFFFF 		call	test_start_timer	#
 1545      FF
 1546              	.LVL191:
 1547              		.p2align 4,,7
 1548 0c17 90       		.p2align 3
 1549              	.L65:
 1550              		.loc 1 511 0 discriminator 1
 1551              	#APP
 1552              	# 511 "../../../test/testbmk.c" 1
 472              	    (void)chIQGet(&iq);
 473              	    (void)chIQGet(&iq);
 474              	    (void)chIQGet(&iq);
 475              	    n++;
 476              	#if defined(SIMULATOR)
 477              	    ChkIntSources();
 478              	#endif
 479              	  } while (!test_timer_done);
 480              	  test_print("--- Score : ");
 481              	  test_printn(n * 4);
 482              	  test_println(" bytes/S");
 483              	}
 484              	
 485              	ROMCONST struct testcase testbmk9 = {
 486              	  "Benchmark, I/O Queues throughput",
 487              	  NULL,
 488              	  NULL,
 489              	  bmk9_execute
 490              	};
 491              	#endif /* CH_USE_QUEUES */
 492              	
 493              	/**
 494              	 * @page test_benchmarks_010 Virtual Timers set/reset performance
 495              	 *
 496              	 * <h2>Description</h2>
 497              	 * A virtual timer is set and immediately reset into a continuous loop.<br>
 498              	 * The performance is calculated by measuring the number of iterations after
 499              	 * a second of continuous operations.
 500              	 */
 501              	
 502              	static void tmo(void *param) {(void)param;}
 503              	
 504              	static void bmk10_execute(void) {
 505              	  static VirtualTimer vt1, vt2;
 506              	  uint32_t n = 0;
 507              	
GAS LISTING /tmp/ccmTSJ1m.s 			page 45


 508              	  test_wait_tick();
 509              	  test_start_timer(1000);
 510              	  do {
 511 0c18 90       	    chSysLock();
 512              	    chVTSetI(&vt1, 1, tmo, NULL);
 1553              		nop
 1554              	# 0 "" 2
 1555              		.loc 1 512 0 discriminator 1
 1556              	#NO_APP
 1557 0c19 C744240C 		movl	$0, 12(%esp)	#,
 1557      00000000 
 1558 0c21 C7442408 		movl	$tmo, 8(%esp)	#,
 1558      10000000 
 1559 0c29 C7442404 		movl	$1, 4(%esp)	#,
 1559      01000000 
 1560 0c31 C7042414 		movl	$vt1.2149, (%esp)	#,
 1560      000000
 1561 0c38 E8FCFFFF 		call	chVTSetI	#
 1561      FF
 1562              	.LVL192:
 1563              		.loc 1 513 0 discriminator 1
 1564 0c3d C744240C 		movl	$0, 12(%esp)	#,
 1564      00000000 
 1565 0c45 C7442408 		movl	$tmo, 8(%esp)	#,
 1565      10000000 
 1566 0c4d C7442404 		movl	$10000, 4(%esp)	#,
 1566      10270000 
 1567 0c55 C7042400 		movl	$vt2.2150, (%esp)	#,
 1567      000000
 1568 0c5c E8FCFFFF 		call	chVTSetI	#
 1568      FF
 1569              	.LVL193:
 1570              		.loc 1 514 0 discriminator 1
 1571 0c61 C7042414 		movl	$vt1.2149, (%esp)	#,
 1571      000000
 1572 0c68 E8FCFFFF 		call	chVTResetI	#
 1572      FF
 1573              	.LVL194:
 1574              		.loc 1 515 0 discriminator 1
 1575 0c6d C7042400 		movl	$vt2.2150, (%esp)	#,
 1575      000000
 1576 0c74 E8FCFFFF 		call	chVTResetI	#
 1576      FF
 1577              	.LVL195:
 1578              		.loc 1 516 0 discriminator 1
 1579              	#APP
 1580              	# 516 "../../../test/testbmk.c" 1
 513              	    chVTSetI(&vt2, 10000, tmo, NULL);
 514              	    chVTResetI(&vt1);
 515              	    chVTResetI(&vt2);
 516 0c79 90       	    chSysUnlock();
 517              	    n++;
 1581              		nop
 1582              	# 0 "" 2
 1583              		.loc 1 517 0 discriminator 1
 1584              	#NO_APP
 1585 0c7a 83C301   		addl	$1, %ebx	#, n
GAS LISTING /tmp/ccmTSJ1m.s 			page 46


 1586              	.LVL196:
 1587              		.loc 1 519 0 discriminator 1
 1588 0c7d E8FCFFFF 		call	ChkIntSources	#
 1588      FF
 1589              	.LVL197:
 1590              		.loc 1 521 0 discriminator 1
 1591 0c82 803D0000 		cmpb	$0, test_timer_done	#, test_timer_done
 1591      000000
 1592 0c89 748D     		je	.L65	#,
 1593              		.loc 1 522 0
 1594 0c8b C7042489 		movl	$.LC11, (%esp)	#,
 1594      000000
 1595              		.loc 1 523 0
 1596 0c92 01DB     		addl	%ebx, %ebx	# D.2449
 1597              	.LVL198:
 1598              		.loc 1 522 0
 1599 0c94 E8FCFFFF 		call	test_print	#
 1599      FF
 1600              	.LVL199:
 1601              		.loc 1 523 0
 1602 0c99 891C24   		movl	%ebx, (%esp)	# D.2449,
 1603 0c9c E8FCFFFF 		call	test_printn	#
 1603      FF
 1604              	.LVL200:
 1605              		.loc 1 524 0
 1606 0ca1 C70424CF 		movl	$.LC17, (%esp)	#,
 1606      000000
 1607 0ca8 E8FCFFFF 		call	test_println	#
 1607      FF
 1608              	.LVL201:
 1609              		.loc 1 525 0
 1610 0cad 83C418   		addl	$24, %esp	#,
 1611              		.cfi_def_cfa_offset 8
 1612 0cb0 5B       		popl	%ebx	#
 1613              		.cfi_restore 3
 1614              		.cfi_def_cfa_offset 4
 1615 0cb1 C3       		ret
 1616              		.cfi_endproc
 1617              	.LFE24:
 1618              		.size	bmk10_execute, .-bmk10_execute
 1619              		.section	.rodata.str1.1
 1620              	.LC18:
 1621 00d9 20776169 		.string	" wait+signal/S"
 1621      742B7369 
 1621      676E616C 
 1621      2F5300
 1622              		.text
 1623 0cb2 8DB42600 		.p2align 4,,15
 1623      0000008D 
 1623      BC270000 
 1623      0000
 1624              		.type	bmk11_execute, @function
 1625              	bmk11_execute:
 1626              	.LFB26:
 1627              		.loc 1 550 0
 1628              		.cfi_startproc
 1629              	.LVL202:
GAS LISTING /tmp/ccmTSJ1m.s 			page 47


 1630 0cc0 53       		pushl	%ebx	#
 1631              		.cfi_def_cfa_offset 8
 1632              		.cfi_offset 3, -8
 1633              		.loc 1 551 0
 1634 0cc1 31DB     		xorl	%ebx, %ebx	# n
 1635              		.loc 1 550 0
 1636 0cc3 83EC18   		subl	$24, %esp	#,
 1637              		.cfi_def_cfa_offset 32
 1638              		.loc 1 553 0
 1639 0cc6 E8FCFFFF 		call	test_wait_tick	#
 1639      FF
 1640              	.LVL203:
 1641              		.loc 1 554 0
 1642 0ccb C70424E8 		movl	$1000, (%esp)	#,
 1642      030000
 1643 0cd2 E8FCFFFF 		call	test_start_timer	#
 1643      FF
 1644              	.LVL204:
 1645              		.p2align 4,,7
 1646 0cd7 90       		.p2align 3
 1647              	.L69:
 1648              		.loc 1 556 0 discriminator 1
 1649 0cd8 C7042474 		movl	$sem1, (%esp)	#,
 1649      000000
 1650              		.loc 1 564 0 discriminator 1
 1651 0cdf 83C301   		addl	$1, %ebx	#, n
 1652              	.LVL205:
 1653              		.loc 1 556 0 discriminator 1
 1654 0ce2 E8FCFFFF 		call	chSemWait	#
 1654      FF
 1655              	.LVL206:
 1656              		.loc 1 557 0 discriminator 1
 1657 0ce7 C7042474 		movl	$sem1, (%esp)	#,
 1657      000000
 1658 0cee E8FCFFFF 		call	chSemSignal	#
 1658      FF
 1659              	.LVL207:
 1660              		.loc 1 558 0 discriminator 1
 1661 0cf3 C7042474 		movl	$sem1, (%esp)	#,
 1661      000000
 1662 0cfa E8FCFFFF 		call	chSemWait	#
 1662      FF
 1663              	.LVL208:
 1664              		.loc 1 559 0 discriminator 1
 1665 0cff C7042474 		movl	$sem1, (%esp)	#,
 1665      000000
 1666 0d06 E8FCFFFF 		call	chSemSignal	#
 1666      FF
 1667              	.LVL209:
 1668              		.loc 1 560 0 discriminator 1
 1669 0d0b C7042474 		movl	$sem1, (%esp)	#,
 1669      000000
 1670 0d12 E8FCFFFF 		call	chSemWait	#
 1670      FF
 1671              	.LVL210:
 1672              		.loc 1 561 0 discriminator 1
 1673 0d17 C7042474 		movl	$sem1, (%esp)	#,
GAS LISTING /tmp/ccmTSJ1m.s 			page 48


 1673      000000
 1674 0d1e E8FCFFFF 		call	chSemSignal	#
 1674      FF
 1675              	.LVL211:
 1676              		.loc 1 562 0 discriminator 1
 1677 0d23 C7042474 		movl	$sem1, (%esp)	#,
 1677      000000
 1678 0d2a E8FCFFFF 		call	chSemWait	#
 1678      FF
 1679              	.LVL212:
 1680              		.loc 1 563 0 discriminator 1
 1681 0d2f C7042474 		movl	$sem1, (%esp)	#,
 1681      000000
 1682 0d36 E8FCFFFF 		call	chSemSignal	#
 1682      FF
 1683              	.LVL213:
 1684              		.loc 1 566 0 discriminator 1
 1685 0d3b E8FCFFFF 		call	ChkIntSources	#
 1685      FF
 1686              	.LVL214:
 1687              		.loc 1 568 0 discriminator 1
 1688 0d40 803D0000 		cmpb	$0, test_timer_done	#, test_timer_done
 1688      000000
 1689 0d47 748F     		je	.L69	#,
 1690              		.loc 1 569 0
 1691 0d49 C7042489 		movl	$.LC11, (%esp)	#,
 1691      000000
 1692              		.loc 1 570 0
 1693 0d50 C1E302   		sall	$2, %ebx	#, D.2455
 1694              	.LVL215:
 1695              		.loc 1 569 0
 1696 0d53 E8FCFFFF 		call	test_print	#
 1696      FF
 1697              	.LVL216:
 1698              		.loc 1 570 0
 1699 0d58 891C24   		movl	%ebx, (%esp)	# D.2455,
 1700 0d5b E8FCFFFF 		call	test_printn	#
 1700      FF
 1701              	.LVL217:
 1702              		.loc 1 571 0
 1703 0d60 C70424D9 		movl	$.LC18, (%esp)	#,
 1703      000000
 1704 0d67 E8FCFFFF 		call	test_println	#
 1704      FF
 1705              	.LVL218:
 1706              		.loc 1 572 0
 1707 0d6c 83C418   		addl	$24, %esp	#,
 1708              		.cfi_def_cfa_offset 8
 1709 0d6f 5B       		popl	%ebx	#
 1710              		.cfi_restore 3
 1711              		.cfi_def_cfa_offset 4
 1712 0d70 C3       		ret
 1713              		.cfi_endproc
 1714              	.LFE26:
 1715              		.size	bmk11_execute, .-bmk11_execute
 1716              		.section	.rodata.str1.1
 1717              	.LC19:
GAS LISTING /tmp/ccmTSJ1m.s 			page 49


 1718 00e8 206C6F63 		.string	" lock+unlock/S"
 1718      6B2B756E 
 1718      6C6F636B 
 1718      2F5300
 1719              		.text
 1720 0d71 EB0D9090 		.p2align 4,,15
 1720      90909090 
 1720      90909090 
 1720      909090
 1721              		.type	bmk12_execute, @function
 1722              	bmk12_execute:
 1723              	.LFB28:
 1724              		.loc 1 598 0
 1725              		.cfi_startproc
 1726              	.LVL219:
 1727 0d80 53       		pushl	%ebx	#
 1728              		.cfi_def_cfa_offset 8
 1729              		.cfi_offset 3, -8
 1730              		.loc 1 599 0
 1731 0d81 31DB     		xorl	%ebx, %ebx	# n
 1732              		.loc 1 598 0
 1733 0d83 83EC18   		subl	$24, %esp	#,
 1734              		.cfi_def_cfa_offset 32
 1735              		.loc 1 601 0
 1736 0d86 E8FCFFFF 		call	test_wait_tick	#
 1736      FF
 1737              	.LVL220:
 1738              		.loc 1 602 0
 1739 0d8b C70424E8 		movl	$1000, (%esp)	#,
 1739      030000
 1740 0d92 E8FCFFFF 		call	test_start_timer	#
 1740      FF
 1741              	.LVL221:
 1742              		.p2align 4,,7
 1743 0d97 90       		.p2align 3
 1744              	.L73:
 1745              		.loc 1 604 0 discriminator 1
 1746 0d98 C7042464 		movl	$mtx1, (%esp)	#,
 1746      000000
 1747              		.loc 1 612 0 discriminator 1
 1748 0d9f 83C301   		addl	$1, %ebx	#, n
 1749              	.LVL222:
 1750              		.loc 1 604 0 discriminator 1
 1751 0da2 E8FCFFFF 		call	chMtxLock	#
 1751      FF
 1752              	.LVL223:
 1753              		.loc 1 605 0 discriminator 1
 1754 0da7 E8FCFFFF 		call	chMtxUnlock	#
 1754      FF
 1755              	.LVL224:
 1756              		.loc 1 606 0 discriminator 1
 1757 0dac C7042464 		movl	$mtx1, (%esp)	#,
 1757      000000
 1758 0db3 E8FCFFFF 		call	chMtxLock	#
 1758      FF
 1759              	.LVL225:
 1760              		.loc 1 607 0 discriminator 1
GAS LISTING /tmp/ccmTSJ1m.s 			page 50


 1761 0db8 E8FCFFFF 		call	chMtxUnlock	#
 1761      FF
 1762              	.LVL226:
 1763              		.loc 1 608 0 discriminator 1
 1764 0dbd C7042464 		movl	$mtx1, (%esp)	#,
 1764      000000
 1765 0dc4 E8FCFFFF 		call	chMtxLock	#
 1765      FF
 1766              	.LVL227:
 1767              		.loc 1 609 0 discriminator 1
 1768 0dc9 E8FCFFFF 		call	chMtxUnlock	#
 1768      FF
 1769              	.LVL228:
 1770              		.loc 1 610 0 discriminator 1
 1771 0dce C7042464 		movl	$mtx1, (%esp)	#,
 1771      000000
 1772 0dd5 E8FCFFFF 		call	chMtxLock	#
 1772      FF
 1773              	.LVL229:
 1774              		.loc 1 611 0 discriminator 1
 1775 0dda E8FCFFFF 		call	chMtxUnlock	#
 1775      FF
 1776              	.LVL230:
 1777              		.loc 1 614 0 discriminator 1
 1778 0ddf E8FCFFFF 		call	ChkIntSources	#
 1778      FF
 1779              	.LVL231:
 1780              		.loc 1 616 0 discriminator 1
 1781 0de4 803D0000 		cmpb	$0, test_timer_done	#, test_timer_done
 1781      000000
 1782 0deb 74AB     		je	.L73	#,
 1783              		.loc 1 617 0
 1784 0ded C7042489 		movl	$.LC11, (%esp)	#,
 1784      000000
 1785              		.loc 1 618 0
 1786 0df4 C1E302   		sall	$2, %ebx	#, D.2461
 1787              	.LVL232:
 1788              		.loc 1 617 0
 1789 0df7 E8FCFFFF 		call	test_print	#
 1789      FF
 1790              	.LVL233:
 1791              		.loc 1 618 0
 1792 0dfc 891C24   		movl	%ebx, (%esp)	# D.2461,
 1793 0dff E8FCFFFF 		call	test_printn	#
 1793      FF
 1794              	.LVL234:
 1795              		.loc 1 619 0
 1796 0e04 C70424E8 		movl	$.LC19, (%esp)	#,
 1796      000000
 1797 0e0b E8FCFFFF 		call	test_println	#
 1797      FF
 1798              	.LVL235:
 1799              		.loc 1 620 0
 1800 0e10 83C418   		addl	$24, %esp	#,
 1801              		.cfi_def_cfa_offset 8
 1802 0e13 5B       		popl	%ebx	#
 1803              		.cfi_restore 3
GAS LISTING /tmp/ccmTSJ1m.s 			page 51


 1804              		.cfi_def_cfa_offset 4
 1805 0e14 C3       		ret
 1806              		.cfi_endproc
 1807              	.LFE28:
 1808              		.size	bmk12_execute, .-bmk12_execute
 1809 0e15 8D742600 		.p2align 4,,15
 1809      8DBC2700 
 1809      000000
 1810              		.type	bmk12_setup, @function
 1811              	bmk12_setup:
 1812              	.LFB27:
 1813              		.loc 1 593 0
 1814              		.cfi_startproc
 1815 0e20 83EC1C   		subl	$28, %esp	#,
 1816              		.cfi_def_cfa_offset 32
 1817              		.loc 1 595 0
 1818 0e23 C7042464 		movl	$mtx1, (%esp)	#,
 1818      000000
 1819 0e2a E8FCFFFF 		call	chMtxInit	#
 1819      FF
 1820              	.LVL236:
 1821              		.loc 1 596 0
 1822 0e2f 83C41C   		addl	$28, %esp	#,
 1823              		.cfi_def_cfa_offset 4
 1824 0e32 C3       		ret
 1825              		.cfi_endproc
 1826              	.LFE27:
 1827              		.size	bmk12_setup, .-bmk12_setup
 1828              		.local	vt2.2150
 1829              		.comm	vt2.2150,20,4
 1830              		.local	vt1.2149
 1831              		.comm	vt1.2149,20,4
 1832              		.local	ib.2138
 1833              		.comm	ib.2138,16,1
 1834              		.local	iq.2139
 1835              		.comm	iq.2139,36,32
 1836              		.globl	patternbmk
 1837              		.section	.rodata
 1838              		.align 32
 1839              		.type	patternbmk, @object
 1840              		.size	patternbmk, 56
 1841              	patternbmk:
 1842 0000 00000000 		.long	testbmk1
 1843 0004 00000000 		.long	testbmk2
 1844 0008 00000000 		.long	testbmk3
 1845 000c 00000000 		.long	testbmk4
 1846 0010 00000000 		.long	testbmk5
 1847 0014 00000000 		.long	testbmk6
 1848 0018 00000000 		.long	testbmk7
 1849 001c 00000000 		.long	testbmk8
 1850 0020 00000000 		.long	testbmk9
 1851 0024 00000000 		.long	testbmk10
 1852 0028 00000000 		.long	testbmk11
 1853 002c 00000000 		.long	testbmk12
 1854 0030 00000000 		.long	testbmk13
 1855 0034 00000000 		.long	0
 1856              		.globl	testbmk13
GAS LISTING /tmp/ccmTSJ1m.s 			page 52


 1857              		.section	.rodata.str1.1
 1858              	.LC20:
 1859 00f7 42656E63 		.string	"Benchmark, RAM footprint"
 1859      686D6172 
 1859      6B2C2052 
 1859      414D2066 
 1859      6F6F7470 
 1860              		.section	.rodata
 1861              		.align 4
 1862              		.type	testbmk13, @object
 1863              		.size	testbmk13, 16
 1864              	testbmk13:
 1865              	# name:
 1866 0038 F7000000 		.long	.LC20
 1867              	# setup:
 1868 003c 00000000 		.long	0
 1869              	# teardown:
 1870 0040 00000000 		.long	0
 1871              	# execute:
 1872 0044 20000000 		.long	bmk13_execute
 1873              		.globl	testbmk12
 1874              		.section	.rodata.str1.4,"aMS",@progbits,1
 1875              		.align 4
 1876              	.LC21:
 1877 0000 42656E63 		.string	"Benchmark, mutexes lock/unlock"
 1877      686D6172 
 1877      6B2C206D 
 1877      75746578 
 1877      6573206C 
 1878              		.section	.rodata
 1879              		.align 4
 1880              		.type	testbmk12, @object
 1881              		.size	testbmk12, 16
 1882              	testbmk12:
 1883              	# name:
 1884 0048 00000000 		.long	.LC21
 1885              	# setup:
 1886 004c 200E0000 		.long	bmk12_setup
 1887              	# teardown:
 1888 0050 00000000 		.long	0
 1889              	# execute:
 1890 0054 800D0000 		.long	bmk12_execute
 1891              		.globl	testbmk11
 1892              		.section	.rodata.str1.4
 1893 001f 00       		.align 4
 1894              	.LC22:
 1895 0020 42656E63 		.string	"Benchmark, semaphores wait/signal"
 1895      686D6172 
 1895      6B2C2073 
 1895      656D6170 
 1895      686F7265 
 1896              		.section	.rodata
 1897              		.align 4
 1898              		.type	testbmk11, @object
 1899              		.size	testbmk11, 16
 1900              	testbmk11:
 1901              	# name:
GAS LISTING /tmp/ccmTSJ1m.s 			page 53


 1902 0058 20000000 		.long	.LC22
 1903              	# setup:
 1904 005c 10090000 		.long	bmk11_setup
 1905              	# teardown:
 1906 0060 00000000 		.long	0
 1907              	# execute:
 1908 0064 C00C0000 		.long	bmk11_execute
 1909              		.globl	testbmk10
 1910              		.section	.rodata.str1.4
 1911 0042 0000     		.align 4
 1912              	.LC23:
 1913 0044 42656E63 		.string	"Benchmark, virtual timers set/reset"
 1913      686D6172 
 1913      6B2C2076 
 1913      69727475 
 1913      616C2074 
 1914              		.section	.rodata
 1915              		.align 4
 1916              		.type	testbmk10, @object
 1917              		.size	testbmk10, 16
 1918              	testbmk10:
 1919              	# name:
 1920 0068 44000000 		.long	.LC23
 1921              	# setup:
 1922 006c 00000000 		.long	0
 1923              	# teardown:
 1924 0070 00000000 		.long	0
 1925              	# execute:
 1926 0074 000C0000 		.long	bmk10_execute
 1927              		.globl	testbmk9
 1928              		.section	.rodata.str1.4
 1929              		.align 4
 1930              	.LC24:
 1931 0068 42656E63 		.string	"Benchmark, I/O Queues throughput"
 1931      686D6172 
 1931      6B2C2049 
 1931      2F4F2051 
 1931      75657565 
 1932              		.section	.rodata
 1933              		.align 4
 1934              		.type	testbmk9, @object
 1935              		.size	testbmk9, 16
 1936              	testbmk9:
 1937              	# name:
 1938 0078 68000000 		.long	.LC24
 1939              	# setup:
 1940 007c 00000000 		.long	0
 1941              	# teardown:
 1942 0080 00000000 		.long	0
 1943              	# execute:
 1944 0084 D00A0000 		.long	bmk9_execute
 1945              		.globl	testbmk8
 1946              		.section	.rodata.str1.4
 1947 0089 000000   		.align 4
 1948              	.LC25:
 1949 008c 42656E63 		.string	"Benchmark, round robin context switching"
 1949      686D6172 
GAS LISTING /tmp/ccmTSJ1m.s 			page 54


 1949      6B2C2072 
 1949      6F756E64 
 1949      20726F62 
 1950              		.section	.rodata
 1951              		.align 4
 1952              		.type	testbmk8, @object
 1953              		.size	testbmk8, 16
 1954              	testbmk8:
 1955              	# name:
 1956 0088 8C000000 		.long	.LC25
 1957              	# setup:
 1958 008c 00000000 		.long	0
 1959              	# teardown:
 1960 0090 00000000 		.long	0
 1961              	# execute:
 1962 0094 30090000 		.long	bmk8_execute
 1963              		.globl	testbmk7
 1964              		.section	.rodata.str1.4
 1965 00b5 000000   		.align 4
 1966              	.LC26:
 1967 00b8 42656E63 		.string	"Benchmark, mass reschedule, 5 threads"
 1967      686D6172 
 1967      6B2C206D 
 1967      61737320 
 1967      72657363 
 1968              		.section	.rodata
 1969              		.align 4
 1970              		.type	testbmk7, @object
 1971              		.size	testbmk7, 16
 1972              	testbmk7:
 1973              	# name:
 1974 0098 B8000000 		.long	.LC26
 1975              	# setup:
 1976 009c F0080000 		.long	bmk7_setup
 1977              	# teardown:
 1978 00a0 00000000 		.long	0
 1979              	# execute:
 1980 00a4 00070000 		.long	bmk7_execute
 1981              		.globl	testbmk6
 1982              		.section	.rodata.str1.4
 1983 00de 0000     		.align 4
 1984              	.LC27:
 1985 00e0 42656E63 		.string	"Benchmark, threads, create only"
 1985      686D6172 
 1985      6B2C2074 
 1985      68726561 
 1985      64732C20 
 1986              		.section	.rodata
 1987              		.align 4
 1988              		.type	testbmk6, @object
 1989              		.size	testbmk6, 16
 1990              	testbmk6:
 1991              	# name:
 1992 00a8 E0000000 		.long	.LC27
 1993              	# setup:
 1994 00ac 00000000 		.long	0
 1995              	# teardown:
GAS LISTING /tmp/ccmTSJ1m.s 			page 55


 1996 00b0 00000000 		.long	0
 1997              	# execute:
 1998 00b4 B0040000 		.long	bmk6_execute
 1999              		.globl	testbmk5
 2000              		.section	.rodata.str1.4
 2001              		.align 4
 2002              	.LC28:
 2003 0100 42656E63 		.string	"Benchmark, threads, full cycle"
 2003      686D6172 
 2003      6B2C2074 
 2003      68726561 
 2003      64732C20 
 2004              		.section	.rodata
 2005              		.align 4
 2006              		.type	testbmk5, @object
 2007              		.size	testbmk5, 16
 2008              	testbmk5:
 2009              	# name:
 2010 00b8 00010000 		.long	.LC28
 2011              	# setup:
 2012 00bc 00000000 		.long	0
 2013              	# teardown:
 2014 00c0 00000000 		.long	0
 2015              	# execute:
 2016 00c4 60060000 		.long	bmk5_execute
 2017              		.globl	testbmk4
 2018              		.section	.rodata.str1.1
 2019              	.LC29:
 2020 0110 42656E63 		.string	"Benchmark, context switch"
 2020      686D6172 
 2020      6B2C2063 
 2020      6F6E7465 
 2020      78742073 
 2021              		.section	.rodata
 2022              		.align 4
 2023              		.type	testbmk4, @object
 2024              		.size	testbmk4, 16
 2025              	testbmk4:
 2026              	# name:
 2027 00c8 10010000 		.long	.LC29
 2028              	# setup:
 2029 00cc 00000000 		.long	0
 2030              	# teardown:
 2031 00d0 00000000 		.long	0
 2032              	# execute:
 2033 00d4 70050000 		.long	bmk4_execute
 2034              		.globl	testbmk3
 2035              		.section	.rodata.str1.1
 2036              	.LC30:
 2037 012a 42656E63 		.string	"Benchmark, messages #3"
 2037      686D6172 
 2037      6B2C206D 
 2037      65737361 
 2037      67657320 
 2038              		.section	.rodata
 2039              		.align 4
 2040              		.type	testbmk3, @object
GAS LISTING /tmp/ccmTSJ1m.s 			page 56


 2041              		.size	testbmk3, 16
 2042              	testbmk3:
 2043              	# name:
 2044 00d8 2A010000 		.long	.LC30
 2045              	# setup:
 2046 00dc 00000000 		.long	0
 2047              	# teardown:
 2048 00e0 00000000 		.long	0
 2049              	# execute:
 2050 00e4 40030000 		.long	bmk3_execute
 2051              		.globl	testbmk2
 2052              		.section	.rodata.str1.1
 2053              	.LC31:
 2054 0141 42656E63 		.string	"Benchmark, messages #2"
 2054      686D6172 
 2054      6B2C206D 
 2054      65737361 
 2054      67657320 
 2055              		.section	.rodata
 2056              		.align 4
 2057              		.type	testbmk2, @object
 2058              		.size	testbmk2, 16
 2059              	testbmk2:
 2060              	# name:
 2061 00e8 41010000 		.long	.LC31
 2062              	# setup:
 2063 00ec 00000000 		.long	0
 2064              	# teardown:
 2065 00f0 00000000 		.long	0
 2066              	# execute:
 2067 00f4 B0020000 		.long	bmk2_execute
 2068              		.globl	testbmk1
 2069              		.section	.rodata.str1.1
 2070              	.LC32:
 2071 0158 42656E63 		.string	"Benchmark, messages #1"
 2071      686D6172 
 2071      6B2C206D 
 2071      65737361 
 2071      67657320 
 2072              		.section	.rodata
 2073              		.align 4
 2074              		.type	testbmk1, @object
 2075              		.size	testbmk1, 16
 2076              	testbmk1:
 2077              	# name:
 2078 00f8 58010000 		.long	.LC32
 2079              	# setup:
 2080 00fc 00000000 		.long	0
 2081              	# teardown:
 2082 0100 00000000 		.long	0
 2083              	# execute:
 2084 0104 20020000 		.long	bmk1_execute
 2085              		.local	mtx1
 2086              		.comm	mtx1,16,4
 2087              		.local	sem1
 2088              		.comm	sem1,12,4
 2089              		.text
GAS LISTING /tmp/ccmTSJ1m.s 			page 57


 2090              	.Letext0:
 2091              		.file 2 "/usr/lib/gcc/x86_64-linux-gnu/4.8/include/stddef.h"
 2092              		.file 3 "/usr/include/stdint.h"
 2093              		.file 4 "../../../os/ports/GCC/SIMIA32/chtypes.h"
 2094              		.file 5 "../../../os/kernel/include/chlists.h"
 2095              		.file 6 "../../../os/kernel/include/chthreads.h"
 2096              		.file 7 "../../../os/ports/GCC/SIMIA32/chcore.h"
 2097              		.file 8 "../../../os/kernel/include/chvt.h"
 2098              		.file 9 "../../../os/kernel/include/chschd.h"
 2099              		.file 10 "../../../os/kernel/include/chsem.h"
 2100              		.file 11 "../../../os/kernel/include/chmtx.h"
 2101              		.file 12 "../../../os/kernel/include/chqueues.h"
 2102              		.file 13 "../../../test/test.h"
 2103              		.file 14 "../../../os/kernel/include/chmsg.h"
 7427              		.section	.note.GNU-stack,"",@progbits
GAS LISTING /tmp/ccmTSJ1m.s 			page 157

