GAS LISTING /tmp/ccgBWb2p.s 			page 1


   1              		.file	"test.c"
   2              	# GNU C (Ubuntu 4.8.2-19ubuntu1) version 4.8.2 (x86_64-linux-gnu)
   3              	#	compiled by GNU C version 4.8.2, GMP version 5.1.3, MPFR version 3.1.2-p3, MPC version 1.0.1
   4              	# GGC heuristics: --param ggc-min-expand=97 --param ggc-min-heapsize=126309
   5              	# options passed:  -I . -I ../../../os/ports/GCC/SIMIA32
   6              	# -I ../../../os/kernel/include -I ../../../test -I ../../../os/hal/include
   7              	# -I ../../../os/hal/platforms/Posix -I ../../../boards/simulator
   8              	# -I ../../../os/various -imultilib 32 -imultiarch i386-linux-gnu
   9              	# -MD ../../../test/test.d -MF .dep/test.o.d -MP -MQ ../../../test/test.o
  10              	# -D SIMULATOR -D SHELL_USE_IPRINTF=FALSE ../../../test/test.c -m32
  11              	# -mtune=generic -march=i686 -auxbase-strip ../../../test/test.o -ggdb -O2
  12              	# -Wall -Wextra -Wstrict-prototypes -fomit-frame-pointer -fverbose-asm
  13              	# -fstack-protector -Wformat -Wformat-security
  14              	# options enabled:  -faggressive-loop-optimizations
  15              	# -fasynchronous-unwind-tables -fauto-inc-dec -fbranch-count-reg
  16              	# -fcaller-saves -fcombine-stack-adjustments -fcommon -fcompare-elim
  17              	# -fcprop-registers -fcrossjumping -fcse-follow-jumps -fdefer-pop
  18              	# -fdelete-null-pointer-checks -fdevirtualize -fdwarf2-cfi-asm
  19              	# -fearly-inlining -feliminate-unused-debug-types -fexpensive-optimizations
  20              	# -fforward-propagate -ffunction-cse -fgcse -fgcse-lm -fgnu-runtime
  21              	# -fguess-branch-probability -fhoist-adjacent-loads -fident -fif-conversion
  22              	# -fif-conversion2 -findirect-inlining -finline -finline-atomics
  23              	# -finline-functions-called-once -finline-small-functions -fipa-cp
  24              	# -fipa-profile -fipa-pure-const -fipa-reference -fipa-sra
  25              	# -fira-hoist-pressure -fira-share-save-slots -fira-share-spill-slots
  26              	# -fivopts -fkeep-static-consts -fleading-underscore -fmath-errno
  27              	# -fmerge-constants -fmerge-debug-strings -fmove-loop-invariants
  28              	# -fomit-frame-pointer -foptimize-register-move -foptimize-sibling-calls
  29              	# -foptimize-strlen -fpartial-inlining -fpcc-struct-return -fpeephole
  30              	# -fpeephole2 -fprefetch-loop-arrays -free -fregmove -freorder-blocks
  31              	# -freorder-functions -frerun-cse-after-loop
  32              	# -fsched-critical-path-heuristic -fsched-dep-count-heuristic
  33              	# -fsched-group-heuristic -fsched-interblock -fsched-last-insn-heuristic
  34              	# -fsched-rank-heuristic -fsched-spec -fsched-spec-insn-heuristic
  35              	# -fsched-stalled-insns-dep -fschedule-insns2 -fshow-column -fshrink-wrap
  36              	# -fsigned-zeros -fsplit-ivs-in-unroller -fsplit-wide-types
  37              	# -fstack-protector -fstrict-aliasing -fstrict-overflow
  38              	# -fstrict-volatile-bitfields -fsync-libcalls -fthread-jumps
  39              	# -ftoplevel-reorder -ftrapping-math -ftree-bit-ccp -ftree-builtin-call-dce
  40              	# -ftree-ccp -ftree-ch -ftree-coalesce-vars -ftree-copy-prop
  41              	# -ftree-copyrename -ftree-cselim -ftree-dce -ftree-dominator-opts
  42              	# -ftree-dse -ftree-forwprop -ftree-fre -ftree-loop-if-convert
  43              	# -ftree-loop-im -ftree-loop-ivcanon -ftree-loop-optimize
  44              	# -ftree-parallelize-loops= -ftree-phiprop -ftree-pre -ftree-pta
  45              	# -ftree-reassoc -ftree-scev-cprop -ftree-sink -ftree-slp-vectorize
  46              	# -ftree-slsr -ftree-sra -ftree-switch-conversion -ftree-tail-merge
  47              	# -ftree-ter -ftree-vect-loop-version -ftree-vrp -funit-at-a-time
  48              	# -funwind-tables -fvar-tracking -fvar-tracking-assignments -fverbose-asm
  49              	# -fzero-initialized-in-bss -m32 -m80387 -m96bit-long-double
  50              	# -maccumulate-outgoing-args -malign-stringops -mfancy-math-387
  51              	# -mfp-ret-in-387 -mglibc -mieee-fp -mlong-double-80 -mno-red-zone
  52              	# -mno-sse4 -mpush-args -msahf -mtls-direct-seg-refs
  53              	
  54              		.text
  55              	.Ltext0:
  56              		.p2align 4,,15
  57              		.type	tmr, @function
GAS LISTING /tmp/ccgBWb2p.s 			page 2


  58              	tmr:
  59              	.LFB29:
  60              		.file 1 "../../../test/test.c"
  61              		.loc 1 261 0
  62              		.cfi_startproc
  63              	.LVL0:
  64              		.loc 1 264 0
  65 0000 C6050000 		movb	$1, test_timer_done	#, test_timer_done
  65      000001
  66 0007 C3       		ret
  67              		.cfi_endproc
  68              	.LFE29:
  69              		.size	tmr, .-tmr
  70              		.section	.rodata.str1.1,"aMS",@progbits,1
  71              	.LC0:
  72 0000 0D0A00   		.string	"\r\n"
  73              		.text
  74 0008 908DB426 		.p2align 4,,15
  74      00000000 
  75              		.type	print_line, @function
  76              	print_line:
  77              	.LFB32:
  78              		.loc 1 300 0
  79              		.cfi_startproc
  80              	.LVL1:
  81 0010 53       		pushl	%ebx	#
  82              		.cfi_def_cfa_offset 8
  83              		.cfi_offset 3, -8
  84 0011 BB4C0000 		movl	$76, %ebx	#, D.3563
  84      00
  85 0016 83EC18   		subl	$24, %esp	#,
  86              		.cfi_def_cfa_offset 32
  87              	.LVL2:
  88 0019 8DB42600 		.p2align 4,,7
  88      000000
  89              		.p2align 3
  90              	.L4:
  91              		.loc 1 304 0 discriminator 2
  92 0020 A1140000 		movl	chp, %eax	# chp, chp.19
  92      00
  93 0025 8B10     		movl	(%eax), %edx	# chp.19_4->vmt, chp.19_4->vmt
  94 0027 C7442404 		movl	$45, 4(%esp)	#,
  94      2D000000 
  95 002f 890424   		movl	%eax, (%esp)	# chp.19,
  96 0032 FF5208   		call	*8(%edx)	# _5->put
  97              	.LVL3:
  98              		.loc 1 303 0 discriminator 2
  99 0035 83EB01   		subl	$1, %ebx	#, D.3563
 100              	.LVL4:
 101 0038 75E6     		jne	.L4	#,
 102              		.loc 1 305 0
 103 003a A1140000 		movl	chp, %eax	# chp, chp.19
 103      00
 104 003f 8B10     		movl	(%eax), %edx	# chp.19_9->vmt, chp.19_9->vmt
 105 0041 C7442408 		movl	$2, 8(%esp)	#,
 105      02000000 
 106 0049 C7442404 		movl	$.LC0, 4(%esp)	#,
GAS LISTING /tmp/ccgBWb2p.s 			page 3


 106      00000000 
 107 0051 890424   		movl	%eax, (%esp)	# chp.19,
 108 0054 FF12     		call	*(%edx)	# _10->write
 109              	.LVL5:
 110              		.loc 1 306 0
 111 0056 83C418   		addl	$24, %esp	#,
 112              		.cfi_def_cfa_offset 8
 113 0059 5B       		popl	%ebx	#
 114              		.cfi_restore 3
 115              		.cfi_def_cfa_offset 4
 116              	.LVL6:
 117 005a C3       		ret
 118              		.cfi_endproc
 119              	.LFE32:
 120              		.size	print_line, .-print_line
 121 005b 908D7426 		.p2align 4,,15
 121      00
 122              		.globl	test_printn
 123              		.type	test_printn, @function
 124              	test_printn:
 125              	.LFB15:
 126              		.loc 1 91 0
 127              		.cfi_startproc
 128              	.LVL7:
 129 0060 57       		pushl	%edi	#
 130              		.cfi_def_cfa_offset 8
 131              		.cfi_offset 7, -8
 132              		.loc 1 99 0
 133 0061 BFCDCCCC 		movl	$-858993459, %edi	#, tmp93
 133      CC
 134              		.loc 1 91 0
 135 0066 56       		pushl	%esi	#
 136              		.cfi_def_cfa_offset 12
 137              		.cfi_offset 6, -12
 138 0067 53       		pushl	%ebx	#
 139              		.cfi_def_cfa_offset 16
 140              		.cfi_offset 3, -16
 141 0068 83EC30   		subl	$48, %esp	#,
 142              		.cfi_def_cfa_offset 64
 143              		.loc 1 91 0
 144 006b 8B4C2440 		movl	64(%esp), %ecx	# n, n
 145              		.loc 1 94 0
 146 006f 8D74241C 		leal	28(%esp), %esi	#, tmp92
 147              		.loc 1 91 0
 148 0073 65A11400 		movl	%gs:20, %eax	#, tmp94
 148      0000
 149 0079 8944242C 		movl	%eax, 44(%esp)	# tmp94, D.3595
 150 007d 31C0     		xorl	%eax, %eax	# tmp94
 151              		.loc 1 94 0
 152 007f 89F3     		movl	%esi, %ebx	# tmp92, p
 153 0081 85C9     		testl	%ecx, %ecx	# n
 154 0083 7463     		je	.L19	#,
 155              	.LVL8:
 156              		.p2align 4,,7
 157 0085 8D7600   		.p2align 3
 158              	.L17:
 159              		.loc 1 99 0
GAS LISTING /tmp/ccgBWb2p.s 			page 4


 160 0088 89C8     		movl	%ecx, %eax	# n, tmp95
 161 008a 83C301   		addl	$1, %ebx	#, p
 162              	.LVL9:
 163 008d F7E7     		mull	%edi	# tmp93
 164 008f C1EA03   		shrl	$3, %edx	#, tmp76
 165 0092 8D0492   		leal	(%edx,%edx,4), %eax	#, tmp81
 166 0095 01C0     		addl	%eax, %eax	# tmp82
 167 0097 29C1     		subl	%eax, %ecx	# tmp82, D.3588
 168              	.LVL10:
 169              		.loc 1 98 0
 170 0099 85D2     		testl	%edx, %edx	# n
 171              		.loc 1 99 0
 172 009b 8D4130   		leal	48(%ecx), %eax	#, D.3594
 173 009e 89D1     		movl	%edx, %ecx	# tmp76, n
 174              	.LVL11:
 175 00a0 8843FF   		movb	%al, -1(%ebx)	# D.3594, MEM[base: p_12, offset: 4294967295B]
 176              		.loc 1 98 0
 177 00a3 75E3     		jne	.L17	#,
 178              		.loc 1 100 0 discriminator 1
 179 00a5 39F3     		cmpl	%esi, %ebx	# tmp92, p
 180 00a7 770B     		ja	.L16	#,
 181 00a9 EB25     		jmp	.L7	#
 182              	.LVL12:
 183 00ab 908D7426 		.p2align 4,,7
 183      00
 184              		.p2align 3
 185              	.L20:
 186 00b0 0FB643FF 		movzbl	-1(%ebx), %eax	# MEM[base: p_22, offset: 4294967295B], D.3594
 187              	.L16:
 188              		.loc 1 101 0
 189 00b4 8B151400 		movl	chp, %edx	# chp, chp.0
 189      0000
 190 00ba 0FB6C0   		movzbl	%al, %eax	# D.3594, D.3594
 191 00bd 83EB01   		subl	$1, %ebx	#, p
 192              	.LVL13:
 193 00c0 8B3A     		movl	(%edx), %edi	# chp.0_19->vmt, chp.0_19->vmt
 194 00c2 89442404 		movl	%eax, 4(%esp)	# D.3594,
 195 00c6 891424   		movl	%edx, (%esp)	# chp.0,
 196 00c9 FF5708   		call	*8(%edi)	# _20->put
 197              	.LVL14:
 198              		.loc 1 100 0
 199 00cc 39F3     		cmpl	%esi, %ebx	# tmp92, p
 200 00ce 75E0     		jne	.L20	#,
 201              	.LVL15:
 202              	.L7:
 203              		.loc 1 103 0
 204 00d0 8B44242C 		movl	44(%esp), %eax	# D.3595, tmp96
 205 00d4 65330514 		xorl	%gs:20, %eax	#, tmp96
 205      000000
 206 00db 7522     		jne	.L21	#,
 207 00dd 83C430   		addl	$48, %esp	#,
 208              		.cfi_remember_state
 209              		.cfi_def_cfa_offset 16
 210 00e0 5B       		popl	%ebx	#
 211              		.cfi_restore 3
 212              		.cfi_def_cfa_offset 12
 213 00e1 5E       		popl	%esi	#
GAS LISTING /tmp/ccgBWb2p.s 			page 5


 214              		.cfi_restore 6
 215              		.cfi_def_cfa_offset 8
 216 00e2 5F       		popl	%edi	#
 217              		.cfi_restore 7
 218              		.cfi_def_cfa_offset 4
 219              		.p2align 4,,1
 220 00e3 C3       		ret
 221              	.LVL16:
 222              		.p2align 4,,7
 223 00e4 8D742600 		.p2align 3
 224              	.L19:
 225              		.cfi_restore_state
 226              	.LBB48:
 227              	.LBB49:
 228              		.loc 1 95 0
 229 00e8 A1140000 		movl	chp, %eax	# chp, chp.0
 229      00
 230 00ed 8B10     		movl	(%eax), %edx	# chp.0_29->vmt, chp.0_29->vmt
 231 00ef C7442404 		movl	$48, 4(%esp)	#,
 231      30000000 
 232 00f7 890424   		movl	%eax, (%esp)	# chp.0,
 233 00fa FF5208   		call	*8(%edx)	# _30->put
 234              	.LVL17:
 235 00fd EBD1     		jmp	.L7	#
 236              	.LVL18:
 237              	.L21:
 238              	.LBE49:
 239              	.LBE48:
 240              		.loc 1 103 0
 241 00ff E8FCFFFF 		call	__stack_chk_fail	#
 241      FF
 242              	.LVL19:
 243              		.cfi_endproc
 244              	.LFE15:
 245              		.size	test_printn, .-test_printn
 246 0104 8DB60000 		.p2align 4,,15
 246      00008DBF 
 246      00000000 
 247              		.globl	test_print
 248              		.type	test_print, @function
 249              	test_print:
 250              	.LFB16:
 251              		.loc 1 110 0
 252              		.cfi_startproc
 253              	.LVL20:
 254 0110 53       		pushl	%ebx	#
 255              		.cfi_def_cfa_offset 8
 256              		.cfi_offset 3, -8
 257 0111 83EC18   		subl	$24, %esp	#,
 258              		.cfi_def_cfa_offset 32
 259              		.loc 1 110 0
 260 0114 8B5C2420 		movl	32(%esp), %ebx	# msgp, msgp
 261              	.LVL21:
 262              		.loc 1 112 0
 263 0118 0FB603   		movzbl	(%ebx), %eax	#* msgp,
 264 011b 84C0     		testb	%al, %al	# D.3603
 265 011d 741D     		je	.L22	#,
GAS LISTING /tmp/ccgBWb2p.s 			page 6


 266 011f 90       		.p2align 4,,7
 267              		.p2align 3
 268              	.L28:
 269              		.loc 1 113 0
 270 0120 8B151400 		movl	chp, %edx	# chp, chp.2
 270      0000
 271 0126 83C301   		addl	$1, %ebx	#, msgp
 272              	.LVL22:
 273 0129 8B0A     		movl	(%edx), %ecx	# chp.2_6->vmt, chp.2_6->vmt
 274 012b 89442404 		movl	%eax, 4(%esp)	# D.3603,
 275 012f 891424   		movl	%edx, (%esp)	# chp.2,
 276 0132 FF5108   		call	*8(%ecx)	# _7->put
 277              	.LVL23:
 278              		.loc 1 112 0
 279 0135 0FB603   		movzbl	(%ebx), %eax	#* msgp,
 280 0138 84C0     		testb	%al, %al	# D.3603
 281 013a 75E4     		jne	.L28	#,
 282              	.L22:
 283              		.loc 1 114 0
 284 013c 83C418   		addl	$24, %esp	#,
 285              		.cfi_def_cfa_offset 8
 286 013f 5B       		popl	%ebx	#
 287              		.cfi_restore 3
 288              		.cfi_def_cfa_offset 4
 289              	.LVL24:
 290 0140 C3       		ret
 291              		.cfi_endproc
 292              	.LFE16:
 293              		.size	test_print, .-test_print
 294 0141 EB0D9090 		.p2align 4,,15
 294      90909090 
 294      90909090 
 294      909090
 295              		.globl	test_println
 296              		.type	test_println, @function
 297              	test_println:
 298              	.LFB17:
 299              		.loc 1 121 0
 300              		.cfi_startproc
 301              	.LVL25:
 302 0150 53       		pushl	%ebx	#
 303              		.cfi_def_cfa_offset 8
 304              		.cfi_offset 3, -8
 305 0151 83EC18   		subl	$24, %esp	#,
 306              		.cfi_def_cfa_offset 32
 307              		.loc 1 121 0
 308 0154 8B5C2420 		movl	32(%esp), %ebx	# msgp, msgp
 309              	.LVL26:
 310              	.LBB50:
 311              	.LBB51:
 312              		.loc 1 112 0
 313 0158 0FB603   		movzbl	(%ebx), %eax	#* msgp,
 314 015b 84C0     		testb	%al, %al	# D.3616
 315 015d 741D     		je	.L33	#,
 316 015f 90       		.p2align 4,,7
 317              		.p2align 3
 318              	.L37:
GAS LISTING /tmp/ccgBWb2p.s 			page 7


 319              		.loc 1 113 0
 320 0160 8B151400 		movl	chp, %edx	# chp, chp.2
 320      0000
 321 0166 83C301   		addl	$1, %ebx	#, msgp
 322              	.LVL27:
 323 0169 8B0A     		movl	(%edx), %ecx	# chp.2_8->vmt, chp.2_8->vmt
 324 016b 89442404 		movl	%eax, 4(%esp)	# D.3616,
 325 016f 891424   		movl	%edx, (%esp)	# chp.2,
 326 0172 FF5108   		call	*8(%ecx)	# _9->put
 327              	.LVL28:
 328              		.loc 1 112 0
 329 0175 0FB603   		movzbl	(%ebx), %eax	#* msgp,
 330 0178 84C0     		testb	%al, %al	# D.3616
 331 017a 75E4     		jne	.L37	#,
 332              	.L33:
 333              	.LBE51:
 334              	.LBE50:
 335              		.loc 1 124 0
 336 017c A1140000 		movl	chp, %eax	# chp, chp.4
 336      00
 337 0181 8B10     		movl	(%eax), %edx	# chp.4_4->vmt, chp.4_4->vmt
 338 0183 C7442408 		movl	$2, 8(%esp)	#,
 338      02000000 
 339 018b C7442404 		movl	$.LC0, 4(%esp)	#,
 339      00000000 
 340 0193 890424   		movl	%eax, (%esp)	# chp.4,
 341 0196 FF12     		call	*(%edx)	# _5->write
 342              	.LVL29:
 343              		.loc 1 125 0
 344 0198 83C418   		addl	$24, %esp	#,
 345              		.cfi_def_cfa_offset 8
 346 019b 5B       		popl	%ebx	#
 347              		.cfi_restore 3
 348              		.cfi_def_cfa_offset 4
 349              	.LVL30:
 350 019c C3       		ret
 351              		.cfi_endproc
 352              	.LFE17:
 353              		.size	test_println, .-test_println
 354 019d 8D7600   		.p2align 4,,15
 355              		.globl	test_emit_token
 356              		.type	test_emit_token, @function
 357              	test_emit_token:
 358              	.LFB20:
 359              		.loc 1 147 0
 360              		.cfi_startproc
 361              	.LVL31:
 362              		.loc 1 149 0
 363              	#APP
 364              	# 149 "../../../test/test.c" 1
   1              	/*
   2              	    ChibiOS/RT - Copyright (C) 2006-2013 Giovanni Di Sirio
   3              	
   4              	    Licensed under the Apache License, Version 2.0 (the "License");
   5              	    you may not use this file except in compliance with the License.
   6              	    You may obtain a copy of the License at
   7              	
GAS LISTING /tmp/ccgBWb2p.s 			page 8


   8              	        http://www.apache.org/licenses/LICENSE-2.0
   9              	
  10              	    Unless required by applicable law or agreed to in writing, software
  11              	    distributed under the License is distributed on an "AS IS" BASIS,
  12              	    WITHOUT WARRANTIES OR CONDITIONS OF ANY KIND, either express or implied.
  13              	    See the License for the specific language governing permissions and
  14              	    limitations under the License.
  15              	*/
  16              	
  17              	/**
  18              	 * @file    test.c
  19              	 * @brief   Tests support code.
  20              	 *
  21              	 * @addtogroup test
  22              	 * @{
  23              	 */
  24              	
  25              	#include "ch.h"
  26              	#include "hal.h"
  27              	
  28              	#include "test.h"
  29              	#include "testthd.h"
  30              	#include "testsem.h"
  31              	#include "testmtx.h"
  32              	#include "testmsg.h"
  33              	#include "testmbox.h"
  34              	#include "testevt.h"
  35              	#include "testheap.h"
  36              	#include "testpools.h"
  37              	#include "testdyn.h"
  38              	#include "testqueues.h"
  39              	#include "testbmk.h"
  40              	
  41              	/*
  42              	 * Array of all the test patterns.
  43              	 */
  44              	static ROMCONST struct testcase * ROMCONST *patterns[] = {
  45              	  patternthd,
  46              	  patternsem,
  47              	  patternmtx,
  48              	  patternmsg,
  49              	  patternmbox,
  50              	  patternevt,
  51              	  patternheap,
  52              	  patternpools,
  53              	  patterndyn,
  54              	  patternqueues,
  55              	  patternbmk,
  56              	  NULL
  57              	};
  58              	
  59              	static bool_t local_fail, global_fail;
  60              	static unsigned failpoint;
  61              	static char tokens_buffer[MAX_TOKENS];
  62              	static char *tokp;
  63              	
  64              	/*
GAS LISTING /tmp/ccgBWb2p.s 			page 9


  65              	 * Static working areas, the following areas can be used for threads or
  66              	 * used as temporary buffers.
  67              	 */
  68              	union test_buffers test;
  69              	
  70              	/*
  71              	 * Pointers to the spawned threads.
  72              	 */
  73              	Thread *threads[MAX_THREADS];
  74              	
  75              	/*
  76              	 * Pointers to the working areas.
  77              	 */
  78              	void * ROMCONST wa[5] = {test.wa.T0, test.wa.T1, test.wa.T2,
  79              	                         test.wa.T3, test.wa.T4};
  80              	
  81              	/*
  82              	 * Console output.
  83              	 */
  84              	static BaseSequentialStream *chp;
  85              	
  86              	/**
  87              	 * @brief   Prints a decimal unsigned number.
  88              	 *
  89              	 * @param[in] n         the number to be printed
  90              	 */
  91              	void test_printn(uint32_t n) {
  92              	  char buf[16], *p;
  93              	
  94              	  if (!n)
  95              	    chSequentialStreamPut(chp, '0');
  96              	  else {
  97              	    p = buf;
  98              	    while (n)
  99              	      *p++ = (n % 10) + '0', n /= 10;
 100              	    while (p > buf)
 101              	      chSequentialStreamPut(chp, *--p);
 102              	  }
 103              	}
 104              	
 105              	/**
 106              	 * @brief   Prints a line without final end-of-line.
 107              	 *
 108              	 * @param[in] msgp      the message
 109              	 */
 110              	void test_print(const char *msgp) {
 111              	
 112              	  while (*msgp)
 113              	    chSequentialStreamPut(chp, *msgp++);
 114              	}
 115              	
 116              	/**
 117              	 * @brief   Prints a line.
 118              	 *
 119              	 * @param[in] msgp      the message
 120              	 */
 121              	void test_println(const char *msgp) {
GAS LISTING /tmp/ccgBWb2p.s 			page 10


 122              	
 123              	  test_print(msgp);
 124              	  chSequentialStreamWrite(chp, (const uint8_t *)"\r\n", 2);
 125              	}
 126              	
 127              	/*
 128              	 * Tokens.
 129              	 */
 130              	static void clear_tokens(void) {
 131              	
 132              	  tokp = tokens_buffer;
 133              	}
 134              	
 135              	static void print_tokens(void) {
 136              	  char *cp = tokens_buffer;
 137              	
 138              	  while (cp < tokp)
 139              	    chSequentialStreamPut(chp, *cp++);
 140              	}
 141              	
 142              	/**
 143              	 * @brief   Emits a token into the tokens buffer.
 144              	 *
 145              	 * @param[in] token     the token as a char
 146              	 */
 147              	void test_emit_token(char token) {
 148              	
 149 01a0 90       	  chSysLock();
 150              	  *tokp++ = token;
 365              		nop
 366              	# 0 "" 2
 367              		.loc 1 150 0
 368              	#NO_APP
 369 01a1 A1180000 		movl	tokp, %eax	# tokp, tokp.5
 369      00
 370 01a6 8D5001   		leal	1(%eax), %edx	#, tmp63
 371 01a9 89151800 		movl	%edx, tokp	# tmp63, tokp
 371      0000
 372 01af 8B542404 		movl	4(%esp), %edx	# token, token
 373 01b3 8810     		movb	%dl, (%eax)	# token, *tokp.5_2
 374              		.loc 1 151 0
 375              	#APP
 376              	# 151 "../../../test/test.c" 1
 151 01b5 90       	  chSysUnlock();
 152              	}
 377              		nop
 378              	# 0 "" 2
 379              	#NO_APP
 380 01b6 C3       		ret
 381              		.cfi_endproc
 382              	.LFE20:
 383              		.size	test_emit_token, .-test_emit_token
 384 01b7 89F68DBC 		.p2align 4,,15
 384      27000000 
 384      00
 385              		.globl	_test_fail
 386              		.type	_test_fail, @function
GAS LISTING /tmp/ccgBWb2p.s 			page 11


 387              	_test_fail:
 388              	.LFB21:
 389              		.loc 1 157 0
 390              		.cfi_startproc
 391              	.LVL32:
 392              		.loc 1 161 0
 393 01c0 8B442404 		movl	4(%esp), %eax	# point, point
 394              		.loc 1 159 0
 395 01c4 C6053100 		movb	$1, local_fail	#, local_fail
 395      000001
 396              		.loc 1 160 0
 397 01cb C6053000 		movb	$1, global_fail	#, global_fail
 397      000001
 398              		.loc 1 161 0
 399 01d2 A32C0000 		movl	%eax, failpoint	# point, failpoint
 399      00
 400              		.loc 1 163 0
 401 01d7 B8010000 		movl	$1, %eax	#,
 401      00
 402 01dc C3       		ret
 403              		.cfi_endproc
 404              	.LFE21:
 405              		.size	_test_fail, .-_test_fail
 406 01dd 8D7600   		.p2align 4,,15
 407              		.globl	_test_assert
 408              		.type	_test_assert, @function
 409              	_test_assert:
 410              	.LFB22:
 411              		.loc 1 165 0
 412              		.cfi_startproc
 413              	.LVL33:
 414              		.loc 1 169 0
 415 01e0 31C0     		xorl	%eax, %eax	# D.3626
 416              		.loc 1 167 0
 417 01e2 807C2408 		cmpb	$0, 8(%esp)	#, condition
 417      00
 418 01e7 751C     		jne	.L44	#,
 419              	.LVL34:
 420              	.LBB52:
 421              	.LBB53:
 422              		.loc 1 161 0
 423 01e9 8B442404 		movl	4(%esp), %eax	# point, point
 424              		.loc 1 159 0
 425 01ed C6053100 		movb	$1, local_fail	#, local_fail
 425      000001
 426              		.loc 1 160 0
 427 01f4 C6053000 		movb	$1, global_fail	#, global_fail
 427      000001
 428              		.loc 1 161 0
 429 01fb A32C0000 		movl	%eax, failpoint	# point, failpoint
 429      00
 430              	.LBE53:
 431              	.LBE52:
 432              		.loc 1 168 0
 433 0200 B8010000 		movl	$1, %eax	#, D.3626
 433      00
 434              	.LVL35:
GAS LISTING /tmp/ccgBWb2p.s 			page 12


 435              	.L44:
 436              		.loc 1 170 0
 437 0205 F3C3     		rep ret
 438              		.cfi_endproc
 439              	.LFE22:
 440              		.size	_test_assert, .-_test_assert
 441 0207 89F68DBC 		.p2align 4,,15
 441      27000000 
 441      00
 442              		.globl	_test_assert_sequence
 443              		.type	_test_assert_sequence, @function
 444              	_test_assert_sequence:
 445              	.LFB23:
 446              		.loc 1 172 0
 447              		.cfi_startproc
 448              	.LVL36:
 449 0210 53       		pushl	%ebx	#
 450              		.cfi_def_cfa_offset 8
 451              		.cfi_offset 3, -8
 452 0211 8B0D1800 		movl	tokp, %ecx	# tokp, D.3637
 452      0000
 453              		.loc 1 173 0
 454 0217 B81C0000 		movl	$tokens_buffer, %eax	#, cp
 454      00
 455              		.loc 1 172 0
 456 021c 8B54240C 		movl	12(%esp), %edx	# expected, expected
 457              		.loc 1 174 0
 458 0220 EB15     		jmp	.L47	#
 459              	.LVL37:
 460              		.p2align 4,,7
 461 0222 8DB60000 		.p2align 3
 461      0000
 462              	.L50:
 463              		.loc 1 175 0
 464 0228 83C201   		addl	$1, %edx	#, expected
 465              	.LVL38:
 466 022b 83C001   		addl	$1, %eax	#, cp
 467              	.LVL39:
 468 022e 0FB65AFF 		movzbl	-1(%edx), %ebx	# MEM[base: expected_10, offset: 4294967295B], tmp70
 469 0232 3858FF   		cmpb	%bl, -1(%eax)	# tmp70, MEM[base: cp_8, offset: 4294967295B]
 470 0235 7519     		jne	.L51	#,
 471              	.LVL40:
 472              	.L47:
 473              		.loc 1 174 0 discriminator 1
 474 0237 39C8     		cmpl	%ecx, %eax	# D.3637, cp
 475 0239 72ED     		jb	.L50	#,
 476              		.loc 1 178 0
 477 023b 803A00   		cmpb	$0, (%edx)	#, *expected_20
 478 023e 7510     		jne	.L51	#,
 479              		.loc 1 181 0
 480 0240 31C0     		xorl	%eax, %eax	# D.3635
 481              	.LVL41:
 482              	.LBB54:
 483              	.LBB55:
 484              		.loc 1 132 0
 485 0242 C7051800 		movl	$tokens_buffer, tokp	#, tokp
 485      00001C00 
GAS LISTING /tmp/ccgBWb2p.s 			page 13


 485      0000
 486              	.LBE55:
 487              	.LBE54:
 488              		.loc 1 182 0
 489 024c 5B       		popl	%ebx	#
 490              		.cfi_remember_state
 491              		.cfi_restore 3
 492              		.cfi_def_cfa_offset 4
 493 024d C3       		ret
 494              	.LVL42:
 495 024e 6690     		.p2align 4,,7
 496              		.p2align 3
 497              	.L51:
 498              		.cfi_restore_state
 499              	.LBB56:
 500              	.LBB57:
 501              		.loc 1 161 0
 502 0250 8B442408 		movl	8(%esp), %eax	# point, point
 503              	.LVL43:
 504              		.loc 1 159 0
 505 0254 C6053100 		movb	$1, local_fail	#, local_fail
 505      000001
 506              		.loc 1 160 0
 507 025b C6053000 		movb	$1, global_fail	#, global_fail
 507      000001
 508              	.LBE57:
 509              	.LBE56:
 510              		.loc 1 182 0
 511 0262 5B       		popl	%ebx	#
 512              		.cfi_restore 3
 513              		.cfi_def_cfa_offset 4
 514              	.LBB59:
 515              	.LBB58:
 516              		.loc 1 161 0
 517 0263 A32C0000 		movl	%eax, failpoint	# point, failpoint
 517      00
 518              	.LBE58:
 519              	.LBE59:
 520              		.loc 1 176 0
 521 0268 B8010000 		movl	$1, %eax	#, D.3635
 521      00
 522              		.loc 1 182 0
 523 026d C3       		ret
 524              		.cfi_endproc
 525              	.LFE23:
 526              		.size	_test_assert_sequence, .-_test_assert_sequence
 527 026e 6690     		.p2align 4,,15
 528              		.globl	_test_assert_time_window
 529              		.type	_test_assert_time_window, @function
 530              	_test_assert_time_window:
 531              	.LFB24:
 532              		.loc 1 184 0
 533              		.cfi_startproc
 534              	.LVL44:
 535              		.loc 1 184 0
 536 0270 8B442408 		movl	8(%esp), %eax	# start, start
 537 0274 8B54240C 		movl	12(%esp), %edx	# end, D.3640
GAS LISTING /tmp/ccgBWb2p.s 			page 14


 538              		.loc 1 186 0
 539 0278 8B0D0C00 		movl	vtlist+12, %ecx	# vtlist.vt_systime, D.3640
 539      0000
 540              	.LVL45:
 541 027e 29C2     		subl	%eax, %edx	# start, D.3640
 542 0280 29C1     		subl	%eax, %ecx	# start, D.3640
 543              	.LVL46:
 544              	.LBB60:
 545              	.LBB61:
 546              		.loc 1 169 0
 547 0282 31C0     		xorl	%eax, %eax	# D.3641
 548              		.loc 1 167 0
 549 0284 39D1     		cmpl	%edx, %ecx	# D.3640, D.3640
 550 0286 721C     		jb	.L54	#,
 551              	.LVL47:
 552              	.LBB62:
 553              	.LBB63:
 554              		.loc 1 161 0
 555 0288 8B442404 		movl	4(%esp), %eax	# point, point
 556              		.loc 1 159 0
 557 028c C6053100 		movb	$1, local_fail	#, local_fail
 557      000001
 558              		.loc 1 160 0
 559 0293 C6053000 		movb	$1, global_fail	#, global_fail
 559      000001
 560              		.loc 1 161 0
 561 029a A32C0000 		movl	%eax, failpoint	# point, failpoint
 561      00
 562              	.LBE63:
 563              	.LBE62:
 564              		.loc 1 168 0
 565 029f B8010000 		movl	$1, %eax	#, D.3641
 565      00
 566              	.LVL48:
 567              	.L54:
 568              	.LBE61:
 569              	.LBE60:
 570              		.loc 1 187 0
 571 02a4 F3C3     		rep ret
 572              		.cfi_endproc
 573              	.LFE24:
 574              		.size	_test_assert_time_window, .-_test_assert_time_window
 575 02a6 8D76008D 		.p2align 4,,15
 575      BC270000 
 575      0000
 576              		.globl	test_terminate_threads
 577              		.type	test_terminate_threads, @function
 578              	test_terminate_threads:
 579              	.LFB25:
 580              		.loc 1 196 0
 581              		.cfi_startproc
 582              	.LVL49:
 583 02b0 53       		pushl	%ebx	#
 584              		.cfi_def_cfa_offset 8
 585              		.cfi_offset 3, -8
 586              		.loc 1 199 0
 587 02b1 31DB     		xorl	%ebx, %ebx	# i
GAS LISTING /tmp/ccgBWb2p.s 			page 15


 588              		.loc 1 196 0
 589 02b3 83EC18   		subl	$24, %esp	#,
 590              		.cfi_def_cfa_offset 32
 591              	.LVL50:
 592              	.L59:
 593              		.loc 1 200 0
 594 02b6 8B049D00 		movl	threads(,%ebx,4), %eax	# MEM[symbol: threads, index: _8, step: 4, offset: 0B], D.3652
 594      000000
 595 02bd 85C0     		testl	%eax, %eax	# D.3652
 596 02bf 7408     		je	.L57	#,
 597              		.loc 1 201 0
 598 02c1 890424   		movl	%eax, (%esp)	# D.3652,
 599 02c4 E8FCFFFF 		call	chThdTerminate	#
 599      FF
 600              	.LVL51:
 601              	.L57:
 602              		.loc 1 199 0
 603 02c9 83C301   		addl	$1, %ebx	#, i
 604              	.LVL52:
 605 02cc 83FB05   		cmpl	$5, %ebx	#, i
 606 02cf 75E5     		jne	.L59	#,
 607              		.loc 1 202 0
 608 02d1 83C418   		addl	$24, %esp	#,
 609              		.cfi_def_cfa_offset 8
 610 02d4 5B       		popl	%ebx	#
 611              		.cfi_restore 3
 612              		.cfi_def_cfa_offset 4
 613              	.LVL53:
 614 02d5 C3       		ret
 615              		.cfi_endproc
 616              	.LFE25:
 617              		.size	test_terminate_threads, .-test_terminate_threads
 618 02d6 8D76008D 		.p2align 4,,15
 618      BC270000 
 618      0000
 619              		.globl	test_wait_threads
 620              		.type	test_wait_threads, @function
 621              	test_wait_threads:
 622              	.LFB26:
 623              		.loc 1 207 0
 624              		.cfi_startproc
 625              	.LVL54:
 626 02e0 53       		pushl	%ebx	#
 627              		.cfi_def_cfa_offset 8
 628              		.cfi_offset 3, -8
 629              		.loc 1 210 0
 630 02e1 31DB     		xorl	%ebx, %ebx	# i
 631              		.loc 1 207 0
 632 02e3 83EC18   		subl	$24, %esp	#,
 633              		.cfi_def_cfa_offset 32
 634              	.LVL55:
 635              	.L67:
 636              		.loc 1 211 0
 637 02e6 8B049D00 		movl	threads(,%ebx,4), %eax	# MEM[symbol: threads, index: _9, step: 4, offset: 0B], D.3664
 637      000000
 638 02ed 85C0     		testl	%eax, %eax	# D.3664
 639 02ef 7413     		je	.L65	#,
GAS LISTING /tmp/ccgBWb2p.s 			page 16


 640              		.loc 1 212 0
 641 02f1 890424   		movl	%eax, (%esp)	# D.3664,
 642 02f4 E8FCFFFF 		call	chThdWait	#
 642      FF
 643              	.LVL56:
 644              		.loc 1 213 0
 645 02f9 C7049D00 		movl	$0, threads(,%ebx,4)	#, MEM[symbol: threads, index: _9, step: 4, offset: 0B]
 645      00000000 
 645      000000
 646              	.L65:
 647              		.loc 1 210 0
 648 0304 83C301   		addl	$1, %ebx	#, i
 649              	.LVL57:
 650 0307 83FB05   		cmpl	$5, %ebx	#, i
 651 030a 75DA     		jne	.L67	#,
 652              		.loc 1 215 0
 653 030c 83C418   		addl	$24, %esp	#,
 654              		.cfi_def_cfa_offset 8
 655 030f 5B       		popl	%ebx	#
 656              		.cfi_restore 3
 657              		.cfi_def_cfa_offset 4
 658              	.LVL58:
 659 0310 C3       		ret
 660              		.cfi_endproc
 661              	.LFE26:
 662              		.size	test_wait_threads, .-test_wait_threads
 663 0311 EB0D9090 		.p2align 4,,15
 663      90909090 
 663      90909090 
 663      909090
 664              		.globl	test_cpu_pulse
 665              		.type	test_cpu_pulse, @function
 666              	test_cpu_pulse:
 667              	.LFB27:
 668              		.loc 1 224 0
 669              		.cfi_startproc
 670              	.LVL59:
 671 0320 57       		pushl	%edi	#
 672              		.cfi_def_cfa_offset 8
 673              		.cfi_offset 7, -8
 674              		.loc 1 227 0
 675 0321 8B0D1800 		movl	rlist+24, %ecx	# rlist.r_current, D.3671
 675      0000
 676              		.loc 1 224 0
 677 0327 56       		pushl	%esi	#
 678              		.cfi_def_cfa_offset 12
 679              		.cfi_offset 6, -12
 680 0328 53       		pushl	%ebx	#
 681              		.cfi_def_cfa_offset 16
 682              		.cfi_offset 3, -16
 683              		.loc 1 228 0
 684 0329 BBD34D62 		movl	$274877907, %ebx	#, tmp81
 684      10
 685 032e 69542410 		imull	$1000, 16(%esp), %edx	#, duration, D.3668
 685      E8030000 
 686              		.loc 1 227 0
 687 0336 8B7120   		movl	32(%ecx), %esi	# _4->p_time, start
GAS LISTING /tmp/ccgBWb2p.s 			page 17


 688              	.LVL60:
 689              		.loc 1 228 0
 690 0339 83EA01   		subl	$1, %edx	#, D.3669
 691 033c 89D0     		movl	%edx, %eax	# D.3669, tmp91
 692 033e F7E3     		mull	%ebx	# tmp81
 693 0340 C1EA06   		shrl	$6, %edx	#, D.3669
 694 0343 8D7C1601 		leal	1(%esi,%edx), %edi	#, end
 695              	.LVL61:
 696 0347 EB13     		jmp	.L76	#
 697              	.LVL62:
 698 0349 8DB42600 		.p2align 4,,7
 698      000000
 699              		.p2align 3
 700              	.L78:
 701              		.loc 1 235 0 discriminator 1
 702 0350 21D0     		andl	%edx, %eax	# D.3670, iftmp.11
 703              		.loc 1 236 0 discriminator 1
 704 0352 84C0     		testb	%al, %al	# iftmp.11
 705 0354 7422     		je	.L72	#,
 706              	.L79:
 707 0356 8B0D1800 		movl	rlist+24, %ecx	# rlist.r_current, D.3671
 707      0000
 708              	.LVL63:
 709              	.L76:
 710              		.loc 1 230 0
 711 035c 8B5920   		movl	32(%ecx), %ebx	# _22->p_time, now
 712              	.LVL64:
 713              		.loc 1 232 0
 714 035f E8FCFFFF 		call	ChkIntSources	#
 714      FF
 715              	.LVL65:
 716              		.loc 1 235 0
 717 0364 39FB     		cmpl	%edi, %ebx	# end, now
 718 0366 0F92C0   		setb	%al	#, iftmp.11
 719 0369 39F3     		cmpl	%esi, %ebx	# start, now
 720 036b 0F93C2   		setae	%dl	#, D.3670
 721 036e 39FE     		cmpl	%edi, %esi	# end, start
 722 0370 72DE     		jb	.L78	#,
 723              		.loc 1 235 0 is_stmt 0 discriminator 2
 724 0372 09D0     		orl	%edx, %eax	# D.3670, iftmp.11
 725              		.loc 1 236 0 is_stmt 1 discriminator 2
 726 0374 84C0     		testb	%al, %al	# iftmp.11
 727 0376 75DE     		jne	.L79	#,
 728              	.L72:
 729              		.loc 1 237 0
 730 0378 5B       		popl	%ebx	#
 731              		.cfi_restore 3
 732              		.cfi_def_cfa_offset 12
 733              	.LVL66:
 734 0379 5E       		popl	%esi	#
 735              		.cfi_restore 6
 736              		.cfi_def_cfa_offset 8
 737              	.LVL67:
 738 037a 5F       		popl	%edi	#
 739              		.cfi_restore 7
 740              		.cfi_def_cfa_offset 4
 741              	.LVL68:
GAS LISTING /tmp/ccgBWb2p.s 			page 18


 742 037b C3       		ret
 743              		.cfi_endproc
 744              	.LFE27:
 745              		.size	test_cpu_pulse, .-test_cpu_pulse
 746 037c 8D742600 		.p2align 4,,15
 747              		.globl	test_wait_tick
 748              		.type	test_wait_tick, @function
 749              	test_wait_tick:
 750              	.LFB28:
 751              		.loc 1 245 0
 752              		.cfi_startproc
 753 0380 83EC1C   		subl	$28, %esp	#,
 754              		.cfi_def_cfa_offset 32
 755              		.loc 1 247 0
 756 0383 C7042401 		movl	$1, (%esp)	#,
 756      000000
 757 038a E8FCFFFF 		call	chThdSleep	#
 757      FF
 758              	.LVL69:
 759              		.loc 1 248 0
 760 038f A10C0000 		movl	vtlist+12, %eax	# vtlist.vt_systime, D.3674
 760      00
 761              		.loc 1 249 0
 762 0394 83C41C   		addl	$28, %esp	#,
 763              		.cfi_def_cfa_offset 4
 764 0397 C3       		ret
 765              		.cfi_endproc
 766              	.LFE28:
 767              		.size	test_wait_tick, .-test_wait_tick
 768 0398 908DB426 		.p2align 4,,15
 768      00000000 
 769              		.globl	test_start_timer
 770              		.type	test_start_timer, @function
 771              	test_start_timer:
 772              	.LFB30:
 773              		.loc 1 272 0
 774              		.cfi_startproc
 775              	.LVL70:
 776 03a0 83EC1C   		subl	$28, %esp	#,
 777              		.cfi_def_cfa_offset 32
 778              	.LVL71:
 779              		.loc 1 275 0
 780 03a3 C6050000 		movb	$0, test_timer_done	#, test_timer_done
 780      000000
 781              		.loc 1 276 0
 782              	#APP
 783              	# 276 "../../../test/test.c" 1
 153              	
 154              	/*
 155              	 * Assertions.
 156              	 */
 157              	bool_t _test_fail(unsigned point) {
 158              	
 159              	  local_fail = TRUE;
 160              	  global_fail = TRUE;
 161              	  failpoint = point;
 162              	  return TRUE;
GAS LISTING /tmp/ccgBWb2p.s 			page 19


 163              	}
 164              	
 165              	bool_t _test_assert(unsigned point, bool_t condition) {
 166              	
 167              	  if (!condition)
 168              	    return _test_fail(point);
 169              	  return FALSE;
 170              	}
 171              	
 172              	bool_t _test_assert_sequence(unsigned point, char *expected) {
 173              	  char *cp = tokens_buffer;
 174              	  while (cp < tokp) {
 175              	    if (*cp++ != *expected++)
 176              	     return _test_fail(point);
 177              	  }
 178              	  if (*expected)
 179              	    return _test_fail(point);
 180              	  clear_tokens();
 181              	  return FALSE;
 182              	}
 183              	
 184              	bool_t _test_assert_time_window(unsigned point, systime_t start, systime_t end) {
 185              	
 186              	  return _test_assert(point, chTimeIsWithin(start, end));
 187              	}
 188              	
 189              	/*
 190              	 * Threads utils.
 191              	 */
 192              	
 193              	/**
 194              	 * @brief   Sets a termination request in all the test-spawned threads.
 195              	 */
 196              	void test_terminate_threads(void) {
 197              	  int i;
 198              	
 199              	  for (i = 0; i < MAX_THREADS; i++)
 200              	    if (threads[i])
 201              	      chThdTerminate(threads[i]);
 202              	}
 203              	
 204              	/**
 205              	 * @brief   Waits for the completion of all the test-spawned threads.
 206              	 */
 207              	void test_wait_threads(void) {
 208              	  int i;
 209              	
 210              	  for (i = 0; i < MAX_THREADS; i++)
 211              	    if (threads[i] != NULL) {
 212              	      chThdWait(threads[i]);
 213              	      threads[i] = NULL;
 214              	    }
 215              	}
 216              	
 217              	#if CH_DBG_THREADS_PROFILING
 218              	/**
 219              	 * @brief   CPU pulse.
GAS LISTING /tmp/ccgBWb2p.s 			page 20


 220              	 * @note    The current implementation is not totally reliable.
 221              	 *
 222              	 * @param[in] duration      CPU pulse duration in milliseconds
 223              	 */
 224              	void test_cpu_pulse(unsigned duration) {
 225              	  systime_t start, end, now;
 226              	
 227              	  start = chThdSelf()->p_time;
 228              	  end = start + MS2ST(duration);
 229              	  do {
 230              	    now = chThdSelf()->p_time;
 231              	#if defined(SIMULATOR)
 232              	    ChkIntSources();
 233              	#endif
 234              	  }
 235              	  while (end > start ? (now >= start) && (now < end) :
 236              	                       (now >= start) || (now < end));
 237              	}
 238              	#endif
 239              	
 240              	/**
 241              	 * @brief   Delays execution until next system time tick.
 242              	 *
 243              	 * @return              The system time.
 244              	 */
 245              	systime_t test_wait_tick(void) {
 246              	
 247              	  chThdSleep(1);
 248              	  return chTimeNow();
 249              	}
 250              	
 251              	/*
 252              	 * Timer utils.
 253              	 */
 254              	
 255              	/**
 256              	 * @brief   Set to @p TRUE when the test timer reaches its deadline.
 257              	 */
 258              	bool_t test_timer_done;
 259              	
 260              	static VirtualTimer vt;
 261              	static void tmr(void *p) {
 262              	  (void)p;
 263              	
 264              	  test_timer_done = TRUE;
 265              	}
 266              	
 267              	/**
 268              	 * @brief   Starts the test timer.
 269              	 *
 270              	 * @param[in] ms        time in milliseconds
 271              	 */
 272              	void test_start_timer(unsigned ms) {
 273              	
 274              	  systime_t duration = MS2ST(ms);
 275              	  test_timer_done = FALSE;
 276 03aa 90       	  chVTSet(&vt, duration, tmr, NULL);
GAS LISTING /tmp/ccgBWb2p.s 			page 21


 277              	}
 784              		nop
 785              	# 0 "" 2
 786              		.loc 1 274 0
 787              	#NO_APP
 788 03ab 69542420 		imull	$1000, 32(%esp), %edx	#, ms, D.3677
 788      E8030000 
 789 03b3 B9D34D62 		movl	$274877907, %ecx	#, tmp68
 789      10
 790              		.loc 1 276 0
 791 03b8 C744240C 		movl	$0, 12(%esp)	#,
 791      00000000 
 792 03c0 C7442408 		movl	$tmr, 8(%esp)	#,
 792      00000000 
 793 03c8 C7042400 		movl	$vt, (%esp)	#,
 793      000000
 794              		.loc 1 274 0
 795 03cf 83EA01   		subl	$1, %edx	#, D.3678
 796 03d2 89D0     		movl	%edx, %eax	# D.3678, tmp70
 797 03d4 F7E1     		mull	%ecx	# tmp68
 798 03d6 C1EA06   		shrl	$6, %edx	#, D.3678
 799 03d9 83C201   		addl	$1, %edx	#, duration
 800              		.loc 1 276 0
 801 03dc 89542404 		movl	%edx, 4(%esp)	# duration,
 802 03e0 E8FCFFFF 		call	chVTSetI	#
 802      FF
 803              	.LVL72:
 804              	#APP
 805              	# 276 "../../../test/test.c" 1
 806              		nop
 807              	# 0 "" 2
 808              		.loc 1 277 0
 809              	#NO_APP
 810 03e6 83C41C   		addl	$28, %esp	#,
 811              		.cfi_def_cfa_offset 4
 812 03e9 C3       		ret
 813              		.cfi_endproc
 814              	.LFE30:
 815              		.size	test_start_timer, .-test_start_timer
 816              		.section	.rodata.str1.1
 817              	.LC1:
 818 0003 2A2A2A20 		.string	"*** Kernel:       "
 818      4B65726E 
 818      656C3A20 
 818      20202020 
 818      202000
 819              	.LC2:
 820 0016 2A2A2A20 		.string	"*** Compiled:     "
 820      436F6D70 
 820      696C6564 
 820      3A202020 
 820      202000
 821              	.LC3:
 822 0029 2A2A2A20 		.string	"*** Compiler:     "
 822      436F6D70 
 822      696C6572 
 822      3A202020 
GAS LISTING /tmp/ccgBWb2p.s 			page 22


 822      202000
 823              	.LC4:
 824 003c 2A2A2A20 		.string	"*** Architecture: "
 824      41726368 
 824      69746563 
 824      74757265 
 824      3A2000
 825              	.LC5:
 826 004f 2A2A2A20 		.string	"*** Core Variant: "
 826      436F7265 
 826      20566172 
 826      69616E74 
 826      3A2000
 827              	.LC6:
 828 0062 2A2A2A20 		.string	"*** Port Info:    "
 828      506F7274 
 828      20496E66 
 828      6F3A2020 
 828      202000
 829              	.LC7:
 830 0075 2A2A2A20 		.string	"*** Platform:     "
 830      506C6174 
 830      666F726D 
 830      3A202020 
 830      202000
 831              	.LC8:
 832 0088 2D2D2D20 		.string	"--- Test Case "
 832      54657374 
 832      20436173 
 832      652000
 833              	.LC9:
 834 0097 202800   		.string	" ("
 835              	.LC10:
 836 009a 2D2D2D20 		.string	"--- Result: FAILURE (#"
 836      52657375 
 836      6C743A20 
 836      4641494C 
 836      55524520 
 837              	.LC11:
 838 00b1 205B00   		.string	" ["
 839              	.LC12:
 840 00b4 46696E61 		.string	"Final result: "
 840      6C207265 
 840      73756C74 
 840      3A2000
 841              	.LC13:
 842 00c3 00       		.string	""
 843              	.LC14:
 844 00c4 2A2A2A20 		.string	"*** ChibiOS/RT test suite"
 844      43686962 
 844      694F532F 
 844      52542074 
 844      65737420 
 845              	.LC15:
 846 00de 2A2A2A00 		.string	"***"
 847              	.LC16:
 848 00e2 2900     		.string	")"
GAS LISTING /tmp/ccgBWb2p.s 			page 23


 849              	.LC17:
 850 00e4 5D2900   		.string	"])"
 851              	.LC18:
 852 00e7 2D2D2D20 		.string	"--- Result: SUCCESS"
 852      52657375 
 852      6C743A20 
 852      53554343 
 852      45535300 
 853              	.LC19:
 854 00fb 4641494C 		.string	"FAILURE"
 854      55524500 
 855              	.LC20:
 856 0103 53554343 		.string	"SUCCESS"
 856      45535300 
 857              	.LC21:
 858 010b 322E362E 		.string	"2.6.5"
 858      3500
 859              	.LC22:
 860 0111 4A756C20 		.string	"Jul  9 2014 - 18:17:26"
 860      20392032 
 860      30313420 
 860      2D203138 
 860      3A31373A 
 861              	.LC23:
 862 0128 47434320 		.string	"GCC 4.8.2"
 862      342E382E 
 862      3200
 863              	.LC24:
 864 0132 53696D75 		.string	"Simulator"
 864      6C61746F 
 864      7200
 865              	.LC25:
 866 013c 78383620 		.string	"x86 (integer only)"
 866      28696E74 
 866      65676572 
 866      206F6E6C 
 866      792900
 867              	.LC26:
 868 014f 4E6F2070 		.string	"No preemption"
 868      7265656D 
 868      7074696F 
 868      6E00
 869              	.LC27:
 870 015d 4C696E75 		.string	"Linux"
 870      7800
 871              		.text
 872 03ea 8DB60000 		.p2align 4,,15
 872      0000
 873              		.globl	TestThread
 874              		.type	TestThread, @function
 875              	TestThread:
 876              	.LFB33:
 877              		.loc 1 314 0
 878              		.cfi_startproc
 879              	.LVL73:
 880 03f0 55       		pushl	%ebp	#
 881              		.cfi_def_cfa_offset 8
GAS LISTING /tmp/ccgBWb2p.s 			page 24


 882              		.cfi_offset 5, -8
 883 03f1 57       		pushl	%edi	#
 884              		.cfi_def_cfa_offset 12
 885              		.cfi_offset 7, -12
 886 03f2 56       		pushl	%esi	#
 887              		.cfi_def_cfa_offset 16
 888              		.cfi_offset 6, -16
 889 03f3 53       		pushl	%ebx	#
 890              		.cfi_def_cfa_offset 20
 891              		.cfi_offset 3, -20
 892              		.loc 1 320 0
 893 03f4 BB030000 		movl	$.LC1, %ebx	#, msgp
 893      00
 894              		.loc 1 314 0
 895 03f9 83EC1C   		subl	$28, %esp	#,
 896              		.cfi_def_cfa_offset 48
 897              		.loc 1 317 0
 898 03fc 8B442430 		movl	48(%esp), %eax	# p, p
 899              		.loc 1 318 0
 900 0400 C70424C3 		movl	$.LC13, (%esp)	#,
 900      000000
 901              		.loc 1 317 0
 902 0407 A3140000 		movl	%eax, chp	# p, chp
 902      00
 903              		.loc 1 318 0
 904 040c E8FCFFFF 		call	test_println	#
 904      FF
 905              	.LVL74:
 906              		.loc 1 319 0
 907 0411 C70424C4 		movl	$.LC14, (%esp)	#,
 907      000000
 908 0418 E8FCFFFF 		call	test_println	#
 908      FF
 909              	.LVL75:
 910              		.loc 1 320 0
 911 041d C70424DE 		movl	$.LC15, (%esp)	#,
 911      000000
 912 0424 E8FCFFFF 		call	test_println	#
 912      FF
 913              	.LVL76:
 914              	.LBB98:
 915              	.LBB99:
 916              		.loc 1 112 0
 917 0429 B82A0000 		movl	$42, %eax	#,
 917      00
 918              	.LVL77:
 919              	.L86:
 920              		.loc 1 113 0
 921 042e 8B151400 		movl	chp, %edx	# chp, chp.2
 921      0000
 922 0434 83C301   		addl	$1, %ebx	#, msgp
 923              	.LVL78:
 924 0437 8B0A     		movl	(%edx), %ecx	# chp.2_75->vmt, chp.2_75->vmt
 925 0439 89442404 		movl	%eax, 4(%esp)	# D.3743,
 926 043d 891424   		movl	%edx, (%esp)	# chp.2,
 927 0440 FF5108   		call	*8(%ecx)	# _76->put
 928              	.LVL79:
GAS LISTING /tmp/ccgBWb2p.s 			page 25


 929              		.loc 1 112 0
 930 0443 0FB603   		movzbl	(%ebx), %eax	# MEM[base: msgp_79, offset: 0B],
 931 0446 84C0     		testb	%al, %al	# D.3743
 932 0448 75E4     		jne	.L86	#,
 933              	.LBE99:
 934              	.LBE98:
 935              		.loc 1 322 0
 936 044a C704240B 		movl	$.LC21, (%esp)	#,
 936      010000
 937 0451 BB160000 		movl	$.LC2, %ebx	#, msgp
 937      00
 938              	.LVL80:
 939 0456 E8FCFFFF 		call	test_println	#
 939      FF
 940              	.LVL81:
 941              	.LBB100:
 942              	.LBB101:
 943              		.loc 1 112 0
 944 045b B82A0000 		movl	$42, %eax	#,
 944      00
 945              	.LVL82:
 946              	.L122:
 947              		.loc 1 113 0
 948 0460 8B151400 		movl	chp, %edx	# chp, chp.2
 948      0000
 949 0466 83C301   		addl	$1, %ebx	#, msgp
 950              	.LVL83:
 951 0469 8B0A     		movl	(%edx), %ecx	# chp.2_83->vmt, chp.2_83->vmt
 952 046b 89442404 		movl	%eax, 4(%esp)	# D.3743,
 953 046f 891424   		movl	%edx, (%esp)	# chp.2,
 954 0472 FF5108   		call	*8(%ecx)	# _84->put
 955              	.LVL84:
 956              		.loc 1 112 0
 957 0475 0FB603   		movzbl	(%ebx), %eax	# MEM[base: msgp_87, offset: 0B],
 958 0478 84C0     		testb	%al, %al	# D.3743
 959 047a 75E4     		jne	.L122	#,
 960              	.LBE101:
 961              	.LBE100:
 962              		.loc 1 324 0
 963 047c C7042411 		movl	$.LC22, (%esp)	#,
 963      010000
 964 0483 BB290000 		movl	$.LC3, %ebx	#, msgp
 964      00
 965              	.LVL85:
 966 0488 E8FCFFFF 		call	test_println	#
 966      FF
 967              	.LVL86:
 968              	.LBB102:
 969              	.LBB103:
 970              		.loc 1 112 0
 971 048d B82A0000 		movl	$42, %eax	#,
 971      00
 972              	.LVL87:
 973              	.L123:
 974              		.loc 1 113 0
 975 0492 8B151400 		movl	chp, %edx	# chp, chp.2
 975      0000
GAS LISTING /tmp/ccgBWb2p.s 			page 26


 976 0498 83C301   		addl	$1, %ebx	#, msgp
 977              	.LVL88:
 978 049b 8B0A     		movl	(%edx), %ecx	# chp.2_91->vmt, chp.2_91->vmt
 979 049d 89442404 		movl	%eax, 4(%esp)	# D.3743,
 980 04a1 891424   		movl	%edx, (%esp)	# chp.2,
 981 04a4 FF5108   		call	*8(%ecx)	# _92->put
 982              	.LVL89:
 983              		.loc 1 112 0
 984 04a7 0FB603   		movzbl	(%ebx), %eax	# MEM[base: msgp_95, offset: 0B],
 985 04aa 84C0     		testb	%al, %al	# D.3743
 986 04ac 75E4     		jne	.L123	#,
 987              	.LBE103:
 988              	.LBE102:
 989              		.loc 1 327 0
 990 04ae C7042428 		movl	$.LC23, (%esp)	#,
 990      010000
 991 04b5 BB3C0000 		movl	$.LC4, %ebx	#, msgp
 991      00
 992              	.LVL90:
 993 04ba E8FCFFFF 		call	test_println	#
 993      FF
 994              	.LVL91:
 995              	.LBB104:
 996              	.LBB105:
 997              		.loc 1 112 0
 998 04bf B82A0000 		movl	$42, %eax	#,
 998      00
 999              	.LVL92:
 1000              	.L124:
 1001              		.loc 1 113 0
 1002 04c4 8B151400 		movl	chp, %edx	# chp, chp.2
 1002      0000
 1003 04ca 83C301   		addl	$1, %ebx	#, msgp
 1004              	.LVL93:
 1005 04cd 8B0A     		movl	(%edx), %ecx	# chp.2_99->vmt, chp.2_99->vmt
 1006 04cf 89442404 		movl	%eax, 4(%esp)	# D.3743,
 1007 04d3 891424   		movl	%edx, (%esp)	# chp.2,
 1008 04d6 FF5108   		call	*8(%ecx)	# _100->put
 1009              	.LVL94:
 1010              		.loc 1 112 0
 1011 04d9 0FB603   		movzbl	(%ebx), %eax	# MEM[base: msgp_103, offset: 0B],
 1012 04dc 84C0     		testb	%al, %al	# D.3743
 1013 04de 75E4     		jne	.L124	#,
 1014              	.LBE105:
 1015              	.LBE104:
 1016              		.loc 1 330 0
 1017 04e0 C7042432 		movl	$.LC24, (%esp)	#,
 1017      010000
 1018 04e7 BB4F0000 		movl	$.LC5, %ebx	#, msgp
 1018      00
 1019              	.LVL95:
 1020 04ec E8FCFFFF 		call	test_println	#
 1020      FF
 1021              	.LVL96:
 1022              	.LBB106:
 1023              	.LBB107:
 1024              		.loc 1 112 0
GAS LISTING /tmp/ccgBWb2p.s 			page 27


 1025 04f1 B82A0000 		movl	$42, %eax	#,
 1025      00
 1026              	.LVL97:
 1027              	.L125:
 1028              		.loc 1 113 0
 1029 04f6 8B151400 		movl	chp, %edx	# chp, chp.2
 1029      0000
 1030 04fc 83C301   		addl	$1, %ebx	#, msgp
 1031              	.LVL98:
 1032 04ff 8B0A     		movl	(%edx), %ecx	# chp.2_107->vmt, chp.2_107->vmt
 1033 0501 89442404 		movl	%eax, 4(%esp)	# D.3743,
 1034 0505 891424   		movl	%edx, (%esp)	# chp.2,
 1035 0508 FF5108   		call	*8(%ecx)	# _108->put
 1036              	.LVL99:
 1037              		.loc 1 112 0
 1038 050b 0FB603   		movzbl	(%ebx), %eax	# MEM[base: msgp_111, offset: 0B],
 1039 050e 84C0     		testb	%al, %al	# D.3743
 1040 0510 75E4     		jne	.L125	#,
 1041              	.LBE107:
 1042              	.LBE106:
 1043              		.loc 1 333 0
 1044 0512 C704243C 		movl	$.LC25, (%esp)	#,
 1044      010000
 1045 0519 BB620000 		movl	$.LC6, %ebx	#, msgp
 1045      00
 1046              	.LVL100:
 1047 051e E8FCFFFF 		call	test_println	#
 1047      FF
 1048              	.LVL101:
 1049              	.LBB108:
 1050              	.LBB109:
 1051              		.loc 1 112 0
 1052 0523 B82A0000 		movl	$42, %eax	#,
 1052      00
 1053              	.LVL102:
 1054              	.L126:
 1055              		.loc 1 113 0
 1056 0528 8B151400 		movl	chp, %edx	# chp, chp.2
 1056      0000
 1057 052e 83C301   		addl	$1, %ebx	#, msgp
 1058              	.LVL103:
 1059 0531 8B0A     		movl	(%edx), %ecx	# chp.2_115->vmt, chp.2_115->vmt
 1060 0533 89442404 		movl	%eax, 4(%esp)	# D.3743,
 1061 0537 891424   		movl	%edx, (%esp)	# chp.2,
 1062 053a FF5108   		call	*8(%ecx)	# _116->put
 1063              	.LVL104:
 1064              		.loc 1 112 0
 1065 053d 0FB603   		movzbl	(%ebx), %eax	# MEM[base: msgp_119, offset: 0B],
 1066 0540 84C0     		testb	%al, %al	# D.3743
 1067 0542 75E4     		jne	.L126	#,
 1068              	.LBE109:
 1069              	.LBE108:
 1070              		.loc 1 337 0
 1071 0544 C704244F 		movl	$.LC26, (%esp)	#,
 1071      010000
 1072 054b BB750000 		movl	$.LC7, %ebx	#, msgp
 1072      00
GAS LISTING /tmp/ccgBWb2p.s 			page 28


 1073              	.LVL105:
 1074 0550 E8FCFFFF 		call	test_println	#
 1074      FF
 1075              	.LVL106:
 1076              	.LBB110:
 1077              	.LBB111:
 1078              		.loc 1 112 0
 1079 0555 B82A0000 		movl	$42, %eax	#,
 1079      00
 1080              	.LVL107:
 1081              	.L127:
 1082              		.loc 1 113 0
 1083 055a 8B151400 		movl	chp, %edx	# chp, chp.2
 1083      0000
 1084 0560 83C301   		addl	$1, %ebx	#, msgp
 1085              	.LVL108:
 1086 0563 8B0A     		movl	(%edx), %ecx	# chp.2_123->vmt, chp.2_123->vmt
 1087 0565 89442404 		movl	%eax, 4(%esp)	# D.3743,
 1088 0569 891424   		movl	%edx, (%esp)	# chp.2,
 1089 056c FF5108   		call	*8(%ecx)	# _124->put
 1090              	.LVL109:
 1091              		.loc 1 112 0
 1092 056f 0FB603   		movzbl	(%ebx), %eax	# MEM[base: msgp_127, offset: 0B],
 1093 0572 84C0     		testb	%al, %al	# D.3743
 1094 0574 75E4     		jne	.L127	#,
 1095              	.LBE111:
 1096              	.LBE110:
 1097              		.loc 1 341 0
 1098 0576 C704245D 		movl	$.LC27, (%esp)	#,
 1098      010000
 1099              		.loc 1 349 0
 1100 057d BF000000 		movl	$patternthd, %edi	#, D.3737
 1100      00
 1101              		.loc 1 350 0
 1102 0582 31ED     		xorl	%ebp, %ebp	# i
 1103              		.loc 1 341 0
 1104 0584 E8FCFFFF 		call	test_println	#
 1104      FF
 1105              	.LVL110:
 1106              		.loc 1 347 0
 1107 0589 C70424C3 		movl	$.LC13, (%esp)	#,
 1107      000000
 1108 0590 E8FCFFFF 		call	test_println	#
 1108      FF
 1109              	.LVL111:
 1110              		.loc 1 349 0
 1111 0595 C6053000 		movb	$0, global_fail	#, global_fail
 1111      000000
 1112              	.LVL112:
 1113              	.L128:
 1114 059c 83C501   		addl	$1, %ebp	#, i
 1115              	.LVL113:
 1116              	.LBB112:
 1117              	.LBB113:
 1118              		.loc 1 138 0 discriminator 1
 1119 059f 31F6     		xorl	%esi, %esi	# j
 1120              	.L118:
GAS LISTING /tmp/ccgBWb2p.s 			page 29


 1121              	.LVL114:
 1122              	.LBE113:
 1123              	.LBE112:
 1124              		.loc 1 353 0 discriminator 1
 1125 05a1 8B04B7   		movl	(%edi,%esi,4), %eax	# MEM[base: _248, index: _86, step: 4, offset: 0B],
 1126 05a4 85C0     		testl	%eax, %eax	#
 1127 05a6 0F84E301 		je	.L148	#,
 1127      0000
 1128              	.L116:
 1129              		.loc 1 354 0
 1130 05ac E85FFAFF 		call	print_line	#
 1130      FF
 1131              	.LVL115:
 1132 05b1 BB880000 		movl	$.LC8, %ebx	#, msgp
 1132      00
 1133              	.LBB115:
 1134              	.LBB116:
 1135              		.loc 1 112 0
 1136 05b6 B82D0000 		movl	$45, %eax	#,
 1136      00
 1137              	.LVL116:
 1138 05bb 908D7426 		.p2align 4,,7
 1138      00
 1139              		.p2align 3
 1140              	.L100:
 1141              		.loc 1 113 0
 1142 05c0 8B151400 		movl	chp, %edx	# chp, chp.2
 1142      0000
 1143 05c6 83C301   		addl	$1, %ebx	#, msgp
 1144              	.LVL117:
 1145 05c9 8B0A     		movl	(%edx), %ecx	# chp.2_131->vmt, chp.2_131->vmt
 1146 05cb 89442404 		movl	%eax, 4(%esp)	# D.3743,
 1147 05cf 891424   		movl	%edx, (%esp)	# chp.2,
 1148 05d2 FF5108   		call	*8(%ecx)	# _132->put
 1149              	.LVL118:
 1150              		.loc 1 112 0
 1151 05d5 0FB603   		movzbl	(%ebx), %eax	# MEM[base: msgp_135, offset: 0B],
 1152 05d8 84C0     		testb	%al, %al	# D.3743
 1153 05da 75E4     		jne	.L100	#,
 1154              	.LBE116:
 1155              	.LBE115:
 1156              		.loc 1 356 0
 1157 05dc 892C24   		movl	%ebp, (%esp)	# i,
 1158              		.loc 1 358 0
 1159 05df 83C601   		addl	$1, %esi	#, j
 1160              	.LVL119:
 1161 05e2 BB970000 		movl	$.LC9, %ebx	#, msgp
 1161      00
 1162              	.LVL120:
 1163              		.loc 1 356 0
 1164 05e7 E8FCFFFF 		call	test_printn	#
 1164      FF
 1165              	.LVL121:
 1166              	.LBB117:
 1167              	.LBB118:
 1168              		.loc 1 113 0
 1169 05ec A1140000 		movl	chp, %eax	# chp, chp.2
GAS LISTING /tmp/ccgBWb2p.s 			page 30


 1169      00
 1170              	.LVL122:
 1171 05f1 8B10     		movl	(%eax), %edx	# chp.2_139->vmt, chp.2_139->vmt
 1172 05f3 C7442404 		movl	$46, 4(%esp)	#,
 1172      2E000000 
 1173 05fb 890424   		movl	%eax, (%esp)	# chp.2,
 1174 05fe FF5208   		call	*8(%edx)	# _140->put
 1175              	.LVL123:
 1176              	.LBE118:
 1177              	.LBE117:
 1178              		.loc 1 358 0
 1179 0601 893424   		movl	%esi, (%esp)	# j,
 1180 0604 E8FCFFFF 		call	test_printn	#
 1180      FF
 1181              	.LVL124:
 1182              	.LBB119:
 1183              	.LBB120:
 1184              		.loc 1 112 0
 1185 0609 B8200000 		movl	$32, %eax	#,
 1185      00
 1186              	.LVL125:
 1187 060e 6690     		.p2align 4,,7
 1188              		.p2align 3
 1189              	.L129:
 1190              		.loc 1 113 0
 1191 0610 8B151400 		movl	chp, %edx	# chp, chp.2
 1191      0000
 1192 0616 83C301   		addl	$1, %ebx	#, msgp
 1193              	.LVL126:
 1194 0619 8B0A     		movl	(%edx), %ecx	# chp.2_147->vmt, chp.2_147->vmt
 1195 061b 89442404 		movl	%eax, 4(%esp)	# D.3743,
 1196 061f 891424   		movl	%edx, (%esp)	# chp.2,
 1197 0622 FF5108   		call	*8(%ecx)	# _148->put
 1198              	.LVL127:
 1199              		.loc 1 112 0
 1200 0625 0FB603   		movzbl	(%ebx), %eax	# MEM[base: msgp_151, offset: 0B],
 1201 0628 84C0     		testb	%al, %al	# D.3743
 1202 062a 75E4     		jne	.L129	#,
 1203              	.LBE120:
 1204              	.LBE119:
 1205              		.loc 1 360 0
 1206 062c 8B44B7FC 		movl	-4(%edi,%esi,4), %eax	# MEM[base: _248, index: _194, step: 4, offset: 4294967292B], MEM[base:
 1207 0630 8B18     		movl	(%eax), %ebx	# _48->name, msgp
 1208              	.LVL128:
 1209              	.LBB121:
 1210              	.LBB122:
 1211              		.loc 1 112 0
 1212 0632 0FB603   		movzbl	(%ebx), %eax	#* msgp,
 1213 0635 84C0     		testb	%al, %al	# D.3743
 1214 0637 7423     		je	.L105	#,
 1215 0639 8DB42600 		.p2align 4,,7
 1215      000000
 1216              		.p2align 3
 1217              	.L136:
 1218              		.loc 1 113 0
 1219 0640 8B151400 		movl	chp, %edx	# chp, chp.2
 1219      0000
GAS LISTING /tmp/ccgBWb2p.s 			page 31


 1220 0646 83C301   		addl	$1, %ebx	#, msgp
 1221              	.LVL129:
 1222 0649 8B0A     		movl	(%edx), %ecx	# chp.2_155->vmt, chp.2_155->vmt
 1223 064b 89442404 		movl	%eax, 4(%esp)	# D.3743,
 1224 064f 891424   		movl	%edx, (%esp)	# chp.2,
 1225 0652 FF5108   		call	*8(%ecx)	# _156->put
 1226              	.LVL130:
 1227              		.loc 1 112 0
 1228 0655 0FB603   		movzbl	(%ebx), %eax	#* msgp,
 1229 0658 84C0     		testb	%al, %al	# D.3743
 1230 065a 75E4     		jne	.L136	#,
 1231              	.L105:
 1232              	.LBE122:
 1233              	.LBE121:
 1234              		.loc 1 361 0
 1235 065c C70424E2 		movl	$.LC16, (%esp)	#,
 1235      000000
 1236 0663 E8FCFFFF 		call	test_println	#
 1236      FF
 1237              	.LVL131:
 1238              		.loc 1 363 0
 1239 0668 C70424C8 		movl	$200, (%esp)	#,
 1239      000000
 1240 066f E8FCFFFF 		call	chThdSleep	#
 1240      FF
 1241              	.LVL132:
 1242              		.loc 1 365 0
 1243 0674 8B5CB7FC 		movl	-4(%edi,%esi,4), %ebx	# MEM[base: _248, index: _194, step: 4, offset: 4294967292B], D.3739
 1244              	.LVL133:
 1245              	.LBB123:
 1246              	.LBB124:
 1247              		.loc 1 289 0
 1248 0678 C7050000 		movl	$0, threads	#, threads
 1248      00000000 
 1248      0000
 1249 0682 C7050400 		movl	$0, threads+4	#, threads
 1249      00000000 
 1249      0000
 1250 068c C7050800 		movl	$0, threads+8	#, threads
 1250      00000000 
 1250      0000
 1251 0696 C7050C00 		movl	$0, threads+12	#, threads
 1251      00000000 
 1251      0000
 1252 06a0 C7051000 		movl	$0, threads+16	#, threads
 1252      00000000 
 1252      0000
 1253              		.loc 1 291 0
 1254 06aa 8B4304   		movl	4(%ebx), %eax	# _56->setup, D.3747
 1255              	.LBB125:
 1256              	.LBB126:
 1257              		.loc 1 132 0
 1258 06ad C7051800 		movl	$tokens_buffer, tokp	#, tokp
 1258      00001C00 
 1258      0000
 1259              	.LBE126:
 1260              	.LBE125:
GAS LISTING /tmp/ccgBWb2p.s 			page 32


 1261              		.loc 1 287 0
 1262 06b7 C6053100 		movb	$0, local_fail	#, local_fail
 1262      000000
 1263              	.LVL134:
 1264              		.loc 1 291 0
 1265 06be 85C0     		testl	%eax, %eax	# D.3747
 1266 06c0 7402     		je	.L104	#,
 1267              		.loc 1 292 0
 1268 06c2 FFD0     		call	*%eax	# D.3747
 1269              	.LVL135:
 1270              	.L104:
 1271              		.loc 1 293 0
 1272 06c4 FF530C   		call	*12(%ebx)	# _56->execute
 1273              	.LVL136:
 1274              		.loc 1 294 0
 1275 06c7 8B4308   		movl	8(%ebx), %eax	# _56->teardown, D.3747
 1276 06ca 85C0     		testl	%eax, %eax	# D.3747
 1277 06cc 8D742600 		.p2align 4,,5
 1278 06d0 7402     		je	.L107	#,
 1279              		.loc 1 295 0
 1280              		.p2align 4,,5
 1281 06d2 FFD0     		call	*%eax	# D.3747
 1282              	.LVL137:
 1283              	.L107:
 1284              		.loc 1 297 0
 1285              		.p2align 4,,6
 1286 06d4 E8FCFFFF 		call	test_wait_threads	#
 1286      FF
 1287              	.LVL138:
 1288              	.LBE124:
 1289              	.LBE123:
 1290              		.loc 1 366 0
 1291 06d9 803D3100 		cmpb	$0, local_fail	#, local_fail
 1291      000000
 1292 06e0 0F841A01 		je	.L108	#,
 1292      0000
 1293              	.LBB127:
 1294              	.LBB128:
 1295              		.loc 1 112 0
 1296 06e6 B82D0000 		movl	$45, %eax	#,
 1296      00
 1297              	.LBE128:
 1298              	.LBE127:
 1299              		.loc 1 366 0
 1300 06eb BB9A0000 		movl	$.LC10, %ebx	#, msgp
 1300      00
 1301              	.LVL139:
 1302              		.p2align 4,,7
 1303              		.p2align 3
 1304              	.L110:
 1305              	.LBB130:
 1306              	.LBB129:
 1307              		.loc 1 113 0
 1308 06f0 8B151400 		movl	chp, %edx	# chp, chp.2
 1308      0000
 1309 06f6 83C301   		addl	$1, %ebx	#, msgp
 1310              	.LVL140:
GAS LISTING /tmp/ccgBWb2p.s 			page 33


 1311 06f9 8B0A     		movl	(%edx), %ecx	# chp.2_163->vmt, chp.2_163->vmt
 1312 06fb 89442404 		movl	%eax, 4(%esp)	# D.3743,
 1313 06ff 891424   		movl	%edx, (%esp)	# chp.2,
 1314 0702 FF5108   		call	*8(%ecx)	# _164->put
 1315              	.LVL141:
 1316              		.loc 1 112 0
 1317 0705 0FB603   		movzbl	(%ebx), %eax	# MEM[base: msgp_167, offset: 0B],
 1318 0708 84C0     		testb	%al, %al	# D.3743
 1319 070a 75E4     		jne	.L110	#,
 1320              	.LBE129:
 1321              	.LBE130:
 1322              		.loc 1 368 0
 1323 070c A12C0000 		movl	failpoint, %eax	# failpoint, failpoint
 1323      00
 1324 0711 BBB10000 		movl	$.LC11, %ebx	#, msgp
 1324      00
 1325              	.LVL142:
 1326 0716 890424   		movl	%eax, (%esp)	# failpoint,
 1327 0719 E8FCFFFF 		call	test_printn	#
 1327      FF
 1328              	.LVL143:
 1329              	.LBB131:
 1330              	.LBB132:
 1331              		.loc 1 112 0
 1332 071e B8200000 		movl	$32, %eax	#,
 1332      00
 1333              	.LVL144:
 1334              		.p2align 4,,7
 1335 0723 908D7426 		.p2align 3
 1335      00
 1336              	.L130:
 1337              		.loc 1 113 0
 1338 0728 8B151400 		movl	chp, %edx	# chp, chp.2
 1338      0000
 1339 072e 83C301   		addl	$1, %ebx	#, msgp
 1340              	.LVL145:
 1341 0731 8B0A     		movl	(%edx), %ecx	# chp.2_171->vmt, chp.2_171->vmt
 1342 0733 89442404 		movl	%eax, 4(%esp)	# D.3743,
 1343 0737 891424   		movl	%edx, (%esp)	# chp.2,
 1344 073a FF5108   		call	*8(%ecx)	# _172->put
 1345              	.LVL146:
 1346              		.loc 1 112 0
 1347 073d 0FB603   		movzbl	(%ebx), %eax	# MEM[base: msgp_175, offset: 0B],
 1348 0740 84C0     		testb	%al, %al	# D.3743
 1349 0742 75E4     		jne	.L130	#,
 1350              	.LVL147:
 1351              	.LBE132:
 1352              	.LBE131:
 1353              	.LBB133:
 1354              	.LBB114:
 1355              		.loc 1 138 0
 1356 0744 BB1C0000 		movl	$tokens_buffer, %ebx	#, cp
 1356      00
 1357              	.LVL148:
 1358 0749 391D1800 		cmpl	%ebx, tokp	#, tokp
 1358      0000
 1359 074f 7627     		jbe	.L114	#,
GAS LISTING /tmp/ccgBWb2p.s 			page 34


 1360              	.LVL149:
 1361              		.p2align 4,,7
 1362 0751 8DB42600 		.p2align 3
 1362      000000
 1363              	.L137:
 1364              		.loc 1 139 0
 1365 0758 A1140000 		movl	chp, %eax	# chp, chp.16
 1365      00
 1366 075d 83C301   		addl	$1, %ebx	#, cp
 1367              	.LVL150:
 1368 0760 0FB64BFF 		movzbl	-1(%ebx), %ecx	# MEM[base: cp_224, offset: 4294967295B], MEM[base: cp_224, offset: 42949672
 1369 0764 8B10     		movl	(%eax), %edx	# chp.16_220->vmt, chp.16_220->vmt
 1370 0766 894C2404 		movl	%ecx, 4(%esp)	# MEM[base: cp_224, offset: 4294967295B],
 1371 076a 890424   		movl	%eax, (%esp)	# chp.16,
 1372 076d FF5208   		call	*8(%edx)	# _221->put
 1373              	.LVL151:
 1374              		.loc 1 138 0
 1375 0770 3B1D1800 		cmpl	tokp, %ebx	# tokp, cp
 1375      0000
 1376 0776 72E0     		jb	.L137	#,
 1377              	.LVL152:
 1378              	.L114:
 1379              	.LBE114:
 1380              	.LBE133:
 1381              		.loc 1 371 0
 1382 0778 C70424E4 		movl	$.LC17, (%esp)	#,
 1382      000000
 1383 077f E8FCFFFF 		call	test_println	#
 1383      FF
 1384              	.LVL153:
 1385              		.loc 1 353 0
 1386 0784 8B04B7   		movl	(%edi,%esi,4), %eax	# MEM[base: _248, index: _86, step: 4, offset: 0B],
 1387 0787 85C0     		testl	%eax, %eax	#
 1388 0789 0F851DFE 		jne	.L116	#,
 1388      FFFF
 1389              	.LVL154:
 1390              	.L148:
 1391              		.loc 1 351 0
 1392 078f 8B3CAD20 		movl	patterns(,%ebp,4), %edi	# MEM[symbol: patterns, index: _31, step: 4, offset: 0B], D.3737
 1392      000000
 1393 0796 85FF     		testl	%edi, %edi	# D.3737
 1394 0798 0F85FEFD 		jne	.L128	#,
 1394      FFFF
 1395              		.loc 1 379 0
 1396 079e E86DF8FF 		call	print_line	#
 1396      FF
 1397              	.LVL155:
 1398              		.loc 1 380 0
 1399 07a3 BBB40000 		movl	$.LC12, %ebx	#, msgp
 1399      00
 1400 07a8 C70424C3 		movl	$.LC13, (%esp)	#,
 1400      000000
 1401 07af E8FCFFFF 		call	test_println	#
 1401      FF
 1402              	.LVL156:
 1403              	.LBB134:
 1404              	.LBB135:
GAS LISTING /tmp/ccgBWb2p.s 			page 35


 1405              		.loc 1 112 0
 1406 07b4 B8460000 		movl	$70, %eax	#,
 1406      00
 1407              	.LVL157:
 1408              	.L131:
 1409              		.loc 1 113 0
 1410 07b9 8B151400 		movl	chp, %edx	# chp, chp.2
 1410      0000
 1411 07bf 83C301   		addl	$1, %ebx	#, msgp
 1412              	.LVL158:
 1413 07c2 8B0A     		movl	(%edx), %ecx	# chp.2_179->vmt, chp.2_179->vmt
 1414 07c4 89442404 		movl	%eax, 4(%esp)	# D.3743,
 1415 07c8 891424   		movl	%edx, (%esp)	# chp.2,
 1416 07cb FF5108   		call	*8(%ecx)	# _180->put
 1417              	.LVL159:
 1418              		.loc 1 112 0
 1419 07ce 0FB603   		movzbl	(%ebx), %eax	# MEM[base: msgp_183, offset: 0B],
 1420 07d1 84C0     		testb	%al, %al	# D.3743
 1421 07d3 75E4     		jne	.L131	#,
 1422              	.LBE135:
 1423              	.LBE134:
 1424              		.loc 1 382 0
 1425 07d5 803D3000 		cmpb	$0, global_fail	#, global_fail
 1425      000000
 1426 07dc 7533     		jne	.L149	#,
 1427              		.loc 1 385 0
 1428 07de C7042403 		movl	$.LC20, (%esp)	#,
 1428      010000
 1429 07e5 E8FCFFFF 		call	test_println	#
 1429      FF
 1430              	.LVL160:
 1431              		.loc 1 387 0
 1432 07ea 0FB60530 		movzbl	global_fail, %eax	# global_fail, D.3740
 1432      000000
 1433              		.loc 1 388 0
 1434 07f1 83C41C   		addl	$28, %esp	#,
 1435              		.cfi_remember_state
 1436              		.cfi_def_cfa_offset 20
 1437 07f4 5B       		popl	%ebx	#
 1438              		.cfi_restore 3
 1439              		.cfi_def_cfa_offset 16
 1440              	.LVL161:
 1441 07f5 5E       		popl	%esi	#
 1442              		.cfi_restore 6
 1443              		.cfi_def_cfa_offset 12
 1444              	.LVL162:
 1445 07f6 5F       		popl	%edi	#
 1446              		.cfi_restore 7
 1447              		.cfi_def_cfa_offset 8
 1448 07f7 5D       		popl	%ebp	#
 1449              		.cfi_restore 5
 1450              		.cfi_def_cfa_offset 4
 1451              	.LVL163:
 1452 07f8 C3       		ret
 1453              	.LVL164:
 1454 07f9 8DB42600 		.p2align 4,,7
 1454      000000
GAS LISTING /tmp/ccgBWb2p.s 			page 36


 1455              		.p2align 3
 1456              	.L108:
 1457              		.cfi_restore_state
 1458              		.loc 1 374 0
 1459 0800 C70424E7 		movl	$.LC18, (%esp)	#,
 1459      000000
 1460 0807 E8FCFFFF 		call	test_println	#
 1460      FF
 1461              	.LVL165:
 1462 080c E990FDFF 		jmp	.L118	#
 1462      FF
 1463              	.LVL166:
 1464              	.L149:
 1465              		.loc 1 383 0
 1466 0811 C70424FB 		movl	$.LC19, (%esp)	#,
 1466      000000
 1467 0818 E8FCFFFF 		call	test_println	#
 1467      FF
 1468              	.LVL167:
 1469              		.loc 1 387 0
 1470 081d 0FB60530 		movzbl	global_fail, %eax	# global_fail, D.3740
 1470      000000
 1471              		.loc 1 388 0
 1472 0824 83C41C   		addl	$28, %esp	#,
 1473              		.cfi_def_cfa_offset 20
 1474 0827 5B       		popl	%ebx	#
 1475              		.cfi_restore 3
 1476              		.cfi_def_cfa_offset 16
 1477              	.LVL168:
 1478 0828 5E       		popl	%esi	#
 1479              		.cfi_restore 6
 1480              		.cfi_def_cfa_offset 12
 1481              	.LVL169:
 1482 0829 5F       		popl	%edi	#
 1483              		.cfi_restore 7
 1484              		.cfi_def_cfa_offset 8
 1485 082a 5D       		popl	%ebp	#
 1486              		.cfi_restore 5
 1487              		.cfi_def_cfa_offset 4
 1488              	.LVL170:
 1489 082b C3       		ret
 1490              		.cfi_endproc
 1491              	.LFE33:
 1492              		.size	TestThread, .-TestThread
 1493              		.local	vt
 1494              		.comm	vt,20,4
 1495              		.comm	test_timer_done,1,1
 1496              		.local	chp
 1497              		.comm	chp,4,4
 1498              		.globl	wa
 1499              		.section	.rodata
 1500              		.align 4
 1501              		.type	wa, @object
 1502              		.size	wa, 20
 1503              	wa:
 1504 0000 00000000 		.long	test
 1505 0004 70420000 		.long	test+17008
GAS LISTING /tmp/ccgBWb2p.s 			page 37


 1506 0008 E0840000 		.long	test+34016
 1507 000c 50C70000 		.long	test+51024
 1508 0010 C0090100 		.long	test+68032
 1509              		.comm	threads,20,4
 1510              		.comm	test,85040,32
 1511              		.local	tokp
 1512              		.comm	tokp,4,4
 1513              		.local	tokens_buffer
 1514              		.comm	tokens_buffer,16,1
 1515              		.local	failpoint
 1516              		.comm	failpoint,4,4
 1517              		.local	global_fail
 1518              		.comm	global_fail,1,1
 1519              		.local	local_fail
 1520              		.comm	local_fail,1,1
 1521 0014 00000000 		.align 32
 1521      00000000 
 1521      00000000 
 1522              		.type	patterns, @object
 1523              		.size	patterns, 48
 1524              	patterns:
 1525 0020 00000000 		.long	patternthd
 1526 0024 00000000 		.long	patternsem
 1527 0028 00000000 		.long	patternmtx
 1528 002c 00000000 		.long	patternmsg
 1529 0030 00000000 		.long	patternmbox
 1530 0034 00000000 		.long	patternevt
 1531 0038 00000000 		.long	patternheap
 1532 003c 00000000 		.long	patternpools
 1533 0040 00000000 		.long	patterndyn
 1534 0044 00000000 		.long	patternqueues
 1535 0048 00000000 		.long	patternbmk
 1536 004c 00000000 		.long	0
 1537              		.text
 1538              	.Letext0:
 1539              		.file 2 "/usr/lib/gcc/x86_64-linux-gnu/4.8/include/stddef.h"
 1540              		.file 3 "/usr/include/stdint.h"
 1541              		.file 4 "../../../os/ports/GCC/SIMIA32/chtypes.h"
 1542              		.file 5 "../../../os/kernel/include/chlists.h"
 1543              		.file 6 "../../../os/kernel/include/chthreads.h"
 1544              		.file 7 "../../../os/ports/GCC/SIMIA32/chcore.h"
 1545              		.file 8 "../../../os/kernel/include/chvt.h"
 1546              		.file 9 "../../../os/kernel/include/chschd.h"
 1547              		.file 10 "../../../os/kernel/include/chmtx.h"
 1548              		.file 11 "../../../os/kernel/include/chstreams.h"
 1549              		.file 12 "../../../test/test.h"
 1550              		.file 13 "../../../test/testthd.h"
 1551              		.file 14 "../../../test/testsem.h"
 1552              		.file 15 "../../../test/testmtx.h"
 1553              		.file 16 "../../../test/testmsg.h"
 1554              		.file 17 "../../../test/testmbox.h"
 1555              		.file 18 "../../../test/testevt.h"
 1556              		.file 19 "../../../test/testheap.h"
 1557              		.file 20 "../../../test/testpools.h"
 1558              		.file 21 "../../../test/testdyn.h"
 1559              		.file 22 "../../../test/testqueues.h"
 1560              		.file 23 "../../../test/testbmk.h"
GAS LISTING /tmp/ccgBWb2p.s 			page 38


 1561              		.file 24 "../../../os/hal/platforms/Posix/hal_lld.h"
 5808              		.section	.note.GNU-stack,"",@progbits
GAS LISTING /tmp/ccgBWb2p.s 			page 118

