GAS LISTING /tmp/ccWepkvC.s 			page 1


   1              		.file	"testthd.c"
   2              	# GNU C (Ubuntu 4.8.2-19ubuntu1) version 4.8.2 (x86_64-linux-gnu)
   3              	#	compiled by GNU C version 4.8.2, GMP version 5.1.3, MPFR version 3.1.2-p3, MPC version 1.0.1
   4              	# GGC heuristics: --param ggc-min-expand=97 --param ggc-min-heapsize=126309
   5              	# options passed:  -I . -I ../../../os/ports/GCC/SIMIA32
   6              	# -I ../../../os/kernel/include -I ../../../test -I ../../../os/hal/include
   7              	# -I ../../../os/hal/platforms/Posix -I ../../../boards/simulator
   8              	# -I ../../../os/various -imultilib 32 -imultiarch i386-linux-gnu
   9              	# -MD ../../../test/testthd.d -MF .dep/testthd.o.d -MP
  10              	# -MQ ../../../test/testthd.o -D SIMULATOR -D SHELL_USE_IPRINTF=FALSE
  11              	# ../../../test/testthd.c -m32 -mtune=generic -march=i686
  12              	# -auxbase-strip ../../../test/testthd.o -ggdb -O2 -Wall -Wextra
  13              	# -Wstrict-prototypes -fomit-frame-pointer -fverbose-asm -fstack-protector
  14              	# -Wformat -Wformat-security
  15              	# options enabled:  -faggressive-loop-optimizations
  16              	# -fasynchronous-unwind-tables -fauto-inc-dec -fbranch-count-reg
  17              	# -fcaller-saves -fcombine-stack-adjustments -fcommon -fcompare-elim
  18              	# -fcprop-registers -fcrossjumping -fcse-follow-jumps -fdefer-pop
  19              	# -fdelete-null-pointer-checks -fdevirtualize -fdwarf2-cfi-asm
  20              	# -fearly-inlining -feliminate-unused-debug-types -fexpensive-optimizations
  21              	# -fforward-propagate -ffunction-cse -fgcse -fgcse-lm -fgnu-runtime
  22              	# -fguess-branch-probability -fhoist-adjacent-loads -fident -fif-conversion
  23              	# -fif-conversion2 -findirect-inlining -finline -finline-atomics
  24              	# -finline-functions-called-once -finline-small-functions -fipa-cp
  25              	# -fipa-profile -fipa-pure-const -fipa-reference -fipa-sra
  26              	# -fira-hoist-pressure -fira-share-save-slots -fira-share-spill-slots
  27              	# -fivopts -fkeep-static-consts -fleading-underscore -fmath-errno
  28              	# -fmerge-constants -fmerge-debug-strings -fmove-loop-invariants
  29              	# -fomit-frame-pointer -foptimize-register-move -foptimize-sibling-calls
  30              	# -foptimize-strlen -fpartial-inlining -fpcc-struct-return -fpeephole
  31              	# -fpeephole2 -fprefetch-loop-arrays -free -fregmove -freorder-blocks
  32              	# -freorder-functions -frerun-cse-after-loop
  33              	# -fsched-critical-path-heuristic -fsched-dep-count-heuristic
  34              	# -fsched-group-heuristic -fsched-interblock -fsched-last-insn-heuristic
  35              	# -fsched-rank-heuristic -fsched-spec -fsched-spec-insn-heuristic
  36              	# -fsched-stalled-insns-dep -fschedule-insns2 -fshow-column -fshrink-wrap
  37              	# -fsigned-zeros -fsplit-ivs-in-unroller -fsplit-wide-types
  38              	# -fstack-protector -fstrict-aliasing -fstrict-overflow
  39              	# -fstrict-volatile-bitfields -fsync-libcalls -fthread-jumps
  40              	# -ftoplevel-reorder -ftrapping-math -ftree-bit-ccp -ftree-builtin-call-dce
  41              	# -ftree-ccp -ftree-ch -ftree-coalesce-vars -ftree-copy-prop
  42              	# -ftree-copyrename -ftree-cselim -ftree-dce -ftree-dominator-opts
  43              	# -ftree-dse -ftree-forwprop -ftree-fre -ftree-loop-if-convert
  44              	# -ftree-loop-im -ftree-loop-ivcanon -ftree-loop-optimize
  45              	# -ftree-parallelize-loops= -ftree-phiprop -ftree-pre -ftree-pta
  46              	# -ftree-reassoc -ftree-scev-cprop -ftree-sink -ftree-slp-vectorize
  47              	# -ftree-slsr -ftree-sra -ftree-switch-conversion -ftree-tail-merge
  48              	# -ftree-ter -ftree-vect-loop-version -ftree-vrp -funit-at-a-time
  49              	# -funwind-tables -fvar-tracking -fvar-tracking-assignments -fverbose-asm
  50              	# -fzero-initialized-in-bss -m32 -m80387 -m96bit-long-double
  51              	# -maccumulate-outgoing-args -malign-stringops -mfancy-math-387
  52              	# -mfp-ret-in-387 -mglibc -mieee-fp -mlong-double-80 -mno-red-zone
  53              	# -mno-sse4 -mpush-args -msahf -mtls-direct-seg-refs
  54              	
  55              		.text
  56              	.Ltext0:
  57              		.section	.rodata.str1.1,"aMS",@progbits,1
GAS LISTING /tmp/ccWepkvC.s 			page 2


  58              	.LC0:
  59 0000 4500     		.string	"E"
  60              	.LC1:
  61 0002 4400     		.string	"D"
  62              	.LC2:
  63 0004 4300     		.string	"C"
  64              	.LC3:
  65 0006 4200     		.string	"B"
  66              	.LC4:
  67 0008 4100     		.string	"A"
  68              	.LC5:
  69 000a 41424344 		.string	"ABCDE"
  69      4500
  70              		.text
  71              		.p2align 4,,15
  72              		.type	thd1_execute, @function
  73              	thd1_execute:
  74              	.LFB8:
  75              		.file 1 "../../../test/testthd.c"
  76              		.loc 1 66 0
  77              		.cfi_startproc
  78 0000 83EC2C   		subl	$44, %esp	#,
  79              		.cfi_def_cfa_offset 48
  80              		.loc 1 68 0
  81 0003 A1180000 		movl	rlist+24, %eax	# rlist.r_current, rlist.r_current
  81      00
  82 0008 C7442410 		movl	$.LC0, 16(%esp)	#,
  82      00000000 
  83 0010 C744240C 		movl	$thread, 12(%esp)	#,
  83      40010000 
  84 0018 8B4008   		movl	8(%eax), %eax	# _2->p_prio, _2->p_prio
  85 001b C7442404 		movl	$17008, 4(%esp)	#,
  85      70420000 
  86 0023 83E805   		subl	$5, %eax	#, D.2206
  87 0026 89442408 		movl	%eax, 8(%esp)	# D.2206,
  88 002a A1000000 		movl	wa, %eax	# wa, wa
  88      00
  89 002f 890424   		movl	%eax, (%esp)	# wa,
  90 0032 E8FCFFFF 		call	chThdCreateStatic	#
  90      FF
  91              	.LVL0:
  92              		.loc 1 69 0
  93 0037 C7442410 		movl	$.LC1, 16(%esp)	#,
  93      02000000 
  94 003f C744240C 		movl	$thread, 12(%esp)	#,
  94      40010000 
  95              		.loc 1 68 0
  96 0047 A3000000 		movl	%eax, threads	# D.2205, threads
  96      00
  97              		.loc 1 69 0
  98 004c A1180000 		movl	rlist+24, %eax	# rlist.r_current, rlist.r_current
  98      00
  99 0051 8B4008   		movl	8(%eax), %eax	# _9->p_prio, _9->p_prio
 100 0054 C7442404 		movl	$17008, 4(%esp)	#,
 100      70420000 
 101 005c 83E804   		subl	$4, %eax	#, D.2206
 102 005f 89442408 		movl	%eax, 8(%esp)	# D.2206,
GAS LISTING /tmp/ccWepkvC.s 			page 3


 103 0063 A1040000 		movl	wa+4, %eax	# wa, wa
 103      00
 104 0068 890424   		movl	%eax, (%esp)	# wa,
 105 006b E8FCFFFF 		call	chThdCreateStatic	#
 105      FF
 106              	.LVL1:
 107              		.loc 1 70 0
 108 0070 C7442410 		movl	$.LC2, 16(%esp)	#,
 108      04000000 
 109 0078 C744240C 		movl	$thread, 12(%esp)	#,
 109      40010000 
 110              		.loc 1 69 0
 111 0080 A3040000 		movl	%eax, threads+4	# D.2205, threads
 111      00
 112              		.loc 1 70 0
 113 0085 A1180000 		movl	rlist+24, %eax	# rlist.r_current, rlist.r_current
 113      00
 114 008a 8B4008   		movl	8(%eax), %eax	# _16->p_prio, _16->p_prio
 115 008d C7442404 		movl	$17008, 4(%esp)	#,
 115      70420000 
 116 0095 83E803   		subl	$3, %eax	#, D.2206
 117 0098 89442408 		movl	%eax, 8(%esp)	# D.2206,
 118 009c A1080000 		movl	wa+8, %eax	# wa, wa
 118      00
 119 00a1 890424   		movl	%eax, (%esp)	# wa,
 120 00a4 E8FCFFFF 		call	chThdCreateStatic	#
 120      FF
 121              	.LVL2:
 122              		.loc 1 71 0
 123 00a9 C7442410 		movl	$.LC3, 16(%esp)	#,
 123      06000000 
 124 00b1 C744240C 		movl	$thread, 12(%esp)	#,
 124      40010000 
 125              		.loc 1 70 0
 126 00b9 A3080000 		movl	%eax, threads+8	# D.2205, threads
 126      00
 127              		.loc 1 71 0
 128 00be A1180000 		movl	rlist+24, %eax	# rlist.r_current, rlist.r_current
 128      00
 129 00c3 8B4008   		movl	8(%eax), %eax	# _23->p_prio, _23->p_prio
 130 00c6 C7442404 		movl	$17008, 4(%esp)	#,
 130      70420000 
 131 00ce 83E802   		subl	$2, %eax	#, D.2206
 132 00d1 89442408 		movl	%eax, 8(%esp)	# D.2206,
 133 00d5 A10C0000 		movl	wa+12, %eax	# wa, wa
 133      00
 134 00da 890424   		movl	%eax, (%esp)	# wa,
 135 00dd E8FCFFFF 		call	chThdCreateStatic	#
 135      FF
 136              	.LVL3:
 137              		.loc 1 72 0
 138 00e2 C7442410 		movl	$.LC4, 16(%esp)	#,
 138      08000000 
 139 00ea C744240C 		movl	$thread, 12(%esp)	#,
 139      40010000 
 140              		.loc 1 71 0
 141 00f2 A30C0000 		movl	%eax, threads+12	# D.2205, threads
GAS LISTING /tmp/ccWepkvC.s 			page 4


 141      00
 142              		.loc 1 72 0
 143 00f7 A1180000 		movl	rlist+24, %eax	# rlist.r_current, rlist.r_current
 143      00
 144 00fc 8B4008   		movl	8(%eax), %eax	# _30->p_prio, _30->p_prio
 145 00ff C7442404 		movl	$17008, 4(%esp)	#,
 145      70420000 
 146 0107 83E801   		subl	$1, %eax	#, D.2206
 147 010a 89442408 		movl	%eax, 8(%esp)	# D.2206,
 148 010e A1100000 		movl	wa+16, %eax	# wa, wa
 148      00
 149 0113 890424   		movl	%eax, (%esp)	# wa,
 150 0116 E8FCFFFF 		call	chThdCreateStatic	#
 150      FF
 151              	.LVL4:
 152 011b A3100000 		movl	%eax, threads+16	# D.2205, threads
 152      00
 153              		.loc 1 73 0
 154 0120 E8FCFFFF 		call	test_wait_threads	#
 154      FF
 155              	.LVL5:
 156              		.loc 1 74 0
 157 0125 C7442404 		movl	$.LC5, 4(%esp)	#,
 157      0A000000 
 158 012d C7042401 		movl	$1, (%esp)	#,
 158      000000
 159 0134 E8FCFFFF 		call	_test_assert_sequence	#
 159      FF
 160              	.LVL6:
 161              		.loc 1 75 0
 162 0139 83C42C   		addl	$44, %esp	#,
 163              		.cfi_def_cfa_offset 4
 164 013c C3       		ret
 165              		.cfi_endproc
 166              	.LFE8:
 167              		.size	thd1_execute, .-thd1_execute
 168 013d 8D7600   		.p2align 4,,15
 169              		.type	thread, @function
 170              	thread:
 171              	.LFB7:
 172              		.loc 1 60 0
 173              		.cfi_startproc
 174              	.LVL7:
 175 0140 83EC1C   		subl	$28, %esp	#,
 176              		.cfi_def_cfa_offset 32
 177              		.loc 1 62 0
 178 0143 8B442420 		movl	32(%esp), %eax	# p, p
 179 0147 0FBE00   		movsbl	(%eax), %eax	# MEM[(char *)p_2(D)], MEM[(char *)p_2(D)]
 180 014a 890424   		movl	%eax, (%esp)	# MEM[(char *)p_2(D)],
 181 014d E8FCFFFF 		call	test_emit_token	#
 181      FF
 182              	.LVL8:
 183              		.loc 1 64 0
 184 0152 31C0     		xorl	%eax, %eax	#
 185 0154 83C41C   		addl	$28, %esp	#,
 186              		.cfi_def_cfa_offset 4
 187 0157 C3       		ret
GAS LISTING /tmp/ccWepkvC.s 			page 5


 188              		.cfi_endproc
 189              	.LFE7:
 190              		.size	thread, .-thread
 191 0158 908DB426 		.p2align 4,,15
 191      00000000 
 192              		.type	thd2_execute, @function
 193              	thd2_execute:
 194              	.LFB9:
 195              		.loc 1 94 0
 196              		.cfi_startproc
 197 0160 83EC2C   		subl	$44, %esp	#,
 198              		.cfi_def_cfa_offset 48
 199              		.loc 1 96 0
 200 0163 A1180000 		movl	rlist+24, %eax	# rlist.r_current, rlist.r_current
 200      00
 201 0168 C7442410 		movl	$.LC1, 16(%esp)	#,
 201      02000000 
 202 0170 C744240C 		movl	$thread, 12(%esp)	#,
 202      40010000 
 203 0178 8B4008   		movl	8(%eax), %eax	# _2->p_prio, _2->p_prio
 204 017b C7442404 		movl	$17008, 4(%esp)	#,
 204      70420000 
 205 0183 83E804   		subl	$4, %eax	#, D.2221
 206 0186 89442408 		movl	%eax, 8(%esp)	# D.2221,
 207 018a A1040000 		movl	wa+4, %eax	# wa, wa
 207      00
 208 018f 890424   		movl	%eax, (%esp)	# wa,
 209 0192 E8FCFFFF 		call	chThdCreateStatic	#
 209      FF
 210              	.LVL9:
 211              		.loc 1 97 0
 212 0197 C7442410 		movl	$.LC0, 16(%esp)	#,
 212      00000000 
 213 019f C744240C 		movl	$thread, 12(%esp)	#,
 213      40010000 
 214              		.loc 1 96 0
 215 01a7 A3040000 		movl	%eax, threads+4	# D.2220, threads
 215      00
 216              		.loc 1 97 0
 217 01ac A1180000 		movl	rlist+24, %eax	# rlist.r_current, rlist.r_current
 217      00
 218 01b1 8B4008   		movl	8(%eax), %eax	# _9->p_prio, _9->p_prio
 219 01b4 C7442404 		movl	$17008, 4(%esp)	#,
 219      70420000 
 220 01bc 83E805   		subl	$5, %eax	#, D.2221
 221 01bf 89442408 		movl	%eax, 8(%esp)	# D.2221,
 222 01c3 A1000000 		movl	wa, %eax	# wa, wa
 222      00
 223 01c8 890424   		movl	%eax, (%esp)	# wa,
 224 01cb E8FCFFFF 		call	chThdCreateStatic	#
 224      FF
 225              	.LVL10:
 226              		.loc 1 98 0
 227 01d0 C7442410 		movl	$.LC4, 16(%esp)	#,
 227      08000000 
 228 01d8 C744240C 		movl	$thread, 12(%esp)	#,
 228      40010000 
GAS LISTING /tmp/ccWepkvC.s 			page 6


 229              		.loc 1 97 0
 230 01e0 A3000000 		movl	%eax, threads	# D.2220, threads
 230      00
 231              		.loc 1 98 0
 232 01e5 A1180000 		movl	rlist+24, %eax	# rlist.r_current, rlist.r_current
 232      00
 233 01ea 8B4008   		movl	8(%eax), %eax	# _16->p_prio, _16->p_prio
 234 01ed C7442404 		movl	$17008, 4(%esp)	#,
 234      70420000 
 235 01f5 83E801   		subl	$1, %eax	#, D.2221
 236 01f8 89442408 		movl	%eax, 8(%esp)	# D.2221,
 237 01fc A1100000 		movl	wa+16, %eax	# wa, wa
 237      00
 238 0201 890424   		movl	%eax, (%esp)	# wa,
 239 0204 E8FCFFFF 		call	chThdCreateStatic	#
 239      FF
 240              	.LVL11:
 241              		.loc 1 99 0
 242 0209 C7442410 		movl	$.LC3, 16(%esp)	#,
 242      06000000 
 243 0211 C744240C 		movl	$thread, 12(%esp)	#,
 243      40010000 
 244              		.loc 1 98 0
 245 0219 A3100000 		movl	%eax, threads+16	# D.2220, threads
 245      00
 246              		.loc 1 99 0
 247 021e A1180000 		movl	rlist+24, %eax	# rlist.r_current, rlist.r_current
 247      00
 248 0223 8B4008   		movl	8(%eax), %eax	# _23->p_prio, _23->p_prio
 249 0226 C7442404 		movl	$17008, 4(%esp)	#,
 249      70420000 
 250 022e 83E802   		subl	$2, %eax	#, D.2221
 251 0231 89442408 		movl	%eax, 8(%esp)	# D.2221,
 252 0235 A10C0000 		movl	wa+12, %eax	# wa, wa
 252      00
 253 023a 890424   		movl	%eax, (%esp)	# wa,
 254 023d E8FCFFFF 		call	chThdCreateStatic	#
 254      FF
 255              	.LVL12:
 256 0242 A30C0000 		movl	%eax, threads+12	# D.2220, threads
 256      00
 257              		.loc 1 101 0
 258              	#APP
 259              	# 101 "../../../test/testthd.c" 1
   1              	/*
   2              	    ChibiOS/RT - Copyright (C) 2006-2013 Giovanni Di Sirio
   3              	
   4              	    Licensed under the Apache License, Version 2.0 (the "License");
   5              	    you may not use this file except in compliance with the License.
   6              	    You may obtain a copy of the License at
   7              	
   8              	        http://www.apache.org/licenses/LICENSE-2.0
   9              	
  10              	    Unless required by applicable law or agreed to in writing, software
  11              	    distributed under the License is distributed on an "AS IS" BASIS,
  12              	    WITHOUT WARRANTIES OR CONDITIONS OF ANY KIND, either express or implied.
  13              	    See the License for the specific language governing permissions and
GAS LISTING /tmp/ccWepkvC.s 			page 7


  14              	    limitations under the License.
  15              	*/
  16              	
  17              	#include "ch.h"
  18              	#include "test.h"
  19              	
  20              	/**
  21              	 * @page test_threads Threads and Scheduler test
  22              	 *
  23              	 * File: @ref testthd.c
  24              	 *
  25              	 * <h2>Description</h2>
  26              	 * This module implements the test sequence for the @ref scheduler,
  27              	 * @ref threads and @ref time subsystems.<br>
  28              	 * Note that the tests on those subsystems are formally required but most of
  29              	 * their functionality is already demonstrated because the test suite itself
  30              	 * depends on them, anyway double check is good.
  31              	 *
  32              	 * <h2>Objective</h2>
  33              	 * Objective of the test module is to cover 100% of the subsystems code.
  34              	 *
  35              	 * <h2>Preconditions</h2>
  36              	 * None.
  37              	 *
  38              	 * <h2>Test Cases</h2>
  39              	 * - @subpage test_threads_001
  40              	 * - @subpage test_threads_002
  41              	 * - @subpage test_threads_003
  42              	 * - @subpage test_threads_004
  43              	 * .
  44              	 * @file testthd.c
  45              	 * @brief Threads and Scheduler test source file
  46              	 * @file testthd.h
  47              	 * @brief Threads and Scheduler test header file
  48              	 */
  49              	
  50              	/**
  51              	 * @page test_threads_001 Ready List functionality #1
  52              	 *
  53              	 * <h2>Description</h2>
  54              	 * Five threads, with increasing priority, are enqueued in the ready list
  55              	 * and atomically executed.<br>
  56              	 * The test expects the threads to perform their operations in increasing
  57              	 * priority order regardless of the initial order.
  58              	 */
  59              	
  60              	static msg_t thread(void *p) {
  61              	
  62              	  test_emit_token(*(char *)p);
  63              	  return 0;
  64              	}
  65              	
  66              	static void thd1_execute(void) {
  67              	
  68              	  threads[0] = chThdCreateStatic(wa[0], WA_SIZE, chThdGetPriority()-5, thread, "E");
  69              	  threads[1] = chThdCreateStatic(wa[1], WA_SIZE, chThdGetPriority()-4, thread, "D");
  70              	  threads[2] = chThdCreateStatic(wa[2], WA_SIZE, chThdGetPriority()-3, thread, "C");
GAS LISTING /tmp/ccWepkvC.s 			page 8


  71              	  threads[3] = chThdCreateStatic(wa[3], WA_SIZE, chThdGetPriority()-2, thread, "B");
  72              	  threads[4] = chThdCreateStatic(wa[4], WA_SIZE, chThdGetPriority()-1, thread, "A");
  73              	  test_wait_threads();
  74              	  test_assert_sequence(1, "ABCDE");
  75              	}
  76              	
  77              	ROMCONST struct testcase testthd1 = {
  78              	  "Threads, enqueuing test #1",
  79              	  NULL,
  80              	  NULL,
  81              	  thd1_execute
  82              	};
  83              	
  84              	/**
  85              	 * @page test_threads_002 Ready List functionality #2
  86              	 *
  87              	 * <h2>Description</h2>
  88              	 * Five threads, with pseudo-random priority, are enqueued in the ready list
  89              	 * and atomically executed.<br>
  90              	 * The test expects the threads to perform their operations in increasing
  91              	 * priority order regardless of the initial order.
  92              	 */
  93              	
  94              	static void thd2_execute(void) {
  95              	
  96              	  threads[1] = chThdCreateStatic(wa[1], WA_SIZE, chThdGetPriority()-4, thread, "D");
  97              	  threads[0] = chThdCreateStatic(wa[0], WA_SIZE, chThdGetPriority()-5, thread, "E");
  98              	  threads[4] = chThdCreateStatic(wa[4], WA_SIZE, chThdGetPriority()-1, thread, "A");
  99              	  threads[3] = chThdCreateStatic(wa[3], WA_SIZE, chThdGetPriority()-2, thread, "B");
 100              	  /* Done this way for coverage of chThdCreateI() and chThdResume().*/
 101 0247 90       	  chSysLock();
 102              	  threads[2] = chThdCreateI(wa[2], WA_SIZE, chThdGetPriority()-3, thread, "C");
 260              		nop
 261              	# 0 "" 2
 262              		.loc 1 102 0
 263              	#NO_APP
 264 0248 A1180000 		movl	rlist+24, %eax	# rlist.r_current, rlist.r_current
 264      00
 265 024d C7442410 		movl	$.LC2, 16(%esp)	#,
 265      04000000 
 266 0255 C744240C 		movl	$thread, 12(%esp)	#,
 266      40010000 
 267 025d 8B4008   		movl	8(%eax), %eax	# _30->p_prio, _30->p_prio
 268 0260 C7442404 		movl	$17008, 4(%esp)	#,
 268      70420000 
 269 0268 83E803   		subl	$3, %eax	#, D.2221
 270 026b 89442408 		movl	%eax, 8(%esp)	# D.2221,
 271 026f A1080000 		movl	wa+8, %eax	# wa, wa
 271      00
 272 0274 890424   		movl	%eax, (%esp)	# wa,
 273 0277 E8FCFFFF 		call	chThdCreateI	#
 273      FF
 274              	.LVL13:
 275 027c A3080000 		movl	%eax, threads+8	# D.2220, threads
 275      00
 276              		.loc 1 103 0
 277              	#APP
GAS LISTING /tmp/ccWepkvC.s 			page 9


 278              	# 103 "../../../test/testthd.c" 1
 103 0281 90       	  chSysUnlock();
 104              	  chThdResume(threads[2]);
 279              		nop
 280              	# 0 "" 2
 281              		.loc 1 104 0
 282              	#NO_APP
 283 0282 890424   		movl	%eax, (%esp)	# D.2220,
 284 0285 E8FCFFFF 		call	chThdResume	#
 284      FF
 285              	.LVL14:
 286              		.loc 1 105 0
 287 028a E8FCFFFF 		call	test_wait_threads	#
 287      FF
 288              	.LVL15:
 289              		.loc 1 106 0
 290 028f C7442404 		movl	$.LC5, 4(%esp)	#,
 290      0A000000 
 291 0297 C7042401 		movl	$1, (%esp)	#,
 291      000000
 292 029e E8FCFFFF 		call	_test_assert_sequence	#
 292      FF
 293              	.LVL16:
 294              		.loc 1 107 0
 295 02a3 83C42C   		addl	$44, %esp	#,
 296              		.cfi_def_cfa_offset 4
 297 02a6 C3       		ret
 298              		.cfi_endproc
 299              	.LFE9:
 300              		.size	thd2_execute, .-thd2_execute
 301 02a7 89F68DBC 		.p2align 4,,15
 301      27000000 
 301      00
 302              		.type	thd3_execute, @function
 303              	thd3_execute:
 304              	.LFB10:
 305              		.loc 1 126 0
 306              		.cfi_startproc
 307 02b0 57       		pushl	%edi	#
 308              		.cfi_def_cfa_offset 8
 309              		.cfi_offset 7, -8
 310 02b1 56       		pushl	%esi	#
 311              		.cfi_def_cfa_offset 12
 312              		.cfi_offset 6, -12
 313 02b2 53       		pushl	%ebx	#
 314              		.cfi_def_cfa_offset 16
 315              		.cfi_offset 3, -16
 316 02b3 83EC10   		subl	$16, %esp	#,
 317              		.cfi_def_cfa_offset 32
 318              		.loc 1 129 0
 319 02b6 A1180000 		movl	rlist+24, %eax	# rlist.r_current, rlist.r_current
 319      00
 320 02bb 8B5808   		movl	8(%eax), %ebx	# _3->p_prio, prio
 321              	.LVL17:
 322              		.loc 1 130 0
 323 02be 8D7301   		leal	1(%ebx), %esi	#, D.2226
 324 02c1 893424   		movl	%esi, (%esp)	# D.2226,
GAS LISTING /tmp/ccWepkvC.s 			page 10


 325 02c4 E8FCFFFF 		call	chThdSetPriority	#
 325      FF
 326              	.LVL18:
 327              		.loc 1 131 0
 328 02c9 C7042401 		movl	$1, (%esp)	#,
 328      000000
 329              		.loc 1 130 0
 330 02d0 89C7     		movl	%eax, %edi	#, p1
 331              	.LVL19:
 332              		.loc 1 131 0
 333 02d2 31C0     		xorl	%eax, %eax	# D.2227
 334              	.LVL20:
 335 02d4 39DF     		cmpl	%ebx, %edi	# prio, p1
 336 02d6 0F94C0   		sete	%al	#, D.2227
 337 02d9 89442404 		movl	%eax, 4(%esp)	# D.2227,
 338 02dd E8FCFFFF 		call	_test_assert	#
 338      FF
 339              	.LVL21:
 340 02e2 84C0     		testb	%al, %al	# D.2227
 341 02e4 740A     		je	.L13	#,
 342              	.LVL22:
 343              	.L7:
 344              		.loc 1 172 0
 345 02e6 83C410   		addl	$16, %esp	#,
 346              		.cfi_remember_state
 347              		.cfi_def_cfa_offset 16
 348 02e9 5B       		popl	%ebx	#
 349              		.cfi_restore 3
 350              		.cfi_def_cfa_offset 12
 351              	.LVL23:
 352 02ea 5E       		popl	%esi	#
 353              		.cfi_restore 6
 354              		.cfi_def_cfa_offset 8
 355              	.LVL24:
 356 02eb 5F       		popl	%edi	#
 357              		.cfi_restore 7
 358              		.cfi_def_cfa_offset 4
 359 02ec C3       		ret
 360              	.LVL25:
 361 02ed 8D7600   		.p2align 4,,7
 362              		.p2align 3
 363              	.L13:
 364              		.cfi_restore_state
 365              		.loc 1 133 0
 366 02f0 A1180000 		movl	rlist+24, %eax	# rlist.r_current, rlist.r_current
 366      00
 367 02f5 3B7008   		cmpl	8(%eax), %esi	# _12->p_prio, D.2226
 368 02f8 C7042402 		movl	$2, (%esp)	#,
 368      000000
 369 02ff 0F94C0   		sete	%al	#, D.2227
 370 0302 0FB6C0   		movzbl	%al, %eax	# D.2227, D.2227
 371 0305 89442404 		movl	%eax, 4(%esp)	# D.2227,
 372 0309 E8FCFFFF 		call	_test_assert	#
 372      FF
 373              	.LVL26:
 374 030e 84C0     		testb	%al, %al	# D.2227
 375 0310 75D4     		jne	.L7	#,
GAS LISTING /tmp/ccWepkvC.s 			page 11


 376              		.loc 1 135 0
 377 0312 893C24   		movl	%edi, (%esp)	# p1,
 378 0315 E8FCFFFF 		call	chThdSetPriority	#
 378      FF
 379              	.LVL27:
 380              		.loc 1 136 0
 381 031a C7042403 		movl	$3, (%esp)	#,
 381      000000
 382 0321 39C6     		cmpl	%eax, %esi	# p1, D.2226
 383 0323 0F94C0   		sete	%al	#, D.2227
 384              	.LVL28:
 385 0326 0FB6C0   		movzbl	%al, %eax	# D.2227, D.2227
 386 0329 89442404 		movl	%eax, 4(%esp)	# D.2227,
 387 032d E8FCFFFF 		call	_test_assert	#
 387      FF
 388              	.LVL29:
 389 0332 84C0     		testb	%al, %al	# D.2227
 390 0334 75B0     		jne	.L7	#,
 391              		.loc 1 138 0
 392 0336 A1180000 		movl	rlist+24, %eax	# rlist.r_current, rlist.r_current
 392      00
 393 033b 395808   		cmpl	%ebx, 8(%eax)	# prio, _24->p_prio
 394 033e C7042404 		movl	$4, (%esp)	#,
 394      000000
 395 0345 0F94C0   		sete	%al	#, D.2227
 396 0348 0FB6C0   		movzbl	%al, %eax	# D.2227, D.2227
 397 034b 89442404 		movl	%eax, 4(%esp)	# D.2227,
 398 034f E8FCFFFF 		call	_test_assert	#
 398      FF
 399              	.LVL30:
 400 0354 84C0     		testb	%al, %al	# D.2227
 401 0356 758E     		jne	.L7	#,
 402              		.loc 1 143 0
 403              	#APP
 404              	# 143 "../../../test/testthd.c" 1
 105              	  test_wait_threads();
 106              	  test_assert_sequence(1, "ABCDE");
 107              	}
 108              	
 109              	ROMCONST struct testcase testthd2 = {
 110              	  "Threads, enqueuing test #2",
 111              	  NULL,
 112              	  NULL,
 113              	  thd2_execute
 114              	};
 115              	
 116              	/**
 117              	 * @page test_threads_003 Threads priority change test
 118              	 *
 119              	 * <h2>Description</h2>
 120              	 * A series of priority changes are performed on the current thread in order
 121              	 * to verify that the priority change happens as expected.<br>
 122              	 * If the @p CH_USE_MUTEXES option is enabled then the priority changes are
 123              	 * also tested under priority inheritance boosted priority state.
 124              	 */
 125              	
 126              	static void thd3_execute(void) {
GAS LISTING /tmp/ccWepkvC.s 			page 12


 127              	  tprio_t prio, p1;
 128              	
 129              	  prio = chThdGetPriority();
 130              	  p1 = chThdSetPriority(prio + 1);
 131              	  test_assert(1, p1 == prio,
 132              	              "unexpected returned priority level");
 133              	  test_assert(2, chThdGetPriority() == prio + 1,
 134              	              "unexpected priority level");
 135              	  p1 = chThdSetPriority(p1);
 136              	  test_assert(3, p1 == prio + 1,
 137              	              "unexpected returned priority level");
 138              	  test_assert(4, chThdGetPriority() == prio,
 139              	              "unexpected priority level");
 140              	
 141              	#if CH_USE_MUTEXES || defined(__DOXYGEN__)
 142              	  /* Simulates a priority boost situation (p_prio > p_realprio).*/
 143 0358 90       	  chSysLock();
 144              	  chThdSelf()->p_prio += 2;
 405              		nop
 406              	# 0 "" 2
 407              		.loc 1 144 0
 408              	#NO_APP
 409 0359 8B151800 		movl	rlist+24, %edx	# rlist.r_current, D.2225
 409      0000
 410 035f 8B4208   		movl	8(%edx), %eax	# _30->p_prio, tmp149
 411 0362 83C002   		addl	$2, %eax	#, D.2226
 412 0365 894208   		movl	%eax, 8(%edx)	# D.2226, _30->p_prio
 413              		.loc 1 145 0
 414              	#APP
 415              	# 145 "../../../test/testthd.c" 1
 145 0368 90       	  chSysUnlock();
 146              	  test_assert(5, chThdGetPriority() == prio + 2,
 416              		nop
 417              	# 0 "" 2
 418              		.loc 1 146 0
 419              	#NO_APP
 420 0369 8D7B02   		leal	2(%ebx), %edi	#, D.2226
 421 036c 39F8     		cmpl	%edi, %eax	# D.2226, D.2226
 422 036e 0F94C0   		sete	%al	#, D.2227
 423 0371 0FB6C0   		movzbl	%al, %eax	# D.2227, D.2227
 424 0374 89442404 		movl	%eax, 4(%esp)	# D.2227,
 425 0378 C7042405 		movl	$5, (%esp)	#,
 425      000000
 426 037f E8FCFFFF 		call	_test_assert	#
 426      FF
 427              	.LVL31:
 428 0384 84C0     		testb	%al, %al	# D.2227
 429 0386 0F855AFF 		jne	.L7	#,
 429      FFFF
 430              		.loc 1 150 0
 431 038c 893424   		movl	%esi, (%esp)	# D.2226,
 432 038f E8FCFFFF 		call	chThdSetPriority	#
 432      FF
 433              	.LVL32:
 434              		.loc 1 151 0
 435 0394 C7042406 		movl	$6, (%esp)	#,
 435      000000
GAS LISTING /tmp/ccWepkvC.s 			page 13


 436 039b 39D8     		cmpl	%ebx, %eax	# prio, p1
 437 039d 0F94C0   		sete	%al	#, D.2227
 438              	.LVL33:
 439 03a0 0FB6C0   		movzbl	%al, %eax	# D.2227, D.2227
 440 03a3 89442404 		movl	%eax, 4(%esp)	# D.2227,
 441 03a7 E8FCFFFF 		call	_test_assert	#
 441      FF
 442              	.LVL34:
 443 03ac 84C0     		testb	%al, %al	# D.2227
 444 03ae 0F8532FF 		jne	.L7	#,
 444      FFFF
 445              		.loc 1 153 0
 446 03b4 A1180000 		movl	rlist+24, %eax	# rlist.r_current, rlist.r_current
 446      00
 447 03b9 3B7808   		cmpl	8(%eax), %edi	# _45->p_prio, D.2226
 448 03bc C7042407 		movl	$7, (%esp)	#,
 448      000000
 449 03c3 0F94C0   		sete	%al	#, D.2227
 450 03c6 0FB6C0   		movzbl	%al, %eax	# D.2227, D.2227
 451 03c9 89442404 		movl	%eax, 4(%esp)	# D.2227,
 452 03cd E8FCFFFF 		call	_test_assert	#
 452      FF
 453              	.LVL35:
 454 03d2 84C0     		testb	%al, %al	# D.2227
 455 03d4 0F850CFF 		jne	.L7	#,
 455      FFFF
 456              		.loc 1 155 0
 457 03da A1180000 		movl	rlist+24, %eax	# rlist.r_current, rlist.r_current
 457      00
 458 03df 3B7040   		cmpl	64(%eax), %esi	# _51->p_realprio, D.2226
 459 03e2 C7042408 		movl	$8, (%esp)	#,
 459      000000
 460 03e9 0F94C0   		sete	%al	#, D.2227
 461 03ec 0FB6C0   		movzbl	%al, %eax	# D.2227, D.2227
 462 03ef 89442404 		movl	%eax, 4(%esp)	# D.2227,
 463 03f3 E8FCFFFF 		call	_test_assert	#
 463      FF
 464              	.LVL36:
 465 03f8 84C0     		testb	%al, %al	# D.2227
 466 03fa 0F85E6FE 		jne	.L7	#,
 466      FFFF
 467              		.loc 1 159 0
 468 0400 8D7B03   		leal	3(%ebx), %edi	#, D.2226
 469 0403 893C24   		movl	%edi, (%esp)	# D.2226,
 470 0406 E8FCFFFF 		call	chThdSetPriority	#
 470      FF
 471              	.LVL37:
 472              		.loc 1 160 0
 473 040b C7042409 		movl	$9, (%esp)	#,
 473      000000
 474 0412 39C6     		cmpl	%eax, %esi	# p1, D.2226
 475 0414 0F94C0   		sete	%al	#, D.2227
 476              	.LVL38:
 477 0417 0FB6C0   		movzbl	%al, %eax	# D.2227, D.2227
 478 041a 89442404 		movl	%eax, 4(%esp)	# D.2227,
 479 041e E8FCFFFF 		call	_test_assert	#
 479      FF
GAS LISTING /tmp/ccWepkvC.s 			page 14


 480              	.LVL39:
 481 0423 84C0     		testb	%al, %al	# D.2227
 482 0425 0F85BBFE 		jne	.L7	#,
 482      FFFF
 483              		.loc 1 162 0
 484 042b A1180000 		movl	rlist+24, %eax	# rlist.r_current, rlist.r_current
 484      00
 485 0430 3B7808   		cmpl	8(%eax), %edi	# _64->p_prio, D.2226
 486 0433 C704240A 		movl	$10, (%esp)	#,
 486      000000
 487 043a 0F94C0   		sete	%al	#, D.2227
 488 043d 0FB6C0   		movzbl	%al, %eax	# D.2227, D.2227
 489 0440 89442404 		movl	%eax, 4(%esp)	# D.2227,
 490 0444 E8FCFFFF 		call	_test_assert	#
 490      FF
 491              	.LVL40:
 492 0449 84C0     		testb	%al, %al	# D.2227
 493 044b 0F8595FE 		jne	.L7	#,
 493      FFFF
 494              		.loc 1 164 0
 495 0451 A1180000 		movl	rlist+24, %eax	# rlist.r_current, rlist.r_current
 495      00
 496 0456 3B7840   		cmpl	64(%eax), %edi	# _70->p_realprio, D.2226
 497 0459 C704240B 		movl	$11, (%esp)	#,
 497      000000
 498 0460 0F94C0   		sete	%al	#, D.2227
 499 0463 0FB6C0   		movzbl	%al, %eax	# D.2227, D.2227
 500 0466 89442404 		movl	%eax, 4(%esp)	# D.2227,
 501 046a E8FCFFFF 		call	_test_assert	#
 501      FF
 502              	.LVL41:
 503 046f 84C0     		testb	%al, %al	# D.2227
 504 0471 0F856FFE 		jne	.L7	#,
 504      FFFF
 505              		.loc 1 167 0
 506              	#APP
 507              	# 167 "../../../test/testthd.c" 1
 147              	              "unexpected priority level");
 148              	
 149              	  /* Tries to raise but below the boost level. */
 150              	  p1 = chThdSetPriority(prio + 1);
 151              	  test_assert(6, p1 == prio,
 152              	              "unexpected returned priority level");
 153              	  test_assert(7, chThdSelf()->p_prio == prio + 2,
 154              	              "unexpected priority level");
 155              	  test_assert(8, chThdSelf()->p_realprio == prio + 1,
 156              	              "unexpected returned real priority level");
 157              	
 158              	  /* Tries to raise above the boost level. */
 159              	  p1 = chThdSetPriority(prio + 3);
 160              	  test_assert(9, p1 == prio + 1,
 161              	              "unexpected returned priority level");
 162              	  test_assert(10, chThdSelf()->p_prio == prio + 3,
 163              	              "unexpected priority level");
 164              	  test_assert(11, chThdSelf()->p_realprio == prio + 3,
 165              	              "unexpected real priority level");
 166              	
GAS LISTING /tmp/ccWepkvC.s 			page 15


 167 0477 90       	  chSysLock();
 168              	  chThdSelf()->p_prio = prio;
 508              		nop
 509              	# 0 "" 2
 510              		.loc 1 168 0
 511              	#NO_APP
 512 0478 A1180000 		movl	rlist+24, %eax	# rlist.r_current, D.2225
 512      00
 513 047d 895808   		movl	%ebx, 8(%eax)	# prio, _76->p_prio
 514              		.loc 1 169 0
 515 0480 895840   		movl	%ebx, 64(%eax)	# prio, _76->p_realprio
 516              		.loc 1 170 0
 517              	#APP
 518              	# 170 "../../../test/testthd.c" 1
 169              	  chThdSelf()->p_realprio = prio;
 170 0483 90       	  chSysUnlock();
 171              	#endif
 519              		nop
 520              	# 0 "" 2
 521              	#NO_APP
 522 0484 E95DFEFF 		jmp	.L7	#
 522      FF
 523              		.cfi_endproc
 524              	.LFE10:
 525              		.size	thd3_execute, .-thd3_execute
 526 0489 8DB42600 		.p2align 4,,15
 526      000000
 527              		.type	thd4_execute, @function
 528              	thd4_execute:
 529              	.LFB11:
 530              		.loc 1 189 0
 531              		.cfi_startproc
 532 0490 56       		pushl	%esi	#
 533              		.cfi_def_cfa_offset 8
 534              		.cfi_offset 6, -8
 535 0491 53       		pushl	%ebx	#
 536              		.cfi_def_cfa_offset 12
 537              		.cfi_offset 3, -12
 538 0492 83EC14   		subl	$20, %esp	#,
 539              		.cfi_def_cfa_offset 32
 540              		.loc 1 192 0
 541 0495 E8FCFFFF 		call	test_wait_tick	#
 541      FF
 542              	.LVL42:
 543              		.loc 1 195 0
 544 049a 8B1D0C00 		movl	vtlist+12, %ebx	# vtlist.vt_systime, time
 544      0000
 545              	.LVL43:
 546              		.loc 1 196 0
 547 04a0 C7042464 		movl	$100, (%esp)	#,
 547      000000
 548 04a7 E8FCFFFF 		call	chThdSleep	#
 548      FF
 549              	.LVL44:
 550              		.loc 1 197 0
 551 04ac C7042401 		movl	$1, (%esp)	#,
 551      000000
GAS LISTING /tmp/ccWepkvC.s 			page 16


 552 04b3 8D4365   		leal	101(%ebx), %eax	#, D.2232
 553 04b6 83C364   		addl	$100, %ebx	#, D.2232
 554              	.LVL45:
 555 04b9 89442408 		movl	%eax, 8(%esp)	# D.2232,
 556 04bd 895C2404 		movl	%ebx, 4(%esp)	# D.2232,
 557 04c1 E8FCFFFF 		call	_test_assert_time_window	#
 557      FF
 558              	.LVL46:
 559 04c6 84C0     		testb	%al, %al	# D.2233
 560 04c8 7406     		je	.L19	#,
 561              	.LVL47:
 562              	.L14:
 563              		.loc 1 213 0
 564 04ca 83C414   		addl	$20, %esp	#,
 565              		.cfi_remember_state
 566              		.cfi_def_cfa_offset 12
 567 04cd 5B       		popl	%ebx	#
 568              		.cfi_restore 3
 569              		.cfi_def_cfa_offset 8
 570 04ce 5E       		popl	%esi	#
 571              		.cfi_restore 6
 572              		.cfi_def_cfa_offset 4
 573 04cf C3       		ret
 574              	.LVL48:
 575              		.p2align 4,,7
 576              		.p2align 3
 577              	.L19:
 578              		.cfi_restore_state
 579              		.loc 1 200 0
 580 04d0 8B1D0C00 		movl	vtlist+12, %ebx	# vtlist.vt_systime, time
 580      0000
 581              	.LVL49:
 582              		.loc 1 201 0
 583 04d6 C7042464 		movl	$100, (%esp)	#,
 583      000000
 584 04dd E8FCFFFF 		call	chThdSleep	#
 584      FF
 585              	.LVL50:
 586              		.loc 1 202 0
 587 04e2 C7042402 		movl	$2, (%esp)	#,
 587      000000
 588 04e9 8D4365   		leal	101(%ebx), %eax	#, D.2232
 589 04ec 83C364   		addl	$100, %ebx	#, D.2232
 590              	.LVL51:
 591 04ef 89442408 		movl	%eax, 8(%esp)	# D.2232,
 592 04f3 895C2404 		movl	%ebx, 4(%esp)	# D.2232,
 593 04f7 E8FCFFFF 		call	_test_assert_time_window	#
 593      FF
 594              	.LVL52:
 595 04fc 84C0     		testb	%al, %al	# D.2233
 596 04fe 75CA     		jne	.L14	#,
 597              	.LBB4:
 598              	.LBB5:
 599              		.loc 1 205 0
 600 0500 8B1D0C00 		movl	vtlist+12, %ebx	# vtlist.vt_systime, time
 600      0000
 601              	.LVL53:
GAS LISTING /tmp/ccWepkvC.s 			page 17


 602              		.loc 1 206 0
 603 0506 C70424E8 		movl	$1000, (%esp)	#,
 603      030000
 604 050d E8FCFFFF 		call	chThdSleep	#
 604      FF
 605              	.LVL54:
 606              		.loc 1 207 0
 607 0512 C7042403 		movl	$3, (%esp)	#,
 607      000000
 608 0519 8D83E903 		leal	1001(%ebx), %eax	#, D.2232
 608      0000
 609 051f 81C3E803 		addl	$1000, %ebx	#, D.2232
 609      0000
 610              	.LVL55:
 611 0525 89442408 		movl	%eax, 8(%esp)	# D.2232,
 612 0529 895C2404 		movl	%ebx, 4(%esp)	# D.2232,
 613 052d E8FCFFFF 		call	_test_assert_time_window	#
 613      FF
 614              	.LVL56:
 615 0532 84C0     		testb	%al, %al	# D.2233
 616 0534 7594     		jne	.L14	#,
 617              		.loc 1 210 0
 618 0536 8B350C00 		movl	vtlist+12, %esi	# vtlist.vt_systime, D.2232
 618      0000
 619 053c 8D5E64   		leal	100(%esi), %ebx	#, time
 620              	.LVL57:
 621              		.loc 1 212 0
 622 053f 83C665   		addl	$101, %esi	#, D.2232
 623              		.loc 1 211 0
 624 0542 891C24   		movl	%ebx, (%esp)	# time,
 625 0545 E8FCFFFF 		call	chThdSleepUntil	#
 625      FF
 626              	.LVL58:
 627              		.loc 1 212 0
 628 054a 89742408 		movl	%esi, 8(%esp)	# D.2232,
 629 054e 895C2404 		movl	%ebx, 4(%esp)	# time,
 630 0552 C7042404 		movl	$4, (%esp)	#,
 630      000000
 631 0559 E8FCFFFF 		call	_test_assert_time_window	#
 631      FF
 632              	.LVL59:
 633 055e E967FFFF 		jmp	.L14	#
 633      FF
 634              	.LBE5:
 635              	.LBE4:
 636              		.cfi_endproc
 637              	.LFE11:
 638              		.size	thd4_execute, .-thd4_execute
 639              		.globl	patternthd
 640              		.section	.rodata
 641              		.align 4
 642              		.type	patternthd, @object
 643              		.size	patternthd, 20
 644              	patternthd:
 645 0000 00000000 		.long	testthd1
 646 0004 00000000 		.long	testthd2
 647 0008 00000000 		.long	testthd3
GAS LISTING /tmp/ccWepkvC.s 			page 18


 648 000c 00000000 		.long	testthd4
 649 0010 00000000 		.long	0
 650              		.globl	testthd4
 651              		.section	.rodata.str1.1
 652              	.LC6:
 653 0010 54687265 		.string	"Threads, delays"
 653      6164732C 
 653      2064656C 
 653      61797300 
 654              		.section	.rodata
 655              		.align 4
 656              		.type	testthd4, @object
 657              		.size	testthd4, 16
 658              	testthd4:
 659              	# name:
 660 0014 10000000 		.long	.LC6
 661              	# setup:
 662 0018 00000000 		.long	0
 663              	# teardown:
 664 001c 00000000 		.long	0
 665              	# execute:
 666 0020 90040000 		.long	thd4_execute
 667              		.globl	testthd3
 668              		.section	.rodata.str1.1
 669              	.LC7:
 670 0020 54687265 		.string	"Threads, priority change"
 670      6164732C 
 670      20707269 
 670      6F726974 
 670      79206368 
 671              		.section	.rodata
 672              		.align 4
 673              		.type	testthd3, @object
 674              		.size	testthd3, 16
 675              	testthd3:
 676              	# name:
 677 0024 20000000 		.long	.LC7
 678              	# setup:
 679 0028 00000000 		.long	0
 680              	# teardown:
 681 002c 00000000 		.long	0
 682              	# execute:
 683 0030 B0020000 		.long	thd3_execute
 684              		.globl	testthd2
 685              		.section	.rodata.str1.1
 686              	.LC8:
 687 0039 54687265 		.string	"Threads, enqueuing test #2"
 687      6164732C 
 687      20656E71 
 687      75657569 
 687      6E672074 
 688              		.section	.rodata
 689              		.align 4
 690              		.type	testthd2, @object
 691              		.size	testthd2, 16
 692              	testthd2:
 693              	# name:
GAS LISTING /tmp/ccWepkvC.s 			page 19


 694 0034 39000000 		.long	.LC8
 695              	# setup:
 696 0038 00000000 		.long	0
 697              	# teardown:
 698 003c 00000000 		.long	0
 699              	# execute:
 700 0040 60010000 		.long	thd2_execute
 701              		.globl	testthd1
 702              		.section	.rodata.str1.1
 703              	.LC9:
 704 0054 54687265 		.string	"Threads, enqueuing test #1"
 704      6164732C 
 704      20656E71 
 704      75657569 
 704      6E672074 
 705              		.section	.rodata
 706              		.align 4
 707              		.type	testthd1, @object
 708              		.size	testthd1, 16
 709              	testthd1:
 710              	# name:
 711 0044 54000000 		.long	.LC9
 712              	# setup:
 713 0048 00000000 		.long	0
 714              	# teardown:
 715 004c 00000000 		.long	0
 716              	# execute:
 717 0050 00000000 		.long	thd1_execute
 718              		.text
 719              	.Letext0:
 720              		.file 2 "/usr/lib/gcc/x86_64-linux-gnu/4.8/include/stddef.h"
 721              		.file 3 "/usr/include/stdint.h"
 722              		.file 4 "../../../os/ports/GCC/SIMIA32/chtypes.h"
 723              		.file 5 "../../../os/kernel/include/chlists.h"
 724              		.file 6 "../../../os/kernel/include/chthreads.h"
 725              		.file 7 "../../../os/ports/GCC/SIMIA32/chcore.h"
 726              		.file 8 "../../../os/kernel/include/chvt.h"
 727              		.file 9 "../../../os/kernel/include/chschd.h"
 728              		.file 10 "../../../os/kernel/include/chmtx.h"
 729              		.file 11 "../../../test/test.h"
 730              		.section	.debug_info,"",@progbits
 731              	.Ldebug_info0:
 732 0000 970B0000 		.long	0xb97
 733 0004 0400     		.value	0x4
 734 0006 00000000 		.long	.Ldebug_abbrev0
 735 000a 04       		.byte	0x4
 736 000b 01       		.uleb128 0x1
 737 000c D3020000 		.long	.LASF101
 738 0010 01       		.byte	0x1
 739 0011 A5030000 		.long	.LASF102
 740 0015 87000000 		.long	.LASF103
 741 0019 00000000 		.long	.Ltext0
 742 001d 63050000 		.long	.Letext0-.Ltext0
 743 0021 00000000 		.long	.Ldebug_line0
 744 0025 02       		.uleb128 0x2
 745 0026 04       		.byte	0x4
 746 0027 05       		.byte	0x5
GAS LISTING /tmp/ccWepkvC.s 			page 20


 747 0028 696E7400 		.string	"int"
 748 002c 03       		.uleb128 0x3
 749 002d 15000000 		.long	.LASF4
 750 0031 02       		.byte	0x2
 751 0032 D4       		.byte	0xd4
 752 0033 37000000 		.long	0x37
 753 0037 04       		.uleb128 0x4
 754 0038 04       		.byte	0x4
 755 0039 07       		.byte	0x7
 756 003a 37010000 		.long	.LASF0
 757 003e 04       		.uleb128 0x4
 758 003f 04       		.byte	0x4
 759 0040 05       		.byte	0x5
 760 0041 D6000000 		.long	.LASF1
 761 0045 04       		.uleb128 0x4
 762 0046 01       		.byte	0x1
 763 0047 06       		.byte	0x6
 764 0048 64000000 		.long	.LASF2
 765 004c 04       		.uleb128 0x4
 766 004d 02       		.byte	0x2
 767 004e 05       		.byte	0x5
 768 004f 49030000 		.long	.LASF3
 769 0053 03       		.uleb128 0x3
 770 0054 BD020000 		.long	.LASF5
 771 0058 03       		.byte	0x3
 772 0059 26       		.byte	0x26
 773 005a 25000000 		.long	0x25
 774 005e 04       		.uleb128 0x4
 775 005f 08       		.byte	0x8
 776 0060 05       		.byte	0x5
 777 0061 56000000 		.long	.LASF6
 778 0065 03       		.uleb128 0x3
 779 0066 4D040000 		.long	.LASF7
 780 006a 03       		.byte	0x3
 781 006b 30       		.byte	0x30
 782 006c 70000000 		.long	0x70
 783 0070 04       		.uleb128 0x4
 784 0071 01       		.byte	0x1
 785 0072 08       		.byte	0x8
 786 0073 C5020000 		.long	.LASF8
 787 0077 04       		.uleb128 0x4
 788 0078 02       		.byte	0x2
 789 0079 07       		.byte	0x7
 790 007a 6D010000 		.long	.LASF9
 791 007e 03       		.uleb128 0x3
 792 007f 22040000 		.long	.LASF10
 793 0083 03       		.byte	0x3
 794 0084 33       		.byte	0x33
 795 0085 37000000 		.long	0x37
 796 0089 04       		.uleb128 0x4
 797 008a 08       		.byte	0x8
 798 008b 07       		.byte	0x7
 799 008c 2F000000 		.long	.LASF11
 800 0090 03       		.uleb128 0x3
 801 0091 78000000 		.long	.LASF12
 802 0095 04       		.byte	0x4
 803 0096 23       		.byte	0x23
GAS LISTING /tmp/ccWepkvC.s 			page 21


 804 0097 9B000000 		.long	0x9b
 805 009b 04       		.uleb128 0x4
 806 009c 01       		.byte	0x1
 807 009d 02       		.byte	0x2
 808 009e B7020000 		.long	.LASF13
 809 00a2 03       		.uleb128 0x3
 810 00a3 86010000 		.long	.LASF14
 811 00a7 04       		.byte	0x4
 812 00a8 24       		.byte	0x24
 813 00a9 65000000 		.long	0x65
 814 00ad 03       		.uleb128 0x3
 815 00ae DF000000 		.long	.LASF15
 816 00b2 04       		.byte	0x4
 817 00b3 25       		.byte	0x25
 818 00b4 65000000 		.long	0x65
 819 00b8 03       		.uleb128 0x3
 820 00b9 84020000 		.long	.LASF16
 821 00bd 04       		.byte	0x4
 822 00be 26       		.byte	0x26
 823 00bf 65000000 		.long	0x65
 824 00c3 03       		.uleb128 0x3
 825 00c4 BF000000 		.long	.LASF17
 826 00c8 04       		.byte	0x4
 827 00c9 27       		.byte	0x27
 828 00ca 65000000 		.long	0x65
 829 00ce 03       		.uleb128 0x3
 830 00cf A8020000 		.long	.LASF18
 831 00d3 04       		.byte	0x4
 832 00d4 28       		.byte	0x28
 833 00d5 7E000000 		.long	0x7e
 834 00d9 03       		.uleb128 0x3
 835 00da 80010000 		.long	.LASF19
 836 00de 04       		.byte	0x4
 837 00df 29       		.byte	0x29
 838 00e0 53000000 		.long	0x53
 839 00e4 03       		.uleb128 0x3
 840 00e5 9A010000 		.long	.LASF20
 841 00e9 04       		.byte	0x4
 842 00ea 2B       		.byte	0x2b
 843 00eb 7E000000 		.long	0x7e
 844 00ef 03       		.uleb128 0x3
 845 00f0 EF030000 		.long	.LASF21
 846 00f4 04       		.byte	0x4
 847 00f5 2D       		.byte	0x2d
 848 00f6 7E000000 		.long	0x7e
 849 00fa 03       		.uleb128 0x3
 850 00fb 8A030000 		.long	.LASF22
 851 00ff 05       		.byte	0x5
 852 0100 2A       		.byte	0x2a
 853 0101 05010000 		.long	0x105
 854 0105 05       		.uleb128 0x5
 855 0106 8A030000 		.long	.LASF22
 856 010a 48       		.byte	0x48
 857 010b 06       		.byte	0x6
 858 010c 5E       		.byte	0x5e
 859 010d 02020000 		.long	0x202
 860 0111 06       		.uleb128 0x6
GAS LISTING /tmp/ccWepkvC.s 			page 22


 861 0112 7B030000 		.long	.LASF23
 862 0116 06       		.byte	0x6
 863 0117 5F       		.byte	0x5f
 864 0118 23020000 		.long	0x223
 865 011c 00       		.byte	0
 866 011d 06       		.uleb128 0x6
 867 011e 99020000 		.long	.LASF24
 868 0122 06       		.byte	0x6
 869 0123 61       		.byte	0x61
 870 0124 23020000 		.long	0x223
 871 0128 04       		.byte	0x4
 872 0129 06       		.uleb128 0x6
 873 012a 4F000000 		.long	.LASF25
 874 012e 06       		.byte	0x6
 875 012f 63       		.byte	0x63
 876 0130 CE000000 		.long	0xce
 877 0134 08       		.byte	0x8
 878 0135 06       		.uleb128 0x6
 879 0136 91040000 		.long	.LASF26
 880 013a 06       		.byte	0x6
 881 013b 64       		.byte	0x64
 882 013c B1020000 		.long	0x2b1
 883 0140 0C       		.byte	0xc
 884 0141 06       		.uleb128 0x6
 885 0142 01010000 		.long	.LASF27
 886 0146 06       		.byte	0x6
 887 0147 66       		.byte	0x66
 888 0148 23020000 		.long	0x223
 889 014c 10       		.byte	0x10
 890 014d 06       		.uleb128 0x6
 891 014e 26020000 		.long	.LASF28
 892 0152 06       		.byte	0x6
 893 0153 67       		.byte	0x67
 894 0154 23020000 		.long	0x223
 895 0158 14       		.byte	0x14
 896 0159 06       		.uleb128 0x6
 897 015a 5C040000 		.long	.LASF29
 898 015e 06       		.byte	0x6
 899 015f 6E       		.byte	0x6e
 900 0160 67040000 		.long	0x467
 901 0164 18       		.byte	0x18
 902 0165 06       		.uleb128 0x6
 903 0166 53030000 		.long	.LASF30
 904 016a 06       		.byte	0x6
 905 016b 79       		.byte	0x79
 906 016c AD000000 		.long	0xad
 907 0170 1C       		.byte	0x1c
 908 0171 06       		.uleb128 0x6
 909 0172 82030000 		.long	.LASF31
 910 0176 06       		.byte	0x6
 911 0177 7D       		.byte	0x7d
 912 0178 A2000000 		.long	0xa2
 913 017c 1D       		.byte	0x1d
 914 017d 06       		.uleb128 0x6
 915 017e 36040000 		.long	.LASF32
 916 0182 06       		.byte	0x6
 917 0183 82       		.byte	0x82
GAS LISTING /tmp/ccWepkvC.s 			page 23


 918 0184 B8000000 		.long	0xb8
 919 0188 1E       		.byte	0x1e
 920 0189 06       		.uleb128 0x6
 921 018a 5B030000 		.long	.LASF33
 922 018e 06       		.byte	0x6
 923 018f 88       		.byte	0x88
 924 0190 C3000000 		.long	0xc3
 925 0194 1F       		.byte	0x1f
 926 0195 06       		.uleb128 0x6
 927 0196 0D040000 		.long	.LASF34
 928 019a 06       		.byte	0x6
 929 019b 8F       		.byte	0x8f
 930 019c 84030000 		.long	0x384
 931 01a0 20       		.byte	0x20
 932 01a1 07       		.uleb128 0x7
 933 01a2 705F7500 		.string	"p_u"
 934 01a6 06       		.byte	0x6
 935 01a7 B4       		.byte	0xb4
 936 01a8 32040000 		.long	0x432
 937 01ac 24       		.byte	0x24
 938 01ad 06       		.uleb128 0x6
 939 01ae 97040000 		.long	.LASF35
 940 01b2 06       		.byte	0x6
 941 01b3 B9       		.byte	0xb9
 942 01b4 49020000 		.long	0x249
 943 01b8 28       		.byte	0x28
 944 01b9 06       		.uleb128 0x6
 945 01ba 4C010000 		.long	.LASF36
 946 01be 06       		.byte	0x6
 947 01bf BF       		.byte	0xbf
 948 01c0 29020000 		.long	0x229
 949 01c4 2C       		.byte	0x2c
 950 01c5 06       		.uleb128 0x6
 951 01c6 08000000 		.long	.LASF37
 952 01ca 06       		.byte	0x6
 953 01cb C3       		.byte	0xc3
 954 01cc D9000000 		.long	0xd9
 955 01d0 34       		.byte	0x34
 956 01d1 06       		.uleb128 0x6
 957 01d2 9A030000 		.long	.LASF38
 958 01d6 06       		.byte	0x6
 959 01d7 C9       		.byte	0xc9
 960 01d8 E4000000 		.long	0xe4
 961 01dc 38       		.byte	0x38
 962 01dd 06       		.uleb128 0x6
 963 01de 3F030000 		.long	.LASF39
 964 01e2 06       		.byte	0x6
 965 01e3 D0       		.byte	0xd0
 966 01e4 79040000 		.long	0x479
 967 01e8 3C       		.byte	0x3c
 968 01e9 06       		.uleb128 0x6
 969 01ea F9030000 		.long	.LASF40
 970 01ee 06       		.byte	0x6
 971 01ef D4       		.byte	0xd4
 972 01f0 CE000000 		.long	0xce
 973 01f4 40       		.byte	0x40
 974 01f5 06       		.uleb128 0x6
GAS LISTING /tmp/ccWepkvC.s 			page 24


 975 01f6 70000000 		.long	.LASF41
 976 01fa 06       		.byte	0x6
 977 01fb DA       		.byte	0xda
 978 01fc 66020000 		.long	0x266
 979 0200 44       		.byte	0x44
 980 0201 00       		.byte	0
 981 0202 08       		.uleb128 0x8
 982 0203 08       		.byte	0x8
 983 0204 05       		.byte	0x5
 984 0205 61       		.byte	0x61
 985 0206 23020000 		.long	0x223
 986 020a 06       		.uleb128 0x6
 987 020b 7B030000 		.long	.LASF23
 988 020f 05       		.byte	0x5
 989 0210 62       		.byte	0x62
 990 0211 23020000 		.long	0x223
 991 0215 00       		.byte	0
 992 0216 06       		.uleb128 0x6
 993 0217 99020000 		.long	.LASF24
 994 021b 05       		.byte	0x5
 995 021c 64       		.byte	0x64
 996 021d 23020000 		.long	0x223
 997 0221 04       		.byte	0x4
 998 0222 00       		.byte	0
 999 0223 09       		.uleb128 0x9
 1000 0224 04       		.byte	0x4
 1001 0225 FA000000 		.long	0xfa
 1002 0229 03       		.uleb128 0x3
 1003 022a 34020000 		.long	.LASF42
 1004 022e 05       		.byte	0x5
 1005 022f 66       		.byte	0x66
 1006 0230 02020000 		.long	0x202
 1007 0234 08       		.uleb128 0x8
 1008 0235 04       		.byte	0x4
 1009 0236 05       		.byte	0x5
 1010 0237 6B       		.byte	0x6b
 1011 0238 49020000 		.long	0x249
 1012 023c 06       		.uleb128 0x6
 1013 023d 7B030000 		.long	.LASF23
 1014 0241 05       		.byte	0x5
 1015 0242 6D       		.byte	0x6d
 1016 0243 23020000 		.long	0x223
 1017 0247 00       		.byte	0
 1018 0248 00       		.byte	0
 1019 0249 03       		.uleb128 0x3
 1020 024a 8E010000 		.long	.LASF43
 1021 024e 05       		.byte	0x5
 1022 024f 70       		.byte	0x70
 1023 0250 34020000 		.long	0x234
 1024 0254 04       		.uleb128 0x4
 1025 0255 04       		.byte	0x4
 1026 0256 07       		.byte	0x7
 1027 0257 D3010000 		.long	.LASF44
 1028 025b 03       		.uleb128 0x3
 1029 025c 7B040000 		.long	.LASF45
 1030 0260 07       		.byte	0x7
 1031 0261 4B       		.byte	0x4b
GAS LISTING /tmp/ccWepkvC.s 			page 25


 1032 0262 66020000 		.long	0x266
 1033 0266 0A       		.uleb128 0xa
 1034 0267 04       		.byte	0x4
 1035 0268 05       		.uleb128 0x5
 1036 0269 14040000 		.long	.LASF46
 1037 026d 14       		.byte	0x14
 1038 026e 07       		.byte	0x7
 1039 026f 59       		.byte	0x59
 1040 0270 B1020000 		.long	0x2b1
 1041 0274 07       		.uleb128 0x7
 1042 0275 65627800 		.string	"ebx"
 1043 0279 07       		.byte	0x7
 1044 027a 5A       		.byte	0x5a
 1045 027b 5B020000 		.long	0x25b
 1046 027f 00       		.byte	0
 1047 0280 07       		.uleb128 0x7
 1048 0281 65646900 		.string	"edi"
 1049 0285 07       		.byte	0x7
 1050 0286 5B       		.byte	0x5b
 1051 0287 5B020000 		.long	0x25b
 1052 028b 04       		.byte	0x4
 1053 028c 07       		.uleb128 0x7
 1054 028d 65736900 		.string	"esi"
 1055 0291 07       		.byte	0x7
 1056 0292 5C       		.byte	0x5c
 1057 0293 5B020000 		.long	0x25b
 1058 0297 08       		.byte	0x8
 1059 0298 07       		.uleb128 0x7
 1060 0299 65627000 		.string	"ebp"
 1061 029d 07       		.byte	0x7
 1062 029e 5D       		.byte	0x5d
 1063 029f 5B020000 		.long	0x25b
 1064 02a3 0C       		.byte	0xc
 1065 02a4 07       		.uleb128 0x7
 1066 02a5 65697000 		.string	"eip"
 1067 02a9 07       		.byte	0x7
 1068 02aa 5E       		.byte	0x5e
 1069 02ab 5B020000 		.long	0x25b
 1070 02af 10       		.byte	0x10
 1071 02b0 00       		.byte	0
 1072 02b1 05       		.uleb128 0x5
 1073 02b2 65010000 		.long	.LASF47
 1074 02b6 04       		.byte	0x4
 1075 02b7 07       		.byte	0x7
 1076 02b8 66       		.byte	0x66
 1077 02b9 CA020000 		.long	0x2ca
 1078 02bd 07       		.uleb128 0x7
 1079 02be 65737000 		.string	"esp"
 1080 02c2 07       		.byte	0x7
 1081 02c3 67       		.byte	0x67
 1082 02c4 CA020000 		.long	0x2ca
 1083 02c8 00       		.byte	0
 1084 02c9 00       		.byte	0
 1085 02ca 09       		.uleb128 0x9
 1086 02cb 04       		.byte	0x4
 1087 02cc D0020000 		.long	0x2d0
 1088 02d0 0B       		.uleb128 0xb
GAS LISTING /tmp/ccWepkvC.s 			page 26


 1089 02d1 68020000 		.long	0x268
 1090 02d5 03       		.uleb128 0x3
 1091 02d6 04040000 		.long	.LASF48
 1092 02da 08       		.byte	0x8
 1093 02db 58       		.byte	0x58
 1094 02dc E0020000 		.long	0x2e0
 1095 02e0 09       		.uleb128 0x9
 1096 02e1 04       		.byte	0x4
 1097 02e2 E6020000 		.long	0x2e6
 1098 02e6 0C       		.uleb128 0xc
 1099 02e7 F1020000 		.long	0x2f1
 1100 02eb 0D       		.uleb128 0xd
 1101 02ec 66020000 		.long	0x266
 1102 02f0 00       		.byte	0
 1103 02f1 03       		.uleb128 0x3
 1104 02f2 C5030000 		.long	.LASF49
 1105 02f6 08       		.byte	0x8
 1106 02f7 5D       		.byte	0x5d
 1107 02f8 FC020000 		.long	0x2fc
 1108 02fc 05       		.uleb128 0x5
 1109 02fd C5030000 		.long	.LASF49
 1110 0301 14       		.byte	0x14
 1111 0302 08       		.byte	0x8
 1112 0303 64       		.byte	0x64
 1113 0304 45030000 		.long	0x345
 1114 0308 06       		.uleb128 0x6
 1115 0309 44010000 		.long	.LASF50
 1116 030d 08       		.byte	0x8
 1117 030e 65       		.byte	0x65
 1118 030f 45030000 		.long	0x345
 1119 0313 00       		.byte	0
 1120 0314 06       		.uleb128 0x6
 1121 0315 22010000 		.long	.LASF51
 1122 0319 08       		.byte	0x8
 1123 031a 67       		.byte	0x67
 1124 031b 45030000 		.long	0x345
 1125 031f 04       		.byte	0x4
 1126 0320 06       		.uleb128 0x6
 1127 0321 CB010000 		.long	.LASF52
 1128 0325 08       		.byte	0x8
 1129 0326 69       		.byte	0x69
 1130 0327 EF000000 		.long	0xef
 1131 032b 08       		.byte	0x8
 1132 032c 06       		.uleb128 0x6
 1133 032d 00020000 		.long	.LASF53
 1134 0331 08       		.byte	0x8
 1135 0332 6A       		.byte	0x6a
 1136 0333 D5020000 		.long	0x2d5
 1137 0337 0C       		.byte	0xc
 1138 0338 06       		.uleb128 0x6
 1139 0339 1B040000 		.long	.LASF54
 1140 033d 08       		.byte	0x8
 1141 033e 6C       		.byte	0x6c
 1142 033f 66020000 		.long	0x266
 1143 0343 10       		.byte	0x10
 1144 0344 00       		.byte	0
 1145 0345 09       		.uleb128 0x9
GAS LISTING /tmp/ccWepkvC.s 			page 27


 1146 0346 04       		.byte	0x4
 1147 0347 F1020000 		.long	0x2f1
 1148 034b 08       		.uleb128 0x8
 1149 034c 10       		.byte	0x10
 1150 034d 08       		.byte	0x8
 1151 034e 76       		.byte	0x76
 1152 034f 84030000 		.long	0x384
 1153 0353 06       		.uleb128 0x6
 1154 0354 44010000 		.long	.LASF50
 1155 0358 08       		.byte	0x8
 1156 0359 77       		.byte	0x77
 1157 035a 45030000 		.long	0x345
 1158 035e 00       		.byte	0
 1159 035f 06       		.uleb128 0x6
 1160 0360 22010000 		.long	.LASF51
 1161 0364 08       		.byte	0x8
 1162 0365 79       		.byte	0x79
 1163 0366 45030000 		.long	0x345
 1164 036a 04       		.byte	0x4
 1165 036b 06       		.uleb128 0x6
 1166 036c CB010000 		.long	.LASF52
 1167 0370 08       		.byte	0x8
 1168 0371 7B       		.byte	0x7b
 1169 0372 EF000000 		.long	0xef
 1170 0376 08       		.byte	0x8
 1171 0377 06       		.uleb128 0x6
 1172 0378 70040000 		.long	.LASF55
 1173 037c 08       		.byte	0x8
 1174 037d 7C       		.byte	0x7c
 1175 037e 84030000 		.long	0x384
 1176 0382 0C       		.byte	0xc
 1177 0383 00       		.byte	0
 1178 0384 0B       		.uleb128 0xb
 1179 0385 EF000000 		.long	0xef
 1180 0389 03       		.uleb128 0x3
 1181 038a 82040000 		.long	.LASF56
 1182 038e 08       		.byte	0x8
 1183 038f 7D       		.byte	0x7d
 1184 0390 4B030000 		.long	0x34b
 1185 0394 08       		.uleb128 0x8
 1186 0395 1C       		.byte	0x1c
 1187 0396 09       		.byte	0x9
 1188 0397 5E       		.byte	0x5e
 1189 0398 E5030000 		.long	0x3e5
 1190 039c 06       		.uleb128 0x6
 1191 039d BD030000 		.long	.LASF57
 1192 03a1 09       		.byte	0x9
 1193 03a2 5F       		.byte	0x5f
 1194 03a3 29020000 		.long	0x229
 1195 03a7 00       		.byte	0
 1196 03a8 06       		.uleb128 0x6
 1197 03a9 6D030000 		.long	.LASF58
 1198 03ad 09       		.byte	0x9
 1199 03ae 60       		.byte	0x60
 1200 03af CE000000 		.long	0xce
 1201 03b3 08       		.byte	0x8
 1202 03b4 06       		.uleb128 0x6
GAS LISTING /tmp/ccWepkvC.s 			page 28


 1203 03b5 2E020000 		.long	.LASF59
 1204 03b9 09       		.byte	0x9
 1205 03ba 62       		.byte	0x62
 1206 03bb B1020000 		.long	0x2b1
 1207 03bf 0C       		.byte	0xc
 1208 03c0 06       		.uleb128 0x6
 1209 03c1 1A010000 		.long	.LASF60
 1210 03c5 09       		.byte	0x9
 1211 03c6 65       		.byte	0x65
 1212 03c7 23020000 		.long	0x223
 1213 03cb 10       		.byte	0x10
 1214 03cc 06       		.uleb128 0x6
 1215 03cd 6C020000 		.long	.LASF61
 1216 03d1 09       		.byte	0x9
 1217 03d2 66       		.byte	0x66
 1218 03d3 23020000 		.long	0x223
 1219 03d7 14       		.byte	0x14
 1220 03d8 06       		.uleb128 0x6
 1221 03d9 62020000 		.long	.LASF62
 1222 03dd 09       		.byte	0x9
 1223 03de 69       		.byte	0x69
 1224 03df 23020000 		.long	0x223
 1225 03e3 18       		.byte	0x18
 1226 03e4 00       		.byte	0
 1227 03e5 03       		.uleb128 0x3
 1228 03e6 3D040000 		.long	.LASF63
 1229 03ea 09       		.byte	0x9
 1230 03eb 6B       		.byte	0x6b
 1231 03ec 94030000 		.long	0x394
 1232 03f0 05       		.uleb128 0x5
 1233 03f1 A6010000 		.long	.LASF64
 1234 03f5 10       		.byte	0x10
 1235 03f6 0A       		.byte	0xa
 1236 03f7 2C       		.byte	0x2c
 1237 03f8 21040000 		.long	0x421
 1238 03fc 06       		.uleb128 0x6
 1239 03fd 7F000000 		.long	.LASF65
 1240 0401 0A       		.byte	0xa
 1241 0402 2D       		.byte	0x2d
 1242 0403 29020000 		.long	0x229
 1243 0407 00       		.byte	0
 1244 0408 06       		.uleb128 0x6
 1245 0409 89040000 		.long	.LASF66
 1246 040d 0A       		.byte	0xa
 1247 040e 2F       		.byte	0x2f
 1248 040f 23020000 		.long	0x223
 1249 0413 08       		.byte	0x8
 1250 0414 06       		.uleb128 0x6
 1251 0415 0E000000 		.long	.LASF67
 1252 0419 0A       		.byte	0xa
 1253 041a 31       		.byte	0x31
 1254 041b 21040000 		.long	0x421
 1255 041f 0C       		.byte	0xc
 1256 0420 00       		.byte	0
 1257 0421 09       		.uleb128 0x9
 1258 0422 04       		.byte	0x4
 1259 0423 F0030000 		.long	0x3f0
GAS LISTING /tmp/ccWepkvC.s 			page 29


 1260 0427 03       		.uleb128 0x3
 1261 0428 A6010000 		.long	.LASF64
 1262 042c 0A       		.byte	0xa
 1263 042d 33       		.byte	0x33
 1264 042e F0030000 		.long	0x3f0
 1265 0432 0E       		.uleb128 0xe
 1266 0433 04       		.byte	0x4
 1267 0434 06       		.byte	0x6
 1268 0435 96       		.byte	0x96
 1269 0436 67040000 		.long	0x467
 1270 043a 0F       		.uleb128 0xf
 1271 043b 21000000 		.long	.LASF68
 1272 043f 06       		.byte	0x6
 1273 0440 9D       		.byte	0x9d
 1274 0441 D9000000 		.long	0xd9
 1275 0445 0F       		.uleb128 0xf
 1276 0446 46000000 		.long	.LASF69
 1277 044a 06       		.byte	0x6
 1278 044b A4       		.byte	0xa4
 1279 044c D9000000 		.long	0xd9
 1280 0450 0F       		.uleb128 0xf
 1281 0451 55040000 		.long	.LASF70
 1282 0455 06       		.byte	0x6
 1283 0456 AB       		.byte	0xab
 1284 0457 66020000 		.long	0x266
 1285 045b 0F       		.uleb128 0xf
 1286 045c 74030000 		.long	.LASF71
 1287 0460 06       		.byte	0x6
 1288 0461 B2       		.byte	0xb2
 1289 0462 E4000000 		.long	0xe4
 1290 0466 00       		.byte	0
 1291 0467 09       		.uleb128 0x9
 1292 0468 04       		.byte	0x4
 1293 0469 6D040000 		.long	0x46d
 1294 046d 10       		.uleb128 0x10
 1295 046e 72040000 		.long	0x472
 1296 0472 04       		.uleb128 0x4
 1297 0473 01       		.byte	0x1
 1298 0474 06       		.byte	0x6
 1299 0475 D2030000 		.long	.LASF72
 1300 0479 09       		.uleb128 0x9
 1301 047a 04       		.byte	0x4
 1302 047b 27040000 		.long	0x427
 1303 047f 03       		.uleb128 0x3
 1304 0480 00000000 		.long	.LASF73
 1305 0484 06       		.byte	0x6
 1306 0485 E5       		.byte	0xe5
 1307 0486 8A040000 		.long	0x48a
 1308 048a 09       		.uleb128 0x9
 1309 048b 04       		.byte	0x4
 1310 048c 90040000 		.long	0x490
 1311 0490 11       		.uleb128 0x11
 1312 0491 D9000000 		.long	0xd9
 1313 0495 9F040000 		.long	0x49f
 1314 0499 0D       		.uleb128 0xd
 1315 049a 66020000 		.long	0x266
 1316 049e 00       		.byte	0
GAS LISTING /tmp/ccWepkvC.s 			page 30


 1317 049f 05       		.uleb128 0x5
 1318 04a0 91030000 		.long	.LASF74
 1319 04a4 10       		.byte	0x10
 1320 04a5 0B       		.byte	0xb
 1321 04a6 3B       		.byte	0x3b
 1322 04a7 DC040000 		.long	0x4dc
 1323 04ab 06       		.uleb128 0x6
 1324 04ac 60010000 		.long	.LASF75
 1325 04b0 0B       		.byte	0xb
 1326 04b1 3C       		.byte	0x3c
 1327 04b2 67040000 		.long	0x467
 1328 04b6 00       		.byte	0
 1329 04b7 06       		.uleb128 0x6
 1330 04b8 41020000 		.long	.LASF76
 1331 04bc 0B       		.byte	0xb
 1332 04bd 3D       		.byte	0x3d
 1333 04be DD040000 		.long	0x4dd
 1334 04c2 04       		.byte	0x4
 1335 04c3 06       		.uleb128 0x6
 1336 04c4 57010000 		.long	.LASF77
 1337 04c8 0B       		.byte	0xb
 1338 04c9 3E       		.byte	0x3e
 1339 04ca DD040000 		.long	0x4dd
 1340 04ce 08       		.byte	0x8
 1341 04cf 06       		.uleb128 0x6
 1342 04d0 A0020000 		.long	.LASF78
 1343 04d4 0B       		.byte	0xb
 1344 04d5 3F       		.byte	0x3f
 1345 04d6 DD040000 		.long	0x4dd
 1346 04da 0C       		.byte	0xc
 1347 04db 00       		.byte	0
 1348 04dc 12       		.uleb128 0x12
 1349 04dd 09       		.uleb128 0x9
 1350 04de 04       		.byte	0x4
 1351 04df DC040000 		.long	0x4dc
 1352 04e3 13       		.uleb128 0x13
 1353 04e4 D7030000 		.long	.LASF104
 1354 04e8 01       		.byte	0x1
 1355 04e9 BD       		.byte	0xbd
 1356 04ea 01       		.byte	0x1
 1357 04eb FB040000 		.long	0x4fb
 1358 04ef 14       		.uleb128 0x14
 1359 04f0 5D020000 		.long	.LASF105
 1360 04f4 01       		.byte	0x1
 1361 04f5 BE       		.byte	0xbe
 1362 04f6 EF000000 		.long	0xef
 1363 04fa 00       		.byte	0
 1364 04fb 15       		.uleb128 0x15
 1365 04fc 2A010000 		.long	.LASF79
 1366 0500 01       		.byte	0x1
 1367 0501 42       		.byte	0x42
 1368 0502 00000000 		.long	.LFB8
 1369 0506 3D010000 		.long	.LFE8-.LFB8
 1370 050a 01       		.uleb128 0x1
 1371 050b 9C       		.byte	0x9c
 1372 050c 06060000 		.long	0x606
 1373 0510 16       		.uleb128 0x16
GAS LISTING /tmp/ccWepkvC.s 			page 31


 1374 0511 37000000 		.long	.LVL0
 1375 0515 7A0A0000 		.long	0xa7a
 1376 0519 3A050000 		.long	0x53a
 1377 051d 17       		.uleb128 0x17
 1378 051e 02       		.uleb128 0x2
 1379 051f 74       		.byte	0x74
 1380 0520 04       		.sleb128 4
 1381 0521 03       		.uleb128 0x3
 1382 0522 0A       		.byte	0xa
 1383 0523 7042     		.value	0x4270
 1384 0525 17       		.uleb128 0x17
 1385 0526 02       		.uleb128 0x2
 1386 0527 74       		.byte	0x74
 1387 0528 0C       		.sleb128 12
 1388 0529 05       		.uleb128 0x5
 1389 052a 03       		.byte	0x3
 1390 052b 40010000 		.long	thread
 1391 052f 17       		.uleb128 0x17
 1392 0530 02       		.uleb128 0x2
 1393 0531 74       		.byte	0x74
 1394 0532 10       		.sleb128 16
 1395 0533 05       		.uleb128 0x5
 1396 0534 03       		.byte	0x3
 1397 0535 00000000 		.long	.LC0
 1398 0539 00       		.byte	0
 1399 053a 16       		.uleb128 0x16
 1400 053b 70000000 		.long	.LVL1
 1401 053f 7A0A0000 		.long	0xa7a
 1402 0543 64050000 		.long	0x564
 1403 0547 17       		.uleb128 0x17
 1404 0548 02       		.uleb128 0x2
 1405 0549 74       		.byte	0x74
 1406 054a 04       		.sleb128 4
 1407 054b 03       		.uleb128 0x3
 1408 054c 0A       		.byte	0xa
 1409 054d 7042     		.value	0x4270
 1410 054f 17       		.uleb128 0x17
 1411 0550 02       		.uleb128 0x2
 1412 0551 74       		.byte	0x74
 1413 0552 0C       		.sleb128 12
 1414 0553 05       		.uleb128 0x5
 1415 0554 03       		.byte	0x3
 1416 0555 40010000 		.long	thread
 1417 0559 17       		.uleb128 0x17
 1418 055a 02       		.uleb128 0x2
 1419 055b 74       		.byte	0x74
 1420 055c 10       		.sleb128 16
 1421 055d 05       		.uleb128 0x5
 1422 055e 03       		.byte	0x3
 1423 055f 02000000 		.long	.LC1
 1424 0563 00       		.byte	0
 1425 0564 16       		.uleb128 0x16
 1426 0565 A9000000 		.long	.LVL2
 1427 0569 7A0A0000 		.long	0xa7a
 1428 056d 8E050000 		.long	0x58e
 1429 0571 17       		.uleb128 0x17
 1430 0572 02       		.uleb128 0x2
GAS LISTING /tmp/ccWepkvC.s 			page 32


 1431 0573 74       		.byte	0x74
 1432 0574 04       		.sleb128 4
 1433 0575 03       		.uleb128 0x3
 1434 0576 0A       		.byte	0xa
 1435 0577 7042     		.value	0x4270
 1436 0579 17       		.uleb128 0x17
 1437 057a 02       		.uleb128 0x2
 1438 057b 74       		.byte	0x74
 1439 057c 0C       		.sleb128 12
 1440 057d 05       		.uleb128 0x5
 1441 057e 03       		.byte	0x3
 1442 057f 40010000 		.long	thread
 1443 0583 17       		.uleb128 0x17
 1444 0584 02       		.uleb128 0x2
 1445 0585 74       		.byte	0x74
 1446 0586 10       		.sleb128 16
 1447 0587 05       		.uleb128 0x5
 1448 0588 03       		.byte	0x3
 1449 0589 04000000 		.long	.LC2
 1450 058d 00       		.byte	0
 1451 058e 16       		.uleb128 0x16
 1452 058f E2000000 		.long	.LVL3
 1453 0593 7A0A0000 		.long	0xa7a
 1454 0597 B8050000 		.long	0x5b8
 1455 059b 17       		.uleb128 0x17
 1456 059c 02       		.uleb128 0x2
 1457 059d 74       		.byte	0x74
 1458 059e 04       		.sleb128 4
 1459 059f 03       		.uleb128 0x3
 1460 05a0 0A       		.byte	0xa
 1461 05a1 7042     		.value	0x4270
 1462 05a3 17       		.uleb128 0x17
 1463 05a4 02       		.uleb128 0x2
 1464 05a5 74       		.byte	0x74
 1465 05a6 0C       		.sleb128 12
 1466 05a7 05       		.uleb128 0x5
 1467 05a8 03       		.byte	0x3
 1468 05a9 40010000 		.long	thread
 1469 05ad 17       		.uleb128 0x17
 1470 05ae 02       		.uleb128 0x2
 1471 05af 74       		.byte	0x74
 1472 05b0 10       		.sleb128 16
 1473 05b1 05       		.uleb128 0x5
 1474 05b2 03       		.byte	0x3
 1475 05b3 06000000 		.long	.LC3
 1476 05b7 00       		.byte	0
 1477 05b8 16       		.uleb128 0x16
 1478 05b9 1B010000 		.long	.LVL4
 1479 05bd 7A0A0000 		.long	0xa7a
 1480 05c1 E2050000 		.long	0x5e2
 1481 05c5 17       		.uleb128 0x17
 1482 05c6 02       		.uleb128 0x2
 1483 05c7 74       		.byte	0x74
 1484 05c8 04       		.sleb128 4
 1485 05c9 03       		.uleb128 0x3
 1486 05ca 0A       		.byte	0xa
 1487 05cb 7042     		.value	0x4270
GAS LISTING /tmp/ccWepkvC.s 			page 33


 1488 05cd 17       		.uleb128 0x17
 1489 05ce 02       		.uleb128 0x2
 1490 05cf 74       		.byte	0x74
 1491 05d0 0C       		.sleb128 12
 1492 05d1 05       		.uleb128 0x5
 1493 05d2 03       		.byte	0x3
 1494 05d3 40010000 		.long	thread
 1495 05d7 17       		.uleb128 0x17
 1496 05d8 02       		.uleb128 0x2
 1497 05d9 74       		.byte	0x74
 1498 05da 10       		.sleb128 16
 1499 05db 05       		.uleb128 0x5
 1500 05dc 03       		.byte	0x3
 1501 05dd 08000000 		.long	.LC4
 1502 05e1 00       		.byte	0
 1503 05e2 18       		.uleb128 0x18
 1504 05e3 25010000 		.long	.LVL5
 1505 05e7 A40A0000 		.long	0xaa4
 1506 05eb 19       		.uleb128 0x19
 1507 05ec 39010000 		.long	.LVL6
 1508 05f0 AB0A0000 		.long	0xaab
 1509 05f4 17       		.uleb128 0x17
 1510 05f5 02       		.uleb128 0x2
 1511 05f6 74       		.byte	0x74
 1512 05f7 00       		.sleb128 0
 1513 05f8 01       		.uleb128 0x1
 1514 05f9 31       		.byte	0x31
 1515 05fa 17       		.uleb128 0x17
 1516 05fb 02       		.uleb128 0x2
 1517 05fc 74       		.byte	0x74
 1518 05fd 04       		.sleb128 4
 1519 05fe 05       		.uleb128 0x5
 1520 05ff 03       		.byte	0x3
 1521 0600 0A000000 		.long	.LC5
 1522 0604 00       		.byte	0
 1523 0605 00       		.byte	0
 1524 0606 1A       		.uleb128 0x1a
 1525 0607 B0020000 		.long	.LASF106
 1526 060b 01       		.byte	0x1
 1527 060c 3C       		.byte	0x3c
 1528 060d D9000000 		.long	0xd9
 1529 0611 40010000 		.long	.LFB7
 1530 0615 18000000 		.long	.LFE7-.LFB7
 1531 0619 01       		.uleb128 0x1
 1532 061a 9C       		.byte	0x9c
 1533 061b 35060000 		.long	0x635
 1534 061f 1B       		.uleb128 0x1b
 1535 0620 7000     		.string	"p"
 1536 0622 01       		.byte	0x1
 1537 0623 3C       		.byte	0x3c
 1538 0624 66020000 		.long	0x266
 1539 0628 02       		.uleb128 0x2
 1540 0629 91       		.byte	0x91
 1541 062a 00       		.sleb128 0
 1542 062b 18       		.uleb128 0x18
 1543 062c 52010000 		.long	.LVL8
 1544 0630 CB0A0000 		.long	0xacb
GAS LISTING /tmp/ccWepkvC.s 			page 34


 1545 0634 00       		.byte	0
 1546 0635 15       		.uleb128 0x15
 1547 0636 AC010000 		.long	.LASF80
 1548 063a 01       		.byte	0x1
 1549 063b 5E       		.byte	0x5e
 1550 063c 60010000 		.long	.LFB9
 1551 0640 47010000 		.long	.LFE9-.LFB9
 1552 0644 01       		.uleb128 0x1
 1553 0645 9C       		.byte	0x9c
 1554 0646 49070000 		.long	0x749
 1555 064a 16       		.uleb128 0x16
 1556 064b 97010000 		.long	.LVL9
 1557 064f 7A0A0000 		.long	0xa7a
 1558 0653 74060000 		.long	0x674
 1559 0657 17       		.uleb128 0x17
 1560 0658 02       		.uleb128 0x2
 1561 0659 74       		.byte	0x74
 1562 065a 04       		.sleb128 4
 1563 065b 03       		.uleb128 0x3
 1564 065c 0A       		.byte	0xa
 1565 065d 7042     		.value	0x4270
 1566 065f 17       		.uleb128 0x17
 1567 0660 02       		.uleb128 0x2
 1568 0661 74       		.byte	0x74
 1569 0662 0C       		.sleb128 12
 1570 0663 05       		.uleb128 0x5
 1571 0664 03       		.byte	0x3
 1572 0665 40010000 		.long	thread
 1573 0669 17       		.uleb128 0x17
 1574 066a 02       		.uleb128 0x2
 1575 066b 74       		.byte	0x74
 1576 066c 10       		.sleb128 16
 1577 066d 05       		.uleb128 0x5
 1578 066e 03       		.byte	0x3
 1579 066f 02000000 		.long	.LC1
 1580 0673 00       		.byte	0
 1581 0674 16       		.uleb128 0x16
 1582 0675 D0010000 		.long	.LVL10
 1583 0679 7A0A0000 		.long	0xa7a
 1584 067d 9E060000 		.long	0x69e
 1585 0681 17       		.uleb128 0x17
 1586 0682 02       		.uleb128 0x2
 1587 0683 74       		.byte	0x74
 1588 0684 04       		.sleb128 4
 1589 0685 03       		.uleb128 0x3
 1590 0686 0A       		.byte	0xa
 1591 0687 7042     		.value	0x4270
 1592 0689 17       		.uleb128 0x17
 1593 068a 02       		.uleb128 0x2
 1594 068b 74       		.byte	0x74
 1595 068c 0C       		.sleb128 12
 1596 068d 05       		.uleb128 0x5
 1597 068e 03       		.byte	0x3
 1598 068f 40010000 		.long	thread
 1599 0693 17       		.uleb128 0x17
 1600 0694 02       		.uleb128 0x2
 1601 0695 74       		.byte	0x74
GAS LISTING /tmp/ccWepkvC.s 			page 35


 1602 0696 10       		.sleb128 16
 1603 0697 05       		.uleb128 0x5
 1604 0698 03       		.byte	0x3
 1605 0699 00000000 		.long	.LC0
 1606 069d 00       		.byte	0
 1607 069e 16       		.uleb128 0x16
 1608 069f 09020000 		.long	.LVL11
 1609 06a3 7A0A0000 		.long	0xa7a
 1610 06a7 C8060000 		.long	0x6c8
 1611 06ab 17       		.uleb128 0x17
 1612 06ac 02       		.uleb128 0x2
 1613 06ad 74       		.byte	0x74
 1614 06ae 04       		.sleb128 4
 1615 06af 03       		.uleb128 0x3
 1616 06b0 0A       		.byte	0xa
 1617 06b1 7042     		.value	0x4270
 1618 06b3 17       		.uleb128 0x17
 1619 06b4 02       		.uleb128 0x2
 1620 06b5 74       		.byte	0x74
 1621 06b6 0C       		.sleb128 12
 1622 06b7 05       		.uleb128 0x5
 1623 06b8 03       		.byte	0x3
 1624 06b9 40010000 		.long	thread
 1625 06bd 17       		.uleb128 0x17
 1626 06be 02       		.uleb128 0x2
 1627 06bf 74       		.byte	0x74
 1628 06c0 10       		.sleb128 16
 1629 06c1 05       		.uleb128 0x5
 1630 06c2 03       		.byte	0x3
 1631 06c3 08000000 		.long	.LC4
 1632 06c7 00       		.byte	0
 1633 06c8 16       		.uleb128 0x16
 1634 06c9 42020000 		.long	.LVL12
 1635 06cd 7A0A0000 		.long	0xa7a
 1636 06d1 F2060000 		.long	0x6f2
 1637 06d5 17       		.uleb128 0x17
 1638 06d6 02       		.uleb128 0x2
 1639 06d7 74       		.byte	0x74
 1640 06d8 04       		.sleb128 4
 1641 06d9 03       		.uleb128 0x3
 1642 06da 0A       		.byte	0xa
 1643 06db 7042     		.value	0x4270
 1644 06dd 17       		.uleb128 0x17
 1645 06de 02       		.uleb128 0x2
 1646 06df 74       		.byte	0x74
 1647 06e0 0C       		.sleb128 12
 1648 06e1 05       		.uleb128 0x5
 1649 06e2 03       		.byte	0x3
 1650 06e3 40010000 		.long	thread
 1651 06e7 17       		.uleb128 0x17
 1652 06e8 02       		.uleb128 0x2
 1653 06e9 74       		.byte	0x74
 1654 06ea 10       		.sleb128 16
 1655 06eb 05       		.uleb128 0x5
 1656 06ec 03       		.byte	0x3
 1657 06ed 06000000 		.long	.LC3
 1658 06f1 00       		.byte	0
GAS LISTING /tmp/ccWepkvC.s 			page 36


 1659 06f2 16       		.uleb128 0x16
 1660 06f3 7C020000 		.long	.LVL13
 1661 06f7 DC0A0000 		.long	0xadc
 1662 06fb 1C070000 		.long	0x71c
 1663 06ff 17       		.uleb128 0x17
 1664 0700 02       		.uleb128 0x2
 1665 0701 74       		.byte	0x74
 1666 0702 04       		.sleb128 4
 1667 0703 03       		.uleb128 0x3
 1668 0704 0A       		.byte	0xa
 1669 0705 7042     		.value	0x4270
 1670 0707 17       		.uleb128 0x17
 1671 0708 02       		.uleb128 0x2
 1672 0709 74       		.byte	0x74
 1673 070a 0C       		.sleb128 12
 1674 070b 05       		.uleb128 0x5
 1675 070c 03       		.byte	0x3
 1676 070d 40010000 		.long	thread
 1677 0711 17       		.uleb128 0x17
 1678 0712 02       		.uleb128 0x2
 1679 0713 74       		.byte	0x74
 1680 0714 10       		.sleb128 16
 1681 0715 05       		.uleb128 0x5
 1682 0716 03       		.byte	0x3
 1683 0717 04000000 		.long	.LC2
 1684 071b 00       		.byte	0
 1685 071c 18       		.uleb128 0x18
 1686 071d 8A020000 		.long	.LVL14
 1687 0721 060B0000 		.long	0xb06
 1688 0725 18       		.uleb128 0x18
 1689 0726 8F020000 		.long	.LVL15
 1690 072a A40A0000 		.long	0xaa4
 1691 072e 19       		.uleb128 0x19
 1692 072f A3020000 		.long	.LVL16
 1693 0733 AB0A0000 		.long	0xaab
 1694 0737 17       		.uleb128 0x17
 1695 0738 02       		.uleb128 0x2
 1696 0739 74       		.byte	0x74
 1697 073a 00       		.sleb128 0
 1698 073b 01       		.uleb128 0x1
 1699 073c 31       		.byte	0x31
 1700 073d 17       		.uleb128 0x17
 1701 073e 02       		.uleb128 0x2
 1702 073f 74       		.byte	0x74
 1703 0740 04       		.sleb128 4
 1704 0741 05       		.uleb128 0x5
 1705 0742 03       		.byte	0x3
 1706 0743 0A000000 		.long	.LC5
 1707 0747 00       		.byte	0
 1708 0748 00       		.byte	0
 1709 0749 15       		.uleb128 0x15
 1710 074a 8C020000 		.long	.LASF81
 1711 074e 01       		.byte	0x1
 1712 074f 7E       		.byte	0x7e
 1713 0750 B0020000 		.long	.LFB10
 1714 0754 D9010000 		.long	.LFE10-.LFB10
 1715 0758 01       		.uleb128 0x1
GAS LISTING /tmp/ccWepkvC.s 			page 37


 1716 0759 9C       		.byte	0x9c
 1717 075a A8080000 		.long	0x8a8
 1718 075e 1C       		.uleb128 0x1c
 1719 075f 1C000000 		.long	.LASF82
 1720 0763 01       		.byte	0x1
 1721 0764 7F       		.byte	0x7f
 1722 0765 CE000000 		.long	0xce
 1723 0769 00000000 		.long	.LLST0
 1724 076d 1D       		.uleb128 0x1d
 1725 076e 703100   		.string	"p1"
 1726 0771 01       		.byte	0x1
 1727 0772 7F       		.byte	0x7f
 1728 0773 CE000000 		.long	0xce
 1729 0777 2B000000 		.long	.LLST1
 1730 077b 16       		.uleb128 0x16
 1731 077c C9020000 		.long	.LVL18
 1732 0780 1C0B0000 		.long	0xb1c
 1733 0784 90070000 		.long	0x790
 1734 0788 17       		.uleb128 0x17
 1735 0789 02       		.uleb128 0x2
 1736 078a 74       		.byte	0x74
 1737 078b 00       		.sleb128 0
 1738 078c 02       		.uleb128 0x2
 1739 078d 76       		.byte	0x76
 1740 078e 00       		.sleb128 0
 1741 078f 00       		.byte	0
 1742 0790 16       		.uleb128 0x16
 1743 0791 E2020000 		.long	.LVL21
 1744 0795 320B0000 		.long	0xb32
 1745 0799 A4070000 		.long	0x7a4
 1746 079d 17       		.uleb128 0x17
 1747 079e 02       		.uleb128 0x2
 1748 079f 74       		.byte	0x74
 1749 07a0 00       		.sleb128 0
 1750 07a1 01       		.uleb128 0x1
 1751 07a2 31       		.byte	0x31
 1752 07a3 00       		.byte	0
 1753 07a4 16       		.uleb128 0x16
 1754 07a5 0E030000 		.long	.LVL26
 1755 07a9 320B0000 		.long	0xb32
 1756 07ad B8070000 		.long	0x7b8
 1757 07b1 17       		.uleb128 0x17
 1758 07b2 02       		.uleb128 0x2
 1759 07b3 74       		.byte	0x74
 1760 07b4 00       		.sleb128 0
 1761 07b5 01       		.uleb128 0x1
 1762 07b6 32       		.byte	0x32
 1763 07b7 00       		.byte	0
 1764 07b8 16       		.uleb128 0x16
 1765 07b9 1A030000 		.long	.LVL27
 1766 07bd 1C0B0000 		.long	0xb1c
 1767 07c1 CD070000 		.long	0x7cd
 1768 07c5 17       		.uleb128 0x17
 1769 07c6 02       		.uleb128 0x2
 1770 07c7 74       		.byte	0x74
 1771 07c8 00       		.sleb128 0
 1772 07c9 02       		.uleb128 0x2
GAS LISTING /tmp/ccWepkvC.s 			page 38


 1773 07ca 77       		.byte	0x77
 1774 07cb 00       		.sleb128 0
 1775 07cc 00       		.byte	0
 1776 07cd 16       		.uleb128 0x16
 1777 07ce 32030000 		.long	.LVL29
 1778 07d2 320B0000 		.long	0xb32
 1779 07d6 E1070000 		.long	0x7e1
 1780 07da 17       		.uleb128 0x17
 1781 07db 02       		.uleb128 0x2
 1782 07dc 74       		.byte	0x74
 1783 07dd 00       		.sleb128 0
 1784 07de 01       		.uleb128 0x1
 1785 07df 33       		.byte	0x33
 1786 07e0 00       		.byte	0
 1787 07e1 16       		.uleb128 0x16
 1788 07e2 54030000 		.long	.LVL30
 1789 07e6 320B0000 		.long	0xb32
 1790 07ea F5070000 		.long	0x7f5
 1791 07ee 17       		.uleb128 0x17
 1792 07ef 02       		.uleb128 0x2
 1793 07f0 74       		.byte	0x74
 1794 07f1 00       		.sleb128 0
 1795 07f2 01       		.uleb128 0x1
 1796 07f3 34       		.byte	0x34
 1797 07f4 00       		.byte	0
 1798 07f5 16       		.uleb128 0x16
 1799 07f6 84030000 		.long	.LVL31
 1800 07fa 320B0000 		.long	0xb32
 1801 07fe 09080000 		.long	0x809
 1802 0802 17       		.uleb128 0x17
 1803 0803 02       		.uleb128 0x2
 1804 0804 74       		.byte	0x74
 1805 0805 00       		.sleb128 0
 1806 0806 01       		.uleb128 0x1
 1807 0807 35       		.byte	0x35
 1808 0808 00       		.byte	0
 1809 0809 16       		.uleb128 0x16
 1810 080a 94030000 		.long	.LVL32
 1811 080e 1C0B0000 		.long	0xb1c
 1812 0812 1E080000 		.long	0x81e
 1813 0816 17       		.uleb128 0x17
 1814 0817 02       		.uleb128 0x2
 1815 0818 74       		.byte	0x74
 1816 0819 00       		.sleb128 0
 1817 081a 02       		.uleb128 0x2
 1818 081b 76       		.byte	0x76
 1819 081c 00       		.sleb128 0
 1820 081d 00       		.byte	0
 1821 081e 16       		.uleb128 0x16
 1822 081f AC030000 		.long	.LVL34
 1823 0823 320B0000 		.long	0xb32
 1824 0827 32080000 		.long	0x832
 1825 082b 17       		.uleb128 0x17
 1826 082c 02       		.uleb128 0x2
 1827 082d 74       		.byte	0x74
 1828 082e 00       		.sleb128 0
 1829 082f 01       		.uleb128 0x1
GAS LISTING /tmp/ccWepkvC.s 			page 39


 1830 0830 36       		.byte	0x36
 1831 0831 00       		.byte	0
 1832 0832 16       		.uleb128 0x16
 1833 0833 D2030000 		.long	.LVL35
 1834 0837 320B0000 		.long	0xb32
 1835 083b 46080000 		.long	0x846
 1836 083f 17       		.uleb128 0x17
 1837 0840 02       		.uleb128 0x2
 1838 0841 74       		.byte	0x74
 1839 0842 00       		.sleb128 0
 1840 0843 01       		.uleb128 0x1
 1841 0844 37       		.byte	0x37
 1842 0845 00       		.byte	0
 1843 0846 16       		.uleb128 0x16
 1844 0847 F8030000 		.long	.LVL36
 1845 084b 320B0000 		.long	0xb32
 1846 084f 5A080000 		.long	0x85a
 1847 0853 17       		.uleb128 0x17
 1848 0854 02       		.uleb128 0x2
 1849 0855 74       		.byte	0x74
 1850 0856 00       		.sleb128 0
 1851 0857 01       		.uleb128 0x1
 1852 0858 38       		.byte	0x38
 1853 0859 00       		.byte	0
 1854 085a 16       		.uleb128 0x16
 1855 085b 0B040000 		.long	.LVL37
 1856 085f 1C0B0000 		.long	0xb1c
 1857 0863 6F080000 		.long	0x86f
 1858 0867 17       		.uleb128 0x17
 1859 0868 02       		.uleb128 0x2
 1860 0869 74       		.byte	0x74
 1861 086a 00       		.sleb128 0
 1862 086b 02       		.uleb128 0x2
 1863 086c 77       		.byte	0x77
 1864 086d 00       		.sleb128 0
 1865 086e 00       		.byte	0
 1866 086f 16       		.uleb128 0x16
 1867 0870 23040000 		.long	.LVL39
 1868 0874 320B0000 		.long	0xb32
 1869 0878 83080000 		.long	0x883
 1870 087c 17       		.uleb128 0x17
 1871 087d 02       		.uleb128 0x2
 1872 087e 74       		.byte	0x74
 1873 087f 00       		.sleb128 0
 1874 0880 01       		.uleb128 0x1
 1875 0881 39       		.byte	0x39
 1876 0882 00       		.byte	0
 1877 0883 16       		.uleb128 0x16
 1878 0884 49040000 		.long	.LVL40
 1879 0888 320B0000 		.long	0xb32
 1880 088c 97080000 		.long	0x897
 1881 0890 17       		.uleb128 0x17
 1882 0891 02       		.uleb128 0x2
 1883 0892 74       		.byte	0x74
 1884 0893 00       		.sleb128 0
 1885 0894 01       		.uleb128 0x1
 1886 0895 3A       		.byte	0x3a
GAS LISTING /tmp/ccWepkvC.s 			page 40


 1887 0896 00       		.byte	0
 1888 0897 19       		.uleb128 0x19
 1889 0898 6F040000 		.long	.LVL41
 1890 089c 320B0000 		.long	0xb32
 1891 08a0 17       		.uleb128 0x17
 1892 08a1 02       		.uleb128 0x2
 1893 08a2 74       		.byte	0x74
 1894 08a3 00       		.sleb128 0
 1895 08a4 01       		.uleb128 0x1
 1896 08a5 3B       		.byte	0x3b
 1897 08a6 00       		.byte	0
 1898 08a7 00       		.byte	0
 1899 08a8 1E       		.uleb128 0x1e
 1900 08a9 E3040000 		.long	0x4e3
 1901 08ad 90040000 		.long	.LFB11
 1902 08b1 D3000000 		.long	.LFE11-.LFB11
 1903 08b5 01       		.uleb128 0x1
 1904 08b6 9C       		.byte	0x9c
 1905 08b7 BA090000 		.long	0x9ba
 1906 08bb 1F       		.uleb128 0x1f
 1907 08bc EF040000 		.long	0x4ef
 1908 08c0 75000000 		.long	.LLST2
 1909 08c4 20       		.uleb128 0x20
 1910 08c5 00050000 		.long	.LBB5
 1911 08c9 63000000 		.long	.LBE5-.LBB5
 1912 08cd 46090000 		.long	0x946
 1913 08d1 1F       		.uleb128 0x1f
 1914 08d2 EF040000 		.long	0x4ef
 1915 08d6 BD000000 		.long	.LLST3
 1916 08da 16       		.uleb128 0x16
 1917 08db 12050000 		.long	.LVL54
 1918 08df 4C0B0000 		.long	0xb4c
 1919 08e3 F0080000 		.long	0x8f0
 1920 08e7 17       		.uleb128 0x17
 1921 08e8 02       		.uleb128 0x2
 1922 08e9 74       		.byte	0x74
 1923 08ea 00       		.sleb128 0
 1924 08eb 03       		.uleb128 0x3
 1925 08ec 0A       		.byte	0xa
 1926 08ed E803     		.value	0x3e8
 1927 08ef 00       		.byte	0
 1928 08f0 16       		.uleb128 0x16
 1929 08f1 32050000 		.long	.LVL56
 1930 08f5 5E0B0000 		.long	0xb5e
 1931 08f9 12090000 		.long	0x912
 1932 08fd 17       		.uleb128 0x17
 1933 08fe 02       		.uleb128 0x2
 1934 08ff 74       		.byte	0x74
 1935 0900 00       		.sleb128 0
 1936 0901 01       		.uleb128 0x1
 1937 0902 33       		.byte	0x33
 1938 0903 17       		.uleb128 0x17
 1939 0904 02       		.uleb128 0x2
 1940 0905 74       		.byte	0x74
 1941 0906 04       		.sleb128 4
 1942 0907 02       		.uleb128 0x2
 1943 0908 73       		.byte	0x73
GAS LISTING /tmp/ccWepkvC.s 			page 41


 1944 0909 00       		.sleb128 0
 1945 090a 17       		.uleb128 0x17
 1946 090b 02       		.uleb128 0x2
 1947 090c 74       		.byte	0x74
 1948 090d 08       		.sleb128 8
 1949 090e 02       		.uleb128 0x2
 1950 090f 73       		.byte	0x73
 1951 0910 01       		.sleb128 1
 1952 0911 00       		.byte	0
 1953 0912 16       		.uleb128 0x16
 1954 0913 4A050000 		.long	.LVL58
 1955 0917 7D0B0000 		.long	0xb7d
 1956 091b 27090000 		.long	0x927
 1957 091f 17       		.uleb128 0x17
 1958 0920 02       		.uleb128 0x2
 1959 0921 74       		.byte	0x74
 1960 0922 00       		.sleb128 0
 1961 0923 02       		.uleb128 0x2
 1962 0924 73       		.byte	0x73
 1963 0925 00       		.sleb128 0
 1964 0926 00       		.byte	0
 1965 0927 19       		.uleb128 0x19
 1966 0928 5E050000 		.long	.LVL59
 1967 092c 5E0B0000 		.long	0xb5e
 1968 0930 17       		.uleb128 0x17
 1969 0931 02       		.uleb128 0x2
 1970 0932 74       		.byte	0x74
 1971 0933 00       		.sleb128 0
 1972 0934 01       		.uleb128 0x1
 1973 0935 34       		.byte	0x34
 1974 0936 17       		.uleb128 0x17
 1975 0937 02       		.uleb128 0x2
 1976 0938 74       		.byte	0x74
 1977 0939 04       		.sleb128 4
 1978 093a 02       		.uleb128 0x2
 1979 093b 73       		.byte	0x73
 1980 093c 00       		.sleb128 0
 1981 093d 17       		.uleb128 0x17
 1982 093e 02       		.uleb128 0x2
 1983 093f 74       		.byte	0x74
 1984 0940 08       		.sleb128 8
 1985 0941 02       		.uleb128 0x2
 1986 0942 76       		.byte	0x76
 1987 0943 00       		.sleb128 0
 1988 0944 00       		.byte	0
 1989 0945 00       		.byte	0
 1990 0946 18       		.uleb128 0x18
 1991 0947 9A040000 		.long	.LVL42
 1992 094b 8F0B0000 		.long	0xb8f
 1993 094f 16       		.uleb128 0x16
 1994 0950 AC040000 		.long	.LVL44
 1995 0954 4C0B0000 		.long	0xb4c
 1996 0958 64090000 		.long	0x964
 1997 095c 17       		.uleb128 0x17
 1998 095d 02       		.uleb128 0x2
 1999 095e 74       		.byte	0x74
 2000 095f 00       		.sleb128 0
GAS LISTING /tmp/ccWepkvC.s 			page 42


 2001 0960 02       		.uleb128 0x2
 2002 0961 08       		.byte	0x8
 2003 0962 64       		.byte	0x64
 2004 0963 00       		.byte	0
 2005 0964 16       		.uleb128 0x16
 2006 0965 C6040000 		.long	.LVL46
 2007 0969 5E0B0000 		.long	0xb5e
 2008 096d 86090000 		.long	0x986
 2009 0971 17       		.uleb128 0x17
 2010 0972 02       		.uleb128 0x2
 2011 0973 74       		.byte	0x74
 2012 0974 00       		.sleb128 0
 2013 0975 01       		.uleb128 0x1
 2014 0976 31       		.byte	0x31
 2015 0977 17       		.uleb128 0x17
 2016 0978 02       		.uleb128 0x2
 2017 0979 74       		.byte	0x74
 2018 097a 04       		.sleb128 4
 2019 097b 02       		.uleb128 0x2
 2020 097c 73       		.byte	0x73
 2021 097d 00       		.sleb128 0
 2022 097e 17       		.uleb128 0x17
 2023 097f 02       		.uleb128 0x2
 2024 0980 74       		.byte	0x74
 2025 0981 08       		.sleb128 8
 2026 0982 02       		.uleb128 0x2
 2027 0983 73       		.byte	0x73
 2028 0984 01       		.sleb128 1
 2029 0985 00       		.byte	0
 2030 0986 16       		.uleb128 0x16
 2031 0987 E2040000 		.long	.LVL50
 2032 098b 4C0B0000 		.long	0xb4c
 2033 098f 9B090000 		.long	0x99b
 2034 0993 17       		.uleb128 0x17
 2035 0994 02       		.uleb128 0x2
 2036 0995 74       		.byte	0x74
 2037 0996 00       		.sleb128 0
 2038 0997 02       		.uleb128 0x2
 2039 0998 08       		.byte	0x8
 2040 0999 64       		.byte	0x64
 2041 099a 00       		.byte	0
 2042 099b 19       		.uleb128 0x19
 2043 099c FC040000 		.long	.LVL52
 2044 09a0 5E0B0000 		.long	0xb5e
 2045 09a4 17       		.uleb128 0x17
 2046 09a5 02       		.uleb128 0x2
 2047 09a6 74       		.byte	0x74
 2048 09a7 00       		.sleb128 0
 2049 09a8 01       		.uleb128 0x1
 2050 09a9 32       		.byte	0x32
 2051 09aa 17       		.uleb128 0x17
 2052 09ab 02       		.uleb128 0x2
 2053 09ac 74       		.byte	0x74
 2054 09ad 04       		.sleb128 4
 2055 09ae 02       		.uleb128 0x2
 2056 09af 73       		.byte	0x73
 2057 09b0 00       		.sleb128 0
GAS LISTING /tmp/ccWepkvC.s 			page 43


 2058 09b1 17       		.uleb128 0x17
 2059 09b2 02       		.uleb128 0x2
 2060 09b3 74       		.byte	0x74
 2061 09b4 08       		.sleb128 8
 2062 09b5 02       		.uleb128 0x2
 2063 09b6 73       		.byte	0x73
 2064 09b7 01       		.sleb128 1
 2065 09b8 00       		.byte	0
 2066 09b9 00       		.byte	0
 2067 09ba 21       		.uleb128 0x21
 2068 09bb 28000000 		.long	.LASF83
 2069 09bf 08       		.byte	0x8
 2070 09c0 F5       		.byte	0xf5
 2071 09c1 89030000 		.long	0x389
 2072 09c5 21       		.uleb128 0x21
 2073 09c6 47040000 		.long	.LASF84
 2074 09ca 09       		.byte	0x9
 2075 09cb 6F       		.byte	0x6f
 2076 09cc E5030000 		.long	0x3e5
 2077 09d0 22       		.uleb128 0x22
 2078 09d1 23020000 		.long	0x223
 2079 09d5 E0090000 		.long	0x9e0
 2080 09d9 23       		.uleb128 0x23
 2081 09da 54020000 		.long	0x254
 2082 09de 04       		.byte	0x4
 2083 09df 00       		.byte	0
 2084 09e0 21       		.uleb128 0x21
 2085 09e1 65030000 		.long	.LASF85
 2086 09e5 0B       		.byte	0xb
 2087 09e6 A5       		.byte	0xa5
 2088 09e7 D0090000 		.long	0x9d0
 2089 09eb 22       		.uleb128 0x22
 2090 09ec 66020000 		.long	0x266
 2091 09f0 F6090000 		.long	0x9f6
 2092 09f4 24       		.uleb128 0x24
 2093 09f5 00       		.byte	0
 2094 09f6 25       		.uleb128 0x25
 2095 09f7 776100   		.string	"wa"
 2096 09fa 0B       		.byte	0xb
 2097 09fb A7       		.byte	0xa7
 2098 09fc 000A0000 		.long	0xa00
 2099 0a00 10       		.uleb128 0x10
 2100 0a01 EB090000 		.long	0x9eb
 2101 0a05 26       		.uleb128 0x26
 2102 0a06 DC010000 		.long	.LASF86
 2103 0a0a 01       		.byte	0x1
 2104 0a0b 4D       		.byte	0x4d
 2105 0a0c 160A0000 		.long	0xa16
 2106 0a10 05       		.uleb128 0x5
 2107 0a11 03       		.byte	0x3
 2108 0a12 00000000 		.long	testthd1
 2109 0a16 10       		.uleb128 0x10
 2110 0a17 9F040000 		.long	0x49f
 2111 0a1b 26       		.uleb128 0x26
 2112 0a1c E5010000 		.long	.LASF87
 2113 0a20 01       		.byte	0x1
 2114 0a21 6D       		.byte	0x6d
GAS LISTING /tmp/ccWepkvC.s 			page 44


 2115 0a22 160A0000 		.long	0xa16
 2116 0a26 05       		.uleb128 0x5
 2117 0a27 03       		.byte	0x3
 2118 0a28 00000000 		.long	testthd2
 2119 0a2c 26       		.uleb128 0x26
 2120 0a2d EE010000 		.long	.LASF88
 2121 0a31 01       		.byte	0x1
 2122 0a32 AE       		.byte	0xae
 2123 0a33 160A0000 		.long	0xa16
 2124 0a37 05       		.uleb128 0x5
 2125 0a38 03       		.byte	0x3
 2126 0a39 00000000 		.long	testthd3
 2127 0a3d 26       		.uleb128 0x26
 2128 0a3e F7010000 		.long	.LASF89
 2129 0a42 01       		.byte	0x1
 2130 0a43 D7       		.byte	0xd7
 2131 0a44 160A0000 		.long	0xa16
 2132 0a48 05       		.uleb128 0x5
 2133 0a49 03       		.byte	0x3
 2134 0a4a 00000000 		.long	testthd4
 2135 0a4e 22       		.uleb128 0x22
 2136 0a4f 5E0A0000 		.long	0xa5e
 2137 0a53 5E0A0000 		.long	0xa5e
 2138 0a57 23       		.uleb128 0x23
 2139 0a58 54020000 		.long	0x254
 2140 0a5c 04       		.byte	0x4
 2141 0a5d 00       		.byte	0
 2142 0a5e 09       		.uleb128 0x9
 2143 0a5f 04       		.byte	0x4
 2144 0a60 160A0000 		.long	0xa16
 2145 0a64 26       		.uleb128 0x26
 2146 0a65 E4030000 		.long	.LASF90
 2147 0a69 01       		.byte	0x1
 2148 0a6a E1       		.byte	0xe1
 2149 0a6b 750A0000 		.long	0xa75
 2150 0a6f 05       		.uleb128 0x5
 2151 0a70 03       		.byte	0x3
 2152 0a71 00000000 		.long	patternthd
 2153 0a75 10       		.uleb128 0x10
 2154 0a76 4E0A0000 		.long	0xa4e
 2155 0a7a 27       		.uleb128 0x27
 2156 0a7b B9010000 		.long	.LASF91
 2157 0a7f 06       		.byte	0x6
 2158 0a80 7001     		.value	0x170
 2159 0a82 23020000 		.long	0x223
 2160 0a86 A40A0000 		.long	0xaa4
 2161 0a8a 0D       		.uleb128 0xd
 2162 0a8b 66020000 		.long	0x266
 2163 0a8f 0D       		.uleb128 0xd
 2164 0a90 2C000000 		.long	0x2c
 2165 0a94 0D       		.uleb128 0xd
 2166 0a95 CE000000 		.long	0xce
 2167 0a99 0D       		.uleb128 0xd
 2168 0a9a 7F040000 		.long	0x47f
 2169 0a9e 0D       		.uleb128 0xd
 2170 0a9f 66020000 		.long	0x266
 2171 0aa3 00       		.byte	0
GAS LISTING /tmp/ccWepkvC.s 			page 45


 2172 0aa4 28       		.uleb128 0x28
 2173 0aa5 14020000 		.long	.LASF107
 2174 0aa9 0B       		.byte	0xb
 2175 0aaa 5C       		.byte	0x5c
 2176 0aab 29       		.uleb128 0x29
 2177 0aac 47020000 		.long	.LASF92
 2178 0ab0 0B       		.byte	0xb
 2179 0ab1 59       		.byte	0x59
 2180 0ab2 90000000 		.long	0x90
 2181 0ab6 C50A0000 		.long	0xac5
 2182 0aba 0D       		.uleb128 0xd
 2183 0abb 37000000 		.long	0x37
 2184 0abf 0D       		.uleb128 0xd
 2185 0ac0 C50A0000 		.long	0xac5
 2186 0ac4 00       		.byte	0
 2187 0ac5 09       		.uleb128 0x9
 2188 0ac6 04       		.byte	0x4
 2189 0ac7 72040000 		.long	0x472
 2190 0acb 2A       		.uleb128 0x2a
 2191 0acc AF000000 		.long	.LASF97
 2192 0ad0 0B       		.byte	0xb
 2193 0ad1 56       		.byte	0x56
 2194 0ad2 DC0A0000 		.long	0xadc
 2195 0ad6 0D       		.uleb128 0xd
 2196 0ad7 72040000 		.long	0x472
 2197 0adb 00       		.byte	0
 2198 0adc 27       		.uleb128 0x27
 2199 0add C9000000 		.long	.LASF93
 2200 0ae1 06       		.byte	0x6
 2201 0ae2 6E01     		.value	0x16e
 2202 0ae4 23020000 		.long	0x223
 2203 0ae8 060B0000 		.long	0xb06
 2204 0aec 0D       		.uleb128 0xd
 2205 0aed 66020000 		.long	0x266
 2206 0af1 0D       		.uleb128 0xd
 2207 0af2 2C000000 		.long	0x2c
 2208 0af6 0D       		.uleb128 0xd
 2209 0af7 CE000000 		.long	0xce
 2210 0afb 0D       		.uleb128 0xd
 2211 0afc 7F040000 		.long	0x47f
 2212 0b00 0D       		.uleb128 0xd
 2213 0b01 66020000 		.long	0x266
 2214 0b05 00       		.byte	0
 2215 0b06 27       		.uleb128 0x27
 2216 0b07 08020000 		.long	.LASF94
 2217 0b0b 06       		.byte	0x6
 2218 0b0c 7301     		.value	0x173
 2219 0b0e 23020000 		.long	0x223
 2220 0b12 1C0B0000 		.long	0xb1c
 2221 0b16 0D       		.uleb128 0xd
 2222 0b17 23020000 		.long	0x223
 2223 0b1b 00       		.byte	0
 2224 0b1c 27       		.uleb128 0x27
 2225 0b1d 09010000 		.long	.LASF95
 2226 0b21 06       		.byte	0x6
 2227 0b22 7201     		.value	0x172
 2228 0b24 CE000000 		.long	0xce
GAS LISTING /tmp/ccWepkvC.s 			page 46


 2229 0b28 320B0000 		.long	0xb32
 2230 0b2c 0D       		.uleb128 0xd
 2231 0b2d CE000000 		.long	0xce
 2232 0b31 00       		.byte	0
 2233 0b32 29       		.uleb128 0x29
 2234 0b33 63040000 		.long	.LASF96
 2235 0b37 0B       		.byte	0xb
 2236 0b38 58       		.byte	0x58
 2237 0b39 90000000 		.long	0x90
 2238 0b3d 4C0B0000 		.long	0xb4c
 2239 0b41 0D       		.uleb128 0xd
 2240 0b42 37000000 		.long	0x37
 2241 0b46 0D       		.uleb128 0xd
 2242 0b47 90000000 		.long	0x90
 2243 0b4b 00       		.byte	0
 2244 0b4c 2B       		.uleb128 0x2b
 2245 0b4d 2B040000 		.long	.LASF98
 2246 0b51 06       		.byte	0x6
 2247 0b52 7501     		.value	0x175
 2248 0b54 5E0B0000 		.long	0xb5e
 2249 0b58 0D       		.uleb128 0xd
 2250 0b59 EF000000 		.long	0xef
 2251 0b5d 00       		.byte	0
 2252 0b5e 29       		.uleb128 0x29
 2253 0b5f E8000000 		.long	.LASF99
 2254 0b63 0B       		.byte	0xb
 2255 0b64 5A       		.byte	0x5a
 2256 0b65 90000000 		.long	0x90
 2257 0b69 7D0B0000 		.long	0xb7d
 2258 0b6d 0D       		.uleb128 0xd
 2259 0b6e 37000000 		.long	0x37
 2260 0b72 0D       		.uleb128 0xd
 2261 0b73 EF000000 		.long	0xef
 2262 0b77 0D       		.uleb128 0xd
 2263 0b78 EF000000 		.long	0xef
 2264 0b7c 00       		.byte	0
 2265 0b7d 2B       		.uleb128 0x2b
 2266 0b7e 74020000 		.long	.LASF100
 2267 0b82 06       		.byte	0x6
 2268 0b83 7601     		.value	0x176
 2269 0b85 8F0B0000 		.long	0xb8f
 2270 0b89 0D       		.uleb128 0xd
 2271 0b8a EF000000 		.long	0xef
 2272 0b8e 00       		.byte	0
 2273 0b8f 2C       		.uleb128 0x2c
 2274 0b90 30030000 		.long	.LASF108
 2275 0b94 0B       		.byte	0xb
 2276 0b95 5D       		.byte	0x5d
 2277 0b96 EF000000 		.long	0xef
 2278 0b9a 00       		.byte	0
 2279              		.section	.debug_abbrev,"",@progbits
 2280              	.Ldebug_abbrev0:
 2281 0000 01       		.uleb128 0x1
 2282 0001 11       		.uleb128 0x11
 2283 0002 01       		.byte	0x1
 2284 0003 25       		.uleb128 0x25
 2285 0004 0E       		.uleb128 0xe
GAS LISTING /tmp/ccWepkvC.s 			page 47


 2286 0005 13       		.uleb128 0x13
 2287 0006 0B       		.uleb128 0xb
 2288 0007 03       		.uleb128 0x3
 2289 0008 0E       		.uleb128 0xe
 2290 0009 1B       		.uleb128 0x1b
 2291 000a 0E       		.uleb128 0xe
 2292 000b 11       		.uleb128 0x11
 2293 000c 01       		.uleb128 0x1
 2294 000d 12       		.uleb128 0x12
 2295 000e 06       		.uleb128 0x6
 2296 000f 10       		.uleb128 0x10
 2297 0010 17       		.uleb128 0x17
 2298 0011 00       		.byte	0
 2299 0012 00       		.byte	0
 2300 0013 02       		.uleb128 0x2
 2301 0014 24       		.uleb128 0x24
 2302 0015 00       		.byte	0
 2303 0016 0B       		.uleb128 0xb
 2304 0017 0B       		.uleb128 0xb
 2305 0018 3E       		.uleb128 0x3e
 2306 0019 0B       		.uleb128 0xb
 2307 001a 03       		.uleb128 0x3
 2308 001b 08       		.uleb128 0x8
 2309 001c 00       		.byte	0
 2310 001d 00       		.byte	0
 2311 001e 03       		.uleb128 0x3
 2312 001f 16       		.uleb128 0x16
 2313 0020 00       		.byte	0
 2314 0021 03       		.uleb128 0x3
 2315 0022 0E       		.uleb128 0xe
 2316 0023 3A       		.uleb128 0x3a
 2317 0024 0B       		.uleb128 0xb
 2318 0025 3B       		.uleb128 0x3b
 2319 0026 0B       		.uleb128 0xb
 2320 0027 49       		.uleb128 0x49
 2321 0028 13       		.uleb128 0x13
 2322 0029 00       		.byte	0
 2323 002a 00       		.byte	0
 2324 002b 04       		.uleb128 0x4
 2325 002c 24       		.uleb128 0x24
 2326 002d 00       		.byte	0
 2327 002e 0B       		.uleb128 0xb
 2328 002f 0B       		.uleb128 0xb
 2329 0030 3E       		.uleb128 0x3e
 2330 0031 0B       		.uleb128 0xb
 2331 0032 03       		.uleb128 0x3
 2332 0033 0E       		.uleb128 0xe
 2333 0034 00       		.byte	0
 2334 0035 00       		.byte	0
 2335 0036 05       		.uleb128 0x5
 2336 0037 13       		.uleb128 0x13
 2337 0038 01       		.byte	0x1
 2338 0039 03       		.uleb128 0x3
 2339 003a 0E       		.uleb128 0xe
 2340 003b 0B       		.uleb128 0xb
 2341 003c 0B       		.uleb128 0xb
 2342 003d 3A       		.uleb128 0x3a
GAS LISTING /tmp/ccWepkvC.s 			page 48


 2343 003e 0B       		.uleb128 0xb
 2344 003f 3B       		.uleb128 0x3b
 2345 0040 0B       		.uleb128 0xb
 2346 0041 01       		.uleb128 0x1
 2347 0042 13       		.uleb128 0x13
 2348 0043 00       		.byte	0
 2349 0044 00       		.byte	0
 2350 0045 06       		.uleb128 0x6
 2351 0046 0D       		.uleb128 0xd
 2352 0047 00       		.byte	0
 2353 0048 03       		.uleb128 0x3
 2354 0049 0E       		.uleb128 0xe
 2355 004a 3A       		.uleb128 0x3a
 2356 004b 0B       		.uleb128 0xb
 2357 004c 3B       		.uleb128 0x3b
 2358 004d 0B       		.uleb128 0xb
 2359 004e 49       		.uleb128 0x49
 2360 004f 13       		.uleb128 0x13
 2361 0050 38       		.uleb128 0x38
 2362 0051 0B       		.uleb128 0xb
 2363 0052 00       		.byte	0
 2364 0053 00       		.byte	0
 2365 0054 07       		.uleb128 0x7
 2366 0055 0D       		.uleb128 0xd
 2367 0056 00       		.byte	0
 2368 0057 03       		.uleb128 0x3
 2369 0058 08       		.uleb128 0x8
 2370 0059 3A       		.uleb128 0x3a
 2371 005a 0B       		.uleb128 0xb
 2372 005b 3B       		.uleb128 0x3b
 2373 005c 0B       		.uleb128 0xb
 2374 005d 49       		.uleb128 0x49
 2375 005e 13       		.uleb128 0x13
 2376 005f 38       		.uleb128 0x38
 2377 0060 0B       		.uleb128 0xb
 2378 0061 00       		.byte	0
 2379 0062 00       		.byte	0
 2380 0063 08       		.uleb128 0x8
 2381 0064 13       		.uleb128 0x13
 2382 0065 01       		.byte	0x1
 2383 0066 0B       		.uleb128 0xb
 2384 0067 0B       		.uleb128 0xb
 2385 0068 3A       		.uleb128 0x3a
 2386 0069 0B       		.uleb128 0xb
 2387 006a 3B       		.uleb128 0x3b
 2388 006b 0B       		.uleb128 0xb
 2389 006c 01       		.uleb128 0x1
 2390 006d 13       		.uleb128 0x13
 2391 006e 00       		.byte	0
 2392 006f 00       		.byte	0
 2393 0070 09       		.uleb128 0x9
 2394 0071 0F       		.uleb128 0xf
 2395 0072 00       		.byte	0
 2396 0073 0B       		.uleb128 0xb
 2397 0074 0B       		.uleb128 0xb
 2398 0075 49       		.uleb128 0x49
 2399 0076 13       		.uleb128 0x13
GAS LISTING /tmp/ccWepkvC.s 			page 49


 2400 0077 00       		.byte	0
 2401 0078 00       		.byte	0
 2402 0079 0A       		.uleb128 0xa
 2403 007a 0F       		.uleb128 0xf
 2404 007b 00       		.byte	0
 2405 007c 0B       		.uleb128 0xb
 2406 007d 0B       		.uleb128 0xb
 2407 007e 00       		.byte	0
 2408 007f 00       		.byte	0
 2409 0080 0B       		.uleb128 0xb
 2410 0081 35       		.uleb128 0x35
 2411 0082 00       		.byte	0
 2412 0083 49       		.uleb128 0x49
 2413 0084 13       		.uleb128 0x13
 2414 0085 00       		.byte	0
 2415 0086 00       		.byte	0
 2416 0087 0C       		.uleb128 0xc
 2417 0088 15       		.uleb128 0x15
 2418 0089 01       		.byte	0x1
 2419 008a 27       		.uleb128 0x27
 2420 008b 19       		.uleb128 0x19
 2421 008c 01       		.uleb128 0x1
 2422 008d 13       		.uleb128 0x13
 2423 008e 00       		.byte	0
 2424 008f 00       		.byte	0
 2425 0090 0D       		.uleb128 0xd
 2426 0091 05       		.uleb128 0x5
 2427 0092 00       		.byte	0
 2428 0093 49       		.uleb128 0x49
 2429 0094 13       		.uleb128 0x13
 2430 0095 00       		.byte	0
 2431 0096 00       		.byte	0
 2432 0097 0E       		.uleb128 0xe
 2433 0098 17       		.uleb128 0x17
 2434 0099 01       		.byte	0x1
 2435 009a 0B       		.uleb128 0xb
 2436 009b 0B       		.uleb128 0xb
 2437 009c 3A       		.uleb128 0x3a
 2438 009d 0B       		.uleb128 0xb
 2439 009e 3B       		.uleb128 0x3b
 2440 009f 0B       		.uleb128 0xb
 2441 00a0 01       		.uleb128 0x1
 2442 00a1 13       		.uleb128 0x13
 2443 00a2 00       		.byte	0
 2444 00a3 00       		.byte	0
 2445 00a4 0F       		.uleb128 0xf
 2446 00a5 0D       		.uleb128 0xd
 2447 00a6 00       		.byte	0
 2448 00a7 03       		.uleb128 0x3
 2449 00a8 0E       		.uleb128 0xe
 2450 00a9 3A       		.uleb128 0x3a
 2451 00aa 0B       		.uleb128 0xb
 2452 00ab 3B       		.uleb128 0x3b
 2453 00ac 0B       		.uleb128 0xb
 2454 00ad 49       		.uleb128 0x49
 2455 00ae 13       		.uleb128 0x13
 2456 00af 00       		.byte	0
GAS LISTING /tmp/ccWepkvC.s 			page 50


 2457 00b0 00       		.byte	0
 2458 00b1 10       		.uleb128 0x10
 2459 00b2 26       		.uleb128 0x26
 2460 00b3 00       		.byte	0
 2461 00b4 49       		.uleb128 0x49
 2462 00b5 13       		.uleb128 0x13
 2463 00b6 00       		.byte	0
 2464 00b7 00       		.byte	0
 2465 00b8 11       		.uleb128 0x11
 2466 00b9 15       		.uleb128 0x15
 2467 00ba 01       		.byte	0x1
 2468 00bb 27       		.uleb128 0x27
 2469 00bc 19       		.uleb128 0x19
 2470 00bd 49       		.uleb128 0x49
 2471 00be 13       		.uleb128 0x13
 2472 00bf 01       		.uleb128 0x1
 2473 00c0 13       		.uleb128 0x13
 2474 00c1 00       		.byte	0
 2475 00c2 00       		.byte	0
 2476 00c3 12       		.uleb128 0x12
 2477 00c4 15       		.uleb128 0x15
 2478 00c5 00       		.byte	0
 2479 00c6 27       		.uleb128 0x27
 2480 00c7 19       		.uleb128 0x19
 2481 00c8 00       		.byte	0
 2482 00c9 00       		.byte	0
 2483 00ca 13       		.uleb128 0x13
 2484 00cb 2E       		.uleb128 0x2e
 2485 00cc 01       		.byte	0x1
 2486 00cd 03       		.uleb128 0x3
 2487 00ce 0E       		.uleb128 0xe
 2488 00cf 3A       		.uleb128 0x3a
 2489 00d0 0B       		.uleb128 0xb
 2490 00d1 3B       		.uleb128 0x3b
 2491 00d2 0B       		.uleb128 0xb
 2492 00d3 27       		.uleb128 0x27
 2493 00d4 19       		.uleb128 0x19
 2494 00d5 20       		.uleb128 0x20
 2495 00d6 0B       		.uleb128 0xb
 2496 00d7 01       		.uleb128 0x1
 2497 00d8 13       		.uleb128 0x13
 2498 00d9 00       		.byte	0
 2499 00da 00       		.byte	0
 2500 00db 14       		.uleb128 0x14
 2501 00dc 34       		.uleb128 0x34
 2502 00dd 00       		.byte	0
 2503 00de 03       		.uleb128 0x3
 2504 00df 0E       		.uleb128 0xe
 2505 00e0 3A       		.uleb128 0x3a
 2506 00e1 0B       		.uleb128 0xb
 2507 00e2 3B       		.uleb128 0x3b
 2508 00e3 0B       		.uleb128 0xb
 2509 00e4 49       		.uleb128 0x49
 2510 00e5 13       		.uleb128 0x13
 2511 00e6 00       		.byte	0
 2512 00e7 00       		.byte	0
 2513 00e8 15       		.uleb128 0x15
GAS LISTING /tmp/ccWepkvC.s 			page 51


 2514 00e9 2E       		.uleb128 0x2e
 2515 00ea 01       		.byte	0x1
 2516 00eb 03       		.uleb128 0x3
 2517 00ec 0E       		.uleb128 0xe
 2518 00ed 3A       		.uleb128 0x3a
 2519 00ee 0B       		.uleb128 0xb
 2520 00ef 3B       		.uleb128 0x3b
 2521 00f0 0B       		.uleb128 0xb
 2522 00f1 27       		.uleb128 0x27
 2523 00f2 19       		.uleb128 0x19
 2524 00f3 11       		.uleb128 0x11
 2525 00f4 01       		.uleb128 0x1
 2526 00f5 12       		.uleb128 0x12
 2527 00f6 06       		.uleb128 0x6
 2528 00f7 40       		.uleb128 0x40
 2529 00f8 18       		.uleb128 0x18
 2530 00f9 9742     		.uleb128 0x2117
 2531 00fb 19       		.uleb128 0x19
 2532 00fc 01       		.uleb128 0x1
 2533 00fd 13       		.uleb128 0x13
 2534 00fe 00       		.byte	0
 2535 00ff 00       		.byte	0
 2536 0100 16       		.uleb128 0x16
 2537 0101 898201   		.uleb128 0x4109
 2538 0104 01       		.byte	0x1
 2539 0105 11       		.uleb128 0x11
 2540 0106 01       		.uleb128 0x1
 2541 0107 31       		.uleb128 0x31
 2542 0108 13       		.uleb128 0x13
 2543 0109 01       		.uleb128 0x1
 2544 010a 13       		.uleb128 0x13
 2545 010b 00       		.byte	0
 2546 010c 00       		.byte	0
 2547 010d 17       		.uleb128 0x17
 2548 010e 8A8201   		.uleb128 0x410a
 2549 0111 00       		.byte	0
 2550 0112 02       		.uleb128 0x2
 2551 0113 18       		.uleb128 0x18
 2552 0114 9142     		.uleb128 0x2111
 2553 0116 18       		.uleb128 0x18
 2554 0117 00       		.byte	0
 2555 0118 00       		.byte	0
 2556 0119 18       		.uleb128 0x18
 2557 011a 898201   		.uleb128 0x4109
 2558 011d 00       		.byte	0
 2559 011e 11       		.uleb128 0x11
 2560 011f 01       		.uleb128 0x1
 2561 0120 31       		.uleb128 0x31
 2562 0121 13       		.uleb128 0x13
 2563 0122 00       		.byte	0
 2564 0123 00       		.byte	0
 2565 0124 19       		.uleb128 0x19
 2566 0125 898201   		.uleb128 0x4109
 2567 0128 01       		.byte	0x1
 2568 0129 11       		.uleb128 0x11
 2569 012a 01       		.uleb128 0x1
 2570 012b 31       		.uleb128 0x31
GAS LISTING /tmp/ccWepkvC.s 			page 52


 2571 012c 13       		.uleb128 0x13
 2572 012d 00       		.byte	0
 2573 012e 00       		.byte	0
 2574 012f 1A       		.uleb128 0x1a
 2575 0130 2E       		.uleb128 0x2e
 2576 0131 01       		.byte	0x1
 2577 0132 03       		.uleb128 0x3
 2578 0133 0E       		.uleb128 0xe
 2579 0134 3A       		.uleb128 0x3a
 2580 0135 0B       		.uleb128 0xb
 2581 0136 3B       		.uleb128 0x3b
 2582 0137 0B       		.uleb128 0xb
 2583 0138 27       		.uleb128 0x27
 2584 0139 19       		.uleb128 0x19
 2585 013a 49       		.uleb128 0x49
 2586 013b 13       		.uleb128 0x13
 2587 013c 11       		.uleb128 0x11
 2588 013d 01       		.uleb128 0x1
 2589 013e 12       		.uleb128 0x12
 2590 013f 06       		.uleb128 0x6
 2591 0140 40       		.uleb128 0x40
 2592 0141 18       		.uleb128 0x18
 2593 0142 9742     		.uleb128 0x2117
 2594 0144 19       		.uleb128 0x19
 2595 0145 01       		.uleb128 0x1
 2596 0146 13       		.uleb128 0x13
 2597 0147 00       		.byte	0
 2598 0148 00       		.byte	0
 2599 0149 1B       		.uleb128 0x1b
 2600 014a 05       		.uleb128 0x5
 2601 014b 00       		.byte	0
 2602 014c 03       		.uleb128 0x3
 2603 014d 08       		.uleb128 0x8
 2604 014e 3A       		.uleb128 0x3a
 2605 014f 0B       		.uleb128 0xb
 2606 0150 3B       		.uleb128 0x3b
 2607 0151 0B       		.uleb128 0xb
 2608 0152 49       		.uleb128 0x49
 2609 0153 13       		.uleb128 0x13
 2610 0154 02       		.uleb128 0x2
 2611 0155 18       		.uleb128 0x18
 2612 0156 00       		.byte	0
 2613 0157 00       		.byte	0
 2614 0158 1C       		.uleb128 0x1c
 2615 0159 34       		.uleb128 0x34
 2616 015a 00       		.byte	0
 2617 015b 03       		.uleb128 0x3
 2618 015c 0E       		.uleb128 0xe
 2619 015d 3A       		.uleb128 0x3a
 2620 015e 0B       		.uleb128 0xb
 2621 015f 3B       		.uleb128 0x3b
 2622 0160 0B       		.uleb128 0xb
 2623 0161 49       		.uleb128 0x49
 2624 0162 13       		.uleb128 0x13
 2625 0163 02       		.uleb128 0x2
 2626 0164 17       		.uleb128 0x17
 2627 0165 00       		.byte	0
GAS LISTING /tmp/ccWepkvC.s 			page 53


 2628 0166 00       		.byte	0
 2629 0167 1D       		.uleb128 0x1d
 2630 0168 34       		.uleb128 0x34
 2631 0169 00       		.byte	0
 2632 016a 03       		.uleb128 0x3
 2633 016b 08       		.uleb128 0x8
 2634 016c 3A       		.uleb128 0x3a
 2635 016d 0B       		.uleb128 0xb
 2636 016e 3B       		.uleb128 0x3b
 2637 016f 0B       		.uleb128 0xb
 2638 0170 49       		.uleb128 0x49
 2639 0171 13       		.uleb128 0x13
 2640 0172 02       		.uleb128 0x2
 2641 0173 17       		.uleb128 0x17
 2642 0174 00       		.byte	0
 2643 0175 00       		.byte	0
 2644 0176 1E       		.uleb128 0x1e
 2645 0177 2E       		.uleb128 0x2e
 2646 0178 01       		.byte	0x1
 2647 0179 31       		.uleb128 0x31
 2648 017a 13       		.uleb128 0x13
 2649 017b 11       		.uleb128 0x11
 2650 017c 01       		.uleb128 0x1
 2651 017d 12       		.uleb128 0x12
 2652 017e 06       		.uleb128 0x6
 2653 017f 40       		.uleb128 0x40
 2654 0180 18       		.uleb128 0x18
 2655 0181 9742     		.uleb128 0x2117
 2656 0183 19       		.uleb128 0x19
 2657 0184 01       		.uleb128 0x1
 2658 0185 13       		.uleb128 0x13
 2659 0186 00       		.byte	0
 2660 0187 00       		.byte	0
 2661 0188 1F       		.uleb128 0x1f
 2662 0189 34       		.uleb128 0x34
 2663 018a 00       		.byte	0
 2664 018b 31       		.uleb128 0x31
 2665 018c 13       		.uleb128 0x13
 2666 018d 02       		.uleb128 0x2
 2667 018e 17       		.uleb128 0x17
 2668 018f 00       		.byte	0
 2669 0190 00       		.byte	0
 2670 0191 20       		.uleb128 0x20
 2671 0192 0B       		.uleb128 0xb
 2672 0193 01       		.byte	0x1
 2673 0194 11       		.uleb128 0x11
 2674 0195 01       		.uleb128 0x1
 2675 0196 12       		.uleb128 0x12
 2676 0197 06       		.uleb128 0x6
 2677 0198 01       		.uleb128 0x1
 2678 0199 13       		.uleb128 0x13
 2679 019a 00       		.byte	0
 2680 019b 00       		.byte	0
 2681 019c 21       		.uleb128 0x21
 2682 019d 34       		.uleb128 0x34
 2683 019e 00       		.byte	0
 2684 019f 03       		.uleb128 0x3
GAS LISTING /tmp/ccWepkvC.s 			page 54


 2685 01a0 0E       		.uleb128 0xe
 2686 01a1 3A       		.uleb128 0x3a
 2687 01a2 0B       		.uleb128 0xb
 2688 01a3 3B       		.uleb128 0x3b
 2689 01a4 0B       		.uleb128 0xb
 2690 01a5 49       		.uleb128 0x49
 2691 01a6 13       		.uleb128 0x13
 2692 01a7 3F       		.uleb128 0x3f
 2693 01a8 19       		.uleb128 0x19
 2694 01a9 3C       		.uleb128 0x3c
 2695 01aa 19       		.uleb128 0x19
 2696 01ab 00       		.byte	0
 2697 01ac 00       		.byte	0
 2698 01ad 22       		.uleb128 0x22
 2699 01ae 01       		.uleb128 0x1
 2700 01af 01       		.byte	0x1
 2701 01b0 49       		.uleb128 0x49
 2702 01b1 13       		.uleb128 0x13
 2703 01b2 01       		.uleb128 0x1
 2704 01b3 13       		.uleb128 0x13
 2705 01b4 00       		.byte	0
 2706 01b5 00       		.byte	0
 2707 01b6 23       		.uleb128 0x23
 2708 01b7 21       		.uleb128 0x21
 2709 01b8 00       		.byte	0
 2710 01b9 49       		.uleb128 0x49
 2711 01ba 13       		.uleb128 0x13
 2712 01bb 2F       		.uleb128 0x2f
 2713 01bc 0B       		.uleb128 0xb
 2714 01bd 00       		.byte	0
 2715 01be 00       		.byte	0
 2716 01bf 24       		.uleb128 0x24
 2717 01c0 21       		.uleb128 0x21
 2718 01c1 00       		.byte	0
 2719 01c2 00       		.byte	0
 2720 01c3 00       		.byte	0
 2721 01c4 25       		.uleb128 0x25
 2722 01c5 34       		.uleb128 0x34
 2723 01c6 00       		.byte	0
 2724 01c7 03       		.uleb128 0x3
 2725 01c8 08       		.uleb128 0x8
 2726 01c9 3A       		.uleb128 0x3a
 2727 01ca 0B       		.uleb128 0xb
 2728 01cb 3B       		.uleb128 0x3b
 2729 01cc 0B       		.uleb128 0xb
 2730 01cd 49       		.uleb128 0x49
 2731 01ce 13       		.uleb128 0x13
 2732 01cf 3F       		.uleb128 0x3f
 2733 01d0 19       		.uleb128 0x19
 2734 01d1 3C       		.uleb128 0x3c
 2735 01d2 19       		.uleb128 0x19
 2736 01d3 00       		.byte	0
 2737 01d4 00       		.byte	0
 2738 01d5 26       		.uleb128 0x26
 2739 01d6 34       		.uleb128 0x34
 2740 01d7 00       		.byte	0
 2741 01d8 03       		.uleb128 0x3
GAS LISTING /tmp/ccWepkvC.s 			page 55


 2742 01d9 0E       		.uleb128 0xe
 2743 01da 3A       		.uleb128 0x3a
 2744 01db 0B       		.uleb128 0xb
 2745 01dc 3B       		.uleb128 0x3b
 2746 01dd 0B       		.uleb128 0xb
 2747 01de 49       		.uleb128 0x49
 2748 01df 13       		.uleb128 0x13
 2749 01e0 3F       		.uleb128 0x3f
 2750 01e1 19       		.uleb128 0x19
 2751 01e2 02       		.uleb128 0x2
 2752 01e3 18       		.uleb128 0x18
 2753 01e4 00       		.byte	0
 2754 01e5 00       		.byte	0
 2755 01e6 27       		.uleb128 0x27
 2756 01e7 2E       		.uleb128 0x2e
 2757 01e8 01       		.byte	0x1
 2758 01e9 3F       		.uleb128 0x3f
 2759 01ea 19       		.uleb128 0x19
 2760 01eb 03       		.uleb128 0x3
 2761 01ec 0E       		.uleb128 0xe
 2762 01ed 3A       		.uleb128 0x3a
 2763 01ee 0B       		.uleb128 0xb
 2764 01ef 3B       		.uleb128 0x3b
 2765 01f0 05       		.uleb128 0x5
 2766 01f1 27       		.uleb128 0x27
 2767 01f2 19       		.uleb128 0x19
 2768 01f3 49       		.uleb128 0x49
 2769 01f4 13       		.uleb128 0x13
 2770 01f5 3C       		.uleb128 0x3c
 2771 01f6 19       		.uleb128 0x19
 2772 01f7 01       		.uleb128 0x1
 2773 01f8 13       		.uleb128 0x13
 2774 01f9 00       		.byte	0
 2775 01fa 00       		.byte	0
 2776 01fb 28       		.uleb128 0x28
 2777 01fc 2E       		.uleb128 0x2e
 2778 01fd 00       		.byte	0
 2779 01fe 3F       		.uleb128 0x3f
 2780 01ff 19       		.uleb128 0x19
 2781 0200 03       		.uleb128 0x3
 2782 0201 0E       		.uleb128 0xe
 2783 0202 3A       		.uleb128 0x3a
 2784 0203 0B       		.uleb128 0xb
 2785 0204 3B       		.uleb128 0x3b
 2786 0205 0B       		.uleb128 0xb
 2787 0206 27       		.uleb128 0x27
 2788 0207 19       		.uleb128 0x19
 2789 0208 3C       		.uleb128 0x3c
 2790 0209 19       		.uleb128 0x19
 2791 020a 00       		.byte	0
 2792 020b 00       		.byte	0
 2793 020c 29       		.uleb128 0x29
 2794 020d 2E       		.uleb128 0x2e
 2795 020e 01       		.byte	0x1
 2796 020f 3F       		.uleb128 0x3f
 2797 0210 19       		.uleb128 0x19
 2798 0211 03       		.uleb128 0x3
GAS LISTING /tmp/ccWepkvC.s 			page 56


 2799 0212 0E       		.uleb128 0xe
 2800 0213 3A       		.uleb128 0x3a
 2801 0214 0B       		.uleb128 0xb
 2802 0215 3B       		.uleb128 0x3b
 2803 0216 0B       		.uleb128 0xb
 2804 0217 27       		.uleb128 0x27
 2805 0218 19       		.uleb128 0x19
 2806 0219 49       		.uleb128 0x49
 2807 021a 13       		.uleb128 0x13
 2808 021b 3C       		.uleb128 0x3c
 2809 021c 19       		.uleb128 0x19
 2810 021d 01       		.uleb128 0x1
 2811 021e 13       		.uleb128 0x13
 2812 021f 00       		.byte	0
 2813 0220 00       		.byte	0
 2814 0221 2A       		.uleb128 0x2a
 2815 0222 2E       		.uleb128 0x2e
 2816 0223 01       		.byte	0x1
 2817 0224 3F       		.uleb128 0x3f
 2818 0225 19       		.uleb128 0x19
 2819 0226 03       		.uleb128 0x3
 2820 0227 0E       		.uleb128 0xe
 2821 0228 3A       		.uleb128 0x3a
 2822 0229 0B       		.uleb128 0xb
 2823 022a 3B       		.uleb128 0x3b
 2824 022b 0B       		.uleb128 0xb
 2825 022c 27       		.uleb128 0x27
 2826 022d 19       		.uleb128 0x19
 2827 022e 3C       		.uleb128 0x3c
 2828 022f 19       		.uleb128 0x19
 2829 0230 01       		.uleb128 0x1
 2830 0231 13       		.uleb128 0x13
 2831 0232 00       		.byte	0
 2832 0233 00       		.byte	0
 2833 0234 2B       		.uleb128 0x2b
 2834 0235 2E       		.uleb128 0x2e
 2835 0236 01       		.byte	0x1
 2836 0237 3F       		.uleb128 0x3f
 2837 0238 19       		.uleb128 0x19
 2838 0239 03       		.uleb128 0x3
 2839 023a 0E       		.uleb128 0xe
 2840 023b 3A       		.uleb128 0x3a
 2841 023c 0B       		.uleb128 0xb
 2842 023d 3B       		.uleb128 0x3b
 2843 023e 05       		.uleb128 0x5
 2844 023f 27       		.uleb128 0x27
 2845 0240 19       		.uleb128 0x19
 2846 0241 3C       		.uleb128 0x3c
 2847 0242 19       		.uleb128 0x19
 2848 0243 01       		.uleb128 0x1
 2849 0244 13       		.uleb128 0x13
 2850 0245 00       		.byte	0
 2851 0246 00       		.byte	0
 2852 0247 2C       		.uleb128 0x2c
 2853 0248 2E       		.uleb128 0x2e
 2854 0249 00       		.byte	0
 2855 024a 3F       		.uleb128 0x3f
GAS LISTING /tmp/ccWepkvC.s 			page 57


 2856 024b 19       		.uleb128 0x19
 2857 024c 03       		.uleb128 0x3
 2858 024d 0E       		.uleb128 0xe
 2859 024e 3A       		.uleb128 0x3a
 2860 024f 0B       		.uleb128 0xb
 2861 0250 3B       		.uleb128 0x3b
 2862 0251 0B       		.uleb128 0xb
 2863 0252 27       		.uleb128 0x27
 2864 0253 19       		.uleb128 0x19
 2865 0254 49       		.uleb128 0x49
 2866 0255 13       		.uleb128 0x13
 2867 0256 3C       		.uleb128 0x3c
 2868 0257 19       		.uleb128 0x19
 2869 0258 00       		.byte	0
 2870 0259 00       		.byte	0
 2871 025a 00       		.byte	0
 2872              		.section	.debug_loc,"",@progbits
 2873              	.Ldebug_loc0:
 2874              	.LLST0:
 2875 0000 BE020000 		.long	.LVL17-.Ltext0
 2876 0004 EA020000 		.long	.LVL23-.Ltext0
 2877 0008 0100     		.value	0x1
 2878 000a 53       		.byte	0x53
 2879 000b EA020000 		.long	.LVL23-.Ltext0
 2880 000f EB020000 		.long	.LVL24-.Ltext0
 2881 0013 0300     		.value	0x3
 2882 0015 76       		.byte	0x76
 2883 0016 7F       		.sleb128 -1
 2884 0017 9F       		.byte	0x9f
 2885 0018 ED020000 		.long	.LVL25-.Ltext0
 2886 001c 89040000 		.long	.LFE10-.Ltext0
 2887 0020 0100     		.value	0x1
 2888 0022 53       		.byte	0x53
 2889 0023 00000000 		.long	0
 2890 0027 00000000 		.long	0
 2891              	.LLST1:
 2892 002b D2020000 		.long	.LVL19-.Ltext0
 2893 002f D4020000 		.long	.LVL20-.Ltext0
 2894 0033 0100     		.value	0x1
 2895 0035 50       		.byte	0x50
 2896 0036 D4020000 		.long	.LVL20-.Ltext0
 2897 003a E6020000 		.long	.LVL22-.Ltext0
 2898 003e 0100     		.value	0x1
 2899 0040 57       		.byte	0x57
 2900 0041 ED020000 		.long	.LVL25-.Ltext0
 2901 0045 1A030000 		.long	.LVL27-.Ltext0
 2902 0049 0100     		.value	0x1
 2903 004b 57       		.byte	0x57
 2904 004c 1A030000 		.long	.LVL27-.Ltext0
 2905 0050 26030000 		.long	.LVL28-.Ltext0
 2906 0054 0100     		.value	0x1
 2907 0056 50       		.byte	0x50
 2908 0057 94030000 		.long	.LVL32-.Ltext0
 2909 005b A0030000 		.long	.LVL33-.Ltext0
 2910 005f 0100     		.value	0x1
 2911 0061 50       		.byte	0x50
 2912 0062 0B040000 		.long	.LVL37-.Ltext0
GAS LISTING /tmp/ccWepkvC.s 			page 58


 2913 0066 17040000 		.long	.LVL38-.Ltext0
 2914 006a 0100     		.value	0x1
 2915 006c 50       		.byte	0x50
 2916 006d 00000000 		.long	0
 2917 0071 00000000 		.long	0
 2918              	.LLST2:
 2919 0075 A0040000 		.long	.LVL43-.Ltext0
 2920 0079 B9040000 		.long	.LVL45-.Ltext0
 2921 007d 0100     		.value	0x1
 2922 007f 53       		.byte	0x53
 2923 0080 B9040000 		.long	.LVL45-.Ltext0
 2924 0084 CA040000 		.long	.LVL47-.Ltext0
 2925 0088 0400     		.value	0x4
 2926 008a 73       		.byte	0x73
 2927 008b 9C7F     		.sleb128 -100
 2928 008d 9F       		.byte	0x9f
 2929 008e D0040000 		.long	.LVL48-.Ltext0
 2930 0092 D6040000 		.long	.LVL49-.Ltext0
 2931 0096 0400     		.value	0x4
 2932 0098 73       		.byte	0x73
 2933 0099 9C7F     		.sleb128 -100
 2934 009b 9F       		.byte	0x9f
 2935 009c D6040000 		.long	.LVL49-.Ltext0
 2936 00a0 EF040000 		.long	.LVL51-.Ltext0
 2937 00a4 0100     		.value	0x1
 2938 00a6 53       		.byte	0x53
 2939 00a7 EF040000 		.long	.LVL51-.Ltext0
 2940 00ab 06050000 		.long	.LVL53-.Ltext0
 2941 00af 0400     		.value	0x4
 2942 00b1 73       		.byte	0x73
 2943 00b2 9C7F     		.sleb128 -100
 2944 00b4 9F       		.byte	0x9f
 2945 00b5 00000000 		.long	0
 2946 00b9 00000000 		.long	0
 2947              	.LLST3:
 2948 00bd 06050000 		.long	.LVL53-.Ltext0
 2949 00c1 25050000 		.long	.LVL55-.Ltext0
 2950 00c5 0100     		.value	0x1
 2951 00c7 53       		.byte	0x53
 2952 00c8 25050000 		.long	.LVL55-.Ltext0
 2953 00cc 3F050000 		.long	.LVL57-.Ltext0
 2954 00d0 0400     		.value	0x4
 2955 00d2 73       		.byte	0x73
 2956 00d3 9878     		.sleb128 -1000
 2957 00d5 9F       		.byte	0x9f
 2958 00d6 3F050000 		.long	.LVL57-.Ltext0
 2959 00da 63050000 		.long	.LFE11-.Ltext0
 2960 00de 0100     		.value	0x1
 2961 00e0 53       		.byte	0x53
 2962 00e1 00000000 		.long	0
 2963 00e5 00000000 		.long	0
 2964              		.section	.debug_aranges,"",@progbits
 2965 0000 1C000000 		.long	0x1c
 2966 0004 0200     		.value	0x2
 2967 0006 00000000 		.long	.Ldebug_info0
 2968 000a 04       		.byte	0x4
 2969 000b 00       		.byte	0
GAS LISTING /tmp/ccWepkvC.s 			page 59


 2970 000c 0000     		.value	0
 2971 000e 0000     		.value	0
 2972 0010 00000000 		.long	.Ltext0
 2973 0014 63050000 		.long	.Letext0-.Ltext0
 2974 0018 00000000 		.long	0
 2975 001c 00000000 		.long	0
 2976              		.section	.debug_line,"",@progbits
 2977              	.Ldebug_line0:
 2978 0000 B8010000 		.section	.debug_str,"MS",@progbits,1
 2978      02001601 
 2978      00000101 
 2978      FB0E0D00 
 2978      01010101 
 2979              	.LASF73:
 2980 0000 7466756E 		.string	"tfunc_t"
 2980      635F7400 
 2981              	.LASF37:
 2982 0008 705F6D73 		.string	"p_msg"
 2982      6700
 2983              	.LASF67:
 2984 000e 6D5F6E65 		.string	"m_next"
 2984      787400
 2985              	.LASF4:
 2986 0015 73697A65 		.string	"size_t"
 2986      5F7400
 2987              	.LASF82:
 2988 001c 7072696F 		.string	"prio"
 2988      00
 2989              	.LASF68:
 2990 0021 7264796D 		.string	"rdymsg"
 2990      736700
 2991              	.LASF83:
 2992 0028 76746C69 		.string	"vtlist"
 2992      737400
 2993              	.LASF11:
 2994 002f 6C6F6E67 		.string	"long long unsigned int"
 2994      206C6F6E 
 2994      6720756E 
 2994      7369676E 
 2994      65642069 
 2995              	.LASF69:
 2996 0046 65786974 		.string	"exitcode"
 2996      636F6465 
 2996      00
 2997              	.LASF25:
 2998 004f 705F7072 		.string	"p_prio"
 2998      696F00
 2999              	.LASF6:
 3000 0056 6C6F6E67 		.string	"long long int"
 3000      206C6F6E 
 3000      6720696E 
 3000      7400
 3001              	.LASF2:
 3002 0064 7369676E 		.string	"signed char"
 3002      65642063 
 3002      68617200 
 3003              	.LASF41:
GAS LISTING /tmp/ccWepkvC.s 			page 60


 3004 0070 705F6D70 		.string	"p_mpool"
 3004      6F6F6C00 
 3005              	.LASF12:
 3006 0078 626F6F6C 		.string	"bool_t"
 3006      5F7400
 3007              	.LASF65:
 3008 007f 6D5F7175 		.string	"m_queue"
 3008      65756500 
 3009              	.LASF103:
 3010 0087 2F686F6D 		.string	"/home/tony/ChibiOS-RT/testhal/Posix/EXT"
 3010      652F746F 
 3010      6E792F43 
 3010      68696269 
 3010      4F532D52 
 3011              	.LASF97:
 3012 00af 74657374 		.string	"test_emit_token"
 3012      5F656D69 
 3012      745F746F 
 3012      6B656E00 
 3013              	.LASF17:
 3014 00bf 74736C69 		.string	"tslices_t"
 3014      6365735F 
 3014      7400
 3015              	.LASF93:
 3016 00c9 63685468 		.string	"chThdCreateI"
 3016      64437265 
 3016      61746549 
 3016      00
 3017              	.LASF1:
 3018 00d6 6C6F6E67 		.string	"long int"
 3018      20696E74 
 3018      00
 3019              	.LASF15:
 3020 00df 74737461 		.string	"tstate_t"
 3020      74655F74 
 3020      00
 3021              	.LASF99:
 3022 00e8 5F746573 		.string	"_test_assert_time_window"
 3022      745F6173 
 3022      73657274 
 3022      5F74696D 
 3022      655F7769 
 3023              	.LASF27:
 3024 0101 705F6E65 		.string	"p_newer"
 3024      77657200 
 3025              	.LASF95:
 3026 0109 63685468 		.string	"chThdSetPriority"
 3026      64536574 
 3026      5072696F 
 3026      72697479 
 3026      00
 3027              	.LASF60:
 3028 011a 725F6E65 		.string	"r_newer"
 3028      77657200 
 3029              	.LASF51:
 3030 0122 76745F70 		.string	"vt_prev"
 3030      72657600 
GAS LISTING /tmp/ccWepkvC.s 			page 61


 3031              	.LASF79:
 3032 012a 74686431 		.string	"thd1_execute"
 3032      5F657865 
 3032      63757465 
 3032      00
 3033              	.LASF0:
 3034 0137 756E7369 		.string	"unsigned int"
 3034      676E6564 
 3034      20696E74 
 3034      00
 3035              	.LASF50:
 3036 0144 76745F6E 		.string	"vt_next"
 3036      65787400 
 3037              	.LASF36:
 3038 014c 705F6D73 		.string	"p_msgqueue"
 3038      67717565 
 3038      756500
 3039              	.LASF77:
 3040 0157 74656172 		.string	"teardown"
 3040      646F776E 
 3040      00
 3041              	.LASF75:
 3042 0160 6E616D65 		.string	"name"
 3042      00
 3043              	.LASF47:
 3044 0165 636F6E74 		.string	"context"
 3044      65787400 
 3045              	.LASF9:
 3046 016d 73686F72 		.string	"short unsigned int"
 3046      7420756E 
 3046      7369676E 
 3046      65642069 
 3046      6E7400
 3047              	.LASF19:
 3048 0180 6D73675F 		.string	"msg_t"
 3048      7400
 3049              	.LASF14:
 3050 0186 746D6F64 		.string	"tmode_t"
 3050      655F7400 
 3051              	.LASF43:
 3052 018e 54687265 		.string	"ThreadsList"
 3052      6164734C 
 3052      69737400 
 3053              	.LASF20:
 3054 019a 6576656E 		.string	"eventmask_t"
 3054      746D6173 
 3054      6B5F7400 
 3055              	.LASF64:
 3056 01a6 4D757465 		.string	"Mutex"
 3056      7800
 3057              	.LASF80:
 3058 01ac 74686432 		.string	"thd2_execute"
 3058      5F657865 
 3058      63757465 
 3058      00
 3059              	.LASF91:
 3060 01b9 63685468 		.string	"chThdCreateStatic"
GAS LISTING /tmp/ccWepkvC.s 			page 62


 3060      64437265 
 3060      61746553 
 3060      74617469 
 3060      6300
 3061              	.LASF52:
 3062 01cb 76745F74 		.string	"vt_time"
 3062      696D6500 
 3063              	.LASF44:
 3064 01d3 73697A65 		.string	"sizetype"
 3064      74797065 
 3064      00
 3065              	.LASF86:
 3066 01dc 74657374 		.string	"testthd1"
 3066      74686431 
 3066      00
 3067              	.LASF87:
 3068 01e5 74657374 		.string	"testthd2"
 3068      74686432 
 3068      00
 3069              	.LASF88:
 3070 01ee 74657374 		.string	"testthd3"
 3070      74686433 
 3070      00
 3071              	.LASF89:
 3072 01f7 74657374 		.string	"testthd4"
 3072      74686434 
 3072      00
 3073              	.LASF53:
 3074 0200 76745F66 		.string	"vt_func"
 3074      756E6300 
 3075              	.LASF94:
 3076 0208 63685468 		.string	"chThdResume"
 3076      64526573 
 3076      756D6500 
 3077              	.LASF107:
 3078 0214 74657374 		.string	"test_wait_threads"
 3078      5F776169 
 3078      745F7468 
 3078      72656164 
 3078      7300
 3079              	.LASF28:
 3080 0226 705F6F6C 		.string	"p_older"
 3080      64657200 
 3081              	.LASF59:
 3082 022e 725F6374 		.string	"r_ctx"
 3082      7800
 3083              	.LASF42:
 3084 0234 54687265 		.string	"ThreadsQueue"
 3084      61647351 
 3084      75657565 
 3084      00
 3085              	.LASF76:
 3086 0241 73657475 		.string	"setup"
 3086      7000
 3087              	.LASF92:
 3088 0247 5F746573 		.string	"_test_assert_sequence"
 3088      745F6173 
GAS LISTING /tmp/ccWepkvC.s 			page 63


 3088      73657274 
 3088      5F736571 
 3088      75656E63 
 3089              	.LASF105:
 3090 025d 74696D65 		.string	"time"
 3090      00
 3091              	.LASF62:
 3092 0262 725F6375 		.string	"r_current"
 3092      7272656E 
 3092      7400
 3093              	.LASF61:
 3094 026c 725F6F6C 		.string	"r_older"
 3094      64657200 
 3095              	.LASF100:
 3096 0274 63685468 		.string	"chThdSleepUntil"
 3096      64536C65 
 3096      6570556E 
 3096      74696C00 
 3097              	.LASF16:
 3098 0284 74726566 		.string	"trefs_t"
 3098      735F7400 
 3099              	.LASF81:
 3100 028c 74686433 		.string	"thd3_execute"
 3100      5F657865 
 3100      63757465 
 3100      00
 3101              	.LASF24:
 3102 0299 705F7072 		.string	"p_prev"
 3102      657600
 3103              	.LASF78:
 3104 02a0 65786563 		.string	"execute"
 3104      75746500 
 3105              	.LASF18:
 3106 02a8 74707269 		.string	"tprio_t"
 3106      6F5F7400 
 3107              	.LASF106:
 3108 02b0 74687265 		.string	"thread"
 3108      616400
 3109              	.LASF13:
 3110 02b7 5F426F6F 		.string	"_Bool"
 3110      6C00
 3111              	.LASF5:
 3112 02bd 696E7433 		.string	"int32_t"
 3112      325F7400 
 3113              	.LASF8:
 3114 02c5 756E7369 		.string	"unsigned char"
 3114      676E6564 
 3114      20636861 
 3114      7200
 3115              	.LASF101:
 3116 02d3 474E5520 		.string	"GNU C 4.8.2 -m32 -mtune=generic -march=i686 -ggdb -O2 -fomit-frame-pointer -fstack-protec
 3116      4320342E 
 3116      382E3220 
 3116      2D6D3332 
 3116      202D6D74 
 3117              	.LASF108:
 3118 0330 74657374 		.string	"test_wait_tick"
GAS LISTING /tmp/ccWepkvC.s 			page 64


 3118      5F776169 
 3118      745F7469 
 3118      636B00
 3119              	.LASF39:
 3120 033f 705F6D74 		.string	"p_mtxlist"
 3120      786C6973 
 3120      7400
 3121              	.LASF3:
 3122 0349 73686F72 		.string	"short int"
 3122      7420696E 
 3122      7400
 3123              	.LASF30:
 3124 0353 705F7374 		.string	"p_state"
 3124      61746500 
 3125              	.LASF33:
 3126 035b 705F7072 		.string	"p_preempt"
 3126      65656D70 
 3126      7400
 3127              	.LASF85:
 3128 0365 74687265 		.string	"threads"
 3128      61647300 
 3129              	.LASF58:
 3130 036d 725F7072 		.string	"r_prio"
 3130      696F00
 3131              	.LASF71:
 3132 0374 65776D61 		.string	"ewmask"
 3132      736B00
 3133              	.LASF23:
 3134 037b 705F6E65 		.string	"p_next"
 3134      787400
 3135              	.LASF31:
 3136 0382 705F666C 		.string	"p_flags"
 3136      61677300 
 3137              	.LASF22:
 3138 038a 54687265 		.string	"Thread"
 3138      616400
 3139              	.LASF74:
 3140 0391 74657374 		.string	"testcase"
 3140      63617365 
 3140      00
 3141              	.LASF38:
 3142 039a 705F6570 		.string	"p_epending"
 3142      656E6469 
 3142      6E6700
 3143              	.LASF102:
 3144 03a5 2E2E2F2E 		.string	"../../../test/testthd.c"
 3144      2E2F2E2E 
 3144      2F746573 
 3144      742F7465 
 3144      73747468 
 3145              	.LASF57:
 3146 03bd 725F7175 		.string	"r_queue"
 3146      65756500 
 3147              	.LASF49:
 3148 03c5 56697274 		.string	"VirtualTimer"
 3148      75616C54 
 3148      696D6572 
GAS LISTING /tmp/ccWepkvC.s 			page 65


 3148      00
 3149              	.LASF72:
 3150 03d2 63686172 		.string	"char"
 3150      00
 3151              	.LASF104:
 3152 03d7 74686434 		.string	"thd4_execute"
 3152      5F657865 
 3152      63757465 
 3152      00
 3153              	.LASF90:
 3154 03e4 70617474 		.string	"patternthd"
 3154      65726E74 
 3154      686400
 3155              	.LASF21:
 3156 03ef 73797374 		.string	"systime_t"
 3156      696D655F 
 3156      7400
 3157              	.LASF40:
 3158 03f9 705F7265 		.string	"p_realprio"
 3158      616C7072 
 3158      696F00
 3159              	.LASF48:
 3160 0404 76746675 		.string	"vtfunc_t"
 3160      6E635F74 
 3160      00
 3161              	.LASF34:
 3162 040d 705F7469 		.string	"p_time"
 3162      6D6500
 3163              	.LASF46:
 3164 0414 696E7463 		.string	"intctx"
 3164      747800
 3165              	.LASF54:
 3166 041b 76745F70 		.string	"vt_par"
 3166      617200
 3167              	.LASF10:
 3168 0422 75696E74 		.string	"uint32_t"
 3168      33325F74 
 3168      00
 3169              	.LASF98:
 3170 042b 63685468 		.string	"chThdSleep"
 3170      64536C65 
 3170      657000
 3171              	.LASF32:
 3172 0436 705F7265 		.string	"p_refs"
 3172      667300
 3173              	.LASF63:
 3174 043d 52656164 		.string	"ReadyList"
 3174      794C6973 
 3174      7400
 3175              	.LASF84:
 3176 0447 726C6973 		.string	"rlist"
 3176      7400
 3177              	.LASF7:
 3178 044d 75696E74 		.string	"uint8_t"
 3178      385F7400 
 3179              	.LASF70:
 3180 0455 77746F62 		.string	"wtobjp"
GAS LISTING /tmp/ccWepkvC.s 			page 66


 3180      6A7000
 3181              	.LASF29:
 3182 045c 705F6E61 		.string	"p_name"
 3182      6D6500
 3183              	.LASF96:
 3184 0463 5F746573 		.string	"_test_assert"
 3184      745F6173 
 3184      73657274 
 3184      00
 3185              	.LASF55:
 3186 0470 76745F73 		.string	"vt_systime"
 3186      79737469 
 3186      6D6500
 3187              	.LASF45:
 3188 047b 72656778 		.string	"regx86"
 3188      383600
 3189              	.LASF56:
 3190 0482 56544C69 		.string	"VTList"
 3190      737400
 3191              	.LASF66:
 3192 0489 6D5F6F77 		.string	"m_owner"
 3192      6E657200 
 3193              	.LASF26:
 3194 0491 705F6374 		.string	"p_ctx"
 3194      7800
 3195              	.LASF35:
 3196 0497 705F7761 		.string	"p_waiting"
 3196      6974696E 
 3196      6700
 3197              		.ident	"GCC: (Ubuntu 4.8.2-19ubuntu1) 4.8.2"
 3198              		.section	.note.GNU-stack,"",@progbits
GAS LISTING /tmp/ccWepkvC.s 			page 67


DEFINED SYMBOLS
                            *ABS*:0000000000000000 testthd.c
     /tmp/ccWepkvC.s:73     .text:0000000000000000 thd1_execute
     /tmp/ccWepkvC.s:170    .text:0000000000000140 thread
     /tmp/ccWepkvC.s:193    .text:0000000000000160 thd2_execute
     /tmp/ccWepkvC.s:303    .text:00000000000002b0 thd3_execute
     /tmp/ccWepkvC.s:528    .text:0000000000000490 thd4_execute
     /tmp/ccWepkvC.s:644    .rodata:0000000000000000 patternthd
     /tmp/ccWepkvC.s:709    .rodata:0000000000000044 testthd1
     /tmp/ccWepkvC.s:692    .rodata:0000000000000034 testthd2
     /tmp/ccWepkvC.s:675    .rodata:0000000000000024 testthd3
     /tmp/ccWepkvC.s:658    .rodata:0000000000000014 testthd4

UNDEFINED SYMBOLS
rlist
wa
chThdCreateStatic
threads
test_wait_threads
_test_assert_sequence
test_emit_token
chThdCreateI
chThdResume
chThdSetPriority
_test_assert
test_wait_tick
vtlist
chThdSleep
_test_assert_time_window
chThdSleepUntil
