GAS LISTING /tmp/ccu2m9kw.s 			page 1


   1              		.file	"testsem.c"
   2              	# GNU C (Ubuntu 4.8.2-19ubuntu1) version 4.8.2 (x86_64-linux-gnu)
   3              	#	compiled by GNU C version 4.8.2, GMP version 5.1.3, MPFR version 3.1.2-p3, MPC version 1.0.1
   4              	# GGC heuristics: --param ggc-min-expand=97 --param ggc-min-heapsize=126309
   5              	# options passed:  -I . -I ../../../os/ports/GCC/SIMIA32
   6              	# -I ../../../os/kernel/include -I ../../../test -I ../../../os/hal/include
   7              	# -I ../../../os/hal/platforms/Posix -I ../../../boards/simulator
   8              	# -I ../../../os/various -imultilib 32 -imultiarch i386-linux-gnu
   9              	# -MD ../../../test/testsem.d -MF .dep/testsem.o.d -MP
  10              	# -MQ ../../../test/testsem.o -D SIMULATOR -D SHELL_USE_IPRINTF=FALSE
  11              	# ../../../test/testsem.c -m32 -mtune=generic -march=i686
  12              	# -auxbase-strip ../../../test/testsem.o -ggdb -O2 -Wall -Wextra
  13              	# -Wstrict-prototypes -fomit-frame-pointer -fverbose-asm -fstack-protector
  14              	# -Wformat -Wformat-security
  15              	# options enabled:  -faggressive-loop-optimizations
  16              	# -fasynchronous-unwind-tables -fauto-inc-dec -fbranch-count-reg
  17              	# -fcaller-saves -fcombine-stack-adjustments -fcommon -fcompare-elim
  18              	# -fcprop-registers -fcrossjumping -fcse-follow-jumps -fdefer-pop
  19              	# -fdelete-null-pointer-checks -fdevirtualize -fdwarf2-cfi-asm
  20              	# -fearly-inlining -feliminate-unused-debug-types -fexpensive-optimizations
  21              	# -fforward-propagate -ffunction-cse -fgcse -fgcse-lm -fgnu-runtime
  22              	# -fguess-branch-probability -fhoist-adjacent-loads -fident -fif-conversion
  23              	# -fif-conversion2 -findirect-inlining -finline -finline-atomics
  24              	# -finline-functions-called-once -finline-small-functions -fipa-cp
  25              	# -fipa-profile -fipa-pure-const -fipa-reference -fipa-sra
  26              	# -fira-hoist-pressure -fira-share-save-slots -fira-share-spill-slots
  27              	# -fivopts -fkeep-static-consts -fleading-underscore -fmath-errno
  28              	# -fmerge-constants -fmerge-debug-strings -fmove-loop-invariants
  29              	# -fomit-frame-pointer -foptimize-register-move -foptimize-sibling-calls
  30              	# -foptimize-strlen -fpartial-inlining -fpcc-struct-return -fpeephole
  31              	# -fpeephole2 -fprefetch-loop-arrays -free -fregmove -freorder-blocks
  32              	# -freorder-functions -frerun-cse-after-loop
  33              	# -fsched-critical-path-heuristic -fsched-dep-count-heuristic
  34              	# -fsched-group-heuristic -fsched-interblock -fsched-last-insn-heuristic
  35              	# -fsched-rank-heuristic -fsched-spec -fsched-spec-insn-heuristic
  36              	# -fsched-stalled-insns-dep -fschedule-insns2 -fshow-column -fshrink-wrap
  37              	# -fsigned-zeros -fsplit-ivs-in-unroller -fsplit-wide-types
  38              	# -fstack-protector -fstrict-aliasing -fstrict-overflow
  39              	# -fstrict-volatile-bitfields -fsync-libcalls -fthread-jumps
  40              	# -ftoplevel-reorder -ftrapping-math -ftree-bit-ccp -ftree-builtin-call-dce
  41              	# -ftree-ccp -ftree-ch -ftree-coalesce-vars -ftree-copy-prop
  42              	# -ftree-copyrename -ftree-cselim -ftree-dce -ftree-dominator-opts
  43              	# -ftree-dse -ftree-forwprop -ftree-fre -ftree-loop-if-convert
  44              	# -ftree-loop-im -ftree-loop-ivcanon -ftree-loop-optimize
  45              	# -ftree-parallelize-loops= -ftree-phiprop -ftree-pre -ftree-pta
  46              	# -ftree-reassoc -ftree-scev-cprop -ftree-sink -ftree-slp-vectorize
  47              	# -ftree-slsr -ftree-sra -ftree-switch-conversion -ftree-tail-merge
  48              	# -ftree-ter -ftree-vect-loop-version -ftree-vrp -funit-at-a-time
  49              	# -funwind-tables -fvar-tracking -fvar-tracking-assignments -fverbose-asm
  50              	# -fzero-initialized-in-bss -m32 -m80387 -m96bit-long-double
  51              	# -maccumulate-outgoing-args -malign-stringops -mfancy-math-387
  52              	# -mfp-ret-in-387 -mglibc -mieee-fp -mlong-double-80 -mno-red-zone
  53              	# -mno-sse4 -mpush-args -msahf -mtls-direct-seg-refs
  54              	
  55              		.text
  56              	.Ltext0:
  57              		.section	.rodata.str1.1,"aMS",@progbits,1
GAS LISTING /tmp/ccu2m9kw.s 			page 2


  58              	.LC0:
  59 0000 4100     		.string	"A"
  60              	.LC1:
  61 0002 4200     		.string	"B"
  62              	.LC2:
  63 0004 4300     		.string	"C"
  64              	.LC3:
  65 0006 4400     		.string	"D"
  66              	.LC4:
  67 0008 4500     		.string	"E"
  68              	.LC5:
  69 000a 41424344 		.string	"ABCDE"
  69      4500
  70              		.text
  71              		.p2align 4,,15
  72              		.type	sem1_execute, @function
  73              	sem1_execute:
  74              	.LFB9:
  75              		.file 1 "../../../test/testsem.c"
  76              		.loc 1 84 0
  77              		.cfi_startproc
  78 0000 53       		pushl	%ebx	#
  79              		.cfi_def_cfa_offset 8
  80              		.cfi_offset 3, -8
  81 0001 83EC28   		subl	$40, %esp	#,
  82              		.cfi_def_cfa_offset 48
  83              		.loc 1 86 0
  84 0004 A1180000 		movl	rlist+24, %eax	# rlist.r_current, rlist.r_current
  84      00
  85 0009 C7442410 		movl	$.LC0, 16(%esp)	#,
  85      00000000 
  86 0011 8B1D0000 		movl	wa, %ebx	# wa, D.2282
  86      0000
  87 0017 C744240C 		movl	$thread1, 12(%esp)	#,
  87      20020000 
  88 001f 8B4008   		movl	8(%eax), %eax	# _3->p_prio, _3->p_prio
  89 0022 C7442404 		movl	$17008, 4(%esp)	#,
  89      70420000 
  90 002a 891C24   		movl	%ebx, (%esp)	# D.2282,
  91 002d 83C005   		addl	$5, %eax	#, D.2281
  92 0030 89442408 		movl	%eax, 8(%esp)	# D.2281,
  93 0034 E8FCFFFF 		call	chThdCreateStatic	#
  93      FF
  94              	.LVL0:
  95              		.loc 1 87 0
  96 0039 C7442410 		movl	$.LC1, 16(%esp)	#,
  96      02000000 
  97 0041 C744240C 		movl	$thread1, 12(%esp)	#,
  97      20020000 
  98              		.loc 1 86 0
  99 0049 A3000000 		movl	%eax, threads	# D.2280, threads
  99      00
 100              		.loc 1 87 0
 101 004e A1180000 		movl	rlist+24, %eax	# rlist.r_current, rlist.r_current
 101      00
 102 0053 8B4008   		movl	8(%eax), %eax	# _10->p_prio, _10->p_prio
 103 0056 C7442404 		movl	$17008, 4(%esp)	#,
GAS LISTING /tmp/ccu2m9kw.s 			page 3


 103      70420000 
 104 005e 83C001   		addl	$1, %eax	#, D.2281
 105 0061 89442408 		movl	%eax, 8(%esp)	# D.2281,
 106 0065 A1040000 		movl	wa+4, %eax	# wa, wa
 106      00
 107 006a 890424   		movl	%eax, (%esp)	# wa,
 108 006d E8FCFFFF 		call	chThdCreateStatic	#
 108      FF
 109              	.LVL1:
 110              		.loc 1 88 0
 111 0072 C7442410 		movl	$.LC2, 16(%esp)	#,
 111      04000000 
 112 007a C744240C 		movl	$thread1, 12(%esp)	#,
 112      20020000 
 113              		.loc 1 87 0
 114 0082 A3040000 		movl	%eax, threads+4	# D.2280, threads
 114      00
 115              		.loc 1 88 0
 116 0087 A1180000 		movl	rlist+24, %eax	# rlist.r_current, rlist.r_current
 116      00
 117 008c 8B4008   		movl	8(%eax), %eax	# _17->p_prio, _17->p_prio
 118 008f C7442404 		movl	$17008, 4(%esp)	#,
 118      70420000 
 119 0097 83C003   		addl	$3, %eax	#, D.2281
 120 009a 89442408 		movl	%eax, 8(%esp)	# D.2281,
 121 009e A1080000 		movl	wa+8, %eax	# wa, wa
 121      00
 122 00a3 890424   		movl	%eax, (%esp)	# wa,
 123 00a6 E8FCFFFF 		call	chThdCreateStatic	#
 123      FF
 124              	.LVL2:
 125              		.loc 1 89 0
 126 00ab C7442410 		movl	$.LC3, 16(%esp)	#,
 126      06000000 
 127 00b3 C744240C 		movl	$thread1, 12(%esp)	#,
 127      20020000 
 128              		.loc 1 88 0
 129 00bb A3080000 		movl	%eax, threads+8	# D.2280, threads
 129      00
 130              		.loc 1 89 0
 131 00c0 A1180000 		movl	rlist+24, %eax	# rlist.r_current, rlist.r_current
 131      00
 132 00c5 8B4008   		movl	8(%eax), %eax	# _24->p_prio, _24->p_prio
 133 00c8 C7442404 		movl	$17008, 4(%esp)	#,
 133      70420000 
 134 00d0 83C004   		addl	$4, %eax	#, D.2281
 135 00d3 89442408 		movl	%eax, 8(%esp)	# D.2281,
 136 00d7 A10C0000 		movl	wa+12, %eax	# wa, wa
 136      00
 137 00dc 890424   		movl	%eax, (%esp)	# wa,
 138 00df E8FCFFFF 		call	chThdCreateStatic	#
 138      FF
 139              	.LVL3:
 140              		.loc 1 90 0
 141 00e4 C7442410 		movl	$.LC4, 16(%esp)	#,
 141      08000000 
 142 00ec C744240C 		movl	$thread1, 12(%esp)	#,
GAS LISTING /tmp/ccu2m9kw.s 			page 4


 142      20020000 
 143              		.loc 1 89 0
 144 00f4 A30C0000 		movl	%eax, threads+12	# D.2280, threads
 144      00
 145              		.loc 1 90 0
 146 00f9 A1180000 		movl	rlist+24, %eax	# rlist.r_current, rlist.r_current
 146      00
 147 00fe 8B4008   		movl	8(%eax), %eax	# _31->p_prio, _31->p_prio
 148 0101 C7442404 		movl	$17008, 4(%esp)	#,
 148      70420000 
 149 0109 83C002   		addl	$2, %eax	#, D.2281
 150 010c 89442408 		movl	%eax, 8(%esp)	# D.2281,
 151 0110 A1100000 		movl	wa+16, %eax	# wa, wa
 151      00
 152 0115 890424   		movl	%eax, (%esp)	# wa,
 153 0118 E8FCFFFF 		call	chThdCreateStatic	#
 153      FF
 154              	.LVL4:
 155              		.loc 1 91 0
 156 011d C7042400 		movl	$sem1, (%esp)	#,
 156      000000
 157              		.loc 1 90 0
 158 0124 A3100000 		movl	%eax, threads+16	# D.2280, threads
 158      00
 159              		.loc 1 91 0
 160 0129 E8FCFFFF 		call	chSemSignal	#
 160      FF
 161              	.LVL5:
 162              		.loc 1 92 0
 163 012e C7042400 		movl	$sem1, (%esp)	#,
 163      000000
 164 0135 E8FCFFFF 		call	chSemSignal	#
 164      FF
 165              	.LVL6:
 166              		.loc 1 93 0
 167 013a C7042400 		movl	$sem1, (%esp)	#,
 167      000000
 168 0141 E8FCFFFF 		call	chSemSignal	#
 168      FF
 169              	.LVL7:
 170              		.loc 1 94 0
 171 0146 C7042400 		movl	$sem1, (%esp)	#,
 171      000000
 172 014d E8FCFFFF 		call	chSemSignal	#
 172      FF
 173              	.LVL8:
 174              		.loc 1 95 0
 175 0152 C7042400 		movl	$sem1, (%esp)	#,
 175      000000
 176 0159 E8FCFFFF 		call	chSemSignal	#
 176      FF
 177              	.LVL9:
 178              		.loc 1 96 0
 179 015e E8FCFFFF 		call	test_wait_threads	#
 179      FF
 180              	.LVL10:
 181              		.loc 1 100 0
GAS LISTING /tmp/ccu2m9kw.s 			page 5


 182 0163 C7442404 		movl	$.LC5, 4(%esp)	#,
 182      0A000000 
 183 016b C7042401 		movl	$1, (%esp)	#,
 183      000000
 184 0172 E8FCFFFF 		call	_test_assert_sequence	#
 184      FF
 185              	.LVL11:
 186 0177 84C0     		testb	%al, %al	# D.2283
 187 0179 7570     		jne	.L1	#,
 188              		.loc 1 102 0
 189 017b A1180000 		movl	rlist+24, %eax	# rlist.r_current, rlist.r_current
 189      00
 190 0180 C7442410 		movl	$.LC0, 16(%esp)	#,
 190      00000000 
 191 0188 C744240C 		movl	$thread1, 12(%esp)	#,
 191      20020000 
 192 0190 8B4008   		movl	8(%eax), %eax	# _46->p_prio, _46->p_prio
 193 0193 C7442404 		movl	$17008, 4(%esp)	#,
 193      70420000 
 194 019b 891C24   		movl	%ebx, (%esp)	# D.2282,
 195 019e 83C005   		addl	$5, %eax	#, D.2281
 196 01a1 89442408 		movl	%eax, 8(%esp)	# D.2281,
 197 01a5 E8FCFFFF 		call	chThdCreateStatic	#
 197      FF
 198              	.LVL12:
 199 01aa A3000000 		movl	%eax, threads	# D.2280, threads
 199      00
 200              		.loc 1 103 0
 201              	#APP
 202              	# 103 "../../../test/testsem.c" 1
   1              	/*
   2              	    ChibiOS/RT - Copyright (C) 2006-2013 Giovanni Di Sirio
   3              	
   4              	    Licensed under the Apache License, Version 2.0 (the "License");
   5              	    you may not use this file except in compliance with the License.
   6              	    You may obtain a copy of the License at
   7              	
   8              	        http://www.apache.org/licenses/LICENSE-2.0
   9              	
  10              	    Unless required by applicable law or agreed to in writing, software
  11              	    distributed under the License is distributed on an "AS IS" BASIS,
  12              	    WITHOUT WARRANTIES OR CONDITIONS OF ANY KIND, either express or implied.
  13              	    See the License for the specific language governing permissions and
  14              	    limitations under the License.
  15              	*/
  16              	
  17              	#include "ch.h"
  18              	#include "test.h"
  19              	
  20              	/**
  21              	 * @page test_sem Semaphores test
  22              	 *
  23              	 * File: @ref testsem.c
  24              	 *
  25              	 * <h2>Description</h2>
  26              	 * This module implements the test sequence for the @ref semaphores subsystem.
  27              	 *
GAS LISTING /tmp/ccu2m9kw.s 			page 6


  28              	 * <h2>Objective</h2>
  29              	 * Objective of the test module is to cover 100% of the @ref semaphores code.
  30              	 *
  31              	 * <h2>Preconditions</h2>
  32              	 * The module requires the following kernel options:
  33              	 * - @p CH_USE_SEMAPHORES
  34              	 * .
  35              	 * In case some of the required options are not enabled then some or all tests
  36              	 * may be skipped.
  37              	 *
  38              	 * <h2>Test Cases</h2>
  39              	 * - @subpage test_sem_001
  40              	 * - @subpage test_sem_002
  41              	 * - @subpage test_sem_003
  42              	 * - @subpage test_sem_004
  43              	 * .
  44              	 * @file testsem.c
  45              	 * @brief Semaphores test source file
  46              	 * @file testsem.h
  47              	 * @brief Semaphores test header file
  48              	 */
  49              	
  50              	#if CH_USE_SEMAPHORES || defined(__DOXYGEN__)
  51              	
  52              	#define ALLOWED_DELAY MS2ST(5)
  53              	
  54              	/*
  55              	 * Note, the static initializers are not really required because the
  56              	 * variables are explicitly initialized in each test case. It is done in order
  57              	 * to test the macros.
  58              	 */
  59              	static SEMAPHORE_DECL(sem1, 0);
  60              	
  61              	/**
  62              	 * @page test_sem_001 Enqueuing test
  63              	 *
  64              	 * <h2>Description</h2>
  65              	 * Five threads with randomized priorities are enqueued to a semaphore then
  66              	 * awakened one at time.<br>
  67              	 * The test expects that the threads reach their goal in FIFO order or
  68              	 * priority order depending on the CH_USE_SEMAPHORES_PRIORITY configuration
  69              	 * setting.
  70              	 */
  71              	
  72              	static void sem1_setup(void) {
  73              	
  74              	  chSemInit(&sem1, 0);
  75              	}
  76              	
  77              	static msg_t thread1(void *p) {
  78              	
  79              	  chSemWait(&sem1);
  80              	  test_emit_token(*(char *)p);
  81              	  return 0;
  82              	}
  83              	
  84              	static void sem1_execute(void) {
GAS LISTING /tmp/ccu2m9kw.s 			page 7


  85              	
  86              	  threads[0] = chThdCreateStatic(wa[0], WA_SIZE, chThdGetPriority()+5, thread1, "A");
  87              	  threads[1] = chThdCreateStatic(wa[1], WA_SIZE, chThdGetPriority()+1, thread1, "B");
  88              	  threads[2] = chThdCreateStatic(wa[2], WA_SIZE, chThdGetPriority()+3, thread1, "C");
  89              	  threads[3] = chThdCreateStatic(wa[3], WA_SIZE, chThdGetPriority()+4, thread1, "D");
  90              	  threads[4] = chThdCreateStatic(wa[4], WA_SIZE, chThdGetPriority()+2, thread1, "E");
  91              	  chSemSignal(&sem1);
  92              	  chSemSignal(&sem1);
  93              	  chSemSignal(&sem1);
  94              	  chSemSignal(&sem1);
  95              	  chSemSignal(&sem1);
  96              	  test_wait_threads();
  97              	#if CH_USE_SEMAPHORES_PRIORITY
  98              	  test_assert_sequence(1, "ADCEB");
  99              	#else
 100              	  test_assert_sequence(1, "ABCDE");
 101              	#endif
 102              	  threads[0] = chThdCreateStatic(wa[0], WA_SIZE, chThdGetPriority()+5, thread1, "A");
 103 01af 90       	  chSysLock();
 104              	  chSemAddCounterI(&sem1, 2);
 203              		nop
 204              	# 0 "" 2
 205              		.loc 1 104 0
 206              	#NO_APP
 207 01b0 C7442404 		movl	$2, 4(%esp)	#,
 207      02000000 
 208 01b8 C7042400 		movl	$sem1, (%esp)	#,
 208      000000
 209 01bf E8FCFFFF 		call	chSemAddCounterI	#
 209      FF
 210              	.LVL13:
 211              		.loc 1 105 0
 212 01c4 E8FCFFFF 		call	chSchRescheduleS	#
 212      FF
 213              	.LVL14:
 214              		.loc 1 106 0
 215              	#APP
 216              	# 106 "../../../test/testsem.c" 1
 105              	  chSchRescheduleS();
 106 01c9 90       	  chSysUnlock();
 107              	  test_wait_threads();
 217              		nop
 218              	# 0 "" 2
 219              		.loc 1 107 0
 220              	#NO_APP
 221 01ca E8FCFFFF 		call	test_wait_threads	#
 221      FF
 222              	.LVL15:
 223              		.loc 1 108 0
 224 01cf 31C0     		xorl	%eax, %eax	# D.2283
 225 01d1 833D0800 		cmpl	$1, sem1+8	#, sem1.s_cnt
 225      000001
 226 01d8 C7042402 		movl	$2, (%esp)	#,
 226      000000
 227 01df 0F94C0   		sete	%al	#, D.2283
 228 01e2 89442404 		movl	%eax, 4(%esp)	# D.2283,
 229 01e6 E8FCFFFF 		call	_test_assert	#
GAS LISTING /tmp/ccu2m9kw.s 			page 8


 229      FF
 230              	.LVL16:
 231              	.L1:
 232              		.loc 1 109 0
 233 01eb 83C428   		addl	$40, %esp	#,
 234              		.cfi_def_cfa_offset 8
 235 01ee 5B       		popl	%ebx	#
 236              		.cfi_restore 3
 237              		.cfi_def_cfa_offset 4
 238 01ef C3       		ret
 239              		.cfi_endproc
 240              	.LFE9:
 241              		.size	sem1_execute, .-sem1_execute
 242              		.p2align 4,,15
 243              		.type	thread3, @function
 244              	thread3:
 245              	.LFB14:
 246              		.loc 1 210 0
 247              		.cfi_startproc
 248              	.LVL17:
 249 01f0 83EC1C   		subl	$28, %esp	#,
 250              		.cfi_def_cfa_offset 32
 251              		.loc 1 213 0
 252 01f3 C7042400 		movl	$sem1, (%esp)	#,
 252      000000
 253 01fa E8FCFFFF 		call	chSemWait	#
 253      FF
 254              	.LVL18:
 255              		.loc 1 214 0
 256 01ff C7042400 		movl	$sem1, (%esp)	#,
 256      000000
 257 0206 E8FCFFFF 		call	chSemSignal	#
 257      FF
 258              	.LVL19:
 259              		.loc 1 216 0
 260 020b 31C0     		xorl	%eax, %eax	#
 261 020d 83C41C   		addl	$28, %esp	#,
 262              		.cfi_def_cfa_offset 4
 263 0210 C3       		ret
 264              		.cfi_endproc
 265              	.LFE14:
 266              		.size	thread3, .-thread3
 267 0211 EB0D9090 		.p2align 4,,15
 267      90909090 
 267      90909090 
 267      909090
 268              		.type	thread1, @function
 269              	thread1:
 270              	.LFB8:
 271              		.loc 1 77 0
 272              		.cfi_startproc
 273              	.LVL20:
 274 0220 83EC1C   		subl	$28, %esp	#,
 275              		.cfi_def_cfa_offset 32
 276              		.loc 1 79 0
 277 0223 C7042400 		movl	$sem1, (%esp)	#,
 277      000000
GAS LISTING /tmp/ccu2m9kw.s 			page 9


 278 022a E8FCFFFF 		call	chSemWait	#
 278      FF
 279              	.LVL21:
 280              		.loc 1 80 0
 281 022f 8B442420 		movl	32(%esp), %eax	# p, p
 282 0233 0FBE00   		movsbl	(%eax), %eax	# MEM[(char *)p_3(D)], MEM[(char *)p_3(D)]
 283 0236 890424   		movl	%eax, (%esp)	# MEM[(char *)p_3(D)],
 284 0239 E8FCFFFF 		call	test_emit_token	#
 284      FF
 285              	.LVL22:
 286              		.loc 1 82 0
 287 023e 31C0     		xorl	%eax, %eax	#
 288 0240 83C41C   		addl	$28, %esp	#,
 289              		.cfi_def_cfa_offset 4
 290 0243 C3       		ret
 291              		.cfi_endproc
 292              	.LFE8:
 293              		.size	thread1, .-thread1
 294 0244 8DB60000 		.p2align 4,,15
 294      00008DBF 
 294      00000000 
 295              		.type	sem1_setup, @function
 296              	sem1_setup:
 297              	.LFB7:
 298              		.loc 1 72 0
 299              		.cfi_startproc
 300 0250 83EC1C   		subl	$28, %esp	#,
 301              		.cfi_def_cfa_offset 32
 302              		.loc 1 74 0
 303 0253 C7442404 		movl	$0, 4(%esp)	#,
 303      00000000 
 304 025b C7042400 		movl	$sem1, (%esp)	#,
 304      000000
 305 0262 E8FCFFFF 		call	chSemInit	#
 305      FF
 306              	.LVL23:
 307              		.loc 1 75 0
 308 0267 83C41C   		addl	$28, %esp	#,
 309              		.cfi_def_cfa_offset 4
 310 026a C3       		ret
 311              		.cfi_endproc
 312              	.LFE7:
 313              		.size	sem1_setup, .-sem1_setup
 314 026b 908D7426 		.p2align 4,,15
 314      00
 315              		.type	sem2_setup, @function
 316              	sem2_setup:
 317              	.LFB10:
 318              		.loc 1 129 0
 319              		.cfi_startproc
 320 0270 83EC1C   		subl	$28, %esp	#,
 321              		.cfi_def_cfa_offset 32
 322              		.loc 1 131 0
 323 0273 C7442404 		movl	$0, 4(%esp)	#,
 323      00000000 
 324 027b C7042400 		movl	$sem1, (%esp)	#,
 324      000000
GAS LISTING /tmp/ccu2m9kw.s 			page 10


 325 0282 E8FCFFFF 		call	chSemInit	#
 325      FF
 326              	.LVL24:
 327              		.loc 1 132 0
 328 0287 83C41C   		addl	$28, %esp	#,
 329              		.cfi_def_cfa_offset 4
 330 028a C3       		ret
 331              		.cfi_endproc
 332              	.LFE10:
 333              		.size	sem2_setup, .-sem2_setup
 334 028b 908D7426 		.p2align 4,,15
 334      00
 335              		.type	sem3_setup, @function
 336              	sem3_setup:
 337              	.LFB13:
 338              		.loc 1 205 0
 339              		.cfi_startproc
 340 0290 83EC1C   		subl	$28, %esp	#,
 341              		.cfi_def_cfa_offset 32
 342              		.loc 1 207 0
 343 0293 C7442404 		movl	$0, 4(%esp)	#,
 343      00000000 
 344 029b C7042400 		movl	$sem1, (%esp)	#,
 344      000000
 345 02a2 E8FCFFFF 		call	chSemInit	#
 345      FF
 346              	.LVL25:
 347              		.loc 1 208 0
 348 02a7 83C41C   		addl	$28, %esp	#,
 349              		.cfi_def_cfa_offset 4
 350 02aa C3       		ret
 351              		.cfi_endproc
 352              	.LFE13:
 353              		.size	sem3_setup, .-sem3_setup
 354 02ab 908D7426 		.p2align 4,,15
 354      00
 355              		.type	thread2, @function
 356              	thread2:
 357              	.LFB11:
 358              		.loc 1 134 0
 359              		.cfi_startproc
 360              	.LVL26:
 361 02b0 83EC1C   		subl	$28, %esp	#,
 362              		.cfi_def_cfa_offset 32
 363              		.loc 1 137 0
 364 02b3 C7042432 		movl	$50, (%esp)	#,
 364      000000
 365 02ba E8FCFFFF 		call	chThdSleep	#
 365      FF
 366              	.LVL27:
 367              		.loc 1 138 0
 368              	#APP
 369              	# 138 "../../../test/testsem.c" 1
 108              	  test_assert(2, chSemGetCounterI(&sem1) == 1, "invalid counter");
 109              	}
 110              	
 111              	ROMCONST struct testcase testsem1 = {
GAS LISTING /tmp/ccu2m9kw.s 			page 11


 112              	  "Semaphores, enqueuing",
 113              	  sem1_setup,
 114              	  NULL,
 115              	  sem1_execute
 116              	};
 117              	
 118              	/**
 119              	 * @page test_sem_002 Timeout test
 120              	 *
 121              	 * <h2>Description</h2>
 122              	 * The three possible semaphore waiting modes (do not wait, wait with timeout,
 123              	 * wait without timeout) are explored.<br>
 124              	 * The test expects that the semaphore wait function returns the correct value
 125              	 * in each of the above scenario and that the semaphore structure status is
 126              	 * correct after each operation.
 127              	 */
 128              	
 129              	static void sem2_setup(void) {
 130              	
 131              	  chSemInit(&sem1, 0);
 132              	}
 133              	
 134              	static msg_t thread2(void *p) {
 135              	
 136              	  (void)p;
 137              	  chThdSleepMilliseconds(50);
 138 02bf 90       	  chSysLock();
 139              	  chSemSignalI(&sem1); /* For coverage reasons */
 370              		nop
 371              	# 0 "" 2
 372              		.loc 1 139 0
 373              	#NO_APP
 374 02c0 C7042400 		movl	$sem1, (%esp)	#,
 374      000000
 375 02c7 E8FCFFFF 		call	chSemSignalI	#
 375      FF
 376              	.LVL28:
 377              		.loc 1 140 0
 378 02cc E8FCFFFF 		call	chSchRescheduleS	#
 378      FF
 379              	.LVL29:
 380              		.loc 1 141 0
 381              	#APP
 382              	# 141 "../../../test/testsem.c" 1
 140              	  chSchRescheduleS();
 141 02d1 90       	  chSysUnlock();
 142              	  return 0;
 383              		nop
 384              	# 0 "" 2
 385              		.loc 1 143 0
 386              	#NO_APP
 387 02d2 31C0     		xorl	%eax, %eax	#
 388 02d4 83C41C   		addl	$28, %esp	#,
 389              		.cfi_def_cfa_offset 4
 390 02d7 C3       		ret
 391              		.cfi_endproc
 392              	.LFE11:
GAS LISTING /tmp/ccu2m9kw.s 			page 12


 393              		.size	thread2, .-thread2
 394 02d8 908DB426 		.p2align 4,,15
 394      00000000 
 395              		.type	thread4, @function
 396              	thread4:
 397              	.LFB16:
 398              		.loc 1 246 0
 399              		.cfi_startproc
 400              	.LVL30:
 401 02e0 83EC1C   		subl	$28, %esp	#,
 402              		.cfi_def_cfa_offset 32
 403              		.loc 1 246 0
 404 02e3 8B442420 		movl	32(%esp), %eax	# p, p
 405              		.loc 1 248 0
 406              	#APP
 407              	# 248 "../../../test/testsem.c" 1
 143              	}
 144              	
 145              	static void sem2_execute(void) {
 146              	  int i;
 147              	  systime_t target_time;
 148              	  msg_t msg;
 149              	
 150              	  /*
 151              	   * Testing special case TIME_IMMEDIATE.
 152              	   */
 153              	  msg = chSemWaitTimeout(&sem1, TIME_IMMEDIATE);
 154              	  test_assert(1, msg == RDY_TIMEOUT, "wrong wake-up message");
 155              	  test_assert(2, isempty(&sem1.s_queue), "queue not empty");
 156              	  test_assert(3, sem1.s_cnt == 0, "counter not zero");
 157              	
 158              	  /*
 159              	   * Testing not timeout condition.
 160              	   */
 161              	  threads[0] = chThdCreateStatic(wa[0], WA_SIZE, chThdGetPriority() - 1,
 162              	                                 thread2, 0);
 163              	  msg = chSemWaitTimeout(&sem1, MS2ST(500));
 164              	  test_wait_threads();
 165              	  test_assert(4, msg == RDY_OK, "wrong wake-up message");
 166              	  test_assert(5, isempty(&sem1.s_queue), "queue not empty");
 167              	  test_assert(6, sem1.s_cnt == 0, "counter not zero");
 168              	
 169              	  /*
 170              	   * Testing timeout condition.
 171              	   */
 172              	  test_wait_tick();
 173              	  target_time = chTimeNow() + MS2ST(5 * 500);
 174              	  for (i = 0; i < 5; i++) {
 175              	    test_emit_token('A' + i);
 176              	    msg = chSemWaitTimeout(&sem1, MS2ST(500));
 177              	    test_assert(7, msg == RDY_TIMEOUT, "wrong wake-up message");
 178              	    test_assert(8, isempty(&sem1.s_queue), "queue not empty");
 179              	    test_assert(9, sem1.s_cnt == 0, "counter not zero");
 180              	  }
 181              	  test_assert_sequence(10, "ABCDE");
 182              	  test_assert_time_window(11, target_time, target_time + ALLOWED_DELAY);
 183              	}
GAS LISTING /tmp/ccu2m9kw.s 			page 13


 184              	
 185              	ROMCONST struct testcase testsem2 = {
 186              	  "Semaphores, timeout",
 187              	  sem2_setup,
 188              	  NULL,
 189              	  sem2_execute
 190              	};
 191              	
 192              	#if CH_USE_SEMSW || defined(__DOXYGEN__)
 193              	/**
 194              	 * @page test_sem_003 Atomic signal-wait test
 195              	 *
 196              	 * <h2>Description</h2>
 197              	 * This test case explicitly addresses the @p chSemWaitSignal() function. A
 198              	 * thread is created that performs a wait and a signal operations.
 199              	 * The tester thread is awakened from an atomic wait/signal operation.<br>
 200              	 * The test expects that the semaphore wait function returns the correct value
 201              	 * in each of the above scenario and that the semaphore structure status is
 202              	 * correct after each operation.
 203              	 */
 204              	
 205              	static void sem3_setup(void) {
 206              	
 207              	  chSemInit(&sem1, 0);
 208              	}
 209              	
 210              	static msg_t thread3(void *p) {
 211              	
 212              	  (void)p;
 213              	  chSemWait(&sem1);
 214              	  chSemSignal(&sem1);
 215              	  return 0;
 216              	}
 217              	
 218              	static void sem3_execute(void) {
 219              	
 220              	  threads[0] = chThdCreateStatic(wa[0], WA_SIZE, chThdGetPriority()+1, thread3, 0);
 221              	  chSemSignalWait(&sem1, &sem1);
 222              	  test_assert(1, isempty(&sem1.s_queue), "queue not empty");
 223              	  test_assert(2, sem1.s_cnt == 0, "counter not zero");
 224              	
 225              	  chSemSignalWait(&sem1, &sem1);
 226              	  test_assert(3, isempty(&sem1.s_queue), "queue not empty");
 227              	  test_assert(4, sem1.s_cnt == 0, "counter not zero");
 228              	}
 229              	
 230              	ROMCONST struct testcase testsem3 = {
 231              	  "Semaphores, atomic signal-wait",
 232              	  sem3_setup,
 233              	  NULL,
 234              	  sem3_execute
 235              	};
 236              	#endif /* CH_USE_SEMSW */
 237              	
 238              	/**
 239              	 * @page test_sem_004 Binary Wait and Signal
 240              	 *
GAS LISTING /tmp/ccu2m9kw.s 			page 14


 241              	 * <h2>Description</h2>
 242              	 * This test case tests the binary semaphores functionality. The test both
 243              	 * checks the binary semaphore status and the expected status of the underlying
 244              	 * counting semaphore.
 245              	 */
 246              	static msg_t thread4(void *p) {
 247              	
 248 02e7 90       	  chBSemSignal((BinarySemaphore *)p);
 249              	  return 0;
 408              		nop
 409              	# 0 "" 2
 410              	#NO_APP
 411 02e8 8B5008   		movl	8(%eax), %edx	# MEM[(struct BinarySemaphore *)p_3(D)].bs_sem.s_cnt,
 412 02eb 85D2     		testl	%edx, %edx	#
 413 02ed 7E11     		jle	.L20	#,
 414              	.L18:
 415              		.loc 1 248 0 is_stmt 0 discriminator 2
 416 02ef E8FCFFFF 		call	chSchRescheduleS	#
 416      FF
 417              	.LVL31:
 418              	#APP
 419              	# 248 "../../../test/testsem.c" 1
 420              		nop
 421              	# 0 "" 2
 422              		.loc 1 250 0 is_stmt 1 discriminator 2
 423              	#NO_APP
 424 02f5 31C0     		xorl	%eax, %eax	#
 425 02f7 83C41C   		addl	$28, %esp	#,
 426              		.cfi_remember_state
 427              		.cfi_def_cfa_offset 4
 428 02fa C3       		ret
 429 02fb 908D7426 		.p2align 4,,7
 429      00
 430              		.p2align 3
 431              	.L20:
 432              		.cfi_restore_state
 433              		.loc 1 248 0 discriminator 1
 434 0300 890424   		movl	%eax, (%esp)	# p,
 435 0303 E8FCFFFF 		call	chSemSignalI	#
 435      FF
 436              	.LVL32:
 437 0308 EBE5     		jmp	.L18	#
 438              		.cfi_endproc
 439              	.LFE16:
 440              		.size	thread4, .-thread4
 441 030a 8DB60000 		.p2align 4,,15
 441      0000
 442              		.type	sem4_execute, @function
 443              	sem4_execute:
 444              	.LFB17:
 445              		.loc 1 252 0
 446              		.cfi_startproc
 447 0310 53       		pushl	%ebx	#
 448              		.cfi_def_cfa_offset 8
 449              		.cfi_offset 3, -8
 450 0311 83EC38   		subl	$56, %esp	#,
 451              		.cfi_def_cfa_offset 64
GAS LISTING /tmp/ccu2m9kw.s 			page 15


 452              		.loc 1 256 0
 453 0314 8D5C2424 		leal	36(%esp), %ebx	#, tmp114
 454 0318 C7442404 		movl	$0, 4(%esp)	#,
 454      00000000 
 455 0320 891C24   		movl	%ebx, (%esp)	# tmp114,
 456 0323 E8FCFFFF 		call	chSemInit	#
 456      FF
 457              	.LVL33:
 458              		.loc 1 257 0
 459 0328 C7442404 		movl	$0, 4(%esp)	#,
 459      00000000 
 460 0330 891C24   		movl	%ebx, (%esp)	# tmp114,
 461 0333 E8FCFFFF 		call	chSemReset	#
 461      FF
 462              	.LVL34:
 463              		.loc 1 258 0
 464 0338 8B4C242C 		movl	44(%esp), %ecx	# bsem.bs_sem.s_cnt,
 465 033c 31C0     		xorl	%eax, %eax	# D.2312
 466 033e C7042401 		movl	$1, (%esp)	#,
 466      000000
 467 0345 85C9     		testl	%ecx, %ecx	#
 468 0347 0F9EC0   		setle	%al	#, D.2312
 469 034a 89442404 		movl	%eax, 4(%esp)	# D.2312,
 470 034e E8FCFFFF 		call	_test_assert	#
 470      FF
 471              	.LVL35:
 472 0353 84C0     		testb	%al, %al	# D.2312
 473 0355 7409     		je	.L27	#,
 474              	.L21:
 475              		.loc 1 280 0
 476 0357 83C438   		addl	$56, %esp	#,
 477              		.cfi_remember_state
 478              		.cfi_def_cfa_offset 8
 479 035a 5B       		popl	%ebx	#
 480              		.cfi_restore 3
 481              		.cfi_def_cfa_offset 4
 482 035b C3       		ret
 483 035c 8D742600 		.p2align 4,,7
 484              		.p2align 3
 485              	.L27:
 486              		.cfi_restore_state
 487              		.loc 1 262 0
 488 0360 A1180000 		movl	rlist+24, %eax	# rlist.r_current, rlist.r_current
 488      00
 489              		.loc 1 261 0
 490 0365 895C2410 		movl	%ebx, 16(%esp)	# tmp114,
 491 0369 C744240C 		movl	$thread4, 12(%esp)	#,
 491      E0020000 
 492 0371 8B4008   		movl	8(%eax), %eax	# _13->p_prio, _13->p_prio
 493 0374 C7442404 		movl	$17008, 4(%esp)	#,
 493      70420000 
 494 037c 83E801   		subl	$1, %eax	#, D.2314
 495 037f 89442408 		movl	%eax, 8(%esp)	# D.2314,
 496 0383 A1000000 		movl	wa, %eax	# wa, wa
 496      00
 497 0388 890424   		movl	%eax, (%esp)	# wa,
 498 038b E8FCFFFF 		call	chThdCreateStatic	#
GAS LISTING /tmp/ccu2m9kw.s 			page 16


 498      FF
 499              	.LVL36:
 500              		.loc 1 265 0
 501 0390 891C24   		movl	%ebx, (%esp)	# tmp114,
 502              		.loc 1 261 0
 503 0393 A3000000 		movl	%eax, threads	# D.2313, threads
 503      00
 504              		.loc 1 265 0
 505 0398 E8FCFFFF 		call	chSemWait	#
 505      FF
 506              	.LVL37:
 507              		.loc 1 268 0
 508 039d 8B54242C 		movl	44(%esp), %edx	# bsem.bs_sem.s_cnt,
 509 03a1 31C0     		xorl	%eax, %eax	# D.2312
 510 03a3 C7042402 		movl	$2, (%esp)	#,
 510      000000
 511 03aa 85D2     		testl	%edx, %edx	#
 512 03ac 0F9EC0   		setle	%al	#, D.2312
 513 03af 89442404 		movl	%eax, 4(%esp)	# D.2312,
 514 03b3 E8FCFFFF 		call	_test_assert	#
 514      FF
 515              	.LVL38:
 516 03b8 84C0     		testb	%al, %al	# D.2312
 517 03ba 759B     		jne	.L21	#,
 518              		.loc 1 272 0
 519              	#APP
 520              	# 272 "../../../test/testsem.c" 1
 250              	}
 251              	
 252              	static void sem4_execute(void) {
 253              	  BinarySemaphore bsem;
 254              	  
 255              	  /* Creates a taken binary semaphore.*/
 256              	  chBSemInit(&bsem, TRUE);
 257              	  chBSemReset(&bsem, TRUE);
 258              	  test_assert(1, chBSemGetStateI(&bsem) == TRUE, "not taken");
 259              	
 260              	  /* Starts a signaler thread at a lower priority.*/
 261              	  threads[0] = chThdCreateStatic(wa[0], WA_SIZE,
 262              	                                 chThdGetPriority()-1, thread4, &bsem);
 263              	                                 
 264              	  /* Waits to be signaled.*/
 265              	  chBSemWait(&bsem);
 266              	  
 267              	  /* The binary semaphore is expected to be taken.*/
 268              	  test_assert(2, chBSemGetStateI(&bsem) == TRUE, "not taken");
 269              	  
 270              	  /* Releasing it, check both the binary semaphore state and the underlying
 271              	     counter semaphore state..*/
 272 03bc 90       	  chBSemSignal(&bsem);
 273              	  test_assert(3, chBSemGetStateI(&bsem) == FALSE, "still taken");
 521              		nop
 522              	# 0 "" 2
 523              	#NO_APP
 524 03bd 8B4C242C 		movl	44(%esp), %ecx	# bsem.bs_sem.s_cnt,
 525 03c1 85C9     		testl	%ecx, %ecx	#
 526 03c3 0F8E9F00 		jle	.L28	#,
GAS LISTING /tmp/ccu2m9kw.s 			page 17


 526      0000
 527              	.L23:
 528              		.loc 1 272 0 is_stmt 0 discriminator 2
 529 03c9 E8FCFFFF 		call	chSchRescheduleS	#
 529      FF
 530              	.LVL39:
 531              	#APP
 532              	# 272 "../../../test/testsem.c" 1
 533              		nop
 534              	# 0 "" 2
 535              		.loc 1 273 0 is_stmt 1 discriminator 2
 536              	#NO_APP
 537 03cf 8B54242C 		movl	44(%esp), %edx	# bsem.bs_sem.s_cnt,
 538 03d3 31C0     		xorl	%eax, %eax	# D.2312
 539 03d5 C7042403 		movl	$3, (%esp)	#,
 539      000000
 540 03dc 85D2     		testl	%edx, %edx	#
 541 03de 0F9FC0   		setg	%al	#, D.2312
 542 03e1 89442404 		movl	%eax, 4(%esp)	# D.2312,
 543 03e5 E8FCFFFF 		call	_test_assert	#
 543      FF
 544              	.LVL40:
 545 03ea 84C0     		testb	%al, %al	# D.2312
 546 03ec 0F8565FF 		jne	.L21	#,
 546      FFFF
 547              		.loc 1 274 0
 548 03f2 31C0     		xorl	%eax, %eax	# D.2312
 549 03f4 837C242C 		cmpl	$1, 44(%esp)	#, bsem.bs_sem.s_cnt
 549      01
 550 03f9 C7042404 		movl	$4, (%esp)	#,
 550      000000
 551 0400 0F94C0   		sete	%al	#, D.2312
 552 0403 89442404 		movl	%eax, 4(%esp)	# D.2312,
 553 0407 E8FCFFFF 		call	_test_assert	#
 553      FF
 554              	.LVL41:
 555 040c 84C0     		testb	%al, %al	# D.2312
 556 040e 0F8543FF 		jne	.L21	#,
 556      FFFF
 557              		.loc 1 277 0
 558              	#APP
 559              	# 277 "../../../test/testsem.c" 1
 274              	  test_assert(4, chSemGetCounterI(&bsem.bs_sem) == 1, "unexpected counter");
 275              	  
 276              	  /* Checking signaling overflow, the counter must not go beyond 1.*/
 277 0414 90       	  chBSemSignal(&bsem);
 278              	  test_assert(3, chBSemGetStateI(&bsem) == FALSE, "taken");
 560              		nop
 561              	# 0 "" 2
 562              	#NO_APP
 563 0415 8B4C242C 		movl	44(%esp), %ecx	# bsem.bs_sem.s_cnt,
 564 0419 85C9     		testl	%ecx, %ecx	#
 565 041b 7E58     		jle	.L29	#,
 566              	.L24:
 567              		.loc 1 277 0 is_stmt 0 discriminator 2
 568 041d E8FCFFFF 		call	chSchRescheduleS	#
 568      FF
GAS LISTING /tmp/ccu2m9kw.s 			page 18


 569              	.LVL42:
 570              	#APP
 571              	# 277 "../../../test/testsem.c" 1
 572              		nop
 573              	# 0 "" 2
 574              		.loc 1 278 0 is_stmt 1 discriminator 2
 575              	#NO_APP
 576 0423 8B54242C 		movl	44(%esp), %edx	# bsem.bs_sem.s_cnt,
 577 0427 31C0     		xorl	%eax, %eax	# D.2312
 578 0429 C7042403 		movl	$3, (%esp)	#,
 578      000000
 579 0430 85D2     		testl	%edx, %edx	#
 580 0432 0F9FC0   		setg	%al	#, D.2312
 581 0435 89442404 		movl	%eax, 4(%esp)	# D.2312,
 582 0439 E8FCFFFF 		call	_test_assert	#
 582      FF
 583              	.LVL43:
 584 043e 84C0     		testb	%al, %al	# D.2312
 585 0440 0F8511FF 		jne	.L21	#,
 585      FFFF
 586              		.loc 1 279 0
 587 0446 31C0     		xorl	%eax, %eax	# D.2312
 588 0448 837C242C 		cmpl	$1, 44(%esp)	#, bsem.bs_sem.s_cnt
 588      01
 589 044d C7042405 		movl	$5, (%esp)	#,
 589      000000
 590 0454 0F94C0   		sete	%al	#, D.2312
 591 0457 89442404 		movl	%eax, 4(%esp)	# D.2312,
 592 045b E8FCFFFF 		call	_test_assert	#
 592      FF
 593              	.LVL44:
 594 0460 E9F2FEFF 		jmp	.L21	#
 594      FF
 595              		.p2align 4,,7
 596 0465 8D7600   		.p2align 3
 597              	.L28:
 598              		.loc 1 272 0 discriminator 1
 599 0468 891C24   		movl	%ebx, (%esp)	# tmp114,
 600 046b E8FCFFFF 		call	chSemSignalI	#
 600      FF
 601              	.LVL45:
 602              		.p2align 4,,5
 603 0470 E954FFFF 		jmp	.L23	#
 603      FF
 604              	.L29:
 605              		.loc 1 277 0 discriminator 1
 606 0475 891C24   		movl	%ebx, (%esp)	# tmp114,
 607 0478 E8FCFFFF 		call	chSemSignalI	#
 607      FF
 608              	.LVL46:
 609 047d 8D7600   		.p2align 4,,5
 610 0480 EB9B     		jmp	.L24	#
 611              		.cfi_endproc
 612              	.LFE17:
 613              		.size	sem4_execute, .-sem4_execute
 614 0482 8DB42600 		.p2align 4,,15
 614      0000008D 
GAS LISTING /tmp/ccu2m9kw.s 			page 19


 614      BC270000 
 614      0000
 615              		.type	sem2_execute, @function
 616              	sem2_execute:
 617              	.LFB12:
 618              		.loc 1 145 0
 619              		.cfi_startproc
 620 0490 56       		pushl	%esi	#
 621              		.cfi_def_cfa_offset 8
 622              		.cfi_offset 6, -8
 623 0491 53       		pushl	%ebx	#
 624              		.cfi_def_cfa_offset 12
 625              		.cfi_offset 3, -12
 626 0492 83EC24   		subl	$36, %esp	#,
 627              		.cfi_def_cfa_offset 48
 628              		.loc 1 153 0
 629 0495 C7442404 		movl	$0, 4(%esp)	#,
 629      00000000 
 630 049d C7042400 		movl	$sem1, (%esp)	#,
 630      000000
 631 04a4 E8FCFFFF 		call	chSemWaitTimeout	#
 631      FF
 632              	.LVL47:
 633              		.loc 1 154 0
 634 04a9 C7042401 		movl	$1, (%esp)	#,
 634      000000
 635 04b0 83F8FF   		cmpl	$-1, %eax	#, msg
 636 04b3 0F94C0   		sete	%al	#, D.2328
 637              	.LVL48:
 638 04b6 0FB6C0   		movzbl	%al, %eax	# D.2328, D.2328
 639 04b9 89442404 		movl	%eax, 4(%esp)	# D.2328,
 640 04bd E8FCFFFF 		call	_test_assert	#
 640      FF
 641              	.LVL49:
 642 04c2 84C0     		testb	%al, %al	# D.2328
 643 04c4 740A     		je	.L37	#,
 644              	.L30:
 645              		.loc 1 183 0
 646 04c6 83C424   		addl	$36, %esp	#,
 647              		.cfi_remember_state
 648              		.cfi_def_cfa_offset 12
 649 04c9 5B       		popl	%ebx	#
 650              		.cfi_restore 3
 651              		.cfi_def_cfa_offset 8
 652 04ca 5E       		popl	%esi	#
 653              		.cfi_restore 6
 654              		.cfi_def_cfa_offset 4
 655 04cb C3       		ret
 656 04cc 8D742600 		.p2align 4,,7
 657              		.p2align 3
 658              	.L37:
 659              		.cfi_restore_state
 660              		.loc 1 155 0
 661 04d0 31C0     		xorl	%eax, %eax	# D.2328
 662 04d2 813D0000 		cmpl	$sem1, sem1	#, sem1.s_queue.p_next
 662      00000000 
 662      0000
GAS LISTING /tmp/ccu2m9kw.s 			page 20


 663 04dc C7042402 		movl	$2, (%esp)	#,
 663      000000
 664 04e3 0F94C0   		sete	%al	#, D.2328
 665 04e6 89442404 		movl	%eax, 4(%esp)	# D.2328,
 666 04ea E8FCFFFF 		call	_test_assert	#
 666      FF
 667              	.LVL50:
 668 04ef 84C0     		testb	%al, %al	# D.2328
 669 04f1 75D3     		jne	.L30	#,
 670              		.loc 1 156 0
 671 04f3 8B1D0800 		movl	sem1+8, %ebx	# sem1.s_cnt,
 671      0000
 672 04f9 31C0     		xorl	%eax, %eax	# D.2328
 673 04fb C7042403 		movl	$3, (%esp)	#,
 673      000000
 674 0502 85DB     		testl	%ebx, %ebx	#
 675 0504 0F94C0   		sete	%al	#, D.2328
 676 0507 89442404 		movl	%eax, 4(%esp)	# D.2328,
 677 050b E8FCFFFF 		call	_test_assert	#
 677      FF
 678              	.LVL51:
 679 0510 84C0     		testb	%al, %al	# D.2328
 680 0512 75B2     		jne	.L30	#,
 681              	.LBB4:
 682              	.LBB5:
 683              		.loc 1 161 0
 684 0514 A1180000 		movl	rlist+24, %eax	# rlist.r_current, rlist.r_current
 684      00
 685 0519 C7442410 		movl	$0, 16(%esp)	#,
 685      00000000 
 686 0521 C744240C 		movl	$thread2, 12(%esp)	#,
 686      B0020000 
 687 0529 8B4008   		movl	8(%eax), %eax	# _20->p_prio, _20->p_prio
 688 052c C7442404 		movl	$17008, 4(%esp)	#,
 688      70420000 
 689 0534 83E801   		subl	$1, %eax	#, D.2331
 690 0537 89442408 		movl	%eax, 8(%esp)	# D.2331,
 691 053b A1000000 		movl	wa, %eax	# wa, wa
 691      00
 692 0540 890424   		movl	%eax, (%esp)	# wa,
 693 0543 E8FCFFFF 		call	chThdCreateStatic	#
 693      FF
 694              	.LVL52:
 695              		.loc 1 163 0
 696 0548 C7442404 		movl	$500, 4(%esp)	#,
 696      F4010000 
 697 0550 C7042400 		movl	$sem1, (%esp)	#,
 697      000000
 698              		.loc 1 161 0
 699 0557 A3000000 		movl	%eax, threads	# D.2330, threads
 699      00
 700              		.loc 1 163 0
 701 055c E8FCFFFF 		call	chSemWaitTimeout	#
 701      FF
 702              	.LVL53:
 703 0561 89C3     		movl	%eax, %ebx	#, msg
 704              	.LVL54:
GAS LISTING /tmp/ccu2m9kw.s 			page 21


 705              		.loc 1 164 0
 706 0563 E8FCFFFF 		call	test_wait_threads	#
 706      FF
 707              	.LVL55:
 708              		.loc 1 165 0
 709 0568 31C0     		xorl	%eax, %eax	# D.2328
 710 056a 85DB     		testl	%ebx, %ebx	# msg
 711 056c 0F94C0   		sete	%al	#, D.2328
 712 056f 89442404 		movl	%eax, 4(%esp)	# D.2328,
 713 0573 C7042404 		movl	$4, (%esp)	#,
 713      000000
 714 057a E8FCFFFF 		call	_test_assert	#
 714      FF
 715              	.LVL56:
 716 057f 84C0     		testb	%al, %al	# D.2328
 717 0581 0F853FFF 		jne	.L30	#,
 717      FFFF
 718              		.loc 1 166 0
 719 0587 31C0     		xorl	%eax, %eax	# D.2328
 720 0589 813D0000 		cmpl	$sem1, sem1	#, sem1.s_queue.p_next
 720      00000000 
 720      0000
 721 0593 C7042405 		movl	$5, (%esp)	#,
 721      000000
 722 059a 0F94C0   		sete	%al	#, D.2328
 723 059d 89442404 		movl	%eax, 4(%esp)	# D.2328,
 724 05a1 E8FCFFFF 		call	_test_assert	#
 724      FF
 725              	.LVL57:
 726 05a6 84C0     		testb	%al, %al	# D.2328
 727 05a8 0F8518FF 		jne	.L30	#,
 727      FFFF
 728              		.loc 1 167 0
 729 05ae 8B0D0800 		movl	sem1+8, %ecx	# sem1.s_cnt,
 729      0000
 730 05b4 31C0     		xorl	%eax, %eax	# D.2328
 731 05b6 C7042406 		movl	$6, (%esp)	#,
 731      000000
 732 05bd 85C9     		testl	%ecx, %ecx	#
 733 05bf 0F94C0   		sete	%al	#, D.2328
 734 05c2 89442404 		movl	%eax, 4(%esp)	# D.2328,
 735 05c6 E8FCFFFF 		call	_test_assert	#
 735      FF
 736              	.LVL58:
 737 05cb 84C0     		testb	%al, %al	# D.2328
 738 05cd 0F85F3FE 		jne	.L30	#,
 738      FFFF
 739              		.loc 1 172 0
 740 05d3 E8FCFFFF 		call	test_wait_tick	#
 740      FF
 741              	.LVL59:
 742              		.loc 1 173 0
 743 05d8 8B350C00 		movl	vtlist+12, %esi	# vtlist.vt_systime, D.2331
 743      0000
 744              	.LVL60:
 745 05de BB410000 		movl	$65, %ebx	#, ivtmp.36
 745      00
GAS LISTING /tmp/ccu2m9kw.s 			page 22


 746              	.LVL61:
 747              	.L35:
 748              		.loc 1 175 0
 749 05e3 891C24   		movl	%ebx, (%esp)	# ivtmp.36,
 750 05e6 E8FCFFFF 		call	test_emit_token	#
 750      FF
 751              	.LVL62:
 752              		.loc 1 176 0
 753 05eb C7442404 		movl	$500, 4(%esp)	#,
 753      F4010000 
 754 05f3 C7042400 		movl	$sem1, (%esp)	#,
 754      000000
 755 05fa E8FCFFFF 		call	chSemWaitTimeout	#
 755      FF
 756              	.LVL63:
 757              		.loc 1 177 0
 758 05ff C7042407 		movl	$7, (%esp)	#,
 758      000000
 759 0606 83F8FF   		cmpl	$-1, %eax	#, msg
 760 0609 0F94C0   		sete	%al	#, D.2328
 761              	.LVL64:
 762 060c 0FB6C0   		movzbl	%al, %eax	# D.2328, D.2328
 763 060f 89442404 		movl	%eax, 4(%esp)	# D.2328,
 764 0613 E8FCFFFF 		call	_test_assert	#
 764      FF
 765              	.LVL65:
 766 0618 84C0     		testb	%al, %al	# D.2328
 767 061a 0F85A6FE 		jne	.L30	#,
 767      FFFF
 768              		.loc 1 178 0
 769 0620 31C0     		xorl	%eax, %eax	# D.2328
 770 0622 813D0000 		cmpl	$sem1, sem1	#, sem1.s_queue.p_next
 770      00000000 
 770      0000
 771 062c C7042408 		movl	$8, (%esp)	#,
 771      000000
 772 0633 0F94C0   		sete	%al	#, D.2328
 773 0636 89442404 		movl	%eax, 4(%esp)	# D.2328,
 774 063a E8FCFFFF 		call	_test_assert	#
 774      FF
 775              	.LVL66:
 776 063f 84C0     		testb	%al, %al	# D.2328
 777 0641 0F857FFE 		jne	.L30	#,
 777      FFFF
 778              		.loc 1 179 0
 779 0647 8B150800 		movl	sem1+8, %edx	# sem1.s_cnt,
 779      0000
 780 064d 31C0     		xorl	%eax, %eax	# D.2328
 781 064f C7042409 		movl	$9, (%esp)	#,
 781      000000
 782 0656 85D2     		testl	%edx, %edx	#
 783 0658 0F94C0   		sete	%al	#, D.2328
 784 065b 89442404 		movl	%eax, 4(%esp)	# D.2328,
 785 065f E8FCFFFF 		call	_test_assert	#
 785      FF
 786              	.LVL67:
 787 0664 84C0     		testb	%al, %al	# D.2328
GAS LISTING /tmp/ccu2m9kw.s 			page 23


 788 0666 0F855AFE 		jne	.L30	#,
 788      FFFF
 789              	.LVL68:
 790 066c 83C301   		addl	$1, %ebx	#, ivtmp.36
 791              	.LVL69:
 792              		.loc 1 174 0
 793 066f 83FB46   		cmpl	$70, %ebx	#, ivtmp.36
 794 0672 0F856BFF 		jne	.L35	#,
 794      FFFF
 795              		.loc 1 181 0
 796 0678 C7442404 		movl	$.LC5, 4(%esp)	#,
 796      0A000000 
 797 0680 C704240A 		movl	$10, (%esp)	#,
 797      000000
 798 0687 E8FCFFFF 		call	_test_assert_sequence	#
 798      FF
 799              	.LVL70:
 800 068c 84C0     		testb	%al, %al	# D.2328
 801 068e 0F8532FE 		jne	.L30	#,
 801      FFFF
 802              		.loc 1 182 0
 803 0694 8D86C909 		leal	2505(%esi), %eax	#, D.2331
 803      0000
 804              		.loc 1 173 0
 805 069a 81C6C409 		addl	$2500, %esi	#, target_time
 805      0000
 806              	.LVL71:
 807              		.loc 1 182 0
 808 06a0 89442408 		movl	%eax, 8(%esp)	# D.2331,
 809 06a4 89742404 		movl	%esi, 4(%esp)	# target_time,
 810 06a8 C704240B 		movl	$11, (%esp)	#,
 810      000000
 811 06af E8FCFFFF 		call	_test_assert_time_window	#
 811      FF
 812              	.LVL72:
 813 06b4 E90DFEFF 		jmp	.L30	#
 813      FF
 814              	.LBE5:
 815              	.LBE4:
 816              		.cfi_endproc
 817              	.LFE12:
 818              		.size	sem2_execute, .-sem2_execute
 819 06b9 8DB42600 		.p2align 4,,15
 819      000000
 820              		.type	sem3_execute, @function
 821              	sem3_execute:
 822              	.LFB15:
 823              		.loc 1 218 0
 824              		.cfi_startproc
 825 06c0 83EC2C   		subl	$44, %esp	#,
 826              		.cfi_def_cfa_offset 48
 827              		.loc 1 220 0
 828 06c3 A1180000 		movl	rlist+24, %eax	# rlist.r_current, rlist.r_current
 828      00
 829 06c8 C7442410 		movl	$0, 16(%esp)	#,
 829      00000000 
 830 06d0 C744240C 		movl	$thread3, 12(%esp)	#,
GAS LISTING /tmp/ccu2m9kw.s 			page 24


 830      F0010000 
 831 06d8 8B4008   		movl	8(%eax), %eax	# _2->p_prio, _2->p_prio
 832 06db C7442404 		movl	$17008, 4(%esp)	#,
 832      70420000 
 833 06e3 83C001   		addl	$1, %eax	#, D.2336
 834 06e6 89442408 		movl	%eax, 8(%esp)	# D.2336,
 835 06ea A1000000 		movl	wa, %eax	# wa, wa
 835      00
 836 06ef 890424   		movl	%eax, (%esp)	# wa,
 837 06f2 E8FCFFFF 		call	chThdCreateStatic	#
 837      FF
 838              	.LVL73:
 839              		.loc 1 221 0
 840 06f7 C7442404 		movl	$sem1, 4(%esp)	#,
 840      00000000 
 841 06ff C7042400 		movl	$sem1, (%esp)	#,
 841      000000
 842              		.loc 1 220 0
 843 0706 A3000000 		movl	%eax, threads	# D.2335, threads
 843      00
 844              		.loc 1 221 0
 845 070b E8FCFFFF 		call	chSemSignalWait	#
 845      FF
 846              	.LVL74:
 847              		.loc 1 222 0
 848 0710 31C0     		xorl	%eax, %eax	# D.2338
 849 0712 813D0000 		cmpl	$sem1, sem1	#, sem1.s_queue.p_next
 849      00000000 
 849      0000
 850 071c C7042401 		movl	$1, (%esp)	#,
 850      000000
 851 0723 0F94C0   		sete	%al	#, D.2338
 852 0726 89442404 		movl	%eax, 4(%esp)	# D.2338,
 853 072a E8FCFFFF 		call	_test_assert	#
 853      FF
 854              	.LVL75:
 855 072f 84C0     		testb	%al, %al	# D.2338
 856 0731 7405     		je	.L43	#,
 857              	.L38:
 858              		.loc 1 228 0
 859 0733 83C42C   		addl	$44, %esp	#,
 860              		.cfi_remember_state
 861              		.cfi_def_cfa_offset 4
 862 0736 C3       		ret
 863              		.p2align 4,,7
 864 0737 90       		.p2align 3
 865              	.L43:
 866              		.cfi_restore_state
 867              		.loc 1 223 0
 868 0738 8B0D0800 		movl	sem1+8, %ecx	# sem1.s_cnt,
 868      0000
 869 073e 31C0     		xorl	%eax, %eax	# D.2338
 870 0740 C7042402 		movl	$2, (%esp)	#,
 870      000000
 871 0747 85C9     		testl	%ecx, %ecx	#
 872 0749 0F94C0   		sete	%al	#, D.2338
 873 074c 89442404 		movl	%eax, 4(%esp)	# D.2338,
GAS LISTING /tmp/ccu2m9kw.s 			page 25


 874 0750 E8FCFFFF 		call	_test_assert	#
 874      FF
 875              	.LVL76:
 876 0755 84C0     		testb	%al, %al	# D.2338
 877 0757 75DA     		jne	.L38	#,
 878              	.LBB8:
 879              	.LBB9:
 880              		.loc 1 225 0
 881 0759 C7442404 		movl	$sem1, 4(%esp)	#,
 881      00000000 
 882 0761 C7042400 		movl	$sem1, (%esp)	#,
 882      000000
 883 0768 E8FCFFFF 		call	chSemSignalWait	#
 883      FF
 884              	.LVL77:
 885              		.loc 1 226 0
 886 076d 31C0     		xorl	%eax, %eax	# D.2338
 887 076f 813D0000 		cmpl	$sem1, sem1	#, sem1.s_queue.p_next
 887      00000000 
 887      0000
 888 0779 C7042403 		movl	$3, (%esp)	#,
 888      000000
 889 0780 0F94C0   		sete	%al	#, D.2338
 890 0783 89442404 		movl	%eax, 4(%esp)	# D.2338,
 891 0787 E8FCFFFF 		call	_test_assert	#
 891      FF
 892              	.LVL78:
 893 078c 84C0     		testb	%al, %al	# D.2338
 894 078e 75A3     		jne	.L38	#,
 895              		.loc 1 227 0
 896 0790 8B150800 		movl	sem1+8, %edx	# sem1.s_cnt,
 896      0000
 897 0796 31C0     		xorl	%eax, %eax	# D.2338
 898 0798 C7042404 		movl	$4, (%esp)	#,
 898      000000
 899 079f 85D2     		testl	%edx, %edx	#
 900 07a1 0F94C0   		sete	%al	#, D.2338
 901 07a4 89442404 		movl	%eax, 4(%esp)	# D.2338,
 902 07a8 E8FCFFFF 		call	_test_assert	#
 902      FF
 903              	.LVL79:
 904 07ad EB84     		jmp	.L38	#
 905              	.LBE9:
 906              	.LBE8:
 907              		.cfi_endproc
 908              	.LFE15:
 909              		.size	sem3_execute, .-sem3_execute
 910              		.globl	patternsem
 911              		.section	.rodata
 912              		.align 4
 913              		.type	patternsem, @object
 914              		.size	patternsem, 20
 915              	patternsem:
 916 0000 00000000 		.long	testsem1
 917 0004 00000000 		.long	testsem2
 918 0008 00000000 		.long	testsem3
 919 000c 00000000 		.long	testsem4
GAS LISTING /tmp/ccu2m9kw.s 			page 26


 920 0010 00000000 		.long	0
 921              		.globl	testsem4
 922              		.section	.rodata.str1.4,"aMS",@progbits,1
 923              		.align 4
 924              	.LC6:
 925 0000 42696E61 		.string	"Binary Semaphores, functionality"
 925      72792053 
 925      656D6170 
 925      686F7265 
 925      732C2066 
 926              		.section	.rodata
 927              		.align 4
 928              		.type	testsem4, @object
 929              		.size	testsem4, 16
 930              	testsem4:
 931              	# name:
 932 0014 00000000 		.long	.LC6
 933              	# setup:
 934 0018 00000000 		.long	0
 935              	# teardown:
 936 001c 00000000 		.long	0
 937              	# execute:
 938 0020 10030000 		.long	sem4_execute
 939              		.globl	testsem3
 940              		.section	.rodata.str1.4
 941 0021 000000   		.align 4
 942              	.LC7:
 943 0024 53656D61 		.string	"Semaphores, atomic signal-wait"
 943      70686F72 
 943      65732C20 
 943      61746F6D 
 943      69632073 
 944              		.section	.rodata
 945              		.align 4
 946              		.type	testsem3, @object
 947              		.size	testsem3, 16
 948              	testsem3:
 949              	# name:
 950 0024 24000000 		.long	.LC7
 951              	# setup:
 952 0028 90020000 		.long	sem3_setup
 953              	# teardown:
 954 002c 00000000 		.long	0
 955              	# execute:
 956 0030 C0060000 		.long	sem3_execute
 957              		.globl	testsem2
 958              		.section	.rodata.str1.1
 959              	.LC8:
 960 0010 53656D61 		.string	"Semaphores, timeout"
 960      70686F72 
 960      65732C20 
 960      74696D65 
 960      6F757400 
 961              		.section	.rodata
 962              		.align 4
 963              		.type	testsem2, @object
 964              		.size	testsem2, 16
GAS LISTING /tmp/ccu2m9kw.s 			page 27


 965              	testsem2:
 966              	# name:
 967 0034 10000000 		.long	.LC8
 968              	# setup:
 969 0038 70020000 		.long	sem2_setup
 970              	# teardown:
 971 003c 00000000 		.long	0
 972              	# execute:
 973 0040 90040000 		.long	sem2_execute
 974              		.globl	testsem1
 975              		.section	.rodata.str1.1
 976              	.LC9:
 977 0024 53656D61 		.string	"Semaphores, enqueuing"
 977      70686F72 
 977      65732C20 
 977      656E7175 
 977      6575696E 
 978              		.section	.rodata
 979              		.align 4
 980              		.type	testsem1, @object
 981              		.size	testsem1, 16
 982              	testsem1:
 983              	# name:
 984 0044 24000000 		.long	.LC9
 985              	# setup:
 986 0048 50020000 		.long	sem1_setup
 987              	# teardown:
 988 004c 00000000 		.long	0
 989              	# execute:
 990 0050 00000000 		.long	sem1_execute
 991              		.data
 992              		.align 4
 993              		.type	sem1, @object
 994              		.size	sem1, 12
 995              	sem1:
 996              	# s_queue:
 997              	# p_next:
 998 0000 00000000 		.long	sem1
 999              	# p_prev:
 1000 0004 00000000 		.long	sem1
 1001              	# s_cnt:
 1002 0008 00000000 		.long	0
 1003              		.text
 1004              	.Letext0:
 1005              		.file 2 "/usr/lib/gcc/x86_64-linux-gnu/4.8/include/stddef.h"
 1006              		.file 3 "/usr/include/stdint.h"
 1007              		.file 4 "../../../os/ports/GCC/SIMIA32/chtypes.h"
 1008              		.file 5 "../../../os/kernel/include/chlists.h"
 1009              		.file 6 "../../../os/kernel/include/chthreads.h"
 1010              		.file 7 "../../../os/ports/GCC/SIMIA32/chcore.h"
 1011              		.file 8 "../../../os/kernel/include/chvt.h"
 1012              		.file 9 "../../../os/kernel/include/chschd.h"
 1013              		.file 10 "../../../os/kernel/include/chsem.h"
 1014              		.file 11 "../../../os/kernel/include/chbsem.h"
 1015              		.file 12 "../../../os/kernel/include/chmtx.h"
 1016              		.file 13 "../../../test/test.h"
 1017              		.section	.debug_info,"",@progbits
GAS LISTING /tmp/ccu2m9kw.s 			page 28


 1018              	.Ldebug_info0:
 1019 0000 6C0F0000 		.long	0xf6c
 1020 0004 0400     		.value	0x4
 1021 0006 00000000 		.long	.Ldebug_abbrev0
 1022 000a 04       		.byte	0x4
 1023 000b 01       		.uleb128 0x1
 1024 000c 5F030000 		.long	.LASF121
 1025 0010 01       		.byte	0x1
 1026 0011 94040000 		.long	.LASF122
 1027 0015 BD000000 		.long	.LASF123
 1028 0019 00000000 		.long	.Ltext0
 1029 001d AF070000 		.long	.Letext0-.Ltext0
 1030 0021 00000000 		.long	.Ldebug_line0
 1031 0025 02       		.uleb128 0x2
 1032 0026 04       		.byte	0x4
 1033 0027 05       		.byte	0x5
 1034 0028 696E7400 		.string	"int"
 1035 002c 03       		.uleb128 0x3
 1036 002d 22000000 		.long	.LASF4
 1037 0031 02       		.byte	0x2
 1038 0032 D4       		.byte	0xd4
 1039 0033 37000000 		.long	0x37
 1040 0037 04       		.uleb128 0x4
 1041 0038 04       		.byte	0x4
 1042 0039 07       		.byte	0x7
 1043 003a 96010000 		.long	.LASF0
 1044 003e 04       		.uleb128 0x4
 1045 003f 04       		.byte	0x4
 1046 0040 05       		.byte	0x5
 1047 0041 0C010000 		.long	.LASF1
 1048 0045 04       		.uleb128 0x4
 1049 0046 01       		.byte	0x1
 1050 0047 06       		.byte	0x6
 1051 0048 8A000000 		.long	.LASF2
 1052 004c 04       		.uleb128 0x4
 1053 004d 02       		.byte	0x2
 1054 004e 05       		.byte	0x5
 1055 004f D5030000 		.long	.LASF3
 1056 0053 03       		.uleb128 0x3
 1057 0054 49030000 		.long	.LASF5
 1058 0058 03       		.byte	0x3
 1059 0059 26       		.byte	0x26
 1060 005a 25000000 		.long	0x25
 1061 005e 04       		.uleb128 0x4
 1062 005f 08       		.byte	0x8
 1063 0060 05       		.byte	0x5
 1064 0061 7C000000 		.long	.LASF6
 1065 0065 03       		.uleb128 0x3
 1066 0066 F8040000 		.long	.LASF7
 1067 006a 03       		.byte	0x3
 1068 006b 30       		.byte	0x30
 1069 006c 70000000 		.long	0x70
 1070 0070 04       		.uleb128 0x4
 1071 0071 01       		.byte	0x1
 1072 0072 08       		.byte	0x8
 1073 0073 51030000 		.long	.LASF8
 1074 0077 04       		.uleb128 0x4
GAS LISTING /tmp/ccu2m9kw.s 			page 29


 1075 0078 02       		.byte	0x2
 1076 0079 07       		.byte	0x7
 1077 007a 14020000 		.long	.LASF9
 1078 007e 03       		.uleb128 0x3
 1079 007f 31040000 		.long	.LASF10
 1080 0083 03       		.byte	0x3
 1081 0084 33       		.byte	0x33
 1082 0085 37000000 		.long	0x37
 1083 0089 04       		.uleb128 0x4
 1084 008a 08       		.byte	0x8
 1085 008b 07       		.byte	0x7
 1086 008c 44000000 		.long	.LASF11
 1087 0090 03       		.uleb128 0x3
 1088 0091 AE000000 		.long	.LASF12
 1089 0095 04       		.byte	0x4
 1090 0096 23       		.byte	0x23
 1091 0097 9B000000 		.long	0x9b
 1092 009b 04       		.uleb128 0x4
 1093 009c 01       		.byte	0x1
 1094 009d 02       		.byte	0x2
 1095 009e 43030000 		.long	.LASF13
 1096 00a2 03       		.uleb128 0x3
 1097 00a3 3D020000 		.long	.LASF14
 1098 00a7 04       		.byte	0x4
 1099 00a8 24       		.byte	0x24
 1100 00a9 65000000 		.long	0x65
 1101 00ad 03       		.uleb128 0x3
 1102 00ae 21010000 		.long	.LASF15
 1103 00b2 04       		.byte	0x4
 1104 00b3 25       		.byte	0x25
 1105 00b4 65000000 		.long	0x65
 1106 00b8 03       		.uleb128 0x3
 1107 00b9 24030000 		.long	.LASF16
 1108 00bd 04       		.byte	0x4
 1109 00be 26       		.byte	0x26
 1110 00bf 65000000 		.long	0x65
 1111 00c3 03       		.uleb128 0x3
 1112 00c4 F5000000 		.long	.LASF17
 1113 00c8 04       		.byte	0x4
 1114 00c9 27       		.byte	0x27
 1115 00ca 65000000 		.long	0x65
 1116 00ce 03       		.uleb128 0x3
 1117 00cf 3B030000 		.long	.LASF18
 1118 00d3 04       		.byte	0x4
 1119 00d4 28       		.byte	0x28
 1120 00d5 7E000000 		.long	0x7e
 1121 00d9 03       		.uleb128 0x3
 1122 00da 37020000 		.long	.LASF19
 1123 00de 04       		.byte	0x4
 1124 00df 29       		.byte	0x29
 1125 00e0 53000000 		.long	0x53
 1126 00e4 03       		.uleb128 0x3
 1127 00e5 51020000 		.long	.LASF20
 1128 00e9 04       		.byte	0x4
 1129 00ea 2B       		.byte	0x2b
 1130 00eb 7E000000 		.long	0x7e
 1131 00ef 03       		.uleb128 0x3
GAS LISTING /tmp/ccu2m9kw.s 			page 30


 1132 00f0 6C040000 		.long	.LASF21
 1133 00f4 04       		.byte	0x4
 1134 00f5 2D       		.byte	0x2d
 1135 00f6 7E000000 		.long	0x7e
 1136 00fa 03       		.uleb128 0x3
 1137 00fb 90010000 		.long	.LASF22
 1138 00ff 04       		.byte	0x4
 1139 0100 2E       		.byte	0x2e
 1140 0101 53000000 		.long	0x53
 1141 0105 03       		.uleb128 0x3
 1142 0106 16040000 		.long	.LASF23
 1143 010a 05       		.byte	0x5
 1144 010b 2A       		.byte	0x2a
 1145 010c 10010000 		.long	0x110
 1146 0110 05       		.uleb128 0x5
 1147 0111 16040000 		.long	.LASF23
 1148 0115 48       		.byte	0x48
 1149 0116 06       		.byte	0x6
 1150 0117 5E       		.byte	0x5e
 1151 0118 0D020000 		.long	0x20d
 1152 011c 06       		.uleb128 0x6
 1153 011d 07040000 		.long	.LASF24
 1154 0121 06       		.byte	0x6
 1155 0122 5F       		.byte	0x5f
 1156 0123 2E020000 		.long	0x22e
 1157 0127 00       		.byte	0
 1158 0128 06       		.uleb128 0x6
 1159 0129 2C030000 		.long	.LASF25
 1160 012d 06       		.byte	0x6
 1161 012e 61       		.byte	0x61
 1162 012f 2E020000 		.long	0x22e
 1163 0133 04       		.byte	0x4
 1164 0134 06       		.uleb128 0x6
 1165 0135 75000000 		.long	.LASF26
 1166 0139 06       		.byte	0x6
 1167 013a 63       		.byte	0x63
 1168 013b CE000000 		.long	0xce
 1169 013f 08       		.byte	0x8
 1170 0140 06       		.uleb128 0x6
 1171 0141 43050000 		.long	.LASF27
 1172 0145 06       		.byte	0x6
 1173 0146 64       		.byte	0x64
 1174 0147 BC020000 		.long	0x2bc
 1175 014b 0C       		.byte	0xc
 1176 014c 06       		.uleb128 0x6
 1177 014d 4F010000 		.long	.LASF28
 1178 0151 06       		.byte	0x6
 1179 0152 66       		.byte	0x66
 1180 0153 2E020000 		.long	0x22e
 1181 0157 10       		.byte	0x10
 1182 0158 06       		.uleb128 0x6
 1183 0159 B8020000 		.long	.LASF29
 1184 015d 06       		.byte	0x6
 1185 015e 67       		.byte	0x67
 1186 015f 2E020000 		.long	0x22e
 1187 0163 14       		.byte	0x14
 1188 0164 06       		.uleb128 0x6
GAS LISTING /tmp/ccu2m9kw.s 			page 31


 1189 0165 07050000 		.long	.LASF30
 1190 0169 06       		.byte	0x6
 1191 016a 6E       		.byte	0x6e
 1192 016b C2040000 		.long	0x4c2
 1193 016f 18       		.byte	0x18
 1194 0170 06       		.uleb128 0x6
 1195 0171 DF030000 		.long	.LASF31
 1196 0175 06       		.byte	0x6
 1197 0176 79       		.byte	0x79
 1198 0177 AD000000 		.long	0xad
 1199 017b 1C       		.byte	0x1c
 1200 017c 06       		.uleb128 0x6
 1201 017d 0E040000 		.long	.LASF32
 1202 0181 06       		.byte	0x6
 1203 0182 7D       		.byte	0x7d
 1204 0183 A2000000 		.long	0xa2
 1205 0187 1D       		.byte	0x1d
 1206 0188 06       		.uleb128 0x6
 1207 0189 E1040000 		.long	.LASF33
 1208 018d 06       		.byte	0x6
 1209 018e 82       		.byte	0x82
 1210 018f B8000000 		.long	0xb8
 1211 0193 1E       		.byte	0x1e
 1212 0194 06       		.uleb128 0x6
 1213 0195 E7030000 		.long	.LASF34
 1214 0199 06       		.byte	0x6
 1215 019a 88       		.byte	0x88
 1216 019b C3000000 		.long	0xc3
 1217 019f 1F       		.byte	0x1f
 1218 01a0 06       		.uleb128 0x6
 1219 01a1 AC040000 		.long	.LASF35
 1220 01a5 06       		.byte	0x6
 1221 01a6 8F       		.byte	0x8f
 1222 01a7 8F030000 		.long	0x38f
 1223 01ab 20       		.byte	0x20
 1224 01ac 07       		.uleb128 0x7
 1225 01ad 705F7500 		.string	"p_u"
 1226 01b1 06       		.byte	0x6
 1227 01b2 B4       		.byte	0xb4
 1228 01b3 8D040000 		.long	0x48d
 1229 01b7 24       		.byte	0x24
 1230 01b8 06       		.uleb128 0x6
 1231 01b9 49050000 		.long	.LASF36
 1232 01bd 06       		.byte	0x6
 1233 01be B9       		.byte	0xb9
 1234 01bf 54020000 		.long	0x254
 1235 01c3 28       		.byte	0x28
 1236 01c4 06       		.uleb128 0x6
 1237 01c5 ED010000 		.long	.LASF37
 1238 01c9 06       		.byte	0x6
 1239 01ca BF       		.byte	0xbf
 1240 01cb 34020000 		.long	0x234
 1241 01cf 2C       		.byte	0x2c
 1242 01d0 06       		.uleb128 0x6
 1243 01d1 08000000 		.long	.LASF38
 1244 01d5 06       		.byte	0x6
 1245 01d6 C3       		.byte	0xc3
GAS LISTING /tmp/ccu2m9kw.s 			page 32


 1246 01d7 D9000000 		.long	0xd9
 1247 01db 34       		.byte	0x34
 1248 01dc 06       		.uleb128 0x6
 1249 01dd 26040000 		.long	.LASF39
 1250 01e1 06       		.byte	0x6
 1251 01e2 C9       		.byte	0xc9
 1252 01e3 E4000000 		.long	0xe4
 1253 01e7 38       		.byte	0x38
 1254 01e8 06       		.uleb128 0x6
 1255 01e9 CB030000 		.long	.LASF40
 1256 01ed 06       		.byte	0x6
 1257 01ee D0       		.byte	0xd0
 1258 01ef D4040000 		.long	0x4d4
 1259 01f3 3C       		.byte	0x3c
 1260 01f4 06       		.uleb128 0x6
 1261 01f5 76040000 		.long	.LASF41
 1262 01f9 06       		.byte	0x6
 1263 01fa D4       		.byte	0xd4
 1264 01fb CE000000 		.long	0xce
 1265 01ff 40       		.byte	0x40
 1266 0200 06       		.uleb128 0x6
 1267 0201 A6000000 		.long	.LASF42
 1268 0205 06       		.byte	0x6
 1269 0206 DA       		.byte	0xda
 1270 0207 71020000 		.long	0x271
 1271 020b 44       		.byte	0x44
 1272 020c 00       		.byte	0
 1273 020d 08       		.uleb128 0x8
 1274 020e 08       		.byte	0x8
 1275 020f 05       		.byte	0x5
 1276 0210 61       		.byte	0x61
 1277 0211 2E020000 		.long	0x22e
 1278 0215 06       		.uleb128 0x6
 1279 0216 07040000 		.long	.LASF24
 1280 021a 05       		.byte	0x5
 1281 021b 62       		.byte	0x62
 1282 021c 2E020000 		.long	0x22e
 1283 0220 00       		.byte	0
 1284 0221 06       		.uleb128 0x6
 1285 0222 2C030000 		.long	.LASF25
 1286 0226 05       		.byte	0x5
 1287 0227 64       		.byte	0x64
 1288 0228 2E020000 		.long	0x22e
 1289 022c 04       		.byte	0x4
 1290 022d 00       		.byte	0
 1291 022e 09       		.uleb128 0x9
 1292 022f 04       		.byte	0x4
 1293 0230 05010000 		.long	0x105
 1294 0234 03       		.uleb128 0x3
 1295 0235 DE020000 		.long	.LASF43
 1296 0239 05       		.byte	0x5
 1297 023a 66       		.byte	0x66
 1298 023b 0D020000 		.long	0x20d
 1299 023f 08       		.uleb128 0x8
 1300 0240 04       		.byte	0x4
 1301 0241 05       		.byte	0x5
 1302 0242 6B       		.byte	0x6b
GAS LISTING /tmp/ccu2m9kw.s 			page 33


 1303 0243 54020000 		.long	0x254
 1304 0247 06       		.uleb128 0x6
 1305 0248 07040000 		.long	.LASF24
 1306 024c 05       		.byte	0x5
 1307 024d 6D       		.byte	0x6d
 1308 024e 2E020000 		.long	0x22e
 1309 0252 00       		.byte	0
 1310 0253 00       		.byte	0
 1311 0254 03       		.uleb128 0x3
 1312 0255 45020000 		.long	.LASF44
 1313 0259 05       		.byte	0x5
 1314 025a 70       		.byte	0x70
 1315 025b 3F020000 		.long	0x23f
 1316 025f 04       		.uleb128 0x4
 1317 0260 04       		.byte	0x4
 1318 0261 07       		.byte	0x7
 1319 0262 8A020000 		.long	.LASF45
 1320 0266 03       		.uleb128 0x3
 1321 0267 2D050000 		.long	.LASF46
 1322 026b 07       		.byte	0x7
 1323 026c 4B       		.byte	0x4b
 1324 026d 71020000 		.long	0x271
 1325 0271 0A       		.uleb128 0xa
 1326 0272 04       		.byte	0x4
 1327 0273 05       		.uleb128 0x5
 1328 0274 B3040000 		.long	.LASF47
 1329 0278 14       		.byte	0x14
 1330 0279 07       		.byte	0x7
 1331 027a 59       		.byte	0x59
 1332 027b BC020000 		.long	0x2bc
 1333 027f 07       		.uleb128 0x7
 1334 0280 65627800 		.string	"ebx"
 1335 0284 07       		.byte	0x7
 1336 0285 5A       		.byte	0x5a
 1337 0286 66020000 		.long	0x266
 1338 028a 00       		.byte	0
 1339 028b 07       		.uleb128 0x7
 1340 028c 65646900 		.string	"edi"
 1341 0290 07       		.byte	0x7
 1342 0291 5B       		.byte	0x5b
 1343 0292 66020000 		.long	0x266
 1344 0296 04       		.byte	0x4
 1345 0297 07       		.uleb128 0x7
 1346 0298 65736900 		.string	"esi"
 1347 029c 07       		.byte	0x7
 1348 029d 5C       		.byte	0x5c
 1349 029e 66020000 		.long	0x266
 1350 02a2 08       		.byte	0x8
 1351 02a3 07       		.uleb128 0x7
 1352 02a4 65627000 		.string	"ebp"
 1353 02a8 07       		.byte	0x7
 1354 02a9 5D       		.byte	0x5d
 1355 02aa 66020000 		.long	0x266
 1356 02ae 0C       		.byte	0xc
 1357 02af 07       		.uleb128 0x7
 1358 02b0 65697000 		.string	"eip"
 1359 02b4 07       		.byte	0x7
GAS LISTING /tmp/ccu2m9kw.s 			page 34


 1360 02b5 5E       		.byte	0x5e
 1361 02b6 66020000 		.long	0x266
 1362 02ba 10       		.byte	0x10
 1363 02bb 00       		.byte	0
 1364 02bc 05       		.uleb128 0x5
 1365 02bd 0C020000 		.long	.LASF48
 1366 02c1 04       		.byte	0x4
 1367 02c2 07       		.byte	0x7
 1368 02c3 66       		.byte	0x66
 1369 02c4 D5020000 		.long	0x2d5
 1370 02c8 07       		.uleb128 0x7
 1371 02c9 65737000 		.string	"esp"
 1372 02cd 07       		.byte	0x7
 1373 02ce 67       		.byte	0x67
 1374 02cf D5020000 		.long	0x2d5
 1375 02d3 00       		.byte	0
 1376 02d4 00       		.byte	0
 1377 02d5 09       		.uleb128 0x9
 1378 02d6 04       		.byte	0x4
 1379 02d7 DB020000 		.long	0x2db
 1380 02db 0B       		.uleb128 0xb
 1381 02dc 73020000 		.long	0x273
 1382 02e0 03       		.uleb128 0x3
 1383 02e1 81040000 		.long	.LASF49
 1384 02e5 08       		.byte	0x8
 1385 02e6 58       		.byte	0x58
 1386 02e7 EB020000 		.long	0x2eb
 1387 02eb 09       		.uleb128 0x9
 1388 02ec 04       		.byte	0x4
 1389 02ed F1020000 		.long	0x2f1
 1390 02f1 0C       		.uleb128 0xc
 1391 02f2 FC020000 		.long	0x2fc
 1392 02f6 0D       		.uleb128 0xd
 1393 02f7 71020000 		.long	0x271
 1394 02fb 00       		.byte	0
 1395 02fc 03       		.uleb128 0x3
 1396 02fd 42040000 		.long	.LASF50
 1397 0301 08       		.byte	0x8
 1398 0302 5D       		.byte	0x5d
 1399 0303 07030000 		.long	0x307
 1400 0307 05       		.uleb128 0x5
 1401 0308 42040000 		.long	.LASF50
 1402 030c 14       		.byte	0x14
 1403 030d 08       		.byte	0x8
 1404 030e 64       		.byte	0x64
 1405 030f 50030000 		.long	0x350
 1406 0313 06       		.uleb128 0x6
 1407 0314 B4010000 		.long	.LASF51
 1408 0318 08       		.byte	0x8
 1409 0319 65       		.byte	0x65
 1410 031a 50030000 		.long	0x350
 1411 031e 00       		.byte	0
 1412 031f 06       		.uleb128 0x6
 1413 0320 78010000 		.long	.LASF52
 1414 0324 08       		.byte	0x8
 1415 0325 67       		.byte	0x67
 1416 0326 50030000 		.long	0x350
GAS LISTING /tmp/ccu2m9kw.s 			page 35


 1417 032a 04       		.byte	0x4
 1418 032b 06       		.uleb128 0x6
 1419 032c 82020000 		.long	.LASF53
 1420 0330 08       		.byte	0x8
 1421 0331 69       		.byte	0x69
 1422 0332 EF000000 		.long	0xef
 1423 0336 08       		.byte	0x8
 1424 0337 06       		.uleb128 0x6
 1425 0338 93020000 		.long	.LASF54
 1426 033c 08       		.byte	0x8
 1427 033d 6A       		.byte	0x6a
 1428 033e E0020000 		.long	0x2e0
 1429 0342 0C       		.byte	0xc
 1430 0343 06       		.uleb128 0x6
 1431 0344 BA040000 		.long	.LASF55
 1432 0348 08       		.byte	0x8
 1433 0349 6C       		.byte	0x6c
 1434 034a 71020000 		.long	0x271
 1435 034e 10       		.byte	0x10
 1436 034f 00       		.byte	0
 1437 0350 09       		.uleb128 0x9
 1438 0351 04       		.byte	0x4
 1439 0352 FC020000 		.long	0x2fc
 1440 0356 08       		.uleb128 0x8
 1441 0357 10       		.byte	0x10
 1442 0358 08       		.byte	0x8
 1443 0359 76       		.byte	0x76
 1444 035a 8F030000 		.long	0x38f
 1445 035e 06       		.uleb128 0x6
 1446 035f B4010000 		.long	.LASF51
 1447 0363 08       		.byte	0x8
 1448 0364 77       		.byte	0x77
 1449 0365 50030000 		.long	0x350
 1450 0369 00       		.byte	0
 1451 036a 06       		.uleb128 0x6
 1452 036b 78010000 		.long	.LASF52
 1453 036f 08       		.byte	0x8
 1454 0370 79       		.byte	0x79
 1455 0371 50030000 		.long	0x350
 1456 0375 04       		.byte	0x4
 1457 0376 06       		.uleb128 0x6
 1458 0377 82020000 		.long	.LASF53
 1459 037b 08       		.byte	0x8
 1460 037c 7B       		.byte	0x7b
 1461 037d EF000000 		.long	0xef
 1462 0381 08       		.byte	0x8
 1463 0382 06       		.uleb128 0x6
 1464 0383 1B050000 		.long	.LASF56
 1465 0387 08       		.byte	0x8
 1466 0388 7C       		.byte	0x7c
 1467 0389 8F030000 		.long	0x38f
 1468 038d 0C       		.byte	0xc
 1469 038e 00       		.byte	0
 1470 038f 0B       		.uleb128 0xb
 1471 0390 EF000000 		.long	0xef
 1472 0394 03       		.uleb128 0x3
 1473 0395 34050000 		.long	.LASF57
GAS LISTING /tmp/ccu2m9kw.s 			page 36


 1474 0399 08       		.byte	0x8
 1475 039a 7D       		.byte	0x7d
 1476 039b 56030000 		.long	0x356
 1477 039f 08       		.uleb128 0x8
 1478 03a0 1C       		.byte	0x1c
 1479 03a1 09       		.byte	0x9
 1480 03a2 5E       		.byte	0x5e
 1481 03a3 F0030000 		.long	0x3f0
 1482 03a7 06       		.uleb128 0x6
 1483 03a8 3A040000 		.long	.LASF58
 1484 03ac 09       		.byte	0x9
 1485 03ad 5F       		.byte	0x5f
 1486 03ae 34020000 		.long	0x234
 1487 03b2 00       		.byte	0
 1488 03b3 06       		.uleb128 0x6
 1489 03b4 F9030000 		.long	.LASF59
 1490 03b8 09       		.byte	0x9
 1491 03b9 60       		.byte	0x60
 1492 03ba CE000000 		.long	0xce
 1493 03be 08       		.byte	0x8
 1494 03bf 06       		.uleb128 0x6
 1495 03c0 D0020000 		.long	.LASF60
 1496 03c4 09       		.byte	0x9
 1497 03c5 62       		.byte	0x62
 1498 03c6 BC020000 		.long	0x2bc
 1499 03ca 0C       		.byte	0xc
 1500 03cb 06       		.uleb128 0x6
 1501 03cc 70010000 		.long	.LASF61
 1502 03d0 09       		.byte	0x9
 1503 03d1 65       		.byte	0x65
 1504 03d2 2E020000 		.long	0x22e
 1505 03d6 10       		.byte	0x10
 1506 03d7 06       		.uleb128 0x6
 1507 03d8 11030000 		.long	.LASF62
 1508 03dc 09       		.byte	0x9
 1509 03dd 66       		.byte	0x66
 1510 03de 2E020000 		.long	0x22e
 1511 03e2 14       		.byte	0x14
 1512 03e3 06       		.uleb128 0x6
 1513 03e4 07030000 		.long	.LASF63
 1514 03e8 09       		.byte	0x9
 1515 03e9 69       		.byte	0x69
 1516 03ea 2E020000 		.long	0x22e
 1517 03ee 18       		.byte	0x18
 1518 03ef 00       		.byte	0
 1519 03f0 03       		.uleb128 0x3
 1520 03f1 E8040000 		.long	.LASF64
 1521 03f5 09       		.byte	0x9
 1522 03f6 6B       		.byte	0x6b
 1523 03f7 9F030000 		.long	0x39f
 1524 03fb 05       		.uleb128 0x5
 1525 03fc C1040000 		.long	.LASF65
 1526 0400 0C       		.byte	0xc
 1527 0401 0A       		.byte	0xa
 1528 0402 2C       		.byte	0x2c
 1529 0403 20040000 		.long	0x420
 1530 0407 06       		.uleb128 0x6
GAS LISTING /tmp/ccu2m9kw.s 			page 37


 1531 0408 57010000 		.long	.LASF66
 1532 040c 0A       		.byte	0xa
 1533 040d 2D       		.byte	0x2d
 1534 040e 34020000 		.long	0x234
 1535 0412 00       		.byte	0
 1536 0413 06       		.uleb128 0x6
 1537 0414 06020000 		.long	.LASF67
 1538 0418 0A       		.byte	0xa
 1539 0419 2F       		.byte	0x2f
 1540 041a FA000000 		.long	0xfa
 1541 041e 08       		.byte	0x8
 1542 041f 00       		.byte	0
 1543 0420 03       		.uleb128 0x3
 1544 0421 C1040000 		.long	.LASF65
 1545 0425 0A       		.byte	0xa
 1546 0426 30       		.byte	0x30
 1547 0427 FB030000 		.long	0x3fb
 1548 042b 08       		.uleb128 0x8
 1549 042c 0C       		.byte	0xc
 1550 042d 0B       		.byte	0xb
 1551 042e 44       		.byte	0x44
 1552 042f 40040000 		.long	0x440
 1553 0433 06       		.uleb128 0x6
 1554 0434 26050000 		.long	.LASF68
 1555 0438 0B       		.byte	0xb
 1556 0439 45       		.byte	0x45
 1557 043a 20040000 		.long	0x420
 1558 043e 00       		.byte	0
 1559 043f 00       		.byte	0
 1560 0440 03       		.uleb128 0x3
 1561 0441 54040000 		.long	.LASF69
 1562 0445 0B       		.byte	0xb
 1563 0446 46       		.byte	0x46
 1564 0447 2B040000 		.long	0x42b
 1565 044b 05       		.uleb128 0x5
 1566 044c 5D020000 		.long	.LASF70
 1567 0450 10       		.byte	0x10
 1568 0451 0C       		.byte	0xc
 1569 0452 2C       		.byte	0x2c
 1570 0453 7C040000 		.long	0x47c
 1571 0457 06       		.uleb128 0x6
 1572 0458 B5000000 		.long	.LASF71
 1573 045c 0C       		.byte	0xc
 1574 045d 2D       		.byte	0x2d
 1575 045e 34020000 		.long	0x234
 1576 0462 00       		.byte	0
 1577 0463 06       		.uleb128 0x6
 1578 0464 3B050000 		.long	.LASF72
 1579 0468 0C       		.byte	0xc
 1580 0469 2F       		.byte	0x2f
 1581 046a 2E020000 		.long	0x22e
 1582 046e 08       		.byte	0x8
 1583 046f 06       		.uleb128 0x6
 1584 0470 0E000000 		.long	.LASF73
 1585 0474 0C       		.byte	0xc
 1586 0475 31       		.byte	0x31
 1587 0476 7C040000 		.long	0x47c
GAS LISTING /tmp/ccu2m9kw.s 			page 38


 1588 047a 0C       		.byte	0xc
 1589 047b 00       		.byte	0
 1590 047c 09       		.uleb128 0x9
 1591 047d 04       		.byte	0x4
 1592 047e 4B040000 		.long	0x44b
 1593 0482 03       		.uleb128 0x3
 1594 0483 5D020000 		.long	.LASF70
 1595 0487 0C       		.byte	0xc
 1596 0488 33       		.byte	0x33
 1597 0489 4B040000 		.long	0x44b
 1598 048d 0E       		.uleb128 0xe
 1599 048e 04       		.byte	0x4
 1600 048f 06       		.byte	0x6
 1601 0490 96       		.byte	0x96
 1602 0491 C2040000 		.long	0x4c2
 1603 0495 0F       		.uleb128 0xf
 1604 0496 29000000 		.long	.LASF74
 1605 049a 06       		.byte	0x6
 1606 049b 9D       		.byte	0x9d
 1607 049c D9000000 		.long	0xd9
 1608 04a0 0F       		.uleb128 0xf
 1609 04a1 5B000000 		.long	.LASF75
 1610 04a5 06       		.byte	0x6
 1611 04a6 A4       		.byte	0xa4
 1612 04a7 D9000000 		.long	0xd9
 1613 04ab 0F       		.uleb128 0xf
 1614 04ac 00050000 		.long	.LASF76
 1615 04b0 06       		.byte	0x6
 1616 04b1 AB       		.byte	0xab
 1617 04b2 71020000 		.long	0x271
 1618 04b6 0F       		.uleb128 0xf
 1619 04b7 00040000 		.long	.LASF77
 1620 04bb 06       		.byte	0x6
 1621 04bc B2       		.byte	0xb2
 1622 04bd E4000000 		.long	0xe4
 1623 04c1 00       		.byte	0
 1624 04c2 09       		.uleb128 0x9
 1625 04c3 04       		.byte	0x4
 1626 04c4 C8040000 		.long	0x4c8
 1627 04c8 10       		.uleb128 0x10
 1628 04c9 CD040000 		.long	0x4cd
 1629 04cd 04       		.uleb128 0x4
 1630 04ce 01       		.byte	0x1
 1631 04cf 06       		.byte	0x6
 1632 04d0 4F040000 		.long	.LASF78
 1633 04d4 09       		.uleb128 0x9
 1634 04d5 04       		.byte	0x4
 1635 04d6 82040000 		.long	0x482
 1636 04da 03       		.uleb128 0x3
 1637 04db 00000000 		.long	.LASF79
 1638 04df 06       		.byte	0x6
 1639 04e0 E5       		.byte	0xe5
 1640 04e1 E5040000 		.long	0x4e5
 1641 04e5 09       		.uleb128 0x9
 1642 04e6 04       		.byte	0x4
 1643 04e7 EB040000 		.long	0x4eb
 1644 04eb 11       		.uleb128 0x11
GAS LISTING /tmp/ccu2m9kw.s 			page 39


 1645 04ec D9000000 		.long	0xd9
 1646 04f0 FA040000 		.long	0x4fa
 1647 04f4 0D       		.uleb128 0xd
 1648 04f5 71020000 		.long	0x271
 1649 04f9 00       		.byte	0
 1650 04fa 05       		.uleb128 0x5
 1651 04fb 1D040000 		.long	.LASF80
 1652 04ff 10       		.byte	0x10
 1653 0500 0D       		.byte	0xd
 1654 0501 3B       		.byte	0x3b
 1655 0502 37050000 		.long	0x537
 1656 0506 06       		.uleb128 0x6
 1657 0507 01020000 		.long	.LASF81
 1658 050b 0D       		.byte	0xd
 1659 050c 3C       		.byte	0x3c
 1660 050d C2040000 		.long	0x4c2
 1661 0511 00       		.byte	0
 1662 0512 06       		.uleb128 0x6
 1663 0513 EB020000 		.long	.LASF82
 1664 0517 0D       		.byte	0xd
 1665 0518 3D       		.byte	0x3d
 1666 0519 38050000 		.long	0x538
 1667 051d 04       		.byte	0x4
 1668 051e 06       		.uleb128 0x6
 1669 051f F8010000 		.long	.LASF83
 1670 0523 0D       		.byte	0xd
 1671 0524 3E       		.byte	0x3e
 1672 0525 38050000 		.long	0x538
 1673 0529 08       		.byte	0x8
 1674 052a 06       		.uleb128 0x6
 1675 052b 33030000 		.long	.LASF84
 1676 052f 0D       		.byte	0xd
 1677 0530 3F       		.byte	0x3f
 1678 0531 38050000 		.long	0x538
 1679 0535 0C       		.byte	0xc
 1680 0536 00       		.byte	0
 1681 0537 12       		.uleb128 0x12
 1682 0538 09       		.uleb128 0x9
 1683 0539 04       		.byte	0x4
 1684 053a 37050000 		.long	0x537
 1685 053e 13       		.uleb128 0x13
 1686 053f FF000000 		.long	.LASF124
 1687 0543 01       		.byte	0x1
 1688 0544 91       		.byte	0x91
 1689 0545 01       		.byte	0x1
 1690 0546 6A050000 		.long	0x56a
 1691 054a 14       		.uleb128 0x14
 1692 054b 6900     		.string	"i"
 1693 054d 01       		.byte	0x1
 1694 054e 92       		.byte	0x92
 1695 054f 25000000 		.long	0x25
 1696 0553 15       		.uleb128 0x15
 1697 0554 15010000 		.long	.LASF85
 1698 0558 01       		.byte	0x1
 1699 0559 93       		.byte	0x93
 1700 055a EF000000 		.long	0xef
 1701 055e 14       		.uleb128 0x14
GAS LISTING /tmp/ccu2m9kw.s 			page 40


 1702 055f 6D736700 		.string	"msg"
 1703 0563 01       		.byte	0x1
 1704 0564 94       		.byte	0x94
 1705 0565 D9000000 		.long	0xd9
 1706 0569 00       		.byte	0
 1707 056a 16       		.uleb128 0x16
 1708 056b BC010000 		.long	.LASF125
 1709 056f 01       		.byte	0x1
 1710 0570 DA       		.byte	0xda
 1711 0571 01       		.byte	0x1
 1712 0572 17       		.uleb128 0x17
 1713 0573 30000000 		.long	.LASF88
 1714 0577 01       		.byte	0x1
 1715 0578 54       		.byte	0x54
 1716 0579 00000000 		.long	.LFB9
 1717 057d F0010000 		.long	.LFE9-.LFB9
 1718 0581 01       		.uleb128 0x1
 1719 0582 9C       		.byte	0x9c
 1720 0583 71070000 		.long	0x771
 1721 0587 18       		.uleb128 0x18
 1722 0588 39000000 		.long	.LVL0
 1723 058c 010E0000 		.long	0xe01
 1724 0590 B8050000 		.long	0x5b8
 1725 0594 19       		.uleb128 0x19
 1726 0595 02       		.uleb128 0x2
 1727 0596 74       		.byte	0x74
 1728 0597 00       		.sleb128 0
 1729 0598 02       		.uleb128 0x2
 1730 0599 73       		.byte	0x73
 1731 059a 00       		.sleb128 0
 1732 059b 19       		.uleb128 0x19
 1733 059c 02       		.uleb128 0x2
 1734 059d 74       		.byte	0x74
 1735 059e 04       		.sleb128 4
 1736 059f 03       		.uleb128 0x3
 1737 05a0 0A       		.byte	0xa
 1738 05a1 7042     		.value	0x4270
 1739 05a3 19       		.uleb128 0x19
 1740 05a4 02       		.uleb128 0x2
 1741 05a5 74       		.byte	0x74
 1742 05a6 0C       		.sleb128 12
 1743 05a7 05       		.uleb128 0x5
 1744 05a8 03       		.byte	0x3
 1745 05a9 20020000 		.long	thread1
 1746 05ad 19       		.uleb128 0x19
 1747 05ae 02       		.uleb128 0x2
 1748 05af 74       		.byte	0x74
 1749 05b0 10       		.sleb128 16
 1750 05b1 05       		.uleb128 0x5
 1751 05b2 03       		.byte	0x3
 1752 05b3 00000000 		.long	.LC0
 1753 05b7 00       		.byte	0
 1754 05b8 18       		.uleb128 0x18
 1755 05b9 72000000 		.long	.LVL1
 1756 05bd 010E0000 		.long	0xe01
 1757 05c1 E2050000 		.long	0x5e2
 1758 05c5 19       		.uleb128 0x19
GAS LISTING /tmp/ccu2m9kw.s 			page 41


 1759 05c6 02       		.uleb128 0x2
 1760 05c7 74       		.byte	0x74
 1761 05c8 04       		.sleb128 4
 1762 05c9 03       		.uleb128 0x3
 1763 05ca 0A       		.byte	0xa
 1764 05cb 7042     		.value	0x4270
 1765 05cd 19       		.uleb128 0x19
 1766 05ce 02       		.uleb128 0x2
 1767 05cf 74       		.byte	0x74
 1768 05d0 0C       		.sleb128 12
 1769 05d1 05       		.uleb128 0x5
 1770 05d2 03       		.byte	0x3
 1771 05d3 20020000 		.long	thread1
 1772 05d7 19       		.uleb128 0x19
 1773 05d8 02       		.uleb128 0x2
 1774 05d9 74       		.byte	0x74
 1775 05da 10       		.sleb128 16
 1776 05db 05       		.uleb128 0x5
 1777 05dc 03       		.byte	0x3
 1778 05dd 02000000 		.long	.LC1
 1779 05e1 00       		.byte	0
 1780 05e2 18       		.uleb128 0x18
 1781 05e3 AB000000 		.long	.LVL2
 1782 05e7 010E0000 		.long	0xe01
 1783 05eb 0C060000 		.long	0x60c
 1784 05ef 19       		.uleb128 0x19
 1785 05f0 02       		.uleb128 0x2
 1786 05f1 74       		.byte	0x74
 1787 05f2 04       		.sleb128 4
 1788 05f3 03       		.uleb128 0x3
 1789 05f4 0A       		.byte	0xa
 1790 05f5 7042     		.value	0x4270
 1791 05f7 19       		.uleb128 0x19
 1792 05f8 02       		.uleb128 0x2
 1793 05f9 74       		.byte	0x74
 1794 05fa 0C       		.sleb128 12
 1795 05fb 05       		.uleb128 0x5
 1796 05fc 03       		.byte	0x3
 1797 05fd 20020000 		.long	thread1
 1798 0601 19       		.uleb128 0x19
 1799 0602 02       		.uleb128 0x2
 1800 0603 74       		.byte	0x74
 1801 0604 10       		.sleb128 16
 1802 0605 05       		.uleb128 0x5
 1803 0606 03       		.byte	0x3
 1804 0607 04000000 		.long	.LC2
 1805 060b 00       		.byte	0
 1806 060c 18       		.uleb128 0x18
 1807 060d E4000000 		.long	.LVL3
 1808 0611 010E0000 		.long	0xe01
 1809 0615 36060000 		.long	0x636
 1810 0619 19       		.uleb128 0x19
 1811 061a 02       		.uleb128 0x2
 1812 061b 74       		.byte	0x74
 1813 061c 04       		.sleb128 4
 1814 061d 03       		.uleb128 0x3
 1815 061e 0A       		.byte	0xa
GAS LISTING /tmp/ccu2m9kw.s 			page 42


 1816 061f 7042     		.value	0x4270
 1817 0621 19       		.uleb128 0x19
 1818 0622 02       		.uleb128 0x2
 1819 0623 74       		.byte	0x74
 1820 0624 0C       		.sleb128 12
 1821 0625 05       		.uleb128 0x5
 1822 0626 03       		.byte	0x3
 1823 0627 20020000 		.long	thread1
 1824 062b 19       		.uleb128 0x19
 1825 062c 02       		.uleb128 0x2
 1826 062d 74       		.byte	0x74
 1827 062e 10       		.sleb128 16
 1828 062f 05       		.uleb128 0x5
 1829 0630 03       		.byte	0x3
 1830 0631 06000000 		.long	.LC3
 1831 0635 00       		.byte	0
 1832 0636 18       		.uleb128 0x18
 1833 0637 1D010000 		.long	.LVL4
 1834 063b 010E0000 		.long	0xe01
 1835 063f 60060000 		.long	0x660
 1836 0643 19       		.uleb128 0x19
 1837 0644 02       		.uleb128 0x2
 1838 0645 74       		.byte	0x74
 1839 0646 04       		.sleb128 4
 1840 0647 03       		.uleb128 0x3
 1841 0648 0A       		.byte	0xa
 1842 0649 7042     		.value	0x4270
 1843 064b 19       		.uleb128 0x19
 1844 064c 02       		.uleb128 0x2
 1845 064d 74       		.byte	0x74
 1846 064e 0C       		.sleb128 12
 1847 064f 05       		.uleb128 0x5
 1848 0650 03       		.byte	0x3
 1849 0651 20020000 		.long	thread1
 1850 0655 19       		.uleb128 0x19
 1851 0656 02       		.uleb128 0x2
 1852 0657 74       		.byte	0x74
 1853 0658 10       		.sleb128 16
 1854 0659 05       		.uleb128 0x5
 1855 065a 03       		.byte	0x3
 1856 065b 08000000 		.long	.LC4
 1857 065f 00       		.byte	0
 1858 0660 18       		.uleb128 0x18
 1859 0661 2E010000 		.long	.LVL5
 1860 0665 2B0E0000 		.long	0xe2b
 1861 0669 78060000 		.long	0x678
 1862 066d 19       		.uleb128 0x19
 1863 066e 02       		.uleb128 0x2
 1864 066f 74       		.byte	0x74
 1865 0670 00       		.sleb128 0
 1866 0671 05       		.uleb128 0x5
 1867 0672 03       		.byte	0x3
 1868 0673 00000000 		.long	sem1
 1869 0677 00       		.byte	0
 1870 0678 18       		.uleb128 0x18
 1871 0679 3A010000 		.long	.LVL6
 1872 067d 2B0E0000 		.long	0xe2b
GAS LISTING /tmp/ccu2m9kw.s 			page 43


 1873 0681 90060000 		.long	0x690
 1874 0685 19       		.uleb128 0x19
 1875 0686 02       		.uleb128 0x2
 1876 0687 74       		.byte	0x74
 1877 0688 00       		.sleb128 0
 1878 0689 05       		.uleb128 0x5
 1879 068a 03       		.byte	0x3
 1880 068b 00000000 		.long	sem1
 1881 068f 00       		.byte	0
 1882 0690 18       		.uleb128 0x18
 1883 0691 46010000 		.long	.LVL7
 1884 0695 2B0E0000 		.long	0xe2b
 1885 0699 A8060000 		.long	0x6a8
 1886 069d 19       		.uleb128 0x19
 1887 069e 02       		.uleb128 0x2
 1888 069f 74       		.byte	0x74
 1889 06a0 00       		.sleb128 0
 1890 06a1 05       		.uleb128 0x5
 1891 06a2 03       		.byte	0x3
 1892 06a3 00000000 		.long	sem1
 1893 06a7 00       		.byte	0
 1894 06a8 18       		.uleb128 0x18
 1895 06a9 52010000 		.long	.LVL8
 1896 06ad 2B0E0000 		.long	0xe2b
 1897 06b1 C0060000 		.long	0x6c0
 1898 06b5 19       		.uleb128 0x19
 1899 06b6 02       		.uleb128 0x2
 1900 06b7 74       		.byte	0x74
 1901 06b8 00       		.sleb128 0
 1902 06b9 05       		.uleb128 0x5
 1903 06ba 03       		.byte	0x3
 1904 06bb 00000000 		.long	sem1
 1905 06bf 00       		.byte	0
 1906 06c0 18       		.uleb128 0x18
 1907 06c1 5E010000 		.long	.LVL9
 1908 06c5 2B0E0000 		.long	0xe2b
 1909 06c9 D8060000 		.long	0x6d8
 1910 06cd 19       		.uleb128 0x19
 1911 06ce 02       		.uleb128 0x2
 1912 06cf 74       		.byte	0x74
 1913 06d0 00       		.sleb128 0
 1914 06d1 05       		.uleb128 0x5
 1915 06d2 03       		.byte	0x3
 1916 06d3 00000000 		.long	sem1
 1917 06d7 00       		.byte	0
 1918 06d8 1A       		.uleb128 0x1a
 1919 06d9 63010000 		.long	.LVL10
 1920 06dd 420E0000 		.long	0xe42
 1921 06e1 18       		.uleb128 0x18
 1922 06e2 77010000 		.long	.LVL11
 1923 06e6 490E0000 		.long	0xe49
 1924 06ea FF060000 		.long	0x6ff
 1925 06ee 19       		.uleb128 0x19
 1926 06ef 02       		.uleb128 0x2
 1927 06f0 74       		.byte	0x74
 1928 06f1 00       		.sleb128 0
 1929 06f2 01       		.uleb128 0x1
GAS LISTING /tmp/ccu2m9kw.s 			page 44


 1930 06f3 31       		.byte	0x31
 1931 06f4 19       		.uleb128 0x19
 1932 06f5 02       		.uleb128 0x2
 1933 06f6 74       		.byte	0x74
 1934 06f7 04       		.sleb128 4
 1935 06f8 05       		.uleb128 0x5
 1936 06f9 03       		.byte	0x3
 1937 06fa 0A000000 		.long	.LC5
 1938 06fe 00       		.byte	0
 1939 06ff 18       		.uleb128 0x18
 1940 0700 AA010000 		.long	.LVL12
 1941 0704 010E0000 		.long	0xe01
 1942 0708 30070000 		.long	0x730
 1943 070c 19       		.uleb128 0x19
 1944 070d 02       		.uleb128 0x2
 1945 070e 74       		.byte	0x74
 1946 070f 00       		.sleb128 0
 1947 0710 02       		.uleb128 0x2
 1948 0711 73       		.byte	0x73
 1949 0712 00       		.sleb128 0
 1950 0713 19       		.uleb128 0x19
 1951 0714 02       		.uleb128 0x2
 1952 0715 74       		.byte	0x74
 1953 0716 04       		.sleb128 4
 1954 0717 03       		.uleb128 0x3
 1955 0718 0A       		.byte	0xa
 1956 0719 7042     		.value	0x4270
 1957 071b 19       		.uleb128 0x19
 1958 071c 02       		.uleb128 0x2
 1959 071d 74       		.byte	0x74
 1960 071e 0C       		.sleb128 12
 1961 071f 05       		.uleb128 0x5
 1962 0720 03       		.byte	0x3
 1963 0721 20020000 		.long	thread1
 1964 0725 19       		.uleb128 0x19
 1965 0726 02       		.uleb128 0x2
 1966 0727 74       		.byte	0x74
 1967 0728 10       		.sleb128 16
 1968 0729 05       		.uleb128 0x5
 1969 072a 03       		.byte	0x3
 1970 072b 00000000 		.long	.LC0
 1971 072f 00       		.byte	0
 1972 0730 18       		.uleb128 0x18
 1973 0731 C4010000 		.long	.LVL13
 1974 0735 690E0000 		.long	0xe69
 1975 0739 4E070000 		.long	0x74e
 1976 073d 19       		.uleb128 0x19
 1977 073e 02       		.uleb128 0x2
 1978 073f 74       		.byte	0x74
 1979 0740 00       		.sleb128 0
 1980 0741 05       		.uleb128 0x5
 1981 0742 03       		.byte	0x3
 1982 0743 00000000 		.long	sem1
 1983 0747 19       		.uleb128 0x19
 1984 0748 02       		.uleb128 0x2
 1985 0749 74       		.byte	0x74
 1986 074a 04       		.sleb128 4
GAS LISTING /tmp/ccu2m9kw.s 			page 45


 1987 074b 01       		.uleb128 0x1
 1988 074c 32       		.byte	0x32
 1989 074d 00       		.byte	0
 1990 074e 1A       		.uleb128 0x1a
 1991 074f C9010000 		.long	.LVL14
 1992 0753 7F0E0000 		.long	0xe7f
 1993 0757 1A       		.uleb128 0x1a
 1994 0758 CF010000 		.long	.LVL15
 1995 075c 420E0000 		.long	0xe42
 1996 0760 1B       		.uleb128 0x1b
 1997 0761 EB010000 		.long	.LVL16
 1998 0765 860E0000 		.long	0xe86
 1999 0769 19       		.uleb128 0x19
 2000 076a 02       		.uleb128 0x2
 2001 076b 74       		.byte	0x74
 2002 076c 00       		.sleb128 0
 2003 076d 01       		.uleb128 0x1
 2004 076e 32       		.byte	0x32
 2005 076f 00       		.byte	0
 2006 0770 00       		.byte	0
 2007 0771 1C       		.uleb128 0x1c
 2008 0772 64040000 		.long	.LASF86
 2009 0776 01       		.byte	0x1
 2010 0777 D2       		.byte	0xd2
 2011 0778 D9000000 		.long	0xd9
 2012 077c F0010000 		.long	.LFB14
 2013 0780 21000000 		.long	.LFE14-.LFB14
 2014 0784 01       		.uleb128 0x1
 2015 0785 9C       		.byte	0x9c
 2016 0786 C3070000 		.long	0x7c3
 2017 078a 1D       		.uleb128 0x1d
 2018 078b 7000     		.string	"p"
 2019 078d 01       		.byte	0x1
 2020 078e D2       		.byte	0xd2
 2021 078f 71020000 		.long	0x271
 2022 0793 02       		.uleb128 0x2
 2023 0794 91       		.byte	0x91
 2024 0795 00       		.sleb128 0
 2025 0796 18       		.uleb128 0x18
 2026 0797 FF010000 		.long	.LVL18
 2027 079b A00E0000 		.long	0xea0
 2028 079f AE070000 		.long	0x7ae
 2029 07a3 19       		.uleb128 0x19
 2030 07a4 02       		.uleb128 0x2
 2031 07a5 74       		.byte	0x74
 2032 07a6 00       		.sleb128 0
 2033 07a7 05       		.uleb128 0x5
 2034 07a8 03       		.byte	0x3
 2035 07a9 00000000 		.long	sem1
 2036 07ad 00       		.byte	0
 2037 07ae 1B       		.uleb128 0x1b
 2038 07af 0B020000 		.long	.LVL19
 2039 07b3 2B0E0000 		.long	0xe2b
 2040 07b7 19       		.uleb128 0x19
 2041 07b8 02       		.uleb128 0x2
 2042 07b9 74       		.byte	0x74
 2043 07ba 00       		.sleb128 0
GAS LISTING /tmp/ccu2m9kw.s 			page 46


 2044 07bb 05       		.uleb128 0x5
 2045 07bc 03       		.byte	0x3
 2046 07bd 00000000 		.long	sem1
 2047 07c1 00       		.byte	0
 2048 07c2 00       		.byte	0
 2049 07c3 1C       		.uleb128 0x1c
 2050 07c4 C0020000 		.long	.LASF87
 2051 07c8 01       		.byte	0x1
 2052 07c9 4D       		.byte	0x4d
 2053 07ca D9000000 		.long	0xd9
 2054 07ce 20020000 		.long	.LFB8
 2055 07d2 24000000 		.long	.LFE8-.LFB8
 2056 07d6 01       		.uleb128 0x1
 2057 07d7 9C       		.byte	0x9c
 2058 07d8 0A080000 		.long	0x80a
 2059 07dc 1D       		.uleb128 0x1d
 2060 07dd 7000     		.string	"p"
 2061 07df 01       		.byte	0x1
 2062 07e0 4D       		.byte	0x4d
 2063 07e1 71020000 		.long	0x271
 2064 07e5 02       		.uleb128 0x2
 2065 07e6 91       		.byte	0x91
 2066 07e7 00       		.sleb128 0
 2067 07e8 18       		.uleb128 0x18
 2068 07e9 2F020000 		.long	.LVL21
 2069 07ed A00E0000 		.long	0xea0
 2070 07f1 00080000 		.long	0x800
 2071 07f5 19       		.uleb128 0x19
 2072 07f6 02       		.uleb128 0x2
 2073 07f7 74       		.byte	0x74
 2074 07f8 00       		.sleb128 0
 2075 07f9 05       		.uleb128 0x5
 2076 07fa 03       		.byte	0x3
 2077 07fb 00000000 		.long	sem1
 2078 07ff 00       		.byte	0
 2079 0800 1A       		.uleb128 0x1a
 2080 0801 3E020000 		.long	.LVL22
 2081 0805 B50E0000 		.long	0xeb5
 2082 0809 00       		.byte	0
 2083 080a 17       		.uleb128 0x17
 2084 080b 9B020000 		.long	.LASF89
 2085 080f 01       		.byte	0x1
 2086 0810 48       		.byte	0x48
 2087 0811 50020000 		.long	.LFB7
 2088 0815 1B000000 		.long	.LFE7-.LFB7
 2089 0819 01       		.uleb128 0x1
 2090 081a 9C       		.byte	0x9c
 2091 081b 3A080000 		.long	0x83a
 2092 081f 1B       		.uleb128 0x1b
 2093 0820 67020000 		.long	.LVL23
 2094 0824 C60E0000 		.long	0xec6
 2095 0828 19       		.uleb128 0x19
 2096 0829 02       		.uleb128 0x2
 2097 082a 74       		.byte	0x74
 2098 082b 00       		.sleb128 0
 2099 082c 05       		.uleb128 0x5
 2100 082d 03       		.byte	0x3
GAS LISTING /tmp/ccu2m9kw.s 			page 47


 2101 082e 00000000 		.long	sem1
 2102 0832 19       		.uleb128 0x19
 2103 0833 02       		.uleb128 0x2
 2104 0834 74       		.byte	0x74
 2105 0835 04       		.sleb128 4
 2106 0836 01       		.uleb128 0x1
 2107 0837 30       		.byte	0x30
 2108 0838 00       		.byte	0
 2109 0839 00       		.byte	0
 2110 083a 17       		.uleb128 0x17
 2111 083b 80010000 		.long	.LASF90
 2112 083f 01       		.byte	0x1
 2113 0840 81       		.byte	0x81
 2114 0841 70020000 		.long	.LFB10
 2115 0845 1B000000 		.long	.LFE10-.LFB10
 2116 0849 01       		.uleb128 0x1
 2117 084a 9C       		.byte	0x9c
 2118 084b 6A080000 		.long	0x86a
 2119 084f 1B       		.uleb128 0x1b
 2120 0850 87020000 		.long	.LVL24
 2121 0854 C60E0000 		.long	0xec6
 2122 0858 19       		.uleb128 0x19
 2123 0859 02       		.uleb128 0x2
 2124 085a 74       		.byte	0x74
 2125 085b 00       		.sleb128 0
 2126 085c 05       		.uleb128 0x5
 2127 085d 03       		.byte	0x3
 2128 085e 00000000 		.long	sem1
 2129 0862 19       		.uleb128 0x19
 2130 0863 02       		.uleb128 0x2
 2131 0864 74       		.byte	0x74
 2132 0865 04       		.sleb128 4
 2133 0866 01       		.uleb128 0x1
 2134 0867 30       		.byte	0x30
 2135 0868 00       		.byte	0
 2136 0869 00       		.byte	0
 2137 086a 17       		.uleb128 0x17
 2138 086b CB040000 		.long	.LASF91
 2139 086f 01       		.byte	0x1
 2140 0870 CD       		.byte	0xcd
 2141 0871 90020000 		.long	.LFB13
 2142 0875 1B000000 		.long	.LFE13-.LFB13
 2143 0879 01       		.uleb128 0x1
 2144 087a 9C       		.byte	0x9c
 2145 087b 9A080000 		.long	0x89a
 2146 087f 1B       		.uleb128 0x1b
 2147 0880 A7020000 		.long	.LVL25
 2148 0884 C60E0000 		.long	0xec6
 2149 0888 19       		.uleb128 0x19
 2150 0889 02       		.uleb128 0x2
 2151 088a 74       		.byte	0x74
 2152 088b 00       		.sleb128 0
 2153 088c 05       		.uleb128 0x5
 2154 088d 03       		.byte	0x3
 2155 088e 00000000 		.long	sem1
 2156 0892 19       		.uleb128 0x19
 2157 0893 02       		.uleb128 0x2
GAS LISTING /tmp/ccu2m9kw.s 			page 48


 2158 0894 74       		.byte	0x74
 2159 0895 04       		.sleb128 4
 2160 0896 01       		.uleb128 0x1
 2161 0897 30       		.byte	0x30
 2162 0898 00       		.byte	0
 2163 0899 00       		.byte	0
 2164 089a 1C       		.uleb128 0x1c
 2165 089b C8020000 		.long	.LASF92
 2166 089f 01       		.byte	0x1
 2167 08a0 86       		.byte	0x86
 2168 08a1 D9000000 		.long	0xd9
 2169 08a5 B0020000 		.long	.LFB11
 2170 08a9 28000000 		.long	.LFE11-.LFB11
 2171 08ad 01       		.uleb128 0x1
 2172 08ae 9C       		.byte	0x9c
 2173 08af F6080000 		.long	0x8f6
 2174 08b3 1D       		.uleb128 0x1d
 2175 08b4 7000     		.string	"p"
 2176 08b6 01       		.byte	0x1
 2177 08b7 86       		.byte	0x86
 2178 08b8 71020000 		.long	0x271
 2179 08bc 02       		.uleb128 0x2
 2180 08bd 91       		.byte	0x91
 2181 08be 00       		.sleb128 0
 2182 08bf 18       		.uleb128 0x18
 2183 08c0 BF020000 		.long	.LVL27
 2184 08c4 DC0E0000 		.long	0xedc
 2185 08c8 D4080000 		.long	0x8d4
 2186 08cc 19       		.uleb128 0x19
 2187 08cd 02       		.uleb128 0x2
 2188 08ce 74       		.byte	0x74
 2189 08cf 00       		.sleb128 0
 2190 08d0 02       		.uleb128 0x2
 2191 08d1 08       		.byte	0x8
 2192 08d2 32       		.byte	0x32
 2193 08d3 00       		.byte	0
 2194 08d4 18       		.uleb128 0x18
 2195 08d5 CC020000 		.long	.LVL28
 2196 08d9 EE0E0000 		.long	0xeee
 2197 08dd EC080000 		.long	0x8ec
 2198 08e1 19       		.uleb128 0x19
 2199 08e2 02       		.uleb128 0x2
 2200 08e3 74       		.byte	0x74
 2201 08e4 00       		.sleb128 0
 2202 08e5 05       		.uleb128 0x5
 2203 08e6 03       		.byte	0x3
 2204 08e7 00000000 		.long	sem1
 2205 08eb 00       		.byte	0
 2206 08ec 1A       		.uleb128 0x1a
 2207 08ed D1020000 		.long	.LVL29
 2208 08f1 7F0E0000 		.long	0xe7f
 2209 08f5 00       		.byte	0
 2210 08f6 1C       		.uleb128 0x1c
 2211 08f7 D6020000 		.long	.LASF93
 2212 08fb 01       		.byte	0x1
 2213 08fc F6       		.byte	0xf6
 2214 08fd D9000000 		.long	0xd9
GAS LISTING /tmp/ccu2m9kw.s 			page 49


 2215 0901 E0020000 		.long	.LFB16
 2216 0905 2A000000 		.long	.LFE16-.LFB16
 2217 0909 01       		.uleb128 0x1
 2218 090a 9C       		.byte	0x9c
 2219 090b 37090000 		.long	0x937
 2220 090f 1D       		.uleb128 0x1d
 2221 0910 7000     		.string	"p"
 2222 0912 01       		.byte	0x1
 2223 0913 F6       		.byte	0xf6
 2224 0914 71020000 		.long	0x271
 2225 0918 02       		.uleb128 0x2
 2226 0919 91       		.byte	0x91
 2227 091a 00       		.sleb128 0
 2228 091b 1A       		.uleb128 0x1a
 2229 091c F4020000 		.long	.LVL31
 2230 0920 7F0E0000 		.long	0xe7f
 2231 0924 1B       		.uleb128 0x1b
 2232 0925 08030000 		.long	.LVL32
 2233 0929 EE0E0000 		.long	0xeee
 2234 092d 19       		.uleb128 0x19
 2235 092e 02       		.uleb128 0x2
 2236 092f 74       		.byte	0x74
 2237 0930 00       		.sleb128 0
 2238 0931 03       		.uleb128 0x3
 2239 0932 91       		.byte	0x91
 2240 0933 00       		.sleb128 0
 2241 0934 06       		.byte	0x6
 2242 0935 00       		.byte	0
 2243 0936 00       		.byte	0
 2244 0937 17       		.uleb128 0x17
 2245 0938 75020000 		.long	.LASF94
 2246 093c 01       		.byte	0x1
 2247 093d FC       		.byte	0xfc
 2248 093e 10030000 		.long	.LFB17
 2249 0942 72010000 		.long	.LFE17-.LFB17
 2250 0946 01       		.uleb128 0x1
 2251 0947 9C       		.byte	0x9c
 2252 0948 7D0A0000 		.long	0xa7d
 2253 094c 1E       		.uleb128 0x1e
 2254 094d 32020000 		.long	.LASF95
 2255 0951 01       		.byte	0x1
 2256 0952 FD       		.byte	0xfd
 2257 0953 40040000 		.long	0x440
 2258 0957 02       		.uleb128 0x2
 2259 0958 91       		.byte	0x91
 2260 0959 64       		.sleb128 -28
 2261 095a 18       		.uleb128 0x18
 2262 095b 28030000 		.long	.LVL33
 2263 095f C60E0000 		.long	0xec6
 2264 0963 75090000 		.long	0x975
 2265 0967 19       		.uleb128 0x19
 2266 0968 02       		.uleb128 0x2
 2267 0969 74       		.byte	0x74
 2268 096a 00       		.sleb128 0
 2269 096b 02       		.uleb128 0x2
 2270 096c 73       		.byte	0x73
 2271 096d 00       		.sleb128 0
GAS LISTING /tmp/ccu2m9kw.s 			page 50


 2272 096e 19       		.uleb128 0x19
 2273 096f 02       		.uleb128 0x2
 2274 0970 74       		.byte	0x74
 2275 0971 04       		.sleb128 4
 2276 0972 01       		.uleb128 0x1
 2277 0973 30       		.byte	0x30
 2278 0974 00       		.byte	0
 2279 0975 18       		.uleb128 0x18
 2280 0976 38030000 		.long	.LVL34
 2281 097a FF0E0000 		.long	0xeff
 2282 097e 90090000 		.long	0x990
 2283 0982 19       		.uleb128 0x19
 2284 0983 02       		.uleb128 0x2
 2285 0984 74       		.byte	0x74
 2286 0985 00       		.sleb128 0
 2287 0986 02       		.uleb128 0x2
 2288 0987 73       		.byte	0x73
 2289 0988 00       		.sleb128 0
 2290 0989 19       		.uleb128 0x19
 2291 098a 02       		.uleb128 0x2
 2292 098b 74       		.byte	0x74
 2293 098c 04       		.sleb128 4
 2294 098d 01       		.uleb128 0x1
 2295 098e 30       		.byte	0x30
 2296 098f 00       		.byte	0
 2297 0990 18       		.uleb128 0x18
 2298 0991 53030000 		.long	.LVL35
 2299 0995 860E0000 		.long	0xe86
 2300 0999 A4090000 		.long	0x9a4
 2301 099d 19       		.uleb128 0x19
 2302 099e 02       		.uleb128 0x2
 2303 099f 74       		.byte	0x74
 2304 09a0 00       		.sleb128 0
 2305 09a1 01       		.uleb128 0x1
 2306 09a2 31       		.byte	0x31
 2307 09a3 00       		.byte	0
 2308 09a4 18       		.uleb128 0x18
 2309 09a5 90030000 		.long	.LVL36
 2310 09a9 010E0000 		.long	0xe01
 2311 09ad CB090000 		.long	0x9cb
 2312 09b1 19       		.uleb128 0x19
 2313 09b2 02       		.uleb128 0x2
 2314 09b3 74       		.byte	0x74
 2315 09b4 04       		.sleb128 4
 2316 09b5 03       		.uleb128 0x3
 2317 09b6 0A       		.byte	0xa
 2318 09b7 7042     		.value	0x4270
 2319 09b9 19       		.uleb128 0x19
 2320 09ba 02       		.uleb128 0x2
 2321 09bb 74       		.byte	0x74
 2322 09bc 0C       		.sleb128 12
 2323 09bd 05       		.uleb128 0x5
 2324 09be 03       		.byte	0x3
 2325 09bf E0020000 		.long	thread4
 2326 09c3 19       		.uleb128 0x19
 2327 09c4 02       		.uleb128 0x2
 2328 09c5 74       		.byte	0x74
GAS LISTING /tmp/ccu2m9kw.s 			page 51


 2329 09c6 10       		.sleb128 16
 2330 09c7 02       		.uleb128 0x2
 2331 09c8 73       		.byte	0x73
 2332 09c9 00       		.sleb128 0
 2333 09ca 00       		.byte	0
 2334 09cb 18       		.uleb128 0x18
 2335 09cc 9D030000 		.long	.LVL37
 2336 09d0 A00E0000 		.long	0xea0
 2337 09d4 E0090000 		.long	0x9e0
 2338 09d8 19       		.uleb128 0x19
 2339 09d9 02       		.uleb128 0x2
 2340 09da 74       		.byte	0x74
 2341 09db 00       		.sleb128 0
 2342 09dc 02       		.uleb128 0x2
 2343 09dd 73       		.byte	0x73
 2344 09de 00       		.sleb128 0
 2345 09df 00       		.byte	0
 2346 09e0 18       		.uleb128 0x18
 2347 09e1 B8030000 		.long	.LVL38
 2348 09e5 860E0000 		.long	0xe86
 2349 09e9 F4090000 		.long	0x9f4
 2350 09ed 19       		.uleb128 0x19
 2351 09ee 02       		.uleb128 0x2
 2352 09ef 74       		.byte	0x74
 2353 09f0 00       		.sleb128 0
 2354 09f1 01       		.uleb128 0x1
 2355 09f2 32       		.byte	0x32
 2356 09f3 00       		.byte	0
 2357 09f4 1A       		.uleb128 0x1a
 2358 09f5 CE030000 		.long	.LVL39
 2359 09f9 7F0E0000 		.long	0xe7f
 2360 09fd 18       		.uleb128 0x18
 2361 09fe EA030000 		.long	.LVL40
 2362 0a02 860E0000 		.long	0xe86
 2363 0a06 110A0000 		.long	0xa11
 2364 0a0a 19       		.uleb128 0x19
 2365 0a0b 02       		.uleb128 0x2
 2366 0a0c 74       		.byte	0x74
 2367 0a0d 00       		.sleb128 0
 2368 0a0e 01       		.uleb128 0x1
 2369 0a0f 33       		.byte	0x33
 2370 0a10 00       		.byte	0
 2371 0a11 18       		.uleb128 0x18
 2372 0a12 0C040000 		.long	.LVL41
 2373 0a16 860E0000 		.long	0xe86
 2374 0a1a 250A0000 		.long	0xa25
 2375 0a1e 19       		.uleb128 0x19
 2376 0a1f 02       		.uleb128 0x2
 2377 0a20 74       		.byte	0x74
 2378 0a21 00       		.sleb128 0
 2379 0a22 01       		.uleb128 0x1
 2380 0a23 34       		.byte	0x34
 2381 0a24 00       		.byte	0
 2382 0a25 1A       		.uleb128 0x1a
 2383 0a26 22040000 		.long	.LVL42
 2384 0a2a 7F0E0000 		.long	0xe7f
 2385 0a2e 18       		.uleb128 0x18
GAS LISTING /tmp/ccu2m9kw.s 			page 52


 2386 0a2f 3E040000 		.long	.LVL43
 2387 0a33 860E0000 		.long	0xe86
 2388 0a37 420A0000 		.long	0xa42
 2389 0a3b 19       		.uleb128 0x19
 2390 0a3c 02       		.uleb128 0x2
 2391 0a3d 74       		.byte	0x74
 2392 0a3e 00       		.sleb128 0
 2393 0a3f 01       		.uleb128 0x1
 2394 0a40 33       		.byte	0x33
 2395 0a41 00       		.byte	0
 2396 0a42 18       		.uleb128 0x18
 2397 0a43 60040000 		.long	.LVL44
 2398 0a47 860E0000 		.long	0xe86
 2399 0a4b 560A0000 		.long	0xa56
 2400 0a4f 19       		.uleb128 0x19
 2401 0a50 02       		.uleb128 0x2
 2402 0a51 74       		.byte	0x74
 2403 0a52 00       		.sleb128 0
 2404 0a53 01       		.uleb128 0x1
 2405 0a54 35       		.byte	0x35
 2406 0a55 00       		.byte	0
 2407 0a56 18       		.uleb128 0x18
 2408 0a57 70040000 		.long	.LVL45
 2409 0a5b EE0E0000 		.long	0xeee
 2410 0a5f 6B0A0000 		.long	0xa6b
 2411 0a63 19       		.uleb128 0x19
 2412 0a64 02       		.uleb128 0x2
 2413 0a65 74       		.byte	0x74
 2414 0a66 00       		.sleb128 0
 2415 0a67 02       		.uleb128 0x2
 2416 0a68 73       		.byte	0x73
 2417 0a69 00       		.sleb128 0
 2418 0a6a 00       		.byte	0
 2419 0a6b 1B       		.uleb128 0x1b
 2420 0a6c 7D040000 		.long	.LVL46
 2421 0a70 EE0E0000 		.long	0xeee
 2422 0a74 19       		.uleb128 0x19
 2423 0a75 02       		.uleb128 0x2
 2424 0a76 74       		.byte	0x74
 2425 0a77 00       		.sleb128 0
 2426 0a78 02       		.uleb128 0x2
 2427 0a79 73       		.byte	0x73
 2428 0a7a 00       		.sleb128 0
 2429 0a7b 00       		.byte	0
 2430 0a7c 00       		.byte	0
 2431 0a7d 1F       		.uleb128 0x1f
 2432 0a7e 3E050000 		.long	0x53e
 2433 0a82 90040000 		.long	.LFB12
 2434 0a86 29020000 		.long	.LFE12-.LFB12
 2435 0a8a 01       		.uleb128 0x1
 2436 0a8b 9C       		.byte	0x9c
 2437 0a8c 640C0000 		.long	0xc64
 2438 0a90 20       		.uleb128 0x20
 2439 0a91 4A050000 		.long	0x54a
 2440 0a95 20       		.uleb128 0x20
 2441 0a96 53050000 		.long	0x553
 2442 0a9a 21       		.uleb128 0x21
GAS LISTING /tmp/ccu2m9kw.s 			page 53


 2443 0a9b 5E050000 		.long	0x55e
 2444 0a9f 00000000 		.long	.LLST0
 2445 0aa3 22       		.uleb128 0x22
 2446 0aa4 14050000 		.long	.LBB5
 2447 0aa8 A5010000 		.long	.LBE5-.LBB5
 2448 0aac 0D0C0000 		.long	0xc0d
 2449 0ab0 21       		.uleb128 0x21
 2450 0ab1 4A050000 		.long	0x54a
 2451 0ab5 13000000 		.long	.LLST1
 2452 0ab9 21       		.uleb128 0x21
 2453 0aba 53050000 		.long	0x553
 2454 0abe 50000000 		.long	.LLST2
 2455 0ac2 21       		.uleb128 0x21
 2456 0ac3 5E050000 		.long	0x55e
 2457 0ac7 71000000 		.long	.LLST3
 2458 0acb 18       		.uleb128 0x18
 2459 0acc 48050000 		.long	.LVL52
 2460 0ad0 010E0000 		.long	0xe01
 2461 0ad4 F10A0000 		.long	0xaf1
 2462 0ad8 19       		.uleb128 0x19
 2463 0ad9 02       		.uleb128 0x2
 2464 0ada 74       		.byte	0x74
 2465 0adb 04       		.sleb128 4
 2466 0adc 03       		.uleb128 0x3
 2467 0add 0A       		.byte	0xa
 2468 0ade 7042     		.value	0x4270
 2469 0ae0 19       		.uleb128 0x19
 2470 0ae1 02       		.uleb128 0x2
 2471 0ae2 74       		.byte	0x74
 2472 0ae3 0C       		.sleb128 12
 2473 0ae4 05       		.uleb128 0x5
 2474 0ae5 03       		.byte	0x3
 2475 0ae6 B0020000 		.long	thread2
 2476 0aea 19       		.uleb128 0x19
 2477 0aeb 02       		.uleb128 0x2
 2478 0aec 74       		.byte	0x74
 2479 0aed 10       		.sleb128 16
 2480 0aee 01       		.uleb128 0x1
 2481 0aef 30       		.byte	0x30
 2482 0af0 00       		.byte	0
 2483 0af1 18       		.uleb128 0x18
 2484 0af2 61050000 		.long	.LVL53
 2485 0af6 150F0000 		.long	0xf15
 2486 0afa 110B0000 		.long	0xb11
 2487 0afe 19       		.uleb128 0x19
 2488 0aff 02       		.uleb128 0x2
 2489 0b00 74       		.byte	0x74
 2490 0b01 00       		.sleb128 0
 2491 0b02 05       		.uleb128 0x5
 2492 0b03 03       		.byte	0x3
 2493 0b04 00000000 		.long	sem1
 2494 0b08 19       		.uleb128 0x19
 2495 0b09 02       		.uleb128 0x2
 2496 0b0a 74       		.byte	0x74
 2497 0b0b 04       		.sleb128 4
 2498 0b0c 03       		.uleb128 0x3
 2499 0b0d 0A       		.byte	0xa
GAS LISTING /tmp/ccu2m9kw.s 			page 54


 2500 0b0e F401     		.value	0x1f4
 2501 0b10 00       		.byte	0
 2502 0b11 1A       		.uleb128 0x1a
 2503 0b12 68050000 		.long	.LVL55
 2504 0b16 420E0000 		.long	0xe42
 2505 0b1a 18       		.uleb128 0x18
 2506 0b1b 7F050000 		.long	.LVL56
 2507 0b1f 860E0000 		.long	0xe86
 2508 0b23 2E0B0000 		.long	0xb2e
 2509 0b27 19       		.uleb128 0x19
 2510 0b28 02       		.uleb128 0x2
 2511 0b29 74       		.byte	0x74
 2512 0b2a 00       		.sleb128 0
 2513 0b2b 01       		.uleb128 0x1
 2514 0b2c 34       		.byte	0x34
 2515 0b2d 00       		.byte	0
 2516 0b2e 18       		.uleb128 0x18
 2517 0b2f A6050000 		.long	.LVL57
 2518 0b33 860E0000 		.long	0xe86
 2519 0b37 420B0000 		.long	0xb42
 2520 0b3b 19       		.uleb128 0x19
 2521 0b3c 02       		.uleb128 0x2
 2522 0b3d 74       		.byte	0x74
 2523 0b3e 00       		.sleb128 0
 2524 0b3f 01       		.uleb128 0x1
 2525 0b40 35       		.byte	0x35
 2526 0b41 00       		.byte	0
 2527 0b42 18       		.uleb128 0x18
 2528 0b43 CB050000 		.long	.LVL58
 2529 0b47 860E0000 		.long	0xe86
 2530 0b4b 560B0000 		.long	0xb56
 2531 0b4f 19       		.uleb128 0x19
 2532 0b50 02       		.uleb128 0x2
 2533 0b51 74       		.byte	0x74
 2534 0b52 00       		.sleb128 0
 2535 0b53 01       		.uleb128 0x1
 2536 0b54 36       		.byte	0x36
 2537 0b55 00       		.byte	0
 2538 0b56 1A       		.uleb128 0x1a
 2539 0b57 D8050000 		.long	.LVL59
 2540 0b5b 2F0F0000 		.long	0xf2f
 2541 0b5f 18       		.uleb128 0x18
 2542 0b60 EB050000 		.long	.LVL62
 2543 0b64 B50E0000 		.long	0xeb5
 2544 0b68 740B0000 		.long	0xb74
 2545 0b6c 19       		.uleb128 0x19
 2546 0b6d 02       		.uleb128 0x2
 2547 0b6e 74       		.byte	0x74
 2548 0b6f 00       		.sleb128 0
 2549 0b70 02       		.uleb128 0x2
 2550 0b71 73       		.byte	0x73
 2551 0b72 00       		.sleb128 0
 2552 0b73 00       		.byte	0
 2553 0b74 18       		.uleb128 0x18
 2554 0b75 FF050000 		.long	.LVL63
 2555 0b79 150F0000 		.long	0xf15
 2556 0b7d 940B0000 		.long	0xb94
GAS LISTING /tmp/ccu2m9kw.s 			page 55


 2557 0b81 19       		.uleb128 0x19
 2558 0b82 02       		.uleb128 0x2
 2559 0b83 74       		.byte	0x74
 2560 0b84 00       		.sleb128 0
 2561 0b85 05       		.uleb128 0x5
 2562 0b86 03       		.byte	0x3
 2563 0b87 00000000 		.long	sem1
 2564 0b8b 19       		.uleb128 0x19
 2565 0b8c 02       		.uleb128 0x2
 2566 0b8d 74       		.byte	0x74
 2567 0b8e 04       		.sleb128 4
 2568 0b8f 03       		.uleb128 0x3
 2569 0b90 0A       		.byte	0xa
 2570 0b91 F401     		.value	0x1f4
 2571 0b93 00       		.byte	0
 2572 0b94 18       		.uleb128 0x18
 2573 0b95 18060000 		.long	.LVL65
 2574 0b99 860E0000 		.long	0xe86
 2575 0b9d A80B0000 		.long	0xba8
 2576 0ba1 19       		.uleb128 0x19
 2577 0ba2 02       		.uleb128 0x2
 2578 0ba3 74       		.byte	0x74
 2579 0ba4 00       		.sleb128 0
 2580 0ba5 01       		.uleb128 0x1
 2581 0ba6 37       		.byte	0x37
 2582 0ba7 00       		.byte	0
 2583 0ba8 18       		.uleb128 0x18
 2584 0ba9 3F060000 		.long	.LVL66
 2585 0bad 860E0000 		.long	0xe86
 2586 0bb1 BC0B0000 		.long	0xbbc
 2587 0bb5 19       		.uleb128 0x19
 2588 0bb6 02       		.uleb128 0x2
 2589 0bb7 74       		.byte	0x74
 2590 0bb8 00       		.sleb128 0
 2591 0bb9 01       		.uleb128 0x1
 2592 0bba 38       		.byte	0x38
 2593 0bbb 00       		.byte	0
 2594 0bbc 18       		.uleb128 0x18
 2595 0bbd 64060000 		.long	.LVL67
 2596 0bc1 860E0000 		.long	0xe86
 2597 0bc5 D00B0000 		.long	0xbd0
 2598 0bc9 19       		.uleb128 0x19
 2599 0bca 02       		.uleb128 0x2
 2600 0bcb 74       		.byte	0x74
 2601 0bcc 00       		.sleb128 0
 2602 0bcd 01       		.uleb128 0x1
 2603 0bce 39       		.byte	0x39
 2604 0bcf 00       		.byte	0
 2605 0bd0 18       		.uleb128 0x18
 2606 0bd1 8C060000 		.long	.LVL70
 2607 0bd5 490E0000 		.long	0xe49
 2608 0bd9 EE0B0000 		.long	0xbee
 2609 0bdd 19       		.uleb128 0x19
 2610 0bde 02       		.uleb128 0x2
 2611 0bdf 74       		.byte	0x74
 2612 0be0 00       		.sleb128 0
 2613 0be1 01       		.uleb128 0x1
GAS LISTING /tmp/ccu2m9kw.s 			page 56


 2614 0be2 3A       		.byte	0x3a
 2615 0be3 19       		.uleb128 0x19
 2616 0be4 02       		.uleb128 0x2
 2617 0be5 74       		.byte	0x74
 2618 0be6 04       		.sleb128 4
 2619 0be7 05       		.uleb128 0x5
 2620 0be8 03       		.byte	0x3
 2621 0be9 0A000000 		.long	.LC5
 2622 0bed 00       		.byte	0
 2623 0bee 1B       		.uleb128 0x1b
 2624 0bef B4060000 		.long	.LVL72
 2625 0bf3 3A0F0000 		.long	0xf3a
 2626 0bf7 19       		.uleb128 0x19
 2627 0bf8 02       		.uleb128 0x2
 2628 0bf9 74       		.byte	0x74
 2629 0bfa 00       		.sleb128 0
 2630 0bfb 01       		.uleb128 0x1
 2631 0bfc 3B       		.byte	0x3b
 2632 0bfd 19       		.uleb128 0x19
 2633 0bfe 02       		.uleb128 0x2
 2634 0bff 74       		.byte	0x74
 2635 0c00 04       		.sleb128 4
 2636 0c01 02       		.uleb128 0x2
 2637 0c02 76       		.byte	0x76
 2638 0c03 00       		.sleb128 0
 2639 0c04 19       		.uleb128 0x19
 2640 0c05 02       		.uleb128 0x2
 2641 0c06 74       		.byte	0x74
 2642 0c07 08       		.sleb128 8
 2643 0c08 02       		.uleb128 0x2
 2644 0c09 76       		.byte	0x76
 2645 0c0a 05       		.sleb128 5
 2646 0c0b 00       		.byte	0
 2647 0c0c 00       		.byte	0
 2648 0c0d 18       		.uleb128 0x18
 2649 0c0e A9040000 		.long	.LVL47
 2650 0c12 150F0000 		.long	0xf15
 2651 0c16 2B0C0000 		.long	0xc2b
 2652 0c1a 19       		.uleb128 0x19
 2653 0c1b 02       		.uleb128 0x2
 2654 0c1c 74       		.byte	0x74
 2655 0c1d 00       		.sleb128 0
 2656 0c1e 05       		.uleb128 0x5
 2657 0c1f 03       		.byte	0x3
 2658 0c20 00000000 		.long	sem1
 2659 0c24 19       		.uleb128 0x19
 2660 0c25 02       		.uleb128 0x2
 2661 0c26 74       		.byte	0x74
 2662 0c27 04       		.sleb128 4
 2663 0c28 01       		.uleb128 0x1
 2664 0c29 30       		.byte	0x30
 2665 0c2a 00       		.byte	0
 2666 0c2b 18       		.uleb128 0x18
 2667 0c2c C2040000 		.long	.LVL49
 2668 0c30 860E0000 		.long	0xe86
 2669 0c34 3F0C0000 		.long	0xc3f
 2670 0c38 19       		.uleb128 0x19
GAS LISTING /tmp/ccu2m9kw.s 			page 57


 2671 0c39 02       		.uleb128 0x2
 2672 0c3a 74       		.byte	0x74
 2673 0c3b 00       		.sleb128 0
 2674 0c3c 01       		.uleb128 0x1
 2675 0c3d 31       		.byte	0x31
 2676 0c3e 00       		.byte	0
 2677 0c3f 18       		.uleb128 0x18
 2678 0c40 EF040000 		.long	.LVL50
 2679 0c44 860E0000 		.long	0xe86
 2680 0c48 530C0000 		.long	0xc53
 2681 0c4c 19       		.uleb128 0x19
 2682 0c4d 02       		.uleb128 0x2
 2683 0c4e 74       		.byte	0x74
 2684 0c4f 00       		.sleb128 0
 2685 0c50 01       		.uleb128 0x1
 2686 0c51 32       		.byte	0x32
 2687 0c52 00       		.byte	0
 2688 0c53 1B       		.uleb128 0x1b
 2689 0c54 10050000 		.long	.LVL51
 2690 0c58 860E0000 		.long	0xe86
 2691 0c5c 19       		.uleb128 0x19
 2692 0c5d 02       		.uleb128 0x2
 2693 0c5e 74       		.byte	0x74
 2694 0c5f 00       		.sleb128 0
 2695 0c60 01       		.uleb128 0x1
 2696 0c61 33       		.byte	0x33
 2697 0c62 00       		.byte	0
 2698 0c63 00       		.byte	0
 2699 0c64 1F       		.uleb128 0x1f
 2700 0c65 6A050000 		.long	0x56a
 2701 0c69 C0060000 		.long	.LFB15
 2702 0c6d EF000000 		.long	.LFE15-.LFB15
 2703 0c71 01       		.uleb128 0x1
 2704 0c72 9C       		.byte	0x9c
 2705 0c73 2E0D0000 		.long	0xd2e
 2706 0c77 18       		.uleb128 0x18
 2707 0c78 F7060000 		.long	.LVL73
 2708 0c7c 010E0000 		.long	0xe01
 2709 0c80 9D0C0000 		.long	0xc9d
 2710 0c84 19       		.uleb128 0x19
 2711 0c85 02       		.uleb128 0x2
 2712 0c86 74       		.byte	0x74
 2713 0c87 04       		.sleb128 4
 2714 0c88 03       		.uleb128 0x3
 2715 0c89 0A       		.byte	0xa
 2716 0c8a 7042     		.value	0x4270
 2717 0c8c 19       		.uleb128 0x19
 2718 0c8d 02       		.uleb128 0x2
 2719 0c8e 74       		.byte	0x74
 2720 0c8f 0C       		.sleb128 12
 2721 0c90 05       		.uleb128 0x5
 2722 0c91 03       		.byte	0x3
 2723 0c92 F0010000 		.long	thread3
 2724 0c96 19       		.uleb128 0x19
 2725 0c97 02       		.uleb128 0x2
 2726 0c98 74       		.byte	0x74
 2727 0c99 10       		.sleb128 16
GAS LISTING /tmp/ccu2m9kw.s 			page 58


 2728 0c9a 01       		.uleb128 0x1
 2729 0c9b 30       		.byte	0x30
 2730 0c9c 00       		.byte	0
 2731 0c9d 18       		.uleb128 0x18
 2732 0c9e 10070000 		.long	.LVL74
 2733 0ca2 590F0000 		.long	0xf59
 2734 0ca6 BF0C0000 		.long	0xcbf
 2735 0caa 19       		.uleb128 0x19
 2736 0cab 02       		.uleb128 0x2
 2737 0cac 74       		.byte	0x74
 2738 0cad 00       		.sleb128 0
 2739 0cae 05       		.uleb128 0x5
 2740 0caf 03       		.byte	0x3
 2741 0cb0 00000000 		.long	sem1
 2742 0cb4 19       		.uleb128 0x19
 2743 0cb5 02       		.uleb128 0x2
 2744 0cb6 74       		.byte	0x74
 2745 0cb7 04       		.sleb128 4
 2746 0cb8 05       		.uleb128 0x5
 2747 0cb9 03       		.byte	0x3
 2748 0cba 00000000 		.long	sem1
 2749 0cbe 00       		.byte	0
 2750 0cbf 18       		.uleb128 0x18
 2751 0cc0 2F070000 		.long	.LVL75
 2752 0cc4 860E0000 		.long	0xe86
 2753 0cc8 D30C0000 		.long	0xcd3
 2754 0ccc 19       		.uleb128 0x19
 2755 0ccd 02       		.uleb128 0x2
 2756 0cce 74       		.byte	0x74
 2757 0ccf 00       		.sleb128 0
 2758 0cd0 01       		.uleb128 0x1
 2759 0cd1 31       		.byte	0x31
 2760 0cd2 00       		.byte	0
 2761 0cd3 18       		.uleb128 0x18
 2762 0cd4 55070000 		.long	.LVL76
 2763 0cd8 860E0000 		.long	0xe86
 2764 0cdc E70C0000 		.long	0xce7
 2765 0ce0 19       		.uleb128 0x19
 2766 0ce1 02       		.uleb128 0x2
 2767 0ce2 74       		.byte	0x74
 2768 0ce3 00       		.sleb128 0
 2769 0ce4 01       		.uleb128 0x1
 2770 0ce5 32       		.byte	0x32
 2771 0ce6 00       		.byte	0
 2772 0ce7 18       		.uleb128 0x18
 2773 0ce8 6D070000 		.long	.LVL77
 2774 0cec 590F0000 		.long	0xf59
 2775 0cf0 090D0000 		.long	0xd09
 2776 0cf4 19       		.uleb128 0x19
 2777 0cf5 02       		.uleb128 0x2
 2778 0cf6 74       		.byte	0x74
 2779 0cf7 00       		.sleb128 0
 2780 0cf8 05       		.uleb128 0x5
 2781 0cf9 03       		.byte	0x3
 2782 0cfa 00000000 		.long	sem1
 2783 0cfe 19       		.uleb128 0x19
 2784 0cff 02       		.uleb128 0x2
GAS LISTING /tmp/ccu2m9kw.s 			page 59


 2785 0d00 74       		.byte	0x74
 2786 0d01 04       		.sleb128 4
 2787 0d02 05       		.uleb128 0x5
 2788 0d03 03       		.byte	0x3
 2789 0d04 00000000 		.long	sem1
 2790 0d08 00       		.byte	0
 2791 0d09 18       		.uleb128 0x18
 2792 0d0a 8C070000 		.long	.LVL78
 2793 0d0e 860E0000 		.long	0xe86
 2794 0d12 1D0D0000 		.long	0xd1d
 2795 0d16 19       		.uleb128 0x19
 2796 0d17 02       		.uleb128 0x2
 2797 0d18 74       		.byte	0x74
 2798 0d19 00       		.sleb128 0
 2799 0d1a 01       		.uleb128 0x1
 2800 0d1b 33       		.byte	0x33
 2801 0d1c 00       		.byte	0
 2802 0d1d 1B       		.uleb128 0x1b
 2803 0d1e AD070000 		.long	.LVL79
 2804 0d22 860E0000 		.long	0xe86
 2805 0d26 19       		.uleb128 0x19
 2806 0d27 02       		.uleb128 0x2
 2807 0d28 74       		.byte	0x74
 2808 0d29 00       		.sleb128 0
 2809 0d2a 01       		.uleb128 0x1
 2810 0d2b 34       		.byte	0x34
 2811 0d2c 00       		.byte	0
 2812 0d2d 00       		.byte	0
 2813 0d2e 1E       		.uleb128 0x1e
 2814 0d2f 8B010000 		.long	.LASF96
 2815 0d33 01       		.byte	0x1
 2816 0d34 3B       		.byte	0x3b
 2817 0d35 20040000 		.long	0x420
 2818 0d39 05       		.uleb128 0x5
 2819 0d3a 03       		.byte	0x3
 2820 0d3b 00000000 		.long	sem1
 2821 0d3f 23       		.uleb128 0x23
 2822 0d40 3D000000 		.long	.LASF97
 2823 0d44 08       		.byte	0x8
 2824 0d45 F5       		.byte	0xf5
 2825 0d46 94030000 		.long	0x394
 2826 0d4a 23       		.uleb128 0x23
 2827 0d4b F2040000 		.long	.LASF98
 2828 0d4f 09       		.byte	0x9
 2829 0d50 6F       		.byte	0x6f
 2830 0d51 F0030000 		.long	0x3f0
 2831 0d55 24       		.uleb128 0x24
 2832 0d56 2E020000 		.long	0x22e
 2833 0d5a 650D0000 		.long	0xd65
 2834 0d5e 25       		.uleb128 0x25
 2835 0d5f 5F020000 		.long	0x25f
 2836 0d63 04       		.byte	0x4
 2837 0d64 00       		.byte	0
 2838 0d65 23       		.uleb128 0x23
 2839 0d66 F1030000 		.long	.LASF99
 2840 0d6a 0D       		.byte	0xd
 2841 0d6b A5       		.byte	0xa5
GAS LISTING /tmp/ccu2m9kw.s 			page 60


 2842 0d6c 550D0000 		.long	0xd55
 2843 0d70 24       		.uleb128 0x24
 2844 0d71 71020000 		.long	0x271
 2845 0d75 7B0D0000 		.long	0xd7b
 2846 0d79 26       		.uleb128 0x26
 2847 0d7a 00       		.byte	0
 2848 0d7b 27       		.uleb128 0x27
 2849 0d7c 776100   		.string	"wa"
 2850 0d7f 0D       		.byte	0xd
 2851 0d80 A7       		.byte	0xa7
 2852 0d81 850D0000 		.long	0xd85
 2853 0d85 10       		.uleb128 0x10
 2854 0d86 700D0000 		.long	0xd70
 2855 0d8a 28       		.uleb128 0x28
 2856 0d8b C9010000 		.long	.LASF100
 2857 0d8f 01       		.byte	0x1
 2858 0d90 6F       		.byte	0x6f
 2859 0d91 9B0D0000 		.long	0xd9b
 2860 0d95 05       		.uleb128 0x5
 2861 0d96 03       		.byte	0x3
 2862 0d97 00000000 		.long	testsem1
 2863 0d9b 10       		.uleb128 0x10
 2864 0d9c FA040000 		.long	0x4fa
 2865 0da0 28       		.uleb128 0x28
 2866 0da1 D2010000 		.long	.LASF101
 2867 0da5 01       		.byte	0x1
 2868 0da6 B9       		.byte	0xb9
 2869 0da7 9B0D0000 		.long	0xd9b
 2870 0dab 05       		.uleb128 0x5
 2871 0dac 03       		.byte	0x3
 2872 0dad 00000000 		.long	testsem2
 2873 0db1 28       		.uleb128 0x28
 2874 0db2 DB010000 		.long	.LASF102
 2875 0db6 01       		.byte	0x1
 2876 0db7 E6       		.byte	0xe6
 2877 0db8 9B0D0000 		.long	0xd9b
 2878 0dbc 05       		.uleb128 0x5
 2879 0dbd 03       		.byte	0x3
 2880 0dbe 00000000 		.long	testsem3
 2881 0dc2 29       		.uleb128 0x29
 2882 0dc3 E4010000 		.long	.LASF103
 2883 0dc7 01       		.byte	0x1
 2884 0dc8 1A01     		.value	0x11a
 2885 0dca 9B0D0000 		.long	0xd9b
 2886 0dce 05       		.uleb128 0x5
 2887 0dcf 03       		.byte	0x3
 2888 0dd0 00000000 		.long	testsem4
 2889 0dd4 24       		.uleb128 0x24
 2890 0dd5 E40D0000 		.long	0xde4
 2891 0dd9 E40D0000 		.long	0xde4
 2892 0ddd 25       		.uleb128 0x25
 2893 0dde 5F020000 		.long	0x25f
 2894 0de2 04       		.byte	0x4
 2895 0de3 00       		.byte	0
 2896 0de4 09       		.uleb128 0x9
 2897 0de5 04       		.byte	0x4
 2898 0de6 9B0D0000 		.long	0xd9b
GAS LISTING /tmp/ccu2m9kw.s 			page 61


 2899 0dea 29       		.uleb128 0x29
 2900 0deb 19030000 		.long	.LASF104
 2901 0def 01       		.byte	0x1
 2902 0df0 2501     		.value	0x125
 2903 0df2 FC0D0000 		.long	0xdfc
 2904 0df6 05       		.uleb128 0x5
 2905 0df7 03       		.byte	0x3
 2906 0df8 00000000 		.long	patternsem
 2907 0dfc 10       		.uleb128 0x10
 2908 0dfd D40D0000 		.long	0xdd4
 2909 0e01 2A       		.uleb128 0x2a
 2910 0e02 63020000 		.long	.LASF105
 2911 0e06 06       		.byte	0x6
 2912 0e07 7001     		.value	0x170
 2913 0e09 2E020000 		.long	0x22e
 2914 0e0d 2B0E0000 		.long	0xe2b
 2915 0e11 0D       		.uleb128 0xd
 2916 0e12 71020000 		.long	0x271
 2917 0e16 0D       		.uleb128 0xd
 2918 0e17 2C000000 		.long	0x2c
 2919 0e1b 0D       		.uleb128 0xd
 2920 0e1c CE000000 		.long	0xce
 2921 0e20 0D       		.uleb128 0xd
 2922 0e21 DA040000 		.long	0x4da
 2923 0e25 0D       		.uleb128 0xd
 2924 0e26 71020000 		.long	0x271
 2925 0e2a 00       		.byte	0
 2926 0e2b 2B       		.uleb128 0x2b
 2927 0e2c 43010000 		.long	.LASF107
 2928 0e30 0A       		.byte	0xa
 2929 0e31 3C       		.byte	0x3c
 2930 0e32 3C0E0000 		.long	0xe3c
 2931 0e36 0D       		.uleb128 0xd
 2932 0e37 3C0E0000 		.long	0xe3c
 2933 0e3b 00       		.byte	0
 2934 0e3c 09       		.uleb128 0x9
 2935 0e3d 04       		.byte	0x4
 2936 0e3e 20040000 		.long	0x420
 2937 0e42 2C       		.uleb128 0x2c
 2938 0e43 A6020000 		.long	.LASF109
 2939 0e47 0D       		.byte	0xd
 2940 0e48 5C       		.byte	0x5c
 2941 0e49 2D       		.uleb128 0x2d
 2942 0e4a F1020000 		.long	.LASF106
 2943 0e4e 0D       		.byte	0xd
 2944 0e4f 59       		.byte	0x59
 2945 0e50 90000000 		.long	0x90
 2946 0e54 630E0000 		.long	0xe63
 2947 0e58 0D       		.uleb128 0xd
 2948 0e59 37000000 		.long	0x37
 2949 0e5d 0D       		.uleb128 0xd
 2950 0e5e 630E0000 		.long	0xe63
 2951 0e62 00       		.byte	0
 2952 0e63 09       		.uleb128 0x9
 2953 0e64 04       		.byte	0x4
 2954 0e65 CD040000 		.long	0x4cd
 2955 0e69 2B       		.uleb128 0x2b
GAS LISTING /tmp/ccu2m9kw.s 			page 62


 2956 0e6a 64000000 		.long	.LASF108
 2957 0e6e 0A       		.byte	0xa
 2958 0e6f 3E       		.byte	0x3e
 2959 0e70 7F0E0000 		.long	0xe7f
 2960 0e74 0D       		.uleb128 0xd
 2961 0e75 3C0E0000 		.long	0xe3c
 2962 0e79 0D       		.uleb128 0xd
 2963 0e7a FA000000 		.long	0xfa
 2964 0e7e 00       		.byte	0
 2965 0e7f 2C       		.uleb128 0x2c
 2966 0e80 5F010000 		.long	.LASF110
 2967 0e84 09       		.byte	0x9
 2968 0e85 9C       		.byte	0x9c
 2969 0e86 2D       		.uleb128 0x2d
 2970 0e87 0E050000 		.long	.LASF111
 2971 0e8b 0D       		.byte	0xd
 2972 0e8c 58       		.byte	0x58
 2973 0e8d 90000000 		.long	0x90
 2974 0e91 A00E0000 		.long	0xea0
 2975 0e95 0D       		.uleb128 0xd
 2976 0e96 37000000 		.long	0x37
 2977 0e9a 0D       		.uleb128 0xd
 2978 0e9b 90000000 		.long	0x90
 2979 0e9f 00       		.byte	0
 2980 0ea0 2D       		.uleb128 0x2d
 2981 0ea1 8A040000 		.long	.LASF112
 2982 0ea5 0A       		.byte	0xa
 2983 0ea6 38       		.byte	0x38
 2984 0ea7 D9000000 		.long	0xd9
 2985 0eab B50E0000 		.long	0xeb5
 2986 0eaf 0D       		.uleb128 0xd
 2987 0eb0 3C0E0000 		.long	0xe3c
 2988 0eb4 00       		.byte	0
 2989 0eb5 2B       		.uleb128 0x2b
 2990 0eb6 E5000000 		.long	.LASF113
 2991 0eba 0D       		.byte	0xd
 2992 0ebb 56       		.byte	0x56
 2993 0ebc C60E0000 		.long	0xec6
 2994 0ec0 0D       		.uleb128 0xd
 2995 0ec1 CD040000 		.long	0x4cd
 2996 0ec5 00       		.byte	0
 2997 0ec6 2B       		.uleb128 0x2b
 2998 0ec7 53050000 		.long	.LASF114
 2999 0ecb 0A       		.byte	0xa
 3000 0ecc 35       		.byte	0x35
 3001 0ecd DC0E0000 		.long	0xedc
 3002 0ed1 0D       		.uleb128 0xd
 3003 0ed2 3C0E0000 		.long	0xe3c
 3004 0ed6 0D       		.uleb128 0xd
 3005 0ed7 FA000000 		.long	0xfa
 3006 0edb 00       		.byte	0
 3007 0edc 2E       		.uleb128 0x2e
 3008 0edd D6040000 		.long	.LASF115
 3009 0ee1 06       		.byte	0x6
 3010 0ee2 7501     		.value	0x175
 3011 0ee4 EE0E0000 		.long	0xeee
 3012 0ee8 0D       		.uleb128 0xd
GAS LISTING /tmp/ccu2m9kw.s 			page 63


 3013 0ee9 EF000000 		.long	0xef
 3014 0eed 00       		.byte	0
 3015 0eee 2B       		.uleb128 0x2b
 3016 0eef 15000000 		.long	.LASF116
 3017 0ef3 0A       		.byte	0xa
 3018 0ef4 3D       		.byte	0x3d
 3019 0ef5 FF0E0000 		.long	0xeff
 3020 0ef9 0D       		.uleb128 0xd
 3021 0efa 3C0E0000 		.long	0xe3c
 3022 0efe 00       		.byte	0
 3023 0eff 2B       		.uleb128 0x2b
 3024 0f00 27020000 		.long	.LASF117
 3025 0f04 0A       		.byte	0xa
 3026 0f05 36       		.byte	0x36
 3027 0f06 150F0000 		.long	0xf15
 3028 0f0a 0D       		.uleb128 0xd
 3029 0f0b 3C0E0000 		.long	0xe3c
 3030 0f0f 0D       		.uleb128 0xd
 3031 0f10 FA000000 		.long	0xfa
 3032 0f14 00       		.byte	0
 3033 0f15 2D       		.uleb128 0x2d
 3034 0f16 A3010000 		.long	.LASF118
 3035 0f1a 0A       		.byte	0xa
 3036 0f1b 3A       		.byte	0x3a
 3037 0f1c D9000000 		.long	0xd9
 3038 0f20 2F0F0000 		.long	0xf2f
 3039 0f24 0D       		.uleb128 0xd
 3040 0f25 3C0E0000 		.long	0xe3c
 3041 0f29 0D       		.uleb128 0xd
 3042 0f2a EF000000 		.long	0xef
 3043 0f2e 00       		.byte	0
 3044 0f2f 2F       		.uleb128 0x2f
 3045 0f30 BC030000 		.long	.LASF126
 3046 0f34 0D       		.byte	0xd
 3047 0f35 5D       		.byte	0x5d
 3048 0f36 EF000000 		.long	0xef
 3049 0f3a 2D       		.uleb128 0x2d
 3050 0f3b 2A010000 		.long	.LASF119
 3051 0f3f 0D       		.byte	0xd
 3052 0f40 5A       		.byte	0x5a
 3053 0f41 90000000 		.long	0x90
 3054 0f45 590F0000 		.long	0xf59
 3055 0f49 0D       		.uleb128 0xd
 3056 0f4a 37000000 		.long	0x37
 3057 0f4e 0D       		.uleb128 0xd
 3058 0f4f EF000000 		.long	0xef
 3059 0f53 0D       		.uleb128 0xd
 3060 0f54 EF000000 		.long	0xef
 3061 0f58 00       		.byte	0
 3062 0f59 30       		.uleb128 0x30
 3063 0f5a 96000000 		.long	.LASF120
 3064 0f5e 0A       		.byte	0xa
 3065 0f5f 40       		.byte	0x40
 3066 0f60 D9000000 		.long	0xd9
 3067 0f64 0D       		.uleb128 0xd
 3068 0f65 3C0E0000 		.long	0xe3c
 3069 0f69 0D       		.uleb128 0xd
GAS LISTING /tmp/ccu2m9kw.s 			page 64


 3070 0f6a 3C0E0000 		.long	0xe3c
 3071 0f6e 00       		.byte	0
 3072 0f6f 00       		.byte	0
 3073              		.section	.debug_abbrev,"",@progbits
 3074              	.Ldebug_abbrev0:
 3075 0000 01       		.uleb128 0x1
 3076 0001 11       		.uleb128 0x11
 3077 0002 01       		.byte	0x1
 3078 0003 25       		.uleb128 0x25
 3079 0004 0E       		.uleb128 0xe
 3080 0005 13       		.uleb128 0x13
 3081 0006 0B       		.uleb128 0xb
 3082 0007 03       		.uleb128 0x3
 3083 0008 0E       		.uleb128 0xe
 3084 0009 1B       		.uleb128 0x1b
 3085 000a 0E       		.uleb128 0xe
 3086 000b 11       		.uleb128 0x11
 3087 000c 01       		.uleb128 0x1
 3088 000d 12       		.uleb128 0x12
 3089 000e 06       		.uleb128 0x6
 3090 000f 10       		.uleb128 0x10
 3091 0010 17       		.uleb128 0x17
 3092 0011 00       		.byte	0
 3093 0012 00       		.byte	0
 3094 0013 02       		.uleb128 0x2
 3095 0014 24       		.uleb128 0x24
 3096 0015 00       		.byte	0
 3097 0016 0B       		.uleb128 0xb
 3098 0017 0B       		.uleb128 0xb
 3099 0018 3E       		.uleb128 0x3e
 3100 0019 0B       		.uleb128 0xb
 3101 001a 03       		.uleb128 0x3
 3102 001b 08       		.uleb128 0x8
 3103 001c 00       		.byte	0
 3104 001d 00       		.byte	0
 3105 001e 03       		.uleb128 0x3
 3106 001f 16       		.uleb128 0x16
 3107 0020 00       		.byte	0
 3108 0021 03       		.uleb128 0x3
 3109 0022 0E       		.uleb128 0xe
 3110 0023 3A       		.uleb128 0x3a
 3111 0024 0B       		.uleb128 0xb
 3112 0025 3B       		.uleb128 0x3b
 3113 0026 0B       		.uleb128 0xb
 3114 0027 49       		.uleb128 0x49
 3115 0028 13       		.uleb128 0x13
 3116 0029 00       		.byte	0
 3117 002a 00       		.byte	0
 3118 002b 04       		.uleb128 0x4
 3119 002c 24       		.uleb128 0x24
 3120 002d 00       		.byte	0
 3121 002e 0B       		.uleb128 0xb
 3122 002f 0B       		.uleb128 0xb
 3123 0030 3E       		.uleb128 0x3e
 3124 0031 0B       		.uleb128 0xb
 3125 0032 03       		.uleb128 0x3
 3126 0033 0E       		.uleb128 0xe
GAS LISTING /tmp/ccu2m9kw.s 			page 65


 3127 0034 00       		.byte	0
 3128 0035 00       		.byte	0
 3129 0036 05       		.uleb128 0x5
 3130 0037 13       		.uleb128 0x13
 3131 0038 01       		.byte	0x1
 3132 0039 03       		.uleb128 0x3
 3133 003a 0E       		.uleb128 0xe
 3134 003b 0B       		.uleb128 0xb
 3135 003c 0B       		.uleb128 0xb
 3136 003d 3A       		.uleb128 0x3a
 3137 003e 0B       		.uleb128 0xb
 3138 003f 3B       		.uleb128 0x3b
 3139 0040 0B       		.uleb128 0xb
 3140 0041 01       		.uleb128 0x1
 3141 0042 13       		.uleb128 0x13
 3142 0043 00       		.byte	0
 3143 0044 00       		.byte	0
 3144 0045 06       		.uleb128 0x6
 3145 0046 0D       		.uleb128 0xd
 3146 0047 00       		.byte	0
 3147 0048 03       		.uleb128 0x3
 3148 0049 0E       		.uleb128 0xe
 3149 004a 3A       		.uleb128 0x3a
 3150 004b 0B       		.uleb128 0xb
 3151 004c 3B       		.uleb128 0x3b
 3152 004d 0B       		.uleb128 0xb
 3153 004e 49       		.uleb128 0x49
 3154 004f 13       		.uleb128 0x13
 3155 0050 38       		.uleb128 0x38
 3156 0051 0B       		.uleb128 0xb
 3157 0052 00       		.byte	0
 3158 0053 00       		.byte	0
 3159 0054 07       		.uleb128 0x7
 3160 0055 0D       		.uleb128 0xd
 3161 0056 00       		.byte	0
 3162 0057 03       		.uleb128 0x3
 3163 0058 08       		.uleb128 0x8
 3164 0059 3A       		.uleb128 0x3a
 3165 005a 0B       		.uleb128 0xb
 3166 005b 3B       		.uleb128 0x3b
 3167 005c 0B       		.uleb128 0xb
 3168 005d 49       		.uleb128 0x49
 3169 005e 13       		.uleb128 0x13
 3170 005f 38       		.uleb128 0x38
 3171 0060 0B       		.uleb128 0xb
 3172 0061 00       		.byte	0
 3173 0062 00       		.byte	0
 3174 0063 08       		.uleb128 0x8
 3175 0064 13       		.uleb128 0x13
 3176 0065 01       		.byte	0x1
 3177 0066 0B       		.uleb128 0xb
 3178 0067 0B       		.uleb128 0xb
 3179 0068 3A       		.uleb128 0x3a
 3180 0069 0B       		.uleb128 0xb
 3181 006a 3B       		.uleb128 0x3b
 3182 006b 0B       		.uleb128 0xb
 3183 006c 01       		.uleb128 0x1
GAS LISTING /tmp/ccu2m9kw.s 			page 66


 3184 006d 13       		.uleb128 0x13
 3185 006e 00       		.byte	0
 3186 006f 00       		.byte	0
 3187 0070 09       		.uleb128 0x9
 3188 0071 0F       		.uleb128 0xf
 3189 0072 00       		.byte	0
 3190 0073 0B       		.uleb128 0xb
 3191 0074 0B       		.uleb128 0xb
 3192 0075 49       		.uleb128 0x49
 3193 0076 13       		.uleb128 0x13
 3194 0077 00       		.byte	0
 3195 0078 00       		.byte	0
 3196 0079 0A       		.uleb128 0xa
 3197 007a 0F       		.uleb128 0xf
 3198 007b 00       		.byte	0
 3199 007c 0B       		.uleb128 0xb
 3200 007d 0B       		.uleb128 0xb
 3201 007e 00       		.byte	0
 3202 007f 00       		.byte	0
 3203 0080 0B       		.uleb128 0xb
 3204 0081 35       		.uleb128 0x35
 3205 0082 00       		.byte	0
 3206 0083 49       		.uleb128 0x49
 3207 0084 13       		.uleb128 0x13
 3208 0085 00       		.byte	0
 3209 0086 00       		.byte	0
 3210 0087 0C       		.uleb128 0xc
 3211 0088 15       		.uleb128 0x15
 3212 0089 01       		.byte	0x1
 3213 008a 27       		.uleb128 0x27
 3214 008b 19       		.uleb128 0x19
 3215 008c 01       		.uleb128 0x1
 3216 008d 13       		.uleb128 0x13
 3217 008e 00       		.byte	0
 3218 008f 00       		.byte	0
 3219 0090 0D       		.uleb128 0xd
 3220 0091 05       		.uleb128 0x5
 3221 0092 00       		.byte	0
 3222 0093 49       		.uleb128 0x49
 3223 0094 13       		.uleb128 0x13
 3224 0095 00       		.byte	0
 3225 0096 00       		.byte	0
 3226 0097 0E       		.uleb128 0xe
 3227 0098 17       		.uleb128 0x17
 3228 0099 01       		.byte	0x1
 3229 009a 0B       		.uleb128 0xb
 3230 009b 0B       		.uleb128 0xb
 3231 009c 3A       		.uleb128 0x3a
 3232 009d 0B       		.uleb128 0xb
 3233 009e 3B       		.uleb128 0x3b
 3234 009f 0B       		.uleb128 0xb
 3235 00a0 01       		.uleb128 0x1
 3236 00a1 13       		.uleb128 0x13
 3237 00a2 00       		.byte	0
 3238 00a3 00       		.byte	0
 3239 00a4 0F       		.uleb128 0xf
 3240 00a5 0D       		.uleb128 0xd
GAS LISTING /tmp/ccu2m9kw.s 			page 67


 3241 00a6 00       		.byte	0
 3242 00a7 03       		.uleb128 0x3
 3243 00a8 0E       		.uleb128 0xe
 3244 00a9 3A       		.uleb128 0x3a
 3245 00aa 0B       		.uleb128 0xb
 3246 00ab 3B       		.uleb128 0x3b
 3247 00ac 0B       		.uleb128 0xb
 3248 00ad 49       		.uleb128 0x49
 3249 00ae 13       		.uleb128 0x13
 3250 00af 00       		.byte	0
 3251 00b0 00       		.byte	0
 3252 00b1 10       		.uleb128 0x10
 3253 00b2 26       		.uleb128 0x26
 3254 00b3 00       		.byte	0
 3255 00b4 49       		.uleb128 0x49
 3256 00b5 13       		.uleb128 0x13
 3257 00b6 00       		.byte	0
 3258 00b7 00       		.byte	0
 3259 00b8 11       		.uleb128 0x11
 3260 00b9 15       		.uleb128 0x15
 3261 00ba 01       		.byte	0x1
 3262 00bb 27       		.uleb128 0x27
 3263 00bc 19       		.uleb128 0x19
 3264 00bd 49       		.uleb128 0x49
 3265 00be 13       		.uleb128 0x13
 3266 00bf 01       		.uleb128 0x1
 3267 00c0 13       		.uleb128 0x13
 3268 00c1 00       		.byte	0
 3269 00c2 00       		.byte	0
 3270 00c3 12       		.uleb128 0x12
 3271 00c4 15       		.uleb128 0x15
 3272 00c5 00       		.byte	0
 3273 00c6 27       		.uleb128 0x27
 3274 00c7 19       		.uleb128 0x19
 3275 00c8 00       		.byte	0
 3276 00c9 00       		.byte	0
 3277 00ca 13       		.uleb128 0x13
 3278 00cb 2E       		.uleb128 0x2e
 3279 00cc 01       		.byte	0x1
 3280 00cd 03       		.uleb128 0x3
 3281 00ce 0E       		.uleb128 0xe
 3282 00cf 3A       		.uleb128 0x3a
 3283 00d0 0B       		.uleb128 0xb
 3284 00d1 3B       		.uleb128 0x3b
 3285 00d2 0B       		.uleb128 0xb
 3286 00d3 27       		.uleb128 0x27
 3287 00d4 19       		.uleb128 0x19
 3288 00d5 20       		.uleb128 0x20
 3289 00d6 0B       		.uleb128 0xb
 3290 00d7 01       		.uleb128 0x1
 3291 00d8 13       		.uleb128 0x13
 3292 00d9 00       		.byte	0
 3293 00da 00       		.byte	0
 3294 00db 14       		.uleb128 0x14
 3295 00dc 34       		.uleb128 0x34
 3296 00dd 00       		.byte	0
 3297 00de 03       		.uleb128 0x3
GAS LISTING /tmp/ccu2m9kw.s 			page 68


 3298 00df 08       		.uleb128 0x8
 3299 00e0 3A       		.uleb128 0x3a
 3300 00e1 0B       		.uleb128 0xb
 3301 00e2 3B       		.uleb128 0x3b
 3302 00e3 0B       		.uleb128 0xb
 3303 00e4 49       		.uleb128 0x49
 3304 00e5 13       		.uleb128 0x13
 3305 00e6 00       		.byte	0
 3306 00e7 00       		.byte	0
 3307 00e8 15       		.uleb128 0x15
 3308 00e9 34       		.uleb128 0x34
 3309 00ea 00       		.byte	0
 3310 00eb 03       		.uleb128 0x3
 3311 00ec 0E       		.uleb128 0xe
 3312 00ed 3A       		.uleb128 0x3a
 3313 00ee 0B       		.uleb128 0xb
 3314 00ef 3B       		.uleb128 0x3b
 3315 00f0 0B       		.uleb128 0xb
 3316 00f1 49       		.uleb128 0x49
 3317 00f2 13       		.uleb128 0x13
 3318 00f3 00       		.byte	0
 3319 00f4 00       		.byte	0
 3320 00f5 16       		.uleb128 0x16
 3321 00f6 2E       		.uleb128 0x2e
 3322 00f7 00       		.byte	0
 3323 00f8 03       		.uleb128 0x3
 3324 00f9 0E       		.uleb128 0xe
 3325 00fa 3A       		.uleb128 0x3a
 3326 00fb 0B       		.uleb128 0xb
 3327 00fc 3B       		.uleb128 0x3b
 3328 00fd 0B       		.uleb128 0xb
 3329 00fe 27       		.uleb128 0x27
 3330 00ff 19       		.uleb128 0x19
 3331 0100 20       		.uleb128 0x20
 3332 0101 0B       		.uleb128 0xb
 3333 0102 00       		.byte	0
 3334 0103 00       		.byte	0
 3335 0104 17       		.uleb128 0x17
 3336 0105 2E       		.uleb128 0x2e
 3337 0106 01       		.byte	0x1
 3338 0107 03       		.uleb128 0x3
 3339 0108 0E       		.uleb128 0xe
 3340 0109 3A       		.uleb128 0x3a
 3341 010a 0B       		.uleb128 0xb
 3342 010b 3B       		.uleb128 0x3b
 3343 010c 0B       		.uleb128 0xb
 3344 010d 27       		.uleb128 0x27
 3345 010e 19       		.uleb128 0x19
 3346 010f 11       		.uleb128 0x11
 3347 0110 01       		.uleb128 0x1
 3348 0111 12       		.uleb128 0x12
 3349 0112 06       		.uleb128 0x6
 3350 0113 40       		.uleb128 0x40
 3351 0114 18       		.uleb128 0x18
 3352 0115 9742     		.uleb128 0x2117
 3353 0117 19       		.uleb128 0x19
 3354 0118 01       		.uleb128 0x1
GAS LISTING /tmp/ccu2m9kw.s 			page 69


 3355 0119 13       		.uleb128 0x13
 3356 011a 00       		.byte	0
 3357 011b 00       		.byte	0
 3358 011c 18       		.uleb128 0x18
 3359 011d 898201   		.uleb128 0x4109
 3360 0120 01       		.byte	0x1
 3361 0121 11       		.uleb128 0x11
 3362 0122 01       		.uleb128 0x1
 3363 0123 31       		.uleb128 0x31
 3364 0124 13       		.uleb128 0x13
 3365 0125 01       		.uleb128 0x1
 3366 0126 13       		.uleb128 0x13
 3367 0127 00       		.byte	0
 3368 0128 00       		.byte	0
 3369 0129 19       		.uleb128 0x19
 3370 012a 8A8201   		.uleb128 0x410a
 3371 012d 00       		.byte	0
 3372 012e 02       		.uleb128 0x2
 3373 012f 18       		.uleb128 0x18
 3374 0130 9142     		.uleb128 0x2111
 3375 0132 18       		.uleb128 0x18
 3376 0133 00       		.byte	0
 3377 0134 00       		.byte	0
 3378 0135 1A       		.uleb128 0x1a
 3379 0136 898201   		.uleb128 0x4109
 3380 0139 00       		.byte	0
 3381 013a 11       		.uleb128 0x11
 3382 013b 01       		.uleb128 0x1
 3383 013c 31       		.uleb128 0x31
 3384 013d 13       		.uleb128 0x13
 3385 013e 00       		.byte	0
 3386 013f 00       		.byte	0
 3387 0140 1B       		.uleb128 0x1b
 3388 0141 898201   		.uleb128 0x4109
 3389 0144 01       		.byte	0x1
 3390 0145 11       		.uleb128 0x11
 3391 0146 01       		.uleb128 0x1
 3392 0147 31       		.uleb128 0x31
 3393 0148 13       		.uleb128 0x13
 3394 0149 00       		.byte	0
 3395 014a 00       		.byte	0
 3396 014b 1C       		.uleb128 0x1c
 3397 014c 2E       		.uleb128 0x2e
 3398 014d 01       		.byte	0x1
 3399 014e 03       		.uleb128 0x3
 3400 014f 0E       		.uleb128 0xe
 3401 0150 3A       		.uleb128 0x3a
 3402 0151 0B       		.uleb128 0xb
 3403 0152 3B       		.uleb128 0x3b
 3404 0153 0B       		.uleb128 0xb
 3405 0154 27       		.uleb128 0x27
 3406 0155 19       		.uleb128 0x19
 3407 0156 49       		.uleb128 0x49
 3408 0157 13       		.uleb128 0x13
 3409 0158 11       		.uleb128 0x11
 3410 0159 01       		.uleb128 0x1
 3411 015a 12       		.uleb128 0x12
GAS LISTING /tmp/ccu2m9kw.s 			page 70


 3412 015b 06       		.uleb128 0x6
 3413 015c 40       		.uleb128 0x40
 3414 015d 18       		.uleb128 0x18
 3415 015e 9742     		.uleb128 0x2117
 3416 0160 19       		.uleb128 0x19
 3417 0161 01       		.uleb128 0x1
 3418 0162 13       		.uleb128 0x13
 3419 0163 00       		.byte	0
 3420 0164 00       		.byte	0
 3421 0165 1D       		.uleb128 0x1d
 3422 0166 05       		.uleb128 0x5
 3423 0167 00       		.byte	0
 3424 0168 03       		.uleb128 0x3
 3425 0169 08       		.uleb128 0x8
 3426 016a 3A       		.uleb128 0x3a
 3427 016b 0B       		.uleb128 0xb
 3428 016c 3B       		.uleb128 0x3b
 3429 016d 0B       		.uleb128 0xb
 3430 016e 49       		.uleb128 0x49
 3431 016f 13       		.uleb128 0x13
 3432 0170 02       		.uleb128 0x2
 3433 0171 18       		.uleb128 0x18
 3434 0172 00       		.byte	0
 3435 0173 00       		.byte	0
 3436 0174 1E       		.uleb128 0x1e
 3437 0175 34       		.uleb128 0x34
 3438 0176 00       		.byte	0
 3439 0177 03       		.uleb128 0x3
 3440 0178 0E       		.uleb128 0xe
 3441 0179 3A       		.uleb128 0x3a
 3442 017a 0B       		.uleb128 0xb
 3443 017b 3B       		.uleb128 0x3b
 3444 017c 0B       		.uleb128 0xb
 3445 017d 49       		.uleb128 0x49
 3446 017e 13       		.uleb128 0x13
 3447 017f 02       		.uleb128 0x2
 3448 0180 18       		.uleb128 0x18
 3449 0181 00       		.byte	0
 3450 0182 00       		.byte	0
 3451 0183 1F       		.uleb128 0x1f
 3452 0184 2E       		.uleb128 0x2e
 3453 0185 01       		.byte	0x1
 3454 0186 31       		.uleb128 0x31
 3455 0187 13       		.uleb128 0x13
 3456 0188 11       		.uleb128 0x11
 3457 0189 01       		.uleb128 0x1
 3458 018a 12       		.uleb128 0x12
 3459 018b 06       		.uleb128 0x6
 3460 018c 40       		.uleb128 0x40
 3461 018d 18       		.uleb128 0x18
 3462 018e 9742     		.uleb128 0x2117
 3463 0190 19       		.uleb128 0x19
 3464 0191 01       		.uleb128 0x1
 3465 0192 13       		.uleb128 0x13
 3466 0193 00       		.byte	0
 3467 0194 00       		.byte	0
 3468 0195 20       		.uleb128 0x20
GAS LISTING /tmp/ccu2m9kw.s 			page 71


 3469 0196 34       		.uleb128 0x34
 3470 0197 00       		.byte	0
 3471 0198 31       		.uleb128 0x31
 3472 0199 13       		.uleb128 0x13
 3473 019a 00       		.byte	0
 3474 019b 00       		.byte	0
 3475 019c 21       		.uleb128 0x21
 3476 019d 34       		.uleb128 0x34
 3477 019e 00       		.byte	0
 3478 019f 31       		.uleb128 0x31
 3479 01a0 13       		.uleb128 0x13
 3480 01a1 02       		.uleb128 0x2
 3481 01a2 17       		.uleb128 0x17
 3482 01a3 00       		.byte	0
 3483 01a4 00       		.byte	0
 3484 01a5 22       		.uleb128 0x22
 3485 01a6 0B       		.uleb128 0xb
 3486 01a7 01       		.byte	0x1
 3487 01a8 11       		.uleb128 0x11
 3488 01a9 01       		.uleb128 0x1
 3489 01aa 12       		.uleb128 0x12
 3490 01ab 06       		.uleb128 0x6
 3491 01ac 01       		.uleb128 0x1
 3492 01ad 13       		.uleb128 0x13
 3493 01ae 00       		.byte	0
 3494 01af 00       		.byte	0
 3495 01b0 23       		.uleb128 0x23
 3496 01b1 34       		.uleb128 0x34
 3497 01b2 00       		.byte	0
 3498 01b3 03       		.uleb128 0x3
 3499 01b4 0E       		.uleb128 0xe
 3500 01b5 3A       		.uleb128 0x3a
 3501 01b6 0B       		.uleb128 0xb
 3502 01b7 3B       		.uleb128 0x3b
 3503 01b8 0B       		.uleb128 0xb
 3504 01b9 49       		.uleb128 0x49
 3505 01ba 13       		.uleb128 0x13
 3506 01bb 3F       		.uleb128 0x3f
 3507 01bc 19       		.uleb128 0x19
 3508 01bd 3C       		.uleb128 0x3c
 3509 01be 19       		.uleb128 0x19
 3510 01bf 00       		.byte	0
 3511 01c0 00       		.byte	0
 3512 01c1 24       		.uleb128 0x24
 3513 01c2 01       		.uleb128 0x1
 3514 01c3 01       		.byte	0x1
 3515 01c4 49       		.uleb128 0x49
 3516 01c5 13       		.uleb128 0x13
 3517 01c6 01       		.uleb128 0x1
 3518 01c7 13       		.uleb128 0x13
 3519 01c8 00       		.byte	0
 3520 01c9 00       		.byte	0
 3521 01ca 25       		.uleb128 0x25
 3522 01cb 21       		.uleb128 0x21
 3523 01cc 00       		.byte	0
 3524 01cd 49       		.uleb128 0x49
 3525 01ce 13       		.uleb128 0x13
GAS LISTING /tmp/ccu2m9kw.s 			page 72


 3526 01cf 2F       		.uleb128 0x2f
 3527 01d0 0B       		.uleb128 0xb
 3528 01d1 00       		.byte	0
 3529 01d2 00       		.byte	0
 3530 01d3 26       		.uleb128 0x26
 3531 01d4 21       		.uleb128 0x21
 3532 01d5 00       		.byte	0
 3533 01d6 00       		.byte	0
 3534 01d7 00       		.byte	0
 3535 01d8 27       		.uleb128 0x27
 3536 01d9 34       		.uleb128 0x34
 3537 01da 00       		.byte	0
 3538 01db 03       		.uleb128 0x3
 3539 01dc 08       		.uleb128 0x8
 3540 01dd 3A       		.uleb128 0x3a
 3541 01de 0B       		.uleb128 0xb
 3542 01df 3B       		.uleb128 0x3b
 3543 01e0 0B       		.uleb128 0xb
 3544 01e1 49       		.uleb128 0x49
 3545 01e2 13       		.uleb128 0x13
 3546 01e3 3F       		.uleb128 0x3f
 3547 01e4 19       		.uleb128 0x19
 3548 01e5 3C       		.uleb128 0x3c
 3549 01e6 19       		.uleb128 0x19
 3550 01e7 00       		.byte	0
 3551 01e8 00       		.byte	0
 3552 01e9 28       		.uleb128 0x28
 3553 01ea 34       		.uleb128 0x34
 3554 01eb 00       		.byte	0
 3555 01ec 03       		.uleb128 0x3
 3556 01ed 0E       		.uleb128 0xe
 3557 01ee 3A       		.uleb128 0x3a
 3558 01ef 0B       		.uleb128 0xb
 3559 01f0 3B       		.uleb128 0x3b
 3560 01f1 0B       		.uleb128 0xb
 3561 01f2 49       		.uleb128 0x49
 3562 01f3 13       		.uleb128 0x13
 3563 01f4 3F       		.uleb128 0x3f
 3564 01f5 19       		.uleb128 0x19
 3565 01f6 02       		.uleb128 0x2
 3566 01f7 18       		.uleb128 0x18
 3567 01f8 00       		.byte	0
 3568 01f9 00       		.byte	0
 3569 01fa 29       		.uleb128 0x29
 3570 01fb 34       		.uleb128 0x34
 3571 01fc 00       		.byte	0
 3572 01fd 03       		.uleb128 0x3
 3573 01fe 0E       		.uleb128 0xe
 3574 01ff 3A       		.uleb128 0x3a
 3575 0200 0B       		.uleb128 0xb
 3576 0201 3B       		.uleb128 0x3b
 3577 0202 05       		.uleb128 0x5
 3578 0203 49       		.uleb128 0x49
 3579 0204 13       		.uleb128 0x13
 3580 0205 3F       		.uleb128 0x3f
 3581 0206 19       		.uleb128 0x19
 3582 0207 02       		.uleb128 0x2
GAS LISTING /tmp/ccu2m9kw.s 			page 73


 3583 0208 18       		.uleb128 0x18
 3584 0209 00       		.byte	0
 3585 020a 00       		.byte	0
 3586 020b 2A       		.uleb128 0x2a
 3587 020c 2E       		.uleb128 0x2e
 3588 020d 01       		.byte	0x1
 3589 020e 3F       		.uleb128 0x3f
 3590 020f 19       		.uleb128 0x19
 3591 0210 03       		.uleb128 0x3
 3592 0211 0E       		.uleb128 0xe
 3593 0212 3A       		.uleb128 0x3a
 3594 0213 0B       		.uleb128 0xb
 3595 0214 3B       		.uleb128 0x3b
 3596 0215 05       		.uleb128 0x5
 3597 0216 27       		.uleb128 0x27
 3598 0217 19       		.uleb128 0x19
 3599 0218 49       		.uleb128 0x49
 3600 0219 13       		.uleb128 0x13
 3601 021a 3C       		.uleb128 0x3c
 3602 021b 19       		.uleb128 0x19
 3603 021c 01       		.uleb128 0x1
 3604 021d 13       		.uleb128 0x13
 3605 021e 00       		.byte	0
 3606 021f 00       		.byte	0
 3607 0220 2B       		.uleb128 0x2b
 3608 0221 2E       		.uleb128 0x2e
 3609 0222 01       		.byte	0x1
 3610 0223 3F       		.uleb128 0x3f
 3611 0224 19       		.uleb128 0x19
 3612 0225 03       		.uleb128 0x3
 3613 0226 0E       		.uleb128 0xe
 3614 0227 3A       		.uleb128 0x3a
 3615 0228 0B       		.uleb128 0xb
 3616 0229 3B       		.uleb128 0x3b
 3617 022a 0B       		.uleb128 0xb
 3618 022b 27       		.uleb128 0x27
 3619 022c 19       		.uleb128 0x19
 3620 022d 3C       		.uleb128 0x3c
 3621 022e 19       		.uleb128 0x19
 3622 022f 01       		.uleb128 0x1
 3623 0230 13       		.uleb128 0x13
 3624 0231 00       		.byte	0
 3625 0232 00       		.byte	0
 3626 0233 2C       		.uleb128 0x2c
 3627 0234 2E       		.uleb128 0x2e
 3628 0235 00       		.byte	0
 3629 0236 3F       		.uleb128 0x3f
 3630 0237 19       		.uleb128 0x19
 3631 0238 03       		.uleb128 0x3
 3632 0239 0E       		.uleb128 0xe
 3633 023a 3A       		.uleb128 0x3a
 3634 023b 0B       		.uleb128 0xb
 3635 023c 3B       		.uleb128 0x3b
 3636 023d 0B       		.uleb128 0xb
 3637 023e 27       		.uleb128 0x27
 3638 023f 19       		.uleb128 0x19
 3639 0240 3C       		.uleb128 0x3c
GAS LISTING /tmp/ccu2m9kw.s 			page 74


 3640 0241 19       		.uleb128 0x19
 3641 0242 00       		.byte	0
 3642 0243 00       		.byte	0
 3643 0244 2D       		.uleb128 0x2d
 3644 0245 2E       		.uleb128 0x2e
 3645 0246 01       		.byte	0x1
 3646 0247 3F       		.uleb128 0x3f
 3647 0248 19       		.uleb128 0x19
 3648 0249 03       		.uleb128 0x3
 3649 024a 0E       		.uleb128 0xe
 3650 024b 3A       		.uleb128 0x3a
 3651 024c 0B       		.uleb128 0xb
 3652 024d 3B       		.uleb128 0x3b
 3653 024e 0B       		.uleb128 0xb
 3654 024f 27       		.uleb128 0x27
 3655 0250 19       		.uleb128 0x19
 3656 0251 49       		.uleb128 0x49
 3657 0252 13       		.uleb128 0x13
 3658 0253 3C       		.uleb128 0x3c
 3659 0254 19       		.uleb128 0x19
 3660 0255 01       		.uleb128 0x1
 3661 0256 13       		.uleb128 0x13
 3662 0257 00       		.byte	0
 3663 0258 00       		.byte	0
 3664 0259 2E       		.uleb128 0x2e
 3665 025a 2E       		.uleb128 0x2e
 3666 025b 01       		.byte	0x1
 3667 025c 3F       		.uleb128 0x3f
 3668 025d 19       		.uleb128 0x19
 3669 025e 03       		.uleb128 0x3
 3670 025f 0E       		.uleb128 0xe
 3671 0260 3A       		.uleb128 0x3a
 3672 0261 0B       		.uleb128 0xb
 3673 0262 3B       		.uleb128 0x3b
 3674 0263 05       		.uleb128 0x5
 3675 0264 27       		.uleb128 0x27
 3676 0265 19       		.uleb128 0x19
 3677 0266 3C       		.uleb128 0x3c
 3678 0267 19       		.uleb128 0x19
 3679 0268 01       		.uleb128 0x1
 3680 0269 13       		.uleb128 0x13
 3681 026a 00       		.byte	0
 3682 026b 00       		.byte	0
 3683 026c 2F       		.uleb128 0x2f
 3684 026d 2E       		.uleb128 0x2e
 3685 026e 00       		.byte	0
 3686 026f 3F       		.uleb128 0x3f
 3687 0270 19       		.uleb128 0x19
 3688 0271 03       		.uleb128 0x3
 3689 0272 0E       		.uleb128 0xe
 3690 0273 3A       		.uleb128 0x3a
 3691 0274 0B       		.uleb128 0xb
 3692 0275 3B       		.uleb128 0x3b
 3693 0276 0B       		.uleb128 0xb
 3694 0277 27       		.uleb128 0x27
 3695 0278 19       		.uleb128 0x19
 3696 0279 49       		.uleb128 0x49
GAS LISTING /tmp/ccu2m9kw.s 			page 75


 3697 027a 13       		.uleb128 0x13
 3698 027b 3C       		.uleb128 0x3c
 3699 027c 19       		.uleb128 0x19
 3700 027d 00       		.byte	0
 3701 027e 00       		.byte	0
 3702 027f 30       		.uleb128 0x30
 3703 0280 2E       		.uleb128 0x2e
 3704 0281 01       		.byte	0x1
 3705 0282 3F       		.uleb128 0x3f
 3706 0283 19       		.uleb128 0x19
 3707 0284 03       		.uleb128 0x3
 3708 0285 0E       		.uleb128 0xe
 3709 0286 3A       		.uleb128 0x3a
 3710 0287 0B       		.uleb128 0xb
 3711 0288 3B       		.uleb128 0x3b
 3712 0289 0B       		.uleb128 0xb
 3713 028a 27       		.uleb128 0x27
 3714 028b 19       		.uleb128 0x19
 3715 028c 49       		.uleb128 0x49
 3716 028d 13       		.uleb128 0x13
 3717 028e 3C       		.uleb128 0x3c
 3718 028f 19       		.uleb128 0x19
 3719 0290 00       		.byte	0
 3720 0291 00       		.byte	0
 3721 0292 00       		.byte	0
 3722              		.section	.debug_loc,"",@progbits
 3723              	.Ldebug_loc0:
 3724              	.LLST0:
 3725 0000 A9040000 		.long	.LVL47-.Ltext0
 3726 0004 B6040000 		.long	.LVL48-.Ltext0
 3727 0008 0100     		.value	0x1
 3728 000a 50       		.byte	0x50
 3729 000b 00000000 		.long	0
 3730 000f 00000000 		.long	0
 3731              	.LLST1:
 3732 0013 DE050000 		.long	.LVL60-.Ltext0
 3733 0017 E3050000 		.long	.LVL61-.Ltext0
 3734 001b 0200     		.value	0x2
 3735 001d 30       		.byte	0x30
 3736 001e 9F       		.byte	0x9f
 3737 001f E3050000 		.long	.LVL61-.Ltext0
 3738 0023 6C060000 		.long	.LVL68-.Ltext0
 3739 0027 0400     		.value	0x4
 3740 0029 73       		.byte	0x73
 3741 002a BF7F     		.sleb128 -65
 3742 002c 9F       		.byte	0x9f
 3743 002d 6C060000 		.long	.LVL68-.Ltext0
 3744 0031 6F060000 		.long	.LVL69-.Ltext0
 3745 0035 0300     		.value	0x3
 3746 0037 73       		.byte	0x73
 3747 0038 40       		.sleb128 -64
 3748 0039 9F       		.byte	0x9f
 3749 003a 6F060000 		.long	.LVL69-.Ltext0
 3750 003e B9060000 		.long	.LFE12-.Ltext0
 3751 0042 0400     		.value	0x4
 3752 0044 73       		.byte	0x73
 3753 0045 BF7F     		.sleb128 -65
GAS LISTING /tmp/ccu2m9kw.s 			page 76


 3754 0047 9F       		.byte	0x9f
 3755 0048 00000000 		.long	0
 3756 004c 00000000 		.long	0
 3757              	.LLST2:
 3758 0050 DE050000 		.long	.LVL60-.Ltext0
 3759 0054 A0060000 		.long	.LVL71-.Ltext0
 3760 0058 0400     		.value	0x4
 3761 005a 76       		.byte	0x76
 3762 005b C413     		.sleb128 2500
 3763 005d 9F       		.byte	0x9f
 3764 005e A0060000 		.long	.LVL71-.Ltext0
 3765 0062 B9060000 		.long	.LFE12-.Ltext0
 3766 0066 0100     		.value	0x1
 3767 0068 56       		.byte	0x56
 3768 0069 00000000 		.long	0
 3769 006d 00000000 		.long	0
 3770              	.LLST3:
 3771 0071 63050000 		.long	.LVL54-.Ltext0
 3772 0075 67050000 		.long	.LVL55-1-.Ltext0
 3773 0079 0100     		.value	0x1
 3774 007b 50       		.byte	0x50
 3775 007c 67050000 		.long	.LVL55-1-.Ltext0
 3776 0080 E3050000 		.long	.LVL61-.Ltext0
 3777 0084 0100     		.value	0x1
 3778 0086 53       		.byte	0x53
 3779 0087 FF050000 		.long	.LVL63-.Ltext0
 3780 008b 0C060000 		.long	.LVL64-.Ltext0
 3781 008f 0100     		.value	0x1
 3782 0091 50       		.byte	0x50
 3783 0092 00000000 		.long	0
 3784 0096 00000000 		.long	0
 3785              		.section	.debug_aranges,"",@progbits
 3786 0000 1C000000 		.long	0x1c
 3787 0004 0200     		.value	0x2
 3788 0006 00000000 		.long	.Ldebug_info0
 3789 000a 04       		.byte	0x4
 3790 000b 00       		.byte	0
 3791 000c 0000     		.value	0
 3792 000e 0000     		.value	0
 3793 0010 00000000 		.long	.Ltext0
 3794 0014 AF070000 		.long	.Letext0-.Ltext0
 3795 0018 00000000 		.long	0
 3796 001c 00000000 		.long	0
 3797              		.section	.debug_line,"",@progbits
 3798              	.Ldebug_line0:
 3799 0000 47020000 		.section	.debug_str,"MS",@progbits,1
 3799      02002D01 
 3799      00000101 
 3799      FB0E0D00 
 3799      01010101 
 3800              	.LASF79:
 3801 0000 7466756E 		.string	"tfunc_t"
 3801      635F7400 
 3802              	.LASF38:
 3803 0008 705F6D73 		.string	"p_msg"
 3803      6700
 3804              	.LASF73:
GAS LISTING /tmp/ccu2m9kw.s 			page 77


 3805 000e 6D5F6E65 		.string	"m_next"
 3805      787400
 3806              	.LASF116:
 3807 0015 63685365 		.string	"chSemSignalI"
 3807      6D536967 
 3807      6E616C49 
 3807      00
 3808              	.LASF4:
 3809 0022 73697A65 		.string	"size_t"
 3809      5F7400
 3810              	.LASF74:
 3811 0029 7264796D 		.string	"rdymsg"
 3811      736700
 3812              	.LASF88:
 3813 0030 73656D31 		.string	"sem1_execute"
 3813      5F657865 
 3813      63757465 
 3813      00
 3814              	.LASF97:
 3815 003d 76746C69 		.string	"vtlist"
 3815      737400
 3816              	.LASF11:
 3817 0044 6C6F6E67 		.string	"long long unsigned int"
 3817      206C6F6E 
 3817      6720756E 
 3817      7369676E 
 3817      65642069 
 3818              	.LASF75:
 3819 005b 65786974 		.string	"exitcode"
 3819      636F6465 
 3819      00
 3820              	.LASF108:
 3821 0064 63685365 		.string	"chSemAddCounterI"
 3821      6D416464 
 3821      436F756E 
 3821      74657249 
 3821      00
 3822              	.LASF26:
 3823 0075 705F7072 		.string	"p_prio"
 3823      696F00
 3824              	.LASF6:
 3825 007c 6C6F6E67 		.string	"long long int"
 3825      206C6F6E 
 3825      6720696E 
 3825      7400
 3826              	.LASF2:
 3827 008a 7369676E 		.string	"signed char"
 3827      65642063 
 3827      68617200 
 3828              	.LASF120:
 3829 0096 63685365 		.string	"chSemSignalWait"
 3829      6D536967 
 3829      6E616C57 
 3829      61697400 
 3830              	.LASF42:
 3831 00a6 705F6D70 		.string	"p_mpool"
 3831      6F6F6C00 
GAS LISTING /tmp/ccu2m9kw.s 			page 78


 3832              	.LASF12:
 3833 00ae 626F6F6C 		.string	"bool_t"
 3833      5F7400
 3834              	.LASF71:
 3835 00b5 6D5F7175 		.string	"m_queue"
 3835      65756500 
 3836              	.LASF123:
 3837 00bd 2F686F6D 		.string	"/home/tony/ChibiOS-RT/testhal/Posix/EXT"
 3837      652F746F 
 3837      6E792F43 
 3837      68696269 
 3837      4F532D52 
 3838              	.LASF113:
 3839 00e5 74657374 		.string	"test_emit_token"
 3839      5F656D69 
 3839      745F746F 
 3839      6B656E00 
 3840              	.LASF17:
 3841 00f5 74736C69 		.string	"tslices_t"
 3841      6365735F 
 3841      7400
 3842              	.LASF124:
 3843 00ff 73656D32 		.string	"sem2_execute"
 3843      5F657865 
 3843      63757465 
 3843      00
 3844              	.LASF1:
 3845 010c 6C6F6E67 		.string	"long int"
 3845      20696E74 
 3845      00
 3846              	.LASF85:
 3847 0115 74617267 		.string	"target_time"
 3847      65745F74 
 3847      696D6500 
 3848              	.LASF15:
 3849 0121 74737461 		.string	"tstate_t"
 3849      74655F74 
 3849      00
 3850              	.LASF119:
 3851 012a 5F746573 		.string	"_test_assert_time_window"
 3851      745F6173 
 3851      73657274 
 3851      5F74696D 
 3851      655F7769 
 3852              	.LASF107:
 3853 0143 63685365 		.string	"chSemSignal"
 3853      6D536967 
 3853      6E616C00 
 3854              	.LASF28:
 3855 014f 705F6E65 		.string	"p_newer"
 3855      77657200 
 3856              	.LASF66:
 3857 0157 735F7175 		.string	"s_queue"
 3857      65756500 
 3858              	.LASF110:
 3859 015f 63685363 		.string	"chSchRescheduleS"
 3859      68526573 
GAS LISTING /tmp/ccu2m9kw.s 			page 79


 3859      63686564 
 3859      756C6553 
 3859      00
 3860              	.LASF61:
 3861 0170 725F6E65 		.string	"r_newer"
 3861      77657200 
 3862              	.LASF52:
 3863 0178 76745F70 		.string	"vt_prev"
 3863      72657600 
 3864              	.LASF90:
 3865 0180 73656D32 		.string	"sem2_setup"
 3865      5F736574 
 3865      757000
 3866              	.LASF96:
 3867 018b 73656D31 		.string	"sem1"
 3867      00
 3868              	.LASF22:
 3869 0190 636E745F 		.string	"cnt_t"
 3869      7400
 3870              	.LASF0:
 3871 0196 756E7369 		.string	"unsigned int"
 3871      676E6564 
 3871      20696E74 
 3871      00
 3872              	.LASF118:
 3873 01a3 63685365 		.string	"chSemWaitTimeout"
 3873      6D576169 
 3873      7454696D 
 3873      656F7574 
 3873      00
 3874              	.LASF51:
 3875 01b4 76745F6E 		.string	"vt_next"
 3875      65787400 
 3876              	.LASF125:
 3877 01bc 73656D33 		.string	"sem3_execute"
 3877      5F657865 
 3877      63757465 
 3877      00
 3878              	.LASF100:
 3879 01c9 74657374 		.string	"testsem1"
 3879      73656D31 
 3879      00
 3880              	.LASF101:
 3881 01d2 74657374 		.string	"testsem2"
 3881      73656D32 
 3881      00
 3882              	.LASF102:
 3883 01db 74657374 		.string	"testsem3"
 3883      73656D33 
 3883      00
 3884              	.LASF103:
 3885 01e4 74657374 		.string	"testsem4"
 3885      73656D34 
 3885      00
 3886              	.LASF37:
 3887 01ed 705F6D73 		.string	"p_msgqueue"
 3887      67717565 
GAS LISTING /tmp/ccu2m9kw.s 			page 80


 3887      756500
 3888              	.LASF83:
 3889 01f8 74656172 		.string	"teardown"
 3889      646F776E 
 3889      00
 3890              	.LASF81:
 3891 0201 6E616D65 		.string	"name"
 3891      00
 3892              	.LASF67:
 3893 0206 735F636E 		.string	"s_cnt"
 3893      7400
 3894              	.LASF48:
 3895 020c 636F6E74 		.string	"context"
 3895      65787400 
 3896              	.LASF9:
 3897 0214 73686F72 		.string	"short unsigned int"
 3897      7420756E 
 3897      7369676E 
 3897      65642069 
 3897      6E7400
 3898              	.LASF117:
 3899 0227 63685365 		.string	"chSemReset"
 3899      6D526573 
 3899      657400
 3900              	.LASF95:
 3901 0232 6273656D 		.string	"bsem"
 3901      00
 3902              	.LASF19:
 3903 0237 6D73675F 		.string	"msg_t"
 3903      7400
 3904              	.LASF14:
 3905 023d 746D6F64 		.string	"tmode_t"
 3905      655F7400 
 3906              	.LASF44:
 3907 0245 54687265 		.string	"ThreadsList"
 3907      6164734C 
 3907      69737400 
 3908              	.LASF20:
 3909 0251 6576656E 		.string	"eventmask_t"
 3909      746D6173 
 3909      6B5F7400 
 3910              	.LASF70:
 3911 025d 4D757465 		.string	"Mutex"
 3911      7800
 3912              	.LASF105:
 3913 0263 63685468 		.string	"chThdCreateStatic"
 3913      64437265 
 3913      61746553 
 3913      74617469 
 3913      6300
 3914              	.LASF94:
 3915 0275 73656D34 		.string	"sem4_execute"
 3915      5F657865 
 3915      63757465 
 3915      00
 3916              	.LASF53:
 3917 0282 76745F74 		.string	"vt_time"
GAS LISTING /tmp/ccu2m9kw.s 			page 81


 3917      696D6500 
 3918              	.LASF45:
 3919 028a 73697A65 		.string	"sizetype"
 3919      74797065 
 3919      00
 3920              	.LASF54:
 3921 0293 76745F66 		.string	"vt_func"
 3921      756E6300 
 3922              	.LASF89:
 3923 029b 73656D31 		.string	"sem1_setup"
 3923      5F736574 
 3923      757000
 3924              	.LASF109:
 3925 02a6 74657374 		.string	"test_wait_threads"
 3925      5F776169 
 3925      745F7468 
 3925      72656164 
 3925      7300
 3926              	.LASF29:
 3927 02b8 705F6F6C 		.string	"p_older"
 3927      64657200 
 3928              	.LASF87:
 3929 02c0 74687265 		.string	"thread1"
 3929      61643100 
 3930              	.LASF92:
 3931 02c8 74687265 		.string	"thread2"
 3931      61643200 
 3932              	.LASF60:
 3933 02d0 725F6374 		.string	"r_ctx"
 3933      7800
 3934              	.LASF93:
 3935 02d6 74687265 		.string	"thread4"
 3935      61643400 
 3936              	.LASF43:
 3937 02de 54687265 		.string	"ThreadsQueue"
 3937      61647351 
 3937      75657565 
 3937      00
 3938              	.LASF82:
 3939 02eb 73657475 		.string	"setup"
 3939      7000
 3940              	.LASF106:
 3941 02f1 5F746573 		.string	"_test_assert_sequence"
 3941      745F6173 
 3941      73657274 
 3941      5F736571 
 3941      75656E63 
 3942              	.LASF63:
 3943 0307 725F6375 		.string	"r_current"
 3943      7272656E 
 3943      7400
 3944              	.LASF62:
 3945 0311 725F6F6C 		.string	"r_older"
 3945      64657200 
 3946              	.LASF104:
 3947 0319 70617474 		.string	"patternsem"
 3947      65726E73 
GAS LISTING /tmp/ccu2m9kw.s 			page 82


 3947      656D00
 3948              	.LASF16:
 3949 0324 74726566 		.string	"trefs_t"
 3949      735F7400 
 3950              	.LASF25:
 3951 032c 705F7072 		.string	"p_prev"
 3951      657600
 3952              	.LASF84:
 3953 0333 65786563 		.string	"execute"
 3953      75746500 
 3954              	.LASF18:
 3955 033b 74707269 		.string	"tprio_t"
 3955      6F5F7400 
 3956              	.LASF13:
 3957 0343 5F426F6F 		.string	"_Bool"
 3957      6C00
 3958              	.LASF5:
 3959 0349 696E7433 		.string	"int32_t"
 3959      325F7400 
 3960              	.LASF8:
 3961 0351 756E7369 		.string	"unsigned char"
 3961      676E6564 
 3961      20636861 
 3961      7200
 3962              	.LASF121:
 3963 035f 474E5520 		.string	"GNU C 4.8.2 -m32 -mtune=generic -march=i686 -ggdb -O2 -fomit-frame-pointer -fstack-protec
 3963      4320342E 
 3963      382E3220 
 3963      2D6D3332 
 3963      202D6D74 
 3964              	.LASF126:
 3965 03bc 74657374 		.string	"test_wait_tick"
 3965      5F776169 
 3965      745F7469 
 3965      636B00
 3966              	.LASF40:
 3967 03cb 705F6D74 		.string	"p_mtxlist"
 3967      786C6973 
 3967      7400
 3968              	.LASF3:
 3969 03d5 73686F72 		.string	"short int"
 3969      7420696E 
 3969      7400
 3970              	.LASF31:
 3971 03df 705F7374 		.string	"p_state"
 3971      61746500 
 3972              	.LASF34:
 3973 03e7 705F7072 		.string	"p_preempt"
 3973      65656D70 
 3973      7400
 3974              	.LASF99:
 3975 03f1 74687265 		.string	"threads"
 3975      61647300 
 3976              	.LASF59:
 3977 03f9 725F7072 		.string	"r_prio"
 3977      696F00
 3978              	.LASF77:
GAS LISTING /tmp/ccu2m9kw.s 			page 83


 3979 0400 65776D61 		.string	"ewmask"
 3979      736B00
 3980              	.LASF24:
 3981 0407 705F6E65 		.string	"p_next"
 3981      787400
 3982              	.LASF32:
 3983 040e 705F666C 		.string	"p_flags"
 3983      61677300 
 3984              	.LASF23:
 3985 0416 54687265 		.string	"Thread"
 3985      616400
 3986              	.LASF80:
 3987 041d 74657374 		.string	"testcase"
 3987      63617365 
 3987      00
 3988              	.LASF39:
 3989 0426 705F6570 		.string	"p_epending"
 3989      656E6469 
 3989      6E6700
 3990              	.LASF10:
 3991 0431 75696E74 		.string	"uint32_t"
 3991      33325F74 
 3991      00
 3992              	.LASF58:
 3993 043a 725F7175 		.string	"r_queue"
 3993      65756500 
 3994              	.LASF50:
 3995 0442 56697274 		.string	"VirtualTimer"
 3995      75616C54 
 3995      696D6572 
 3995      00
 3996              	.LASF78:
 3997 044f 63686172 		.string	"char"
 3997      00
 3998              	.LASF69:
 3999 0454 42696E61 		.string	"BinarySemaphore"
 3999      72795365 
 3999      6D617068 
 3999      6F726500 
 4000              	.LASF86:
 4001 0464 74687265 		.string	"thread3"
 4001      61643300 
 4002              	.LASF21:
 4003 046c 73797374 		.string	"systime_t"
 4003      696D655F 
 4003      7400
 4004              	.LASF41:
 4005 0476 705F7265 		.string	"p_realprio"
 4005      616C7072 
 4005      696F00
 4006              	.LASF49:
 4007 0481 76746675 		.string	"vtfunc_t"
 4007      6E635F74 
 4007      00
 4008              	.LASF112:
 4009 048a 63685365 		.string	"chSemWait"
 4009      6D576169 
GAS LISTING /tmp/ccu2m9kw.s 			page 84


 4009      7400
 4010              	.LASF122:
 4011 0494 2E2E2F2E 		.string	"../../../test/testsem.c"
 4011      2E2F2E2E 
 4011      2F746573 
 4011      742F7465 
 4011      73747365 
 4012              	.LASF35:
 4013 04ac 705F7469 		.string	"p_time"
 4013      6D6500
 4014              	.LASF47:
 4015 04b3 696E7463 		.string	"intctx"
 4015      747800
 4016              	.LASF55:
 4017 04ba 76745F70 		.string	"vt_par"
 4017      617200
 4018              	.LASF65:
 4019 04c1 53656D61 		.string	"Semaphore"
 4019      70686F72 
 4019      6500
 4020              	.LASF91:
 4021 04cb 73656D33 		.string	"sem3_setup"
 4021      5F736574 
 4021      757000
 4022              	.LASF115:
 4023 04d6 63685468 		.string	"chThdSleep"
 4023      64536C65 
 4023      657000
 4024              	.LASF33:
 4025 04e1 705F7265 		.string	"p_refs"
 4025      667300
 4026              	.LASF64:
 4027 04e8 52656164 		.string	"ReadyList"
 4027      794C6973 
 4027      7400
 4028              	.LASF98:
 4029 04f2 726C6973 		.string	"rlist"
 4029      7400
 4030              	.LASF7:
 4031 04f8 75696E74 		.string	"uint8_t"
 4031      385F7400 
 4032              	.LASF76:
 4033 0500 77746F62 		.string	"wtobjp"
 4033      6A7000
 4034              	.LASF30:
 4035 0507 705F6E61 		.string	"p_name"
 4035      6D6500
 4036              	.LASF111:
 4037 050e 5F746573 		.string	"_test_assert"
 4037      745F6173 
 4037      73657274 
 4037      00
 4038              	.LASF56:
 4039 051b 76745F73 		.string	"vt_systime"
 4039      79737469 
 4039      6D6500
 4040              	.LASF68:
GAS LISTING /tmp/ccu2m9kw.s 			page 85


 4041 0526 62735F73 		.string	"bs_sem"
 4041      656D00
 4042              	.LASF46:
 4043 052d 72656778 		.string	"regx86"
 4043      383600
 4044              	.LASF57:
 4045 0534 56544C69 		.string	"VTList"
 4045      737400
 4046              	.LASF72:
 4047 053b 6D5F6F77 		.string	"m_owner"
 4047      6E657200 
 4048              	.LASF27:
 4049 0543 705F6374 		.string	"p_ctx"
 4049      7800
 4050              	.LASF36:
 4051 0549 705F7761 		.string	"p_waiting"
 4051      6974696E 
 4051      6700
 4052              	.LASF114:
 4053 0553 63685365 		.string	"chSemInit"
 4053      6D496E69 
 4053      7400
 4054              		.ident	"GCC: (Ubuntu 4.8.2-19ubuntu1) 4.8.2"
 4055              		.section	.note.GNU-stack,"",@progbits
GAS LISTING /tmp/ccu2m9kw.s 			page 86


DEFINED SYMBOLS
                            *ABS*:0000000000000000 testsem.c
     /tmp/ccu2m9kw.s:73     .text:0000000000000000 sem1_execute
     /tmp/ccu2m9kw.s:269    .text:0000000000000220 thread1
     /tmp/ccu2m9kw.s:995    .data:0000000000000000 sem1
     /tmp/ccu2m9kw.s:244    .text:00000000000001f0 thread3
     /tmp/ccu2m9kw.s:296    .text:0000000000000250 sem1_setup
     /tmp/ccu2m9kw.s:316    .text:0000000000000270 sem2_setup
     /tmp/ccu2m9kw.s:336    .text:0000000000000290 sem3_setup
     /tmp/ccu2m9kw.s:356    .text:00000000000002b0 thread2
     /tmp/ccu2m9kw.s:396    .text:00000000000002e0 thread4
     /tmp/ccu2m9kw.s:443    .text:0000000000000310 sem4_execute
     /tmp/ccu2m9kw.s:616    .text:0000000000000490 sem2_execute
     /tmp/ccu2m9kw.s:821    .text:00000000000006c0 sem3_execute
     /tmp/ccu2m9kw.s:915    .rodata:0000000000000000 patternsem
     /tmp/ccu2m9kw.s:982    .rodata:0000000000000044 testsem1
     /tmp/ccu2m9kw.s:965    .rodata:0000000000000034 testsem2
     /tmp/ccu2m9kw.s:948    .rodata:0000000000000024 testsem3
     /tmp/ccu2m9kw.s:930    .rodata:0000000000000014 testsem4

UNDEFINED SYMBOLS
rlist
wa
chThdCreateStatic
threads
chSemSignal
test_wait_threads
_test_assert_sequence
chSemAddCounterI
chSchRescheduleS
_test_assert
chSemWait
test_emit_token
chSemInit
chThdSleep
chSemSignalI
chSemReset
chSemWaitTimeout
test_wait_tick
vtlist
_test_assert_time_window
chSemSignalWait
