GAS LISTING /tmp/ccLAgjRM.s 			page 1


   1              		.file	"testmsg.c"
   2              	# GNU C (Ubuntu 4.8.2-19ubuntu1) version 4.8.2 (x86_64-linux-gnu)
   3              	#	compiled by GNU C version 4.8.2, GMP version 5.1.3, MPFR version 3.1.2-p3, MPC version 1.0.1
   4              	# GGC heuristics: --param ggc-min-expand=97 --param ggc-min-heapsize=126309
   5              	# options passed:  -I . -I ../../../os/ports/GCC/SIMIA32
   6              	# -I ../../../os/kernel/include -I ../../../test -I ../../../os/hal/include
   7              	# -I ../../../os/hal/platforms/Posix -I ../../../boards/simulator
   8              	# -I ../../../os/various -imultilib 32 -imultiarch i386-linux-gnu
   9              	# -MD ../../../test/testmsg.d -MF .dep/testmsg.o.d -MP
  10              	# -MQ ../../../test/testmsg.o -D SIMULATOR -D SHELL_USE_IPRINTF=FALSE
  11              	# ../../../test/testmsg.c -m32 -mtune=generic -march=i686
  12              	# -auxbase-strip ../../../test/testmsg.o -ggdb -O2 -Wall -Wextra
  13              	# -Wstrict-prototypes -fomit-frame-pointer -fverbose-asm -fstack-protector
  14              	# -Wformat -Wformat-security
  15              	# options enabled:  -faggressive-loop-optimizations
  16              	# -fasynchronous-unwind-tables -fauto-inc-dec -fbranch-count-reg
  17              	# -fcaller-saves -fcombine-stack-adjustments -fcommon -fcompare-elim
  18              	# -fcprop-registers -fcrossjumping -fcse-follow-jumps -fdefer-pop
  19              	# -fdelete-null-pointer-checks -fdevirtualize -fdwarf2-cfi-asm
  20              	# -fearly-inlining -feliminate-unused-debug-types -fexpensive-optimizations
  21              	# -fforward-propagate -ffunction-cse -fgcse -fgcse-lm -fgnu-runtime
  22              	# -fguess-branch-probability -fhoist-adjacent-loads -fident -fif-conversion
  23              	# -fif-conversion2 -findirect-inlining -finline -finline-atomics
  24              	# -finline-functions-called-once -finline-small-functions -fipa-cp
  25              	# -fipa-profile -fipa-pure-const -fipa-reference -fipa-sra
  26              	# -fira-hoist-pressure -fira-share-save-slots -fira-share-spill-slots
  27              	# -fivopts -fkeep-static-consts -fleading-underscore -fmath-errno
  28              	# -fmerge-constants -fmerge-debug-strings -fmove-loop-invariants
  29              	# -fomit-frame-pointer -foptimize-register-move -foptimize-sibling-calls
  30              	# -foptimize-strlen -fpartial-inlining -fpcc-struct-return -fpeephole
  31              	# -fpeephole2 -fprefetch-loop-arrays -free -fregmove -freorder-blocks
  32              	# -freorder-functions -frerun-cse-after-loop
  33              	# -fsched-critical-path-heuristic -fsched-dep-count-heuristic
  34              	# -fsched-group-heuristic -fsched-interblock -fsched-last-insn-heuristic
  35              	# -fsched-rank-heuristic -fsched-spec -fsched-spec-insn-heuristic
  36              	# -fsched-stalled-insns-dep -fschedule-insns2 -fshow-column -fshrink-wrap
  37              	# -fsigned-zeros -fsplit-ivs-in-unroller -fsplit-wide-types
  38              	# -fstack-protector -fstrict-aliasing -fstrict-overflow
  39              	# -fstrict-volatile-bitfields -fsync-libcalls -fthread-jumps
  40              	# -ftoplevel-reorder -ftrapping-math -ftree-bit-ccp -ftree-builtin-call-dce
  41              	# -ftree-ccp -ftree-ch -ftree-coalesce-vars -ftree-copy-prop
  42              	# -ftree-copyrename -ftree-cselim -ftree-dce -ftree-dominator-opts
  43              	# -ftree-dse -ftree-forwprop -ftree-fre -ftree-loop-if-convert
  44              	# -ftree-loop-im -ftree-loop-ivcanon -ftree-loop-optimize
  45              	# -ftree-parallelize-loops= -ftree-phiprop -ftree-pre -ftree-pta
  46              	# -ftree-reassoc -ftree-scev-cprop -ftree-sink -ftree-slp-vectorize
  47              	# -ftree-slsr -ftree-sra -ftree-switch-conversion -ftree-tail-merge
  48              	# -ftree-ter -ftree-vect-loop-version -ftree-vrp -funit-at-a-time
  49              	# -funwind-tables -fvar-tracking -fvar-tracking-assignments -fverbose-asm
  50              	# -fzero-initialized-in-bss -m32 -m80387 -m96bit-long-double
  51              	# -maccumulate-outgoing-args -malign-stringops -mfancy-math-387
  52              	# -mfp-ret-in-387 -mglibc -mieee-fp -mlong-double-80 -mno-red-zone
  53              	# -mno-sse4 -mpush-args -msahf -mtls-direct-seg-refs
  54              	
  55              		.text
  56              	.Ltext0:
  57              		.section	.rodata.str1.1,"aMS",@progbits,1
GAS LISTING /tmp/ccLAgjRM.s 			page 2


  58              	.LC0:
  59 0000 41424300 		.string	"ABC"
  60              		.text
  61              		.p2align 4,,15
  62              		.type	msg1_execute, @function
  63              	msg1_execute:
  64              	.LFB8:
  65              		.file 1 "../../../test/testmsg.c"
  66              		.loc 1 67 0
  67              		.cfi_startproc
  68 0000 53       		pushl	%ebx	#
  69              		.cfi_def_cfa_offset 8
  70              		.cfi_offset 3, -8
  71 0001 83EC28   		subl	$40, %esp	#,
  72              		.cfi_def_cfa_offset 48
  73              		.loc 1 74 0
  74 0004 A1180000 		movl	rlist+24, %eax	# rlist.r_current, D.2072
  74      00
  75 0009 C744240C 		movl	$thread, 12(%esp)	#,
  75      B0000000 
  76 0011 89442410 		movl	%eax, 16(%esp)	# D.2072,
  77 0015 8B4008   		movl	8(%eax), %eax	# _2->p_prio, _2->p_prio
  78 0018 C7442404 		movl	$17008, 4(%esp)	#,
  78      70420000 
  79 0020 83C001   		addl	$1, %eax	#, D.2073
  80 0023 89442408 		movl	%eax, 8(%esp)	# D.2073,
  81 0027 A1000000 		movl	wa, %eax	# wa, wa
  81      00
  82 002c 890424   		movl	%eax, (%esp)	# wa,
  83 002f E8FCFFFF 		call	chThdCreateStatic	#
  83      FF
  84              	.LVL0:
  85 0034 A3000000 		movl	%eax, threads	# D.2072, threads
  85      00
  86              		.loc 1 76 0
  87 0039 E8FCFFFF 		call	chMsgWait	#
  87      FF
  88              	.LVL1:
  89              		.loc 1 77 0
  90 003e 8B5834   		movl	52(%eax), %ebx	# tp_10->p_msg, msg
  91              	.LVL2:
  92              		.loc 1 78 0
  93 0041 890424   		movl	%eax, (%esp)	# tp,
  94 0044 895C2404 		movl	%ebx, 4(%esp)	# msg,
  95              		.loc 1 79 0
  96 0048 0FBEDB   		movsbl	%bl, %ebx	# msg, msg
  97              	.LVL3:
  98              		.loc 1 78 0
  99 004b E8FCFFFF 		call	chMsgRelease	#
  99      FF
 100              	.LVL4:
 101              		.loc 1 79 0
 102 0050 891C24   		movl	%ebx, (%esp)	# msg,
 103 0053 E8FCFFFF 		call	test_emit_token	#
 103      FF
 104              	.LVL5:
 105              		.loc 1 80 0
GAS LISTING /tmp/ccLAgjRM.s 			page 3


 106 0058 E8FCFFFF 		call	chMsgWait	#
 106      FF
 107              	.LVL6:
 108              		.loc 1 81 0
 109 005d 8B5834   		movl	52(%eax), %ebx	# tp_17->p_msg, msg
 110              	.LVL7:
 111              		.loc 1 82 0
 112 0060 890424   		movl	%eax, (%esp)	# tp,
 113 0063 895C2404 		movl	%ebx, 4(%esp)	# msg,
 114              		.loc 1 83 0
 115 0067 0FBEDB   		movsbl	%bl, %ebx	# msg, msg
 116              	.LVL8:
 117              		.loc 1 82 0
 118 006a E8FCFFFF 		call	chMsgRelease	#
 118      FF
 119              	.LVL9:
 120              		.loc 1 83 0
 121 006f 891C24   		movl	%ebx, (%esp)	# msg,
 122 0072 E8FCFFFF 		call	test_emit_token	#
 122      FF
 123              	.LVL10:
 124              		.loc 1 84 0
 125 0077 E8FCFFFF 		call	chMsgWait	#
 125      FF
 126              	.LVL11:
 127              		.loc 1 85 0
 128 007c 8B5834   		movl	52(%eax), %ebx	# tp_24->p_msg, msg
 129              	.LVL12:
 130              		.loc 1 86 0
 131 007f 890424   		movl	%eax, (%esp)	# tp,
 132 0082 895C2404 		movl	%ebx, 4(%esp)	# msg,
 133              		.loc 1 87 0
 134 0086 0FBEDB   		movsbl	%bl, %ebx	# msg, msg
 135              	.LVL13:
 136              		.loc 1 86 0
 137 0089 E8FCFFFF 		call	chMsgRelease	#
 137      FF
 138              	.LVL14:
 139              		.loc 1 87 0
 140 008e 891C24   		movl	%ebx, (%esp)	# msg,
 141 0091 E8FCFFFF 		call	test_emit_token	#
 141      FF
 142              	.LVL15:
 143              		.loc 1 88 0
 144 0096 C7442404 		movl	$.LC0, 4(%esp)	#,
 144      00000000 
 145 009e C7042401 		movl	$1, (%esp)	#,
 145      000000
 146 00a5 E8FCFFFF 		call	_test_assert_sequence	#
 146      FF
 147              	.LVL16:
 148              		.loc 1 89 0
 149 00aa 83C428   		addl	$40, %esp	#,
 150              		.cfi_def_cfa_offset 8
 151 00ad 5B       		popl	%ebx	#
 152              		.cfi_restore 3
 153              		.cfi_def_cfa_offset 4
GAS LISTING /tmp/ccLAgjRM.s 			page 4


 154 00ae C3       		ret
 155              		.cfi_endproc
 156              	.LFE8:
 157              		.size	msg1_execute, .-msg1_execute
 158 00af 90       		.p2align 4,,15
 159              		.type	thread, @function
 160              	thread:
 161              	.LFB7:
 162              		.loc 1 59 0
 163              		.cfi_startproc
 164              	.LVL17:
 165 00b0 53       		pushl	%ebx	#
 166              		.cfi_def_cfa_offset 8
 167              		.cfi_offset 3, -8
 168 00b1 83EC18   		subl	$24, %esp	#,
 169              		.cfi_def_cfa_offset 32
 170              		.loc 1 59 0
 171 00b4 8B5C2420 		movl	32(%esp), %ebx	# p, p
 172              		.loc 1 61 0
 173 00b8 C7442404 		movl	$65, 4(%esp)	#,
 173      41000000 
 174 00c0 891C24   		movl	%ebx, (%esp)	# p,
 175 00c3 E8FCFFFF 		call	chMsgSend	#
 175      FF
 176              	.LVL18:
 177              		.loc 1 62 0
 178 00c8 891C24   		movl	%ebx, (%esp)	# p,
 179 00cb C7442404 		movl	$66, 4(%esp)	#,
 179      42000000 
 180 00d3 E8FCFFFF 		call	chMsgSend	#
 180      FF
 181              	.LVL19:
 182              		.loc 1 63 0
 183 00d8 891C24   		movl	%ebx, (%esp)	# p,
 184 00db C7442404 		movl	$67, 4(%esp)	#,
 184      43000000 
 185 00e3 E8FCFFFF 		call	chMsgSend	#
 185      FF
 186              	.LVL20:
 187              		.loc 1 65 0
 188 00e8 83C418   		addl	$24, %esp	#,
 189              		.cfi_def_cfa_offset 8
 190 00eb 31C0     		xorl	%eax, %eax	#
 191 00ed 5B       		popl	%ebx	#
 192              		.cfi_restore 3
 193              		.cfi_def_cfa_offset 4
 194 00ee C3       		ret
 195              		.cfi_endproc
 196              	.LFE7:
 197              		.size	thread, .-thread
 198              		.globl	patternmsg
 199              		.section	.rodata
 200              		.align 4
 201              		.type	patternmsg, @object
 202              		.size	patternmsg, 8
 203              	patternmsg:
 204 0000 00000000 		.long	testmsg1
GAS LISTING /tmp/ccLAgjRM.s 			page 5


 205 0004 00000000 		.long	0
 206              		.globl	testmsg1
 207              		.section	.rodata.str1.1
 208              	.LC1:
 209 0004 4D657373 		.string	"Messages, loop"
 209      61676573 
 209      2C206C6F 
 209      6F7000
 210              		.section	.rodata
 211              		.align 4
 212              		.type	testmsg1, @object
 213              		.size	testmsg1, 16
 214              	testmsg1:
 215              	# name:
 216 0008 04000000 		.long	.LC1
 217              	# setup:
 218 000c 00000000 		.long	0
 219              	# teardown:
 220 0010 00000000 		.long	0
 221              	# execute:
 222 0014 00000000 		.long	msg1_execute
 223              		.text
 224              	.Letext0:
 225              		.file 2 "/usr/lib/gcc/x86_64-linux-gnu/4.8/include/stddef.h"
 226              		.file 3 "/usr/include/stdint.h"
 227              		.file 4 "../../../os/ports/GCC/SIMIA32/chtypes.h"
 228              		.file 5 "../../../os/kernel/include/chlists.h"
 229              		.file 6 "../../../os/kernel/include/chthreads.h"
 230              		.file 7 "../../../os/ports/GCC/SIMIA32/chcore.h"
 231              		.file 8 "../../../os/kernel/include/chschd.h"
 232              		.file 9 "../../../os/kernel/include/chmtx.h"
 233              		.file 10 "../../../test/test.h"
 234              		.file 11 "../../../os/kernel/include/chmsg.h"
 235              		.section	.debug_info,"",@progbits
 236              	.Ldebug_info0:
 237 0000 92060000 		.long	0x692
 238 0004 0400     		.value	0x4
 239 0006 00000000 		.long	.Ldebug_abbrev0
 240 000a 04       		.byte	0x4
 241 000b 01       		.uleb128 0x1
 242 000c 1F020000 		.long	.LASF79
 243 0010 01       		.byte	0x1
 244 0011 C5010000 		.long	.LASF80
 245 0015 7B000000 		.long	.LASF81
 246 0019 00000000 		.long	.Ltext0
 247 001d EF000000 		.long	.Letext0-.Ltext0
 248 0021 00000000 		.long	.Ldebug_line0
 249 0025 02       		.uleb128 0x2
 250 0026 04       		.byte	0x4
 251 0027 05       		.byte	0x5
 252 0028 696E7400 		.string	"int"
 253 002c 03       		.uleb128 0x3
 254 002d 15000000 		.long	.LASF4
 255 0031 02       		.byte	0x2
 256 0032 D4       		.byte	0xd4
 257 0033 37000000 		.long	0x37
 258 0037 04       		.uleb128 0x4
GAS LISTING /tmp/ccLAgjRM.s 			page 6


 259 0038 04       		.byte	0x4
 260 0039 07       		.byte	0x7
 261 003a E9000000 		.long	.LASF0
 262 003e 04       		.uleb128 0x4
 263 003f 04       		.byte	0x4
 264 0040 05       		.byte	0x5
 265 0041 BD000000 		.long	.LASF1
 266 0045 04       		.uleb128 0x4
 267 0046 01       		.byte	0x1
 268 0047 06       		.byte	0x6
 269 0048 58000000 		.long	.LASF2
 270 004c 04       		.uleb128 0x4
 271 004d 02       		.byte	0x2
 272 004e 05       		.byte	0x5
 273 004f 86020000 		.long	.LASF3
 274 0053 03       		.uleb128 0x3
 275 0054 09020000 		.long	.LASF5
 276 0058 03       		.byte	0x3
 277 0059 26       		.byte	0x26
 278 005a 25000000 		.long	0x25
 279 005e 04       		.uleb128 0x4
 280 005f 08       		.byte	0x8
 281 0060 05       		.byte	0x5
 282 0061 4A000000 		.long	.LASF6
 283 0065 03       		.uleb128 0x3
 284 0066 52030000 		.long	.LASF7
 285 006a 03       		.byte	0x3
 286 006b 30       		.byte	0x30
 287 006c 70000000 		.long	0x70
 288 0070 04       		.uleb128 0x4
 289 0071 01       		.byte	0x1
 290 0072 08       		.byte	0x8
 291 0073 11020000 		.long	.LASF8
 292 0077 04       		.uleb128 0x4
 293 0078 02       		.byte	0x2
 294 0079 07       		.byte	0x7
 295 007a 17010000 		.long	.LASF9
 296 007e 03       		.uleb128 0x3
 297 007f F8020000 		.long	.LASF10
 298 0083 03       		.byte	0x3
 299 0084 33       		.byte	0x33
 300 0085 37000000 		.long	0x37
 301 0089 04       		.uleb128 0x4
 302 008a 08       		.byte	0x8
 303 008b 07       		.byte	0x7
 304 008c 23000000 		.long	.LASF11
 305 0090 03       		.uleb128 0x3
 306 0091 6C000000 		.long	.LASF12
 307 0095 04       		.byte	0x4
 308 0096 23       		.byte	0x23
 309 0097 9B000000 		.long	0x9b
 310 009b 04       		.uleb128 0x4
 311 009c 01       		.byte	0x1
 312 009d 02       		.byte	0x2
 313 009e 03020000 		.long	.LASF13
 314 00a2 03       		.uleb128 0x3
 315 00a3 30010000 		.long	.LASF14
GAS LISTING /tmp/ccLAgjRM.s 			page 7


 316 00a7 04       		.byte	0x4
 317 00a8 24       		.byte	0x24
 318 00a9 65000000 		.long	0x65
 319 00ad 03       		.uleb128 0x3
 320 00ae D0000000 		.long	.LASF15
 321 00b2 04       		.byte	0x4
 322 00b3 25       		.byte	0x25
 323 00b4 65000000 		.long	0x65
 324 00b8 03       		.uleb128 0x3
 325 00b9 DD010000 		.long	.LASF16
 326 00bd 04       		.byte	0x4
 327 00be 26       		.byte	0x26
 328 00bf 65000000 		.long	0x65
 329 00c3 03       		.uleb128 0x3
 330 00c4 B3000000 		.long	.LASF17
 331 00c8 04       		.byte	0x4
 332 00c9 27       		.byte	0x27
 333 00ca 65000000 		.long	0x65
 334 00ce 03       		.uleb128 0x3
 335 00cf F4010000 		.long	.LASF18
 336 00d3 04       		.byte	0x4
 337 00d4 28       		.byte	0x28
 338 00d5 7E000000 		.long	0x7e
 339 00d9 03       		.uleb128 0x3
 340 00da 2A010000 		.long	.LASF19
 341 00de 04       		.byte	0x4
 342 00df 29       		.byte	0x29
 343 00e0 53000000 		.long	0x53
 344 00e4 03       		.uleb128 0x3
 345 00e5 44010000 		.long	.LASF20
 346 00e9 04       		.byte	0x4
 347 00ea 2B       		.byte	0x2b
 348 00eb 7E000000 		.long	0x7e
 349 00ef 03       		.uleb128 0x3
 350 00f0 0E030000 		.long	.LASF21
 351 00f4 04       		.byte	0x4
 352 00f5 2D       		.byte	0x2d
 353 00f6 7E000000 		.long	0x7e
 354 00fa 03       		.uleb128 0x3
 355 00fb D0020000 		.long	.LASF22
 356 00ff 05       		.byte	0x5
 357 0100 2A       		.byte	0x2a
 358 0101 05010000 		.long	0x105
 359 0105 05       		.uleb128 0x5
 360 0106 D0020000 		.long	.LASF22
 361 010a 48       		.byte	0x48
 362 010b 06       		.byte	0x6
 363 010c 5E       		.byte	0x5e
 364 010d 02020000 		.long	0x202
 365 0111 06       		.uleb128 0x6
 366 0112 C1020000 		.long	.LASF23
 367 0116 06       		.byte	0x6
 368 0117 5F       		.byte	0x5f
 369 0118 23020000 		.long	0x223
 370 011c 00       		.byte	0
 371 011d 06       		.uleb128 0x6
 372 011e E5010000 		.long	.LASF24
GAS LISTING /tmp/ccLAgjRM.s 			page 8


 373 0122 06       		.byte	0x6
 374 0123 61       		.byte	0x61
 375 0124 23020000 		.long	0x223
 376 0128 04       		.byte	0x4
 377 0129 06       		.uleb128 0x6
 378 012a 43000000 		.long	.LASF25
 379 012e 06       		.byte	0x6
 380 012f 63       		.byte	0x63
 381 0130 CE000000 		.long	0xce
 382 0134 08       		.byte	0x8
 383 0135 06       		.uleb128 0x6
 384 0136 84030000 		.long	.LASF26
 385 013a 06       		.byte	0x6
 386 013b 64       		.byte	0x64
 387 013c B1020000 		.long	0x2b1
 388 0140 0C       		.byte	0xc
 389 0141 06       		.uleb128 0x6
 390 0142 D9000000 		.long	.LASF27
 391 0146 06       		.byte	0x6
 392 0147 66       		.byte	0x66
 393 0148 23020000 		.long	0x223
 394 014c 10       		.byte	0x10
 395 014d 06       		.uleb128 0x6
 396 014e 7C010000 		.long	.LASF28
 397 0152 06       		.byte	0x6
 398 0153 67       		.byte	0x67
 399 0154 23020000 		.long	0x223
 400 0158 14       		.byte	0x14
 401 0159 06       		.uleb128 0x6
 402 015a 6E030000 		.long	.LASF29
 403 015e 06       		.byte	0x6
 404 015f 6E       		.byte	0x6e
 405 0160 AD030000 		.long	0x3ad
 406 0164 18       		.byte	0x18
 407 0165 06       		.uleb128 0x6
 408 0166 90020000 		.long	.LASF30
 409 016a 06       		.byte	0x6
 410 016b 79       		.byte	0x79
 411 016c AD000000 		.long	0xad
 412 0170 1C       		.byte	0x1c
 413 0171 06       		.uleb128 0x6
 414 0172 C8020000 		.long	.LASF31
 415 0176 06       		.byte	0x6
 416 0177 7D       		.byte	0x7d
 417 0178 A2000000 		.long	0xa2
 418 017c 1D       		.byte	0x1d
 419 017d 06       		.uleb128 0x6
 420 017e 3B030000 		.long	.LASF32
 421 0182 06       		.byte	0x6
 422 0183 82       		.byte	0x82
 423 0184 B8000000 		.long	0xb8
 424 0188 1E       		.byte	0x1e
 425 0189 06       		.uleb128 0x6
 426 018a 98020000 		.long	.LASF33
 427 018e 06       		.byte	0x6
 428 018f 88       		.byte	0x88
 429 0190 C3000000 		.long	0xc3
GAS LISTING /tmp/ccLAgjRM.s 			page 9


 430 0194 1F       		.byte	0x1f
 431 0195 06       		.uleb128 0x6
 432 0196 23030000 		.long	.LASF34
 433 019a 06       		.byte	0x6
 434 019b 8F       		.byte	0x8f
 435 019c D5020000 		.long	0x2d5
 436 01a0 20       		.byte	0x20
 437 01a1 07       		.uleb128 0x7
 438 01a2 705F7500 		.string	"p_u"
 439 01a6 06       		.byte	0x6
 440 01a7 B4       		.byte	0xb4
 441 01a8 78030000 		.long	0x378
 442 01ac 24       		.byte	0x24
 443 01ad 06       		.uleb128 0x6
 444 01ae 8A030000 		.long	.LASF35
 445 01b2 06       		.byte	0x6
 446 01b3 B9       		.byte	0xb9
 447 01b4 49020000 		.long	0x249
 448 01b8 28       		.byte	0x28
 449 01b9 06       		.uleb128 0x6
 450 01ba F6000000 		.long	.LASF36
 451 01be 06       		.byte	0x6
 452 01bf BF       		.byte	0xbf
 453 01c0 29020000 		.long	0x229
 454 01c4 2C       		.byte	0x2c
 455 01c5 06       		.uleb128 0x6
 456 01c6 08000000 		.long	.LASF37
 457 01ca 06       		.byte	0x6
 458 01cb C3       		.byte	0xc3
 459 01cc D9000000 		.long	0xd9
 460 01d0 34       		.byte	0x34
 461 01d1 06       		.uleb128 0x6
 462 01d2 ED020000 		.long	.LASF38
 463 01d6 06       		.byte	0x6
 464 01d7 C9       		.byte	0xc9
 465 01d8 E4000000 		.long	0xe4
 466 01dc 38       		.byte	0x38
 467 01dd 06       		.uleb128 0x6
 468 01de 7C020000 		.long	.LASF39
 469 01e2 06       		.byte	0x6
 470 01e3 D0       		.byte	0xd0
 471 01e4 BF030000 		.long	0x3bf
 472 01e8 3C       		.byte	0x3c
 473 01e9 06       		.uleb128 0x6
 474 01ea 18030000 		.long	.LASF40
 475 01ee 06       		.byte	0x6
 476 01ef D4       		.byte	0xd4
 477 01f0 CE000000 		.long	0xce
 478 01f4 40       		.byte	0x40
 479 01f5 06       		.uleb128 0x6
 480 01f6 64000000 		.long	.LASF41
 481 01fa 06       		.byte	0x6
 482 01fb DA       		.byte	0xda
 483 01fc 66020000 		.long	0x266
 484 0200 44       		.byte	0x44
 485 0201 00       		.byte	0
 486 0202 08       		.uleb128 0x8
GAS LISTING /tmp/ccLAgjRM.s 			page 10


 487 0203 08       		.byte	0x8
 488 0204 05       		.byte	0x5
 489 0205 61       		.byte	0x61
 490 0206 23020000 		.long	0x223
 491 020a 06       		.uleb128 0x6
 492 020b C1020000 		.long	.LASF23
 493 020f 05       		.byte	0x5
 494 0210 62       		.byte	0x62
 495 0211 23020000 		.long	0x223
 496 0215 00       		.byte	0
 497 0216 06       		.uleb128 0x6
 498 0217 E5010000 		.long	.LASF24
 499 021b 05       		.byte	0x5
 500 021c 64       		.byte	0x64
 501 021d 23020000 		.long	0x223
 502 0221 04       		.byte	0x4
 503 0222 00       		.byte	0
 504 0223 09       		.uleb128 0x9
 505 0224 04       		.byte	0x4
 506 0225 FA000000 		.long	0xfa
 507 0229 03       		.uleb128 0x3
 508 022a 8A010000 		.long	.LASF42
 509 022e 05       		.byte	0x5
 510 022f 66       		.byte	0x66
 511 0230 02020000 		.long	0x202
 512 0234 08       		.uleb128 0x8
 513 0235 04       		.byte	0x4
 514 0236 05       		.byte	0x5
 515 0237 6B       		.byte	0x6b
 516 0238 49020000 		.long	0x249
 517 023c 06       		.uleb128 0x6
 518 023d C1020000 		.long	.LASF23
 519 0241 05       		.byte	0x5
 520 0242 6D       		.byte	0x6d
 521 0243 23020000 		.long	0x223
 522 0247 00       		.byte	0
 523 0248 00       		.byte	0
 524 0249 03       		.uleb128 0x3
 525 024a 38010000 		.long	.LASF43
 526 024e 05       		.byte	0x5
 527 024f 70       		.byte	0x70
 528 0250 34020000 		.long	0x234
 529 0254 04       		.uleb128 0x4
 530 0255 04       		.byte	0x4
 531 0256 07       		.byte	0x7
 532 0257 73010000 		.long	.LASF44
 533 025b 03       		.uleb128 0x3
 534 025c 75030000 		.long	.LASF45
 535 0260 07       		.byte	0x7
 536 0261 4B       		.byte	0x4b
 537 0262 66020000 		.long	0x266
 538 0266 0A       		.uleb128 0xa
 539 0267 04       		.byte	0x4
 540 0268 05       		.uleb128 0x5
 541 0269 2A030000 		.long	.LASF46
 542 026d 14       		.byte	0x14
 543 026e 07       		.byte	0x7
GAS LISTING /tmp/ccLAgjRM.s 			page 11


 544 026f 59       		.byte	0x59
 545 0270 B1020000 		.long	0x2b1
 546 0274 07       		.uleb128 0x7
 547 0275 65627800 		.string	"ebx"
 548 0279 07       		.byte	0x7
 549 027a 5A       		.byte	0x5a
 550 027b 5B020000 		.long	0x25b
 551 027f 00       		.byte	0
 552 0280 07       		.uleb128 0x7
 553 0281 65646900 		.string	"edi"
 554 0285 07       		.byte	0x7
 555 0286 5B       		.byte	0x5b
 556 0287 5B020000 		.long	0x25b
 557 028b 04       		.byte	0x4
 558 028c 07       		.uleb128 0x7
 559 028d 65736900 		.string	"esi"
 560 0291 07       		.byte	0x7
 561 0292 5C       		.byte	0x5c
 562 0293 5B020000 		.long	0x25b
 563 0297 08       		.byte	0x8
 564 0298 07       		.uleb128 0x7
 565 0299 65627000 		.string	"ebp"
 566 029d 07       		.byte	0x7
 567 029e 5D       		.byte	0x5d
 568 029f 5B020000 		.long	0x25b
 569 02a3 0C       		.byte	0xc
 570 02a4 07       		.uleb128 0x7
 571 02a5 65697000 		.string	"eip"
 572 02a9 07       		.byte	0x7
 573 02aa 5E       		.byte	0x5e
 574 02ab 5B020000 		.long	0x25b
 575 02af 10       		.byte	0x10
 576 02b0 00       		.byte	0
 577 02b1 05       		.uleb128 0x5
 578 02b2 0F010000 		.long	.LASF47
 579 02b6 04       		.byte	0x4
 580 02b7 07       		.byte	0x7
 581 02b8 66       		.byte	0x66
 582 02b9 CA020000 		.long	0x2ca
 583 02bd 07       		.uleb128 0x7
 584 02be 65737000 		.string	"esp"
 585 02c2 07       		.byte	0x7
 586 02c3 67       		.byte	0x67
 587 02c4 CA020000 		.long	0x2ca
 588 02c8 00       		.byte	0
 589 02c9 00       		.byte	0
 590 02ca 09       		.uleb128 0x9
 591 02cb 04       		.byte	0x4
 592 02cc D0020000 		.long	0x2d0
 593 02d0 0B       		.uleb128 0xb
 594 02d1 68020000 		.long	0x268
 595 02d5 0B       		.uleb128 0xb
 596 02d6 EF000000 		.long	0xef
 597 02da 08       		.uleb128 0x8
 598 02db 1C       		.byte	0x1c
 599 02dc 08       		.byte	0x8
 600 02dd 5E       		.byte	0x5e
GAS LISTING /tmp/ccLAgjRM.s 			page 12


 601 02de 2B030000 		.long	0x32b
 602 02e2 06       		.uleb128 0x6
 603 02e3 01030000 		.long	.LASF48
 604 02e7 08       		.byte	0x8
 605 02e8 5F       		.byte	0x5f
 606 02e9 29020000 		.long	0x229
 607 02ed 00       		.byte	0
 608 02ee 06       		.uleb128 0x6
 609 02ef AA020000 		.long	.LASF49
 610 02f3 08       		.byte	0x8
 611 02f4 60       		.byte	0x60
 612 02f5 CE000000 		.long	0xce
 613 02f9 08       		.byte	0x8
 614 02fa 06       		.uleb128 0x6
 615 02fb 84010000 		.long	.LASF50
 616 02ff 08       		.byte	0x8
 617 0300 62       		.byte	0x62
 618 0301 B1020000 		.long	0x2b1
 619 0305 0C       		.byte	0xc
 620 0306 06       		.uleb128 0x6
 621 0307 E1000000 		.long	.LASF51
 622 030b 08       		.byte	0x8
 623 030c 65       		.byte	0x65
 624 030d 23020000 		.long	0x223
 625 0311 10       		.byte	0x10
 626 0312 06       		.uleb128 0x6
 627 0313 BD010000 		.long	.LASF52
 628 0317 08       		.byte	0x8
 629 0318 66       		.byte	0x66
 630 0319 23020000 		.long	0x223
 631 031d 14       		.byte	0x14
 632 031e 06       		.uleb128 0x6
 633 031f B3010000 		.long	.LASF53
 634 0323 08       		.byte	0x8
 635 0324 69       		.byte	0x69
 636 0325 23020000 		.long	0x223
 637 0329 18       		.byte	0x18
 638 032a 00       		.byte	0
 639 032b 03       		.uleb128 0x3
 640 032c 42030000 		.long	.LASF54
 641 0330 08       		.byte	0x8
 642 0331 6B       		.byte	0x6b
 643 0332 DA020000 		.long	0x2da
 644 0336 05       		.uleb128 0x5
 645 0337 50010000 		.long	.LASF55
 646 033b 10       		.byte	0x10
 647 033c 09       		.byte	0x9
 648 033d 2C       		.byte	0x2c
 649 033e 67030000 		.long	0x367
 650 0342 06       		.uleb128 0x6
 651 0343 73000000 		.long	.LASF56
 652 0347 09       		.byte	0x9
 653 0348 2D       		.byte	0x2d
 654 0349 29020000 		.long	0x229
 655 034d 00       		.byte	0
 656 034e 06       		.uleb128 0x6
 657 034f 7C030000 		.long	.LASF57
GAS LISTING /tmp/ccLAgjRM.s 			page 13


 658 0353 09       		.byte	0x9
 659 0354 2F       		.byte	0x2f
 660 0355 23020000 		.long	0x223
 661 0359 08       		.byte	0x8
 662 035a 06       		.uleb128 0x6
 663 035b 0E000000 		.long	.LASF58
 664 035f 09       		.byte	0x9
 665 0360 31       		.byte	0x31
 666 0361 67030000 		.long	0x367
 667 0365 0C       		.byte	0xc
 668 0366 00       		.byte	0
 669 0367 09       		.uleb128 0x9
 670 0368 04       		.byte	0x4
 671 0369 36030000 		.long	0x336
 672 036d 03       		.uleb128 0x3
 673 036e 50010000 		.long	.LASF55
 674 0372 09       		.byte	0x9
 675 0373 33       		.byte	0x33
 676 0374 36030000 		.long	0x336
 677 0378 0C       		.uleb128 0xc
 678 0379 04       		.byte	0x4
 679 037a 06       		.byte	0x6
 680 037b 96       		.byte	0x96
 681 037c AD030000 		.long	0x3ad
 682 0380 0D       		.uleb128 0xd
 683 0381 1C000000 		.long	.LASF59
 684 0385 06       		.byte	0x6
 685 0386 9D       		.byte	0x9d
 686 0387 D9000000 		.long	0xd9
 687 038b 0D       		.uleb128 0xd
 688 038c 3A000000 		.long	.LASF60
 689 0390 06       		.byte	0x6
 690 0391 A4       		.byte	0xa4
 691 0392 D9000000 		.long	0xd9
 692 0396 0D       		.uleb128 0xd
 693 0397 67030000 		.long	.LASF61
 694 039b 06       		.byte	0x6
 695 039c AB       		.byte	0xab
 696 039d 66020000 		.long	0x266
 697 03a1 0D       		.uleb128 0xd
 698 03a2 BA020000 		.long	.LASF62
 699 03a6 06       		.byte	0x6
 700 03a7 B2       		.byte	0xb2
 701 03a8 E4000000 		.long	0xe4
 702 03ac 00       		.byte	0
 703 03ad 09       		.uleb128 0x9
 704 03ae 04       		.byte	0x4
 705 03af B3030000 		.long	0x3b3
 706 03b3 0E       		.uleb128 0xe
 707 03b4 B8030000 		.long	0x3b8
 708 03b8 04       		.uleb128 0x4
 709 03b9 01       		.byte	0x1
 710 03ba 06       		.byte	0x6
 711 03bb 09030000 		.long	.LASF63
 712 03bf 09       		.uleb128 0x9
 713 03c0 04       		.byte	0x4
 714 03c1 6D030000 		.long	0x36d
GAS LISTING /tmp/ccLAgjRM.s 			page 14


 715 03c5 03       		.uleb128 0x3
 716 03c6 00000000 		.long	.LASF64
 717 03ca 06       		.byte	0x6
 718 03cb E5       		.byte	0xe5
 719 03cc D0030000 		.long	0x3d0
 720 03d0 09       		.uleb128 0x9
 721 03d1 04       		.byte	0x4
 722 03d2 D6030000 		.long	0x3d6
 723 03d6 0F       		.uleb128 0xf
 724 03d7 D9000000 		.long	0xd9
 725 03db E5030000 		.long	0x3e5
 726 03df 10       		.uleb128 0x10
 727 03e0 66020000 		.long	0x266
 728 03e4 00       		.byte	0
 729 03e5 05       		.uleb128 0x5
 730 03e6 E4020000 		.long	.LASF65
 731 03ea 10       		.byte	0x10
 732 03eb 0A       		.byte	0xa
 733 03ec 3B       		.byte	0x3b
 734 03ed 22040000 		.long	0x422
 735 03f1 06       		.uleb128 0x6
 736 03f2 0A010000 		.long	.LASF66
 737 03f6 0A       		.byte	0xa
 738 03f7 3C       		.byte	0x3c
 739 03f8 AD030000 		.long	0x3ad
 740 03fc 00       		.byte	0
 741 03fd 06       		.uleb128 0x6
 742 03fe 97010000 		.long	.LASF67
 743 0402 0A       		.byte	0xa
 744 0403 3D       		.byte	0x3d
 745 0404 23040000 		.long	0x423
 746 0408 04       		.byte	0x4
 747 0409 06       		.uleb128 0x6
 748 040a 01010000 		.long	.LASF68
 749 040e 0A       		.byte	0xa
 750 040f 3E       		.byte	0x3e
 751 0410 23040000 		.long	0x423
 752 0414 08       		.byte	0x8
 753 0415 06       		.uleb128 0x6
 754 0416 EC010000 		.long	.LASF69
 755 041a 0A       		.byte	0xa
 756 041b 3F       		.byte	0x3f
 757 041c 23040000 		.long	0x423
 758 0420 0C       		.byte	0xc
 759 0421 00       		.byte	0
 760 0422 11       		.uleb128 0x11
 761 0423 09       		.uleb128 0x9
 762 0424 04       		.byte	0x4
 763 0425 22040000 		.long	0x422
 764 0429 12       		.uleb128 0x12
 765 042a 5A030000 		.long	.LASF82
 766 042e 01       		.byte	0x1
 767 042f 43       		.byte	0x43
 768 0430 00000000 		.long	.LFB8
 769 0434 AF000000 		.long	.LFE8-.LFB8
 770 0438 01       		.uleb128 0x1
 771 0439 9C       		.byte	0x9c
GAS LISTING /tmp/ccLAgjRM.s 			page 15


 772 043a 0B050000 		.long	0x50b
 773 043e 13       		.uleb128 0x13
 774 043f 747000   		.string	"tp"
 775 0442 01       		.byte	0x1
 776 0443 44       		.byte	0x44
 777 0444 23020000 		.long	0x223
 778 0448 00000000 		.long	.LLST0
 779 044c 13       		.uleb128 0x13
 780 044d 6D736700 		.string	"msg"
 781 0451 01       		.byte	0x1
 782 0452 45       		.byte	0x45
 783 0453 D9000000 		.long	0xd9
 784 0457 29000000 		.long	.LLST1
 785 045b 14       		.uleb128 0x14
 786 045c 34000000 		.long	.LVL0
 787 0460 03060000 		.long	0x603
 788 0464 7B040000 		.long	0x47b
 789 0468 15       		.uleb128 0x15
 790 0469 02       		.uleb128 0x2
 791 046a 74       		.byte	0x74
 792 046b 04       		.sleb128 4
 793 046c 03       		.uleb128 0x3
 794 046d 0A       		.byte	0xa
 795 046e 7042     		.value	0x4270
 796 0470 15       		.uleb128 0x15
 797 0471 02       		.uleb128 0x2
 798 0472 74       		.byte	0x74
 799 0473 0C       		.sleb128 12
 800 0474 05       		.uleb128 0x5
 801 0475 03       		.byte	0x3
 802 0476 B0000000 		.long	thread
 803 047a 00       		.byte	0
 804 047b 16       		.uleb128 0x16
 805 047c 3E000000 		.long	.LVL1
 806 0480 2D060000 		.long	0x62d
 807 0484 16       		.uleb128 0x16
 808 0485 50000000 		.long	.LVL4
 809 0489 38060000 		.long	0x638
 810 048d 14       		.uleb128 0x14
 811 048e 58000000 		.long	.LVL5
 812 0492 4E060000 		.long	0x64e
 813 0496 A2040000 		.long	0x4a2
 814 049a 15       		.uleb128 0x15
 815 049b 02       		.uleb128 0x2
 816 049c 74       		.byte	0x74
 817 049d 00       		.sleb128 0
 818 049e 02       		.uleb128 0x2
 819 049f 73       		.byte	0x73
 820 04a0 00       		.sleb128 0
 821 04a1 00       		.byte	0
 822 04a2 16       		.uleb128 0x16
 823 04a3 5D000000 		.long	.LVL6
 824 04a7 2D060000 		.long	0x62d
 825 04ab 16       		.uleb128 0x16
 826 04ac 6F000000 		.long	.LVL9
 827 04b0 38060000 		.long	0x638
 828 04b4 14       		.uleb128 0x14
GAS LISTING /tmp/ccLAgjRM.s 			page 16


 829 04b5 77000000 		.long	.LVL10
 830 04b9 4E060000 		.long	0x64e
 831 04bd C9040000 		.long	0x4c9
 832 04c1 15       		.uleb128 0x15
 833 04c2 02       		.uleb128 0x2
 834 04c3 74       		.byte	0x74
 835 04c4 00       		.sleb128 0
 836 04c5 02       		.uleb128 0x2
 837 04c6 73       		.byte	0x73
 838 04c7 00       		.sleb128 0
 839 04c8 00       		.byte	0
 840 04c9 16       		.uleb128 0x16
 841 04ca 7C000000 		.long	.LVL11
 842 04ce 2D060000 		.long	0x62d
 843 04d2 16       		.uleb128 0x16
 844 04d3 8E000000 		.long	.LVL14
 845 04d7 38060000 		.long	0x638
 846 04db 14       		.uleb128 0x14
 847 04dc 96000000 		.long	.LVL15
 848 04e0 4E060000 		.long	0x64e
 849 04e4 F0040000 		.long	0x4f0
 850 04e8 15       		.uleb128 0x15
 851 04e9 02       		.uleb128 0x2
 852 04ea 74       		.byte	0x74
 853 04eb 00       		.sleb128 0
 854 04ec 02       		.uleb128 0x2
 855 04ed 73       		.byte	0x73
 856 04ee 00       		.sleb128 0
 857 04ef 00       		.byte	0
 858 04f0 17       		.uleb128 0x17
 859 04f1 AA000000 		.long	.LVL16
 860 04f5 5F060000 		.long	0x65f
 861 04f9 15       		.uleb128 0x15
 862 04fa 02       		.uleb128 0x2
 863 04fb 74       		.byte	0x74
 864 04fc 00       		.sleb128 0
 865 04fd 01       		.uleb128 0x1
 866 04fe 31       		.byte	0x31
 867 04ff 15       		.uleb128 0x15
 868 0500 02       		.uleb128 0x2
 869 0501 74       		.byte	0x74
 870 0502 04       		.sleb128 4
 871 0503 05       		.uleb128 0x5
 872 0504 03       		.byte	0x3
 873 0505 00000000 		.long	.LC0
 874 0509 00       		.byte	0
 875 050a 00       		.byte	0
 876 050b 18       		.uleb128 0x18
 877 050c FC010000 		.long	.LASF83
 878 0510 01       		.byte	0x1
 879 0511 3B       		.byte	0x3b
 880 0512 D9000000 		.long	0xd9
 881 0516 B0000000 		.long	.LFB7
 882 051a 3F000000 		.long	.LFE7-.LFB7
 883 051e 01       		.uleb128 0x1
 884 051f 9C       		.byte	0x9c
 885 0520 81050000 		.long	0x581
GAS LISTING /tmp/ccLAgjRM.s 			page 17


 886 0524 19       		.uleb128 0x19
 887 0525 7000     		.string	"p"
 888 0527 01       		.byte	0x1
 889 0528 3B       		.byte	0x3b
 890 0529 66020000 		.long	0x266
 891 052d 02       		.uleb128 0x2
 892 052e 91       		.byte	0x91
 893 052f 00       		.sleb128 0
 894 0530 14       		.uleb128 0x14
 895 0531 C8000000 		.long	.LVL18
 896 0535 7F060000 		.long	0x67f
 897 0539 4C050000 		.long	0x54c
 898 053d 15       		.uleb128 0x15
 899 053e 02       		.uleb128 0x2
 900 053f 74       		.byte	0x74
 901 0540 00       		.sleb128 0
 902 0541 02       		.uleb128 0x2
 903 0542 73       		.byte	0x73
 904 0543 00       		.sleb128 0
 905 0544 15       		.uleb128 0x15
 906 0545 02       		.uleb128 0x2
 907 0546 74       		.byte	0x74
 908 0547 04       		.sleb128 4
 909 0548 02       		.uleb128 0x2
 910 0549 08       		.byte	0x8
 911 054a 41       		.byte	0x41
 912 054b 00       		.byte	0
 913 054c 14       		.uleb128 0x14
 914 054d D8000000 		.long	.LVL19
 915 0551 7F060000 		.long	0x67f
 916 0555 68050000 		.long	0x568
 917 0559 15       		.uleb128 0x15
 918 055a 02       		.uleb128 0x2
 919 055b 74       		.byte	0x74
 920 055c 00       		.sleb128 0
 921 055d 02       		.uleb128 0x2
 922 055e 73       		.byte	0x73
 923 055f 00       		.sleb128 0
 924 0560 15       		.uleb128 0x15
 925 0561 02       		.uleb128 0x2
 926 0562 74       		.byte	0x74
 927 0563 04       		.sleb128 4
 928 0564 02       		.uleb128 0x2
 929 0565 08       		.byte	0x8
 930 0566 42       		.byte	0x42
 931 0567 00       		.byte	0
 932 0568 17       		.uleb128 0x17
 933 0569 E8000000 		.long	.LVL20
 934 056d 7F060000 		.long	0x67f
 935 0571 15       		.uleb128 0x15
 936 0572 02       		.uleb128 0x2
 937 0573 74       		.byte	0x74
 938 0574 00       		.sleb128 0
 939 0575 02       		.uleb128 0x2
 940 0576 73       		.byte	0x73
 941 0577 00       		.sleb128 0
 942 0578 15       		.uleb128 0x15
GAS LISTING /tmp/ccLAgjRM.s 			page 18


 943 0579 02       		.uleb128 0x2
 944 057a 74       		.byte	0x74
 945 057b 04       		.sleb128 4
 946 057c 02       		.uleb128 0x2
 947 057d 08       		.byte	0x8
 948 057e 43       		.byte	0x43
 949 057f 00       		.byte	0
 950 0580 00       		.byte	0
 951 0581 1A       		.uleb128 0x1a
 952 0582 4C030000 		.long	.LASF70
 953 0586 08       		.byte	0x8
 954 0587 6F       		.byte	0x6f
 955 0588 2B030000 		.long	0x32b
 956 058c 1B       		.uleb128 0x1b
 957 058d 23020000 		.long	0x223
 958 0591 9C050000 		.long	0x59c
 959 0595 1C       		.uleb128 0x1c
 960 0596 54020000 		.long	0x254
 961 059a 04       		.byte	0x4
 962 059b 00       		.byte	0
 963 059c 1A       		.uleb128 0x1a
 964 059d A2020000 		.long	.LASF71
 965 05a1 0A       		.byte	0xa
 966 05a2 A5       		.byte	0xa5
 967 05a3 8C050000 		.long	0x58c
 968 05a7 1B       		.uleb128 0x1b
 969 05a8 66020000 		.long	0x266
 970 05ac B2050000 		.long	0x5b2
 971 05b0 1D       		.uleb128 0x1d
 972 05b1 00       		.byte	0
 973 05b2 1E       		.uleb128 0x1e
 974 05b3 776100   		.string	"wa"
 975 05b6 0A       		.byte	0xa
 976 05b7 A7       		.byte	0xa7
 977 05b8 BC050000 		.long	0x5bc
 978 05bc 0E       		.uleb128 0xe
 979 05bd A7050000 		.long	0x5a7
 980 05c1 1F       		.uleb128 0x1f
 981 05c2 B1020000 		.long	.LASF72
 982 05c6 01       		.byte	0x1
 983 05c7 5B       		.byte	0x5b
 984 05c8 D2050000 		.long	0x5d2
 985 05cc 05       		.uleb128 0x5
 986 05cd 03       		.byte	0x3
 987 05ce 00000000 		.long	testmsg1
 988 05d2 0E       		.uleb128 0xe
 989 05d3 E5030000 		.long	0x3e5
 990 05d7 1B       		.uleb128 0x1b
 991 05d8 E7050000 		.long	0x5e7
 992 05dc E7050000 		.long	0x5e7
 993 05e0 1C       		.uleb128 0x1c
 994 05e1 54020000 		.long	0x254
 995 05e5 01       		.byte	0x1
 996 05e6 00       		.byte	0
 997 05e7 09       		.uleb128 0x9
 998 05e8 04       		.byte	0x4
 999 05e9 D2050000 		.long	0x5d2
GAS LISTING /tmp/ccLAgjRM.s 			page 19


 1000 05ed 1F       		.uleb128 0x1f
 1001 05ee 68010000 		.long	.LASF73
 1002 05f2 01       		.byte	0x1
 1003 05f3 67       		.byte	0x67
 1004 05f4 FE050000 		.long	0x5fe
 1005 05f8 05       		.uleb128 0x5
 1006 05f9 03       		.byte	0x3
 1007 05fa 00000000 		.long	patternmsg
 1008 05fe 0E       		.uleb128 0xe
 1009 05ff D7050000 		.long	0x5d7
 1010 0603 20       		.uleb128 0x20
 1011 0604 56010000 		.long	.LASF76
 1012 0608 06       		.byte	0x6
 1013 0609 7001     		.value	0x170
 1014 060b 23020000 		.long	0x223
 1015 060f 2D060000 		.long	0x62d
 1016 0613 10       		.uleb128 0x10
 1017 0614 66020000 		.long	0x266
 1018 0618 10       		.uleb128 0x10
 1019 0619 2C000000 		.long	0x2c
 1020 061d 10       		.uleb128 0x10
 1021 061e CE000000 		.long	0xce
 1022 0622 10       		.uleb128 0x10
 1023 0623 C5030000 		.long	0x3c5
 1024 0627 10       		.uleb128 0x10
 1025 0628 66020000 		.long	0x266
 1026 062c 00       		.byte	0
 1027 062d 21       		.uleb128 0x21
 1028 062e 31030000 		.long	.LASF84
 1029 0632 0B       		.byte	0xb
 1030 0633 52       		.byte	0x52
 1031 0634 23020000 		.long	0x223
 1032 0638 22       		.uleb128 0x22
 1033 0639 D7020000 		.long	.LASF74
 1034 063d 0B       		.byte	0xb
 1035 063e 53       		.byte	0x53
 1036 063f 4E060000 		.long	0x64e
 1037 0643 10       		.uleb128 0x10
 1038 0644 23020000 		.long	0x223
 1039 0648 10       		.uleb128 0x10
 1040 0649 D9000000 		.long	0xd9
 1041 064d 00       		.byte	0
 1042 064e 22       		.uleb128 0x22
 1043 064f A3000000 		.long	.LASF75
 1044 0653 0A       		.byte	0xa
 1045 0654 56       		.byte	0x56
 1046 0655 5F060000 		.long	0x65f
 1047 0659 10       		.uleb128 0x10
 1048 065a B8030000 		.long	0x3b8
 1049 065e 00       		.byte	0
 1050 065f 23       		.uleb128 0x23
 1051 0660 9D010000 		.long	.LASF77
 1052 0664 0A       		.byte	0xa
 1053 0665 59       		.byte	0x59
 1054 0666 90000000 		.long	0x90
 1055 066a 79060000 		.long	0x679
 1056 066e 10       		.uleb128 0x10
GAS LISTING /tmp/ccLAgjRM.s 			page 20


 1057 066f 37000000 		.long	0x37
 1058 0673 10       		.uleb128 0x10
 1059 0674 79060000 		.long	0x679
 1060 0678 00       		.byte	0
 1061 0679 09       		.uleb128 0x9
 1062 067a 04       		.byte	0x4
 1063 067b B8030000 		.long	0x3b8
 1064 067f 24       		.uleb128 0x24
 1065 0680 C6000000 		.long	.LASF78
 1066 0684 0B       		.byte	0xb
 1067 0685 51       		.byte	0x51
 1068 0686 D9000000 		.long	0xd9
 1069 068a 10       		.uleb128 0x10
 1070 068b 23020000 		.long	0x223
 1071 068f 10       		.uleb128 0x10
 1072 0690 D9000000 		.long	0xd9
 1073 0694 00       		.byte	0
 1074 0695 00       		.byte	0
 1075              		.section	.debug_abbrev,"",@progbits
 1076              	.Ldebug_abbrev0:
 1077 0000 01       		.uleb128 0x1
 1078 0001 11       		.uleb128 0x11
 1079 0002 01       		.byte	0x1
 1080 0003 25       		.uleb128 0x25
 1081 0004 0E       		.uleb128 0xe
 1082 0005 13       		.uleb128 0x13
 1083 0006 0B       		.uleb128 0xb
 1084 0007 03       		.uleb128 0x3
 1085 0008 0E       		.uleb128 0xe
 1086 0009 1B       		.uleb128 0x1b
 1087 000a 0E       		.uleb128 0xe
 1088 000b 11       		.uleb128 0x11
 1089 000c 01       		.uleb128 0x1
 1090 000d 12       		.uleb128 0x12
 1091 000e 06       		.uleb128 0x6
 1092 000f 10       		.uleb128 0x10
 1093 0010 17       		.uleb128 0x17
 1094 0011 00       		.byte	0
 1095 0012 00       		.byte	0
 1096 0013 02       		.uleb128 0x2
 1097 0014 24       		.uleb128 0x24
 1098 0015 00       		.byte	0
 1099 0016 0B       		.uleb128 0xb
 1100 0017 0B       		.uleb128 0xb
 1101 0018 3E       		.uleb128 0x3e
 1102 0019 0B       		.uleb128 0xb
 1103 001a 03       		.uleb128 0x3
 1104 001b 08       		.uleb128 0x8
 1105 001c 00       		.byte	0
 1106 001d 00       		.byte	0
 1107 001e 03       		.uleb128 0x3
 1108 001f 16       		.uleb128 0x16
 1109 0020 00       		.byte	0
 1110 0021 03       		.uleb128 0x3
 1111 0022 0E       		.uleb128 0xe
 1112 0023 3A       		.uleb128 0x3a
 1113 0024 0B       		.uleb128 0xb
GAS LISTING /tmp/ccLAgjRM.s 			page 21


 1114 0025 3B       		.uleb128 0x3b
 1115 0026 0B       		.uleb128 0xb
 1116 0027 49       		.uleb128 0x49
 1117 0028 13       		.uleb128 0x13
 1118 0029 00       		.byte	0
 1119 002a 00       		.byte	0
 1120 002b 04       		.uleb128 0x4
 1121 002c 24       		.uleb128 0x24
 1122 002d 00       		.byte	0
 1123 002e 0B       		.uleb128 0xb
 1124 002f 0B       		.uleb128 0xb
 1125 0030 3E       		.uleb128 0x3e
 1126 0031 0B       		.uleb128 0xb
 1127 0032 03       		.uleb128 0x3
 1128 0033 0E       		.uleb128 0xe
 1129 0034 00       		.byte	0
 1130 0035 00       		.byte	0
 1131 0036 05       		.uleb128 0x5
 1132 0037 13       		.uleb128 0x13
 1133 0038 01       		.byte	0x1
 1134 0039 03       		.uleb128 0x3
 1135 003a 0E       		.uleb128 0xe
 1136 003b 0B       		.uleb128 0xb
 1137 003c 0B       		.uleb128 0xb
 1138 003d 3A       		.uleb128 0x3a
 1139 003e 0B       		.uleb128 0xb
 1140 003f 3B       		.uleb128 0x3b
 1141 0040 0B       		.uleb128 0xb
 1142 0041 01       		.uleb128 0x1
 1143 0042 13       		.uleb128 0x13
 1144 0043 00       		.byte	0
 1145 0044 00       		.byte	0
 1146 0045 06       		.uleb128 0x6
 1147 0046 0D       		.uleb128 0xd
 1148 0047 00       		.byte	0
 1149 0048 03       		.uleb128 0x3
 1150 0049 0E       		.uleb128 0xe
 1151 004a 3A       		.uleb128 0x3a
 1152 004b 0B       		.uleb128 0xb
 1153 004c 3B       		.uleb128 0x3b
 1154 004d 0B       		.uleb128 0xb
 1155 004e 49       		.uleb128 0x49
 1156 004f 13       		.uleb128 0x13
 1157 0050 38       		.uleb128 0x38
 1158 0051 0B       		.uleb128 0xb
 1159 0052 00       		.byte	0
 1160 0053 00       		.byte	0
 1161 0054 07       		.uleb128 0x7
 1162 0055 0D       		.uleb128 0xd
 1163 0056 00       		.byte	0
 1164 0057 03       		.uleb128 0x3
 1165 0058 08       		.uleb128 0x8
 1166 0059 3A       		.uleb128 0x3a
 1167 005a 0B       		.uleb128 0xb
 1168 005b 3B       		.uleb128 0x3b
 1169 005c 0B       		.uleb128 0xb
 1170 005d 49       		.uleb128 0x49
GAS LISTING /tmp/ccLAgjRM.s 			page 22


 1171 005e 13       		.uleb128 0x13
 1172 005f 38       		.uleb128 0x38
 1173 0060 0B       		.uleb128 0xb
 1174 0061 00       		.byte	0
 1175 0062 00       		.byte	0
 1176 0063 08       		.uleb128 0x8
 1177 0064 13       		.uleb128 0x13
 1178 0065 01       		.byte	0x1
 1179 0066 0B       		.uleb128 0xb
 1180 0067 0B       		.uleb128 0xb
 1181 0068 3A       		.uleb128 0x3a
 1182 0069 0B       		.uleb128 0xb
 1183 006a 3B       		.uleb128 0x3b
 1184 006b 0B       		.uleb128 0xb
 1185 006c 01       		.uleb128 0x1
 1186 006d 13       		.uleb128 0x13
 1187 006e 00       		.byte	0
 1188 006f 00       		.byte	0
 1189 0070 09       		.uleb128 0x9
 1190 0071 0F       		.uleb128 0xf
 1191 0072 00       		.byte	0
 1192 0073 0B       		.uleb128 0xb
 1193 0074 0B       		.uleb128 0xb
 1194 0075 49       		.uleb128 0x49
 1195 0076 13       		.uleb128 0x13
 1196 0077 00       		.byte	0
 1197 0078 00       		.byte	0
 1198 0079 0A       		.uleb128 0xa
 1199 007a 0F       		.uleb128 0xf
 1200 007b 00       		.byte	0
 1201 007c 0B       		.uleb128 0xb
 1202 007d 0B       		.uleb128 0xb
 1203 007e 00       		.byte	0
 1204 007f 00       		.byte	0
 1205 0080 0B       		.uleb128 0xb
 1206 0081 35       		.uleb128 0x35
 1207 0082 00       		.byte	0
 1208 0083 49       		.uleb128 0x49
 1209 0084 13       		.uleb128 0x13
 1210 0085 00       		.byte	0
 1211 0086 00       		.byte	0
 1212 0087 0C       		.uleb128 0xc
 1213 0088 17       		.uleb128 0x17
 1214 0089 01       		.byte	0x1
 1215 008a 0B       		.uleb128 0xb
 1216 008b 0B       		.uleb128 0xb
 1217 008c 3A       		.uleb128 0x3a
 1218 008d 0B       		.uleb128 0xb
 1219 008e 3B       		.uleb128 0x3b
 1220 008f 0B       		.uleb128 0xb
 1221 0090 01       		.uleb128 0x1
 1222 0091 13       		.uleb128 0x13
 1223 0092 00       		.byte	0
 1224 0093 00       		.byte	0
 1225 0094 0D       		.uleb128 0xd
 1226 0095 0D       		.uleb128 0xd
 1227 0096 00       		.byte	0
GAS LISTING /tmp/ccLAgjRM.s 			page 23


 1228 0097 03       		.uleb128 0x3
 1229 0098 0E       		.uleb128 0xe
 1230 0099 3A       		.uleb128 0x3a
 1231 009a 0B       		.uleb128 0xb
 1232 009b 3B       		.uleb128 0x3b
 1233 009c 0B       		.uleb128 0xb
 1234 009d 49       		.uleb128 0x49
 1235 009e 13       		.uleb128 0x13
 1236 009f 00       		.byte	0
 1237 00a0 00       		.byte	0
 1238 00a1 0E       		.uleb128 0xe
 1239 00a2 26       		.uleb128 0x26
 1240 00a3 00       		.byte	0
 1241 00a4 49       		.uleb128 0x49
 1242 00a5 13       		.uleb128 0x13
 1243 00a6 00       		.byte	0
 1244 00a7 00       		.byte	0
 1245 00a8 0F       		.uleb128 0xf
 1246 00a9 15       		.uleb128 0x15
 1247 00aa 01       		.byte	0x1
 1248 00ab 27       		.uleb128 0x27
 1249 00ac 19       		.uleb128 0x19
 1250 00ad 49       		.uleb128 0x49
 1251 00ae 13       		.uleb128 0x13
 1252 00af 01       		.uleb128 0x1
 1253 00b0 13       		.uleb128 0x13
 1254 00b1 00       		.byte	0
 1255 00b2 00       		.byte	0
 1256 00b3 10       		.uleb128 0x10
 1257 00b4 05       		.uleb128 0x5
 1258 00b5 00       		.byte	0
 1259 00b6 49       		.uleb128 0x49
 1260 00b7 13       		.uleb128 0x13
 1261 00b8 00       		.byte	0
 1262 00b9 00       		.byte	0
 1263 00ba 11       		.uleb128 0x11
 1264 00bb 15       		.uleb128 0x15
 1265 00bc 00       		.byte	0
 1266 00bd 27       		.uleb128 0x27
 1267 00be 19       		.uleb128 0x19
 1268 00bf 00       		.byte	0
 1269 00c0 00       		.byte	0
 1270 00c1 12       		.uleb128 0x12
 1271 00c2 2E       		.uleb128 0x2e
 1272 00c3 01       		.byte	0x1
 1273 00c4 03       		.uleb128 0x3
 1274 00c5 0E       		.uleb128 0xe
 1275 00c6 3A       		.uleb128 0x3a
 1276 00c7 0B       		.uleb128 0xb
 1277 00c8 3B       		.uleb128 0x3b
 1278 00c9 0B       		.uleb128 0xb
 1279 00ca 27       		.uleb128 0x27
 1280 00cb 19       		.uleb128 0x19
 1281 00cc 11       		.uleb128 0x11
 1282 00cd 01       		.uleb128 0x1
 1283 00ce 12       		.uleb128 0x12
 1284 00cf 06       		.uleb128 0x6
GAS LISTING /tmp/ccLAgjRM.s 			page 24


 1285 00d0 40       		.uleb128 0x40
 1286 00d1 18       		.uleb128 0x18
 1287 00d2 9742     		.uleb128 0x2117
 1288 00d4 19       		.uleb128 0x19
 1289 00d5 01       		.uleb128 0x1
 1290 00d6 13       		.uleb128 0x13
 1291 00d7 00       		.byte	0
 1292 00d8 00       		.byte	0
 1293 00d9 13       		.uleb128 0x13
 1294 00da 34       		.uleb128 0x34
 1295 00db 00       		.byte	0
 1296 00dc 03       		.uleb128 0x3
 1297 00dd 08       		.uleb128 0x8
 1298 00de 3A       		.uleb128 0x3a
 1299 00df 0B       		.uleb128 0xb
 1300 00e0 3B       		.uleb128 0x3b
 1301 00e1 0B       		.uleb128 0xb
 1302 00e2 49       		.uleb128 0x49
 1303 00e3 13       		.uleb128 0x13
 1304 00e4 02       		.uleb128 0x2
 1305 00e5 17       		.uleb128 0x17
 1306 00e6 00       		.byte	0
 1307 00e7 00       		.byte	0
 1308 00e8 14       		.uleb128 0x14
 1309 00e9 898201   		.uleb128 0x4109
 1310 00ec 01       		.byte	0x1
 1311 00ed 11       		.uleb128 0x11
 1312 00ee 01       		.uleb128 0x1
 1313 00ef 31       		.uleb128 0x31
 1314 00f0 13       		.uleb128 0x13
 1315 00f1 01       		.uleb128 0x1
 1316 00f2 13       		.uleb128 0x13
 1317 00f3 00       		.byte	0
 1318 00f4 00       		.byte	0
 1319 00f5 15       		.uleb128 0x15
 1320 00f6 8A8201   		.uleb128 0x410a
 1321 00f9 00       		.byte	0
 1322 00fa 02       		.uleb128 0x2
 1323 00fb 18       		.uleb128 0x18
 1324 00fc 9142     		.uleb128 0x2111
 1325 00fe 18       		.uleb128 0x18
 1326 00ff 00       		.byte	0
 1327 0100 00       		.byte	0
 1328 0101 16       		.uleb128 0x16
 1329 0102 898201   		.uleb128 0x4109
 1330 0105 00       		.byte	0
 1331 0106 11       		.uleb128 0x11
 1332 0107 01       		.uleb128 0x1
 1333 0108 31       		.uleb128 0x31
 1334 0109 13       		.uleb128 0x13
 1335 010a 00       		.byte	0
 1336 010b 00       		.byte	0
 1337 010c 17       		.uleb128 0x17
 1338 010d 898201   		.uleb128 0x4109
 1339 0110 01       		.byte	0x1
 1340 0111 11       		.uleb128 0x11
 1341 0112 01       		.uleb128 0x1
GAS LISTING /tmp/ccLAgjRM.s 			page 25


 1342 0113 31       		.uleb128 0x31
 1343 0114 13       		.uleb128 0x13
 1344 0115 00       		.byte	0
 1345 0116 00       		.byte	0
 1346 0117 18       		.uleb128 0x18
 1347 0118 2E       		.uleb128 0x2e
 1348 0119 01       		.byte	0x1
 1349 011a 03       		.uleb128 0x3
 1350 011b 0E       		.uleb128 0xe
 1351 011c 3A       		.uleb128 0x3a
 1352 011d 0B       		.uleb128 0xb
 1353 011e 3B       		.uleb128 0x3b
 1354 011f 0B       		.uleb128 0xb
 1355 0120 27       		.uleb128 0x27
 1356 0121 19       		.uleb128 0x19
 1357 0122 49       		.uleb128 0x49
 1358 0123 13       		.uleb128 0x13
 1359 0124 11       		.uleb128 0x11
 1360 0125 01       		.uleb128 0x1
 1361 0126 12       		.uleb128 0x12
 1362 0127 06       		.uleb128 0x6
 1363 0128 40       		.uleb128 0x40
 1364 0129 18       		.uleb128 0x18
 1365 012a 9742     		.uleb128 0x2117
 1366 012c 19       		.uleb128 0x19
 1367 012d 01       		.uleb128 0x1
 1368 012e 13       		.uleb128 0x13
 1369 012f 00       		.byte	0
 1370 0130 00       		.byte	0
 1371 0131 19       		.uleb128 0x19
 1372 0132 05       		.uleb128 0x5
 1373 0133 00       		.byte	0
 1374 0134 03       		.uleb128 0x3
 1375 0135 08       		.uleb128 0x8
 1376 0136 3A       		.uleb128 0x3a
 1377 0137 0B       		.uleb128 0xb
 1378 0138 3B       		.uleb128 0x3b
 1379 0139 0B       		.uleb128 0xb
 1380 013a 49       		.uleb128 0x49
 1381 013b 13       		.uleb128 0x13
 1382 013c 02       		.uleb128 0x2
 1383 013d 18       		.uleb128 0x18
 1384 013e 00       		.byte	0
 1385 013f 00       		.byte	0
 1386 0140 1A       		.uleb128 0x1a
 1387 0141 34       		.uleb128 0x34
 1388 0142 00       		.byte	0
 1389 0143 03       		.uleb128 0x3
 1390 0144 0E       		.uleb128 0xe
 1391 0145 3A       		.uleb128 0x3a
 1392 0146 0B       		.uleb128 0xb
 1393 0147 3B       		.uleb128 0x3b
 1394 0148 0B       		.uleb128 0xb
 1395 0149 49       		.uleb128 0x49
 1396 014a 13       		.uleb128 0x13
 1397 014b 3F       		.uleb128 0x3f
 1398 014c 19       		.uleb128 0x19
GAS LISTING /tmp/ccLAgjRM.s 			page 26


 1399 014d 3C       		.uleb128 0x3c
 1400 014e 19       		.uleb128 0x19
 1401 014f 00       		.byte	0
 1402 0150 00       		.byte	0
 1403 0151 1B       		.uleb128 0x1b
 1404 0152 01       		.uleb128 0x1
 1405 0153 01       		.byte	0x1
 1406 0154 49       		.uleb128 0x49
 1407 0155 13       		.uleb128 0x13
 1408 0156 01       		.uleb128 0x1
 1409 0157 13       		.uleb128 0x13
 1410 0158 00       		.byte	0
 1411 0159 00       		.byte	0
 1412 015a 1C       		.uleb128 0x1c
 1413 015b 21       		.uleb128 0x21
 1414 015c 00       		.byte	0
 1415 015d 49       		.uleb128 0x49
 1416 015e 13       		.uleb128 0x13
 1417 015f 2F       		.uleb128 0x2f
 1418 0160 0B       		.uleb128 0xb
 1419 0161 00       		.byte	0
 1420 0162 00       		.byte	0
 1421 0163 1D       		.uleb128 0x1d
 1422 0164 21       		.uleb128 0x21
 1423 0165 00       		.byte	0
 1424 0166 00       		.byte	0
 1425 0167 00       		.byte	0
 1426 0168 1E       		.uleb128 0x1e
 1427 0169 34       		.uleb128 0x34
 1428 016a 00       		.byte	0
 1429 016b 03       		.uleb128 0x3
 1430 016c 08       		.uleb128 0x8
 1431 016d 3A       		.uleb128 0x3a
 1432 016e 0B       		.uleb128 0xb
 1433 016f 3B       		.uleb128 0x3b
 1434 0170 0B       		.uleb128 0xb
 1435 0171 49       		.uleb128 0x49
 1436 0172 13       		.uleb128 0x13
 1437 0173 3F       		.uleb128 0x3f
 1438 0174 19       		.uleb128 0x19
 1439 0175 3C       		.uleb128 0x3c
 1440 0176 19       		.uleb128 0x19
 1441 0177 00       		.byte	0
 1442 0178 00       		.byte	0
 1443 0179 1F       		.uleb128 0x1f
 1444 017a 34       		.uleb128 0x34
 1445 017b 00       		.byte	0
 1446 017c 03       		.uleb128 0x3
 1447 017d 0E       		.uleb128 0xe
 1448 017e 3A       		.uleb128 0x3a
 1449 017f 0B       		.uleb128 0xb
 1450 0180 3B       		.uleb128 0x3b
 1451 0181 0B       		.uleb128 0xb
 1452 0182 49       		.uleb128 0x49
 1453 0183 13       		.uleb128 0x13
 1454 0184 3F       		.uleb128 0x3f
 1455 0185 19       		.uleb128 0x19
GAS LISTING /tmp/ccLAgjRM.s 			page 27


 1456 0186 02       		.uleb128 0x2
 1457 0187 18       		.uleb128 0x18
 1458 0188 00       		.byte	0
 1459 0189 00       		.byte	0
 1460 018a 20       		.uleb128 0x20
 1461 018b 2E       		.uleb128 0x2e
 1462 018c 01       		.byte	0x1
 1463 018d 3F       		.uleb128 0x3f
 1464 018e 19       		.uleb128 0x19
 1465 018f 03       		.uleb128 0x3
 1466 0190 0E       		.uleb128 0xe
 1467 0191 3A       		.uleb128 0x3a
 1468 0192 0B       		.uleb128 0xb
 1469 0193 3B       		.uleb128 0x3b
 1470 0194 05       		.uleb128 0x5
 1471 0195 27       		.uleb128 0x27
 1472 0196 19       		.uleb128 0x19
 1473 0197 49       		.uleb128 0x49
 1474 0198 13       		.uleb128 0x13
 1475 0199 3C       		.uleb128 0x3c
 1476 019a 19       		.uleb128 0x19
 1477 019b 01       		.uleb128 0x1
 1478 019c 13       		.uleb128 0x13
 1479 019d 00       		.byte	0
 1480 019e 00       		.byte	0
 1481 019f 21       		.uleb128 0x21
 1482 01a0 2E       		.uleb128 0x2e
 1483 01a1 00       		.byte	0
 1484 01a2 3F       		.uleb128 0x3f
 1485 01a3 19       		.uleb128 0x19
 1486 01a4 03       		.uleb128 0x3
 1487 01a5 0E       		.uleb128 0xe
 1488 01a6 3A       		.uleb128 0x3a
 1489 01a7 0B       		.uleb128 0xb
 1490 01a8 3B       		.uleb128 0x3b
 1491 01a9 0B       		.uleb128 0xb
 1492 01aa 27       		.uleb128 0x27
 1493 01ab 19       		.uleb128 0x19
 1494 01ac 49       		.uleb128 0x49
 1495 01ad 13       		.uleb128 0x13
 1496 01ae 3C       		.uleb128 0x3c
 1497 01af 19       		.uleb128 0x19
 1498 01b0 00       		.byte	0
 1499 01b1 00       		.byte	0
 1500 01b2 22       		.uleb128 0x22
 1501 01b3 2E       		.uleb128 0x2e
 1502 01b4 01       		.byte	0x1
 1503 01b5 3F       		.uleb128 0x3f
 1504 01b6 19       		.uleb128 0x19
 1505 01b7 03       		.uleb128 0x3
 1506 01b8 0E       		.uleb128 0xe
 1507 01b9 3A       		.uleb128 0x3a
 1508 01ba 0B       		.uleb128 0xb
 1509 01bb 3B       		.uleb128 0x3b
 1510 01bc 0B       		.uleb128 0xb
 1511 01bd 27       		.uleb128 0x27
 1512 01be 19       		.uleb128 0x19
GAS LISTING /tmp/ccLAgjRM.s 			page 28


 1513 01bf 3C       		.uleb128 0x3c
 1514 01c0 19       		.uleb128 0x19
 1515 01c1 01       		.uleb128 0x1
 1516 01c2 13       		.uleb128 0x13
 1517 01c3 00       		.byte	0
 1518 01c4 00       		.byte	0
 1519 01c5 23       		.uleb128 0x23
 1520 01c6 2E       		.uleb128 0x2e
 1521 01c7 01       		.byte	0x1
 1522 01c8 3F       		.uleb128 0x3f
 1523 01c9 19       		.uleb128 0x19
 1524 01ca 03       		.uleb128 0x3
 1525 01cb 0E       		.uleb128 0xe
 1526 01cc 3A       		.uleb128 0x3a
 1527 01cd 0B       		.uleb128 0xb
 1528 01ce 3B       		.uleb128 0x3b
 1529 01cf 0B       		.uleb128 0xb
 1530 01d0 27       		.uleb128 0x27
 1531 01d1 19       		.uleb128 0x19
 1532 01d2 49       		.uleb128 0x49
 1533 01d3 13       		.uleb128 0x13
 1534 01d4 3C       		.uleb128 0x3c
 1535 01d5 19       		.uleb128 0x19
 1536 01d6 01       		.uleb128 0x1
 1537 01d7 13       		.uleb128 0x13
 1538 01d8 00       		.byte	0
 1539 01d9 00       		.byte	0
 1540 01da 24       		.uleb128 0x24
 1541 01db 2E       		.uleb128 0x2e
 1542 01dc 01       		.byte	0x1
 1543 01dd 3F       		.uleb128 0x3f
 1544 01de 19       		.uleb128 0x19
 1545 01df 03       		.uleb128 0x3
 1546 01e0 0E       		.uleb128 0xe
 1547 01e1 3A       		.uleb128 0x3a
 1548 01e2 0B       		.uleb128 0xb
 1549 01e3 3B       		.uleb128 0x3b
 1550 01e4 0B       		.uleb128 0xb
 1551 01e5 27       		.uleb128 0x27
 1552 01e6 19       		.uleb128 0x19
 1553 01e7 49       		.uleb128 0x49
 1554 01e8 13       		.uleb128 0x13
 1555 01e9 3C       		.uleb128 0x3c
 1556 01ea 19       		.uleb128 0x19
 1557 01eb 00       		.byte	0
 1558 01ec 00       		.byte	0
 1559 01ed 00       		.byte	0
 1560              		.section	.debug_loc,"",@progbits
 1561              	.Ldebug_loc0:
 1562              	.LLST0:
 1563 0000 3E000000 		.long	.LVL1-.Ltext0
 1564 0004 4F000000 		.long	.LVL4-1-.Ltext0
 1565 0008 0100     		.value	0x1
 1566 000a 50       		.byte	0x50
 1567 000b 5D000000 		.long	.LVL6-.Ltext0
 1568 000f 6E000000 		.long	.LVL9-1-.Ltext0
 1569 0013 0100     		.value	0x1
GAS LISTING /tmp/ccLAgjRM.s 			page 29


 1570 0015 50       		.byte	0x50
 1571 0016 7C000000 		.long	.LVL11-.Ltext0
 1572 001a 8D000000 		.long	.LVL14-1-.Ltext0
 1573 001e 0100     		.value	0x1
 1574 0020 50       		.byte	0x50
 1575 0021 00000000 		.long	0
 1576 0025 00000000 		.long	0
 1577              	.LLST1:
 1578 0029 41000000 		.long	.LVL2-.Ltext0
 1579 002d 4B000000 		.long	.LVL3-.Ltext0
 1580 0031 0100     		.value	0x1
 1581 0033 53       		.byte	0x53
 1582 0034 4B000000 		.long	.LVL3-.Ltext0
 1583 0038 4F000000 		.long	.LVL4-1-.Ltext0
 1584 003c 0200     		.value	0x2
 1585 003e 91       		.byte	0x91
 1586 003f 54       		.sleb128 -44
 1587 0040 60000000 		.long	.LVL7-.Ltext0
 1588 0044 6A000000 		.long	.LVL8-.Ltext0
 1589 0048 0100     		.value	0x1
 1590 004a 53       		.byte	0x53
 1591 004b 6A000000 		.long	.LVL8-.Ltext0
 1592 004f 6E000000 		.long	.LVL9-1-.Ltext0
 1593 0053 0200     		.value	0x2
 1594 0055 91       		.byte	0x91
 1595 0056 54       		.sleb128 -44
 1596 0057 7F000000 		.long	.LVL12-.Ltext0
 1597 005b 89000000 		.long	.LVL13-.Ltext0
 1598 005f 0100     		.value	0x1
 1599 0061 53       		.byte	0x53
 1600 0062 89000000 		.long	.LVL13-.Ltext0
 1601 0066 8D000000 		.long	.LVL14-1-.Ltext0
 1602 006a 0200     		.value	0x2
 1603 006c 91       		.byte	0x91
 1604 006d 54       		.sleb128 -44
 1605 006e 00000000 		.long	0
 1606 0072 00000000 		.long	0
 1607              		.section	.debug_aranges,"",@progbits
 1608 0000 1C000000 		.long	0x1c
 1609 0004 0200     		.value	0x2
 1610 0006 00000000 		.long	.Ldebug_info0
 1611 000a 04       		.byte	0x4
 1612 000b 00       		.byte	0
 1613 000c 0000     		.value	0
 1614 000e 0000     		.value	0
 1615 0010 00000000 		.long	.Ltext0
 1616 0014 EF000000 		.long	.Letext0-.Ltext0
 1617 0018 00000000 		.long	0
 1618 001c 00000000 		.long	0
 1619              		.section	.debug_line,"",@progbits
 1620              	.Ldebug_line0:
 1621 0000 4D010000 		.section	.debug_str,"MS",@progbits,1
 1621      02001701 
 1621      00000101 
 1621      FB0E0D00 
 1621      01010101 
 1622              	.LASF64:
GAS LISTING /tmp/ccLAgjRM.s 			page 30


 1623 0000 7466756E 		.string	"tfunc_t"
 1623      635F7400 
 1624              	.LASF37:
 1625 0008 705F6D73 		.string	"p_msg"
 1625      6700
 1626              	.LASF58:
 1627 000e 6D5F6E65 		.string	"m_next"
 1627      787400
 1628              	.LASF4:
 1629 0015 73697A65 		.string	"size_t"
 1629      5F7400
 1630              	.LASF59:
 1631 001c 7264796D 		.string	"rdymsg"
 1631      736700
 1632              	.LASF11:
 1633 0023 6C6F6E67 		.string	"long long unsigned int"
 1633      206C6F6E 
 1633      6720756E 
 1633      7369676E 
 1633      65642069 
 1634              	.LASF60:
 1635 003a 65786974 		.string	"exitcode"
 1635      636F6465 
 1635      00
 1636              	.LASF25:
 1637 0043 705F7072 		.string	"p_prio"
 1637      696F00
 1638              	.LASF6:
 1639 004a 6C6F6E67 		.string	"long long int"
 1639      206C6F6E 
 1639      6720696E 
 1639      7400
 1640              	.LASF2:
 1641 0058 7369676E 		.string	"signed char"
 1641      65642063 
 1641      68617200 
 1642              	.LASF41:
 1643 0064 705F6D70 		.string	"p_mpool"
 1643      6F6F6C00 
 1644              	.LASF12:
 1645 006c 626F6F6C 		.string	"bool_t"
 1645      5F7400
 1646              	.LASF56:
 1647 0073 6D5F7175 		.string	"m_queue"
 1647      65756500 
 1648              	.LASF81:
 1649 007b 2F686F6D 		.string	"/home/tony/ChibiOS-RT/testhal/Posix/EXT"
 1649      652F746F 
 1649      6E792F43 
 1649      68696269 
 1649      4F532D52 
 1650              	.LASF75:
 1651 00a3 74657374 		.string	"test_emit_token"
 1651      5F656D69 
 1651      745F746F 
 1651      6B656E00 
 1652              	.LASF17:
GAS LISTING /tmp/ccLAgjRM.s 			page 31


 1653 00b3 74736C69 		.string	"tslices_t"
 1653      6365735F 
 1653      7400
 1654              	.LASF1:
 1655 00bd 6C6F6E67 		.string	"long int"
 1655      20696E74 
 1655      00
 1656              	.LASF78:
 1657 00c6 63684D73 		.string	"chMsgSend"
 1657      6753656E 
 1657      6400
 1658              	.LASF15:
 1659 00d0 74737461 		.string	"tstate_t"
 1659      74655F74 
 1659      00
 1660              	.LASF27:
 1661 00d9 705F6E65 		.string	"p_newer"
 1661      77657200 
 1662              	.LASF51:
 1663 00e1 725F6E65 		.string	"r_newer"
 1663      77657200 
 1664              	.LASF0:
 1665 00e9 756E7369 		.string	"unsigned int"
 1665      676E6564 
 1665      20696E74 
 1665      00
 1666              	.LASF36:
 1667 00f6 705F6D73 		.string	"p_msgqueue"
 1667      67717565 
 1667      756500
 1668              	.LASF68:
 1669 0101 74656172 		.string	"teardown"
 1669      646F776E 
 1669      00
 1670              	.LASF66:
 1671 010a 6E616D65 		.string	"name"
 1671      00
 1672              	.LASF47:
 1673 010f 636F6E74 		.string	"context"
 1673      65787400 
 1674              	.LASF9:
 1675 0117 73686F72 		.string	"short unsigned int"
 1675      7420756E 
 1675      7369676E 
 1675      65642069 
 1675      6E7400
 1676              	.LASF19:
 1677 012a 6D73675F 		.string	"msg_t"
 1677      7400
 1678              	.LASF14:
 1679 0130 746D6F64 		.string	"tmode_t"
 1679      655F7400 
 1680              	.LASF43:
 1681 0138 54687265 		.string	"ThreadsList"
 1681      6164734C 
 1681      69737400 
 1682              	.LASF20:
GAS LISTING /tmp/ccLAgjRM.s 			page 32


 1683 0144 6576656E 		.string	"eventmask_t"
 1683      746D6173 
 1683      6B5F7400 
 1684              	.LASF55:
 1685 0150 4D757465 		.string	"Mutex"
 1685      7800
 1686              	.LASF76:
 1687 0156 63685468 		.string	"chThdCreateStatic"
 1687      64437265 
 1687      61746553 
 1687      74617469 
 1687      6300
 1688              	.LASF73:
 1689 0168 70617474 		.string	"patternmsg"
 1689      65726E6D 
 1689      736700
 1690              	.LASF44:
 1691 0173 73697A65 		.string	"sizetype"
 1691      74797065 
 1691      00
 1692              	.LASF28:
 1693 017c 705F6F6C 		.string	"p_older"
 1693      64657200 
 1694              	.LASF50:
 1695 0184 725F6374 		.string	"r_ctx"
 1695      7800
 1696              	.LASF42:
 1697 018a 54687265 		.string	"ThreadsQueue"
 1697      61647351 
 1697      75657565 
 1697      00
 1698              	.LASF67:
 1699 0197 73657475 		.string	"setup"
 1699      7000
 1700              	.LASF77:
 1701 019d 5F746573 		.string	"_test_assert_sequence"
 1701      745F6173 
 1701      73657274 
 1701      5F736571 
 1701      75656E63 
 1702              	.LASF53:
 1703 01b3 725F6375 		.string	"r_current"
 1703      7272656E 
 1703      7400
 1704              	.LASF52:
 1705 01bd 725F6F6C 		.string	"r_older"
 1705      64657200 
 1706              	.LASF80:
 1707 01c5 2E2E2F2E 		.string	"../../../test/testmsg.c"
 1707      2E2F2E2E 
 1707      2F746573 
 1707      742F7465 
 1707      73746D73 
 1708              	.LASF16:
 1709 01dd 74726566 		.string	"trefs_t"
 1709      735F7400 
 1710              	.LASF24:
GAS LISTING /tmp/ccLAgjRM.s 			page 33


 1711 01e5 705F7072 		.string	"p_prev"
 1711      657600
 1712              	.LASF69:
 1713 01ec 65786563 		.string	"execute"
 1713      75746500 
 1714              	.LASF18:
 1715 01f4 74707269 		.string	"tprio_t"
 1715      6F5F7400 
 1716              	.LASF83:
 1717 01fc 74687265 		.string	"thread"
 1717      616400
 1718              	.LASF13:
 1719 0203 5F426F6F 		.string	"_Bool"
 1719      6C00
 1720              	.LASF5:
 1721 0209 696E7433 		.string	"int32_t"
 1721      325F7400 
 1722              	.LASF8:
 1723 0211 756E7369 		.string	"unsigned char"
 1723      676E6564 
 1723      20636861 
 1723      7200
 1724              	.LASF79:
 1725 021f 474E5520 		.string	"GNU C 4.8.2 -m32 -mtune=generic -march=i686 -ggdb -O2 -fomit-frame-pointer -fstack-protec
 1725      4320342E 
 1725      382E3220 
 1725      2D6D3332 
 1725      202D6D74 
 1726              	.LASF39:
 1727 027c 705F6D74 		.string	"p_mtxlist"
 1727      786C6973 
 1727      7400
 1728              	.LASF3:
 1729 0286 73686F72 		.string	"short int"
 1729      7420696E 
 1729      7400
 1730              	.LASF30:
 1731 0290 705F7374 		.string	"p_state"
 1731      61746500 
 1732              	.LASF33:
 1733 0298 705F7072 		.string	"p_preempt"
 1733      65656D70 
 1733      7400
 1734              	.LASF71:
 1735 02a2 74687265 		.string	"threads"
 1735      61647300 
 1736              	.LASF49:
 1737 02aa 725F7072 		.string	"r_prio"
 1737      696F00
 1738              	.LASF72:
 1739 02b1 74657374 		.string	"testmsg1"
 1739      6D736731 
 1739      00
 1740              	.LASF62:
 1741 02ba 65776D61 		.string	"ewmask"
 1741      736B00
 1742              	.LASF23:
GAS LISTING /tmp/ccLAgjRM.s 			page 34


 1743 02c1 705F6E65 		.string	"p_next"
 1743      787400
 1744              	.LASF31:
 1745 02c8 705F666C 		.string	"p_flags"
 1745      61677300 
 1746              	.LASF22:
 1747 02d0 54687265 		.string	"Thread"
 1747      616400
 1748              	.LASF74:
 1749 02d7 63684D73 		.string	"chMsgRelease"
 1749      6752656C 
 1749      65617365 
 1749      00
 1750              	.LASF65:
 1751 02e4 74657374 		.string	"testcase"
 1751      63617365 
 1751      00
 1752              	.LASF38:
 1753 02ed 705F6570 		.string	"p_epending"
 1753      656E6469 
 1753      6E6700
 1754              	.LASF10:
 1755 02f8 75696E74 		.string	"uint32_t"
 1755      33325F74 
 1755      00
 1756              	.LASF48:
 1757 0301 725F7175 		.string	"r_queue"
 1757      65756500 
 1758              	.LASF63:
 1759 0309 63686172 		.string	"char"
 1759      00
 1760              	.LASF21:
 1761 030e 73797374 		.string	"systime_t"
 1761      696D655F 
 1761      7400
 1762              	.LASF40:
 1763 0318 705F7265 		.string	"p_realprio"
 1763      616C7072 
 1763      696F00
 1764              	.LASF34:
 1765 0323 705F7469 		.string	"p_time"
 1765      6D6500
 1766              	.LASF46:
 1767 032a 696E7463 		.string	"intctx"
 1767      747800
 1768              	.LASF84:
 1769 0331 63684D73 		.string	"chMsgWait"
 1769      67576169 
 1769      7400
 1770              	.LASF32:
 1771 033b 705F7265 		.string	"p_refs"
 1771      667300
 1772              	.LASF54:
 1773 0342 52656164 		.string	"ReadyList"
 1773      794C6973 
 1773      7400
 1774              	.LASF70:
GAS LISTING /tmp/ccLAgjRM.s 			page 35


 1775 034c 726C6973 		.string	"rlist"
 1775      7400
 1776              	.LASF7:
 1777 0352 75696E74 		.string	"uint8_t"
 1777      385F7400 
 1778              	.LASF82:
 1779 035a 6D736731 		.string	"msg1_execute"
 1779      5F657865 
 1779      63757465 
 1779      00
 1780              	.LASF61:
 1781 0367 77746F62 		.string	"wtobjp"
 1781      6A7000
 1782              	.LASF29:
 1783 036e 705F6E61 		.string	"p_name"
 1783      6D6500
 1784              	.LASF45:
 1785 0375 72656778 		.string	"regx86"
 1785      383600
 1786              	.LASF57:
 1787 037c 6D5F6F77 		.string	"m_owner"
 1787      6E657200 
 1788              	.LASF26:
 1789 0384 705F6374 		.string	"p_ctx"
 1789      7800
 1790              	.LASF35:
 1791 038a 705F7761 		.string	"p_waiting"
 1791      6974696E 
 1791      6700
 1792              		.ident	"GCC: (Ubuntu 4.8.2-19ubuntu1) 4.8.2"
 1793              		.section	.note.GNU-stack,"",@progbits
GAS LISTING /tmp/ccLAgjRM.s 			page 36


DEFINED SYMBOLS
                            *ABS*:0000000000000000 testmsg.c
     /tmp/ccLAgjRM.s:63     .text:0000000000000000 msg1_execute
     /tmp/ccLAgjRM.s:160    .text:00000000000000b0 thread
     /tmp/ccLAgjRM.s:203    .rodata:0000000000000000 patternmsg
     /tmp/ccLAgjRM.s:214    .rodata:0000000000000008 testmsg1

UNDEFINED SYMBOLS
rlist
wa
chThdCreateStatic
threads
chMsgWait
chMsgRelease
test_emit_token
_test_assert_sequence
chMsgSend
