GAS LISTING /tmp/ccWepkvC.s 			page 1


   1              		.file	"testthd.c"
   2              	# GNU C (Ubuntu 4.8.2-19ubuntu1) version 4.8.2 (x86_64-linux-gnu)
   3              	#	compiled by GNU C version 4.8.2, GMP version 5.1.3, MPFR version 3.1.2-p3, MPC version 1.0.1
   4              	# GGC heuristics: --param ggc-min-expand=97 --param ggc-min-heapsize=126309
   5              	# options passed:  -I . -I ../../../os/ports/GCC/SIMIA32
   6              	# -I ../../../os/kernel/include -I ../../../test -I ../../../os/hal/include
   7              	# -I ../../../os/hal/platforms/Posix -I ../../../boards/simulator
   8              	# -I ../../../os/various -imultilib 32 -imultiarch i386-linux-gnu
   9              	# -MD ../../../test/testthd.d -MF .dep/testthd.o.d -MP
  10              	# -MQ ../../../test/testthd.o -D SIMULATOR -D SHELL_USE_IPRINTF=FALSE
  11              	# ../../../test/testthd.c -m32 -mtune=generic -march=i686
  12              	# -auxbase-strip ../../../test/testthd.o -ggdb -O2 -Wall -Wextra
  13              	# -Wstrict-prototypes -fomit-frame-pointer -fverbose-asm -fstack-protector
  14              	# -Wformat -Wformat-security
  15              	# options enabled:  -faggressive-loop-optimizations
  16              	# -fasynchronous-unwind-tables -fauto-inc-dec -fbranch-count-reg
  17              	# -fcaller-saves -fcombine-stack-adjustments -fcommon -fcompare-elim
  18              	# -fcprop-registers -fcrossjumping -fcse-follow-jumps -fdefer-pop
  19              	# -fdelete-null-pointer-checks -fdevirtualize -fdwarf2-cfi-asm
  20              	# -fearly-inlining -feliminate-unused-debug-types -fexpensive-optimizations
  21              	# -fforward-propagate -ffunction-cse -fgcse -fgcse-lm -fgnu-runtime
  22              	# -fguess-branch-probability -fhoist-adjacent-loads -fident -fif-conversion
  23              	# -fif-conversion2 -findirect-inlining -finline -finline-atomics
  24              	# -finline-functions-called-once -finline-small-functions -fipa-cp
  25              	# -fipa-profile -fipa-pure-const -fipa-reference -fipa-sra
  26              	# -fira-hoist-pressure -fira-share-save-slots -fira-share-spill-slots
  27              	# -fivopts -fkeep-static-consts -fleading-underscore -fmath-errno
  28              	# -fmerge-constants -fmerge-debug-strings -fmove-loop-invariants
  29              	# -fomit-frame-pointer -foptimize-register-move -foptimize-sibling-calls
  30              	# -foptimize-strlen -fpartial-inlining -fpcc-struct-return -fpeephole
  31              	# -fpeephole2 -fprefetch-loop-arrays -free -fregmove -freorder-blocks
  32              	# -freorder-functions -frerun-cse-after-loop
  33              	# -fsched-critical-path-heuristic -fsched-dep-count-heuristic
  34              	# -fsched-group-heuristic -fsched-interblock -fsched-last-insn-heuristic
  35              	# -fsched-rank-heuristic -fsched-spec -fsched-spec-insn-heuristic
  36              	# -fsched-stalled-insns-dep -fschedule-insns2 -fshow-column -fshrink-wrap
  37              	# -fsigned-zeros -fsplit-ivs-in-unroller -fsplit-wide-types
  38              	# -fstack-protector -fstrict-aliasing -fstrict-overflow
  39              	# -fstrict-volatile-bitfields -fsync-libcalls -fthread-jumps
  40              	# -ftoplevel-reorder -ftrapping-math -ftree-bit-ccp -ftree-builtin-call-dce
  41              	# -ftree-ccp -ftree-ch -ftree-coalesce-vars -ftree-copy-prop
  42              	# -ftree-copyrename -ftree-cselim -ftree-dce -ftree-dominator-opts
  43              	# -ftree-dse -ftree-forwprop -ftree-fre -ftree-loop-if-convert
  44              	# -ftree-loop-im -ftree-loop-ivcanon -ftree-loop-optimize
  45              	# -ftree-parallelize-loops= -ftree-phiprop -ftree-pre -ftree-pta
  46              	# -ftree-reassoc -ftree-scev-cprop -ftree-sink -ftree-slp-vectorize
  47              	# -ftree-slsr -ftree-sra -ftree-switch-conversion -ftree-tail-merge
  48              	# -ftree-ter -ftree-vect-loop-version -ftree-vrp -funit-at-a-time
  49              	# -funwind-tables -fvar-tracking -fvar-tracking-assignments -fverbose-asm
  50              	# -fzero-initialized-in-bss -m32 -m80387 -m96bit-long-double
  51              	# -maccumulate-outgoing-args -malign-stringops -mfancy-math-387
  52              	# -mfp-ret-in-387 -mglibc -mieee-fp -mlong-double-80 -mno-red-zone
  53              	# -mno-sse4 -mpush-args -msahf -mtls-direct-seg-refs
  54              	
  55              		.text
  56              	.Ltext0:
  57              		.section	.rodata.str1.1,"aMS",@progbits,1
GAS LISTING /tmp/ccWepkvC.s 			page 2


  58              	.LC0:
  59 0000 4500     		.string	"E"
  60              	.LC1:
  61 0002 4400     		.string	"D"
  62              	.LC2:
  63 0004 4300     		.string	"C"
  64              	.LC3:
  65 0006 4200     		.string	"B"
  66              	.LC4:
  67 0008 4100     		.string	"A"
  68              	.LC5:
  69 000a 41424344 		.string	"ABCDE"
  69      4500
  70              		.text
  71              		.p2align 4,,15
  72              		.type	thd1_execute, @function
  73              	thd1_execute:
  74              	.LFB8:
  75              		.file 1 "../../../test/testthd.c"
  76              		.loc 1 66 0
  77              		.cfi_startproc
  78 0000 83EC2C   		subl	$44, %esp	#,
  79              		.cfi_def_cfa_offset 48
  80              		.loc 1 68 0
  81 0003 A1180000 		movl	rlist+24, %eax	# rlist.r_current, rlist.r_current
  81      00
  82 0008 C7442410 		movl	$.LC0, 16(%esp)	#,
  82      00000000 
  83 0010 C744240C 		movl	$thread, 12(%esp)	#,
  83      40010000 
  84 0018 8B4008   		movl	8(%eax), %eax	# _2->p_prio, _2->p_prio
  85 001b C7442404 		movl	$17008, 4(%esp)	#,
  85      70420000 
  86 0023 83E805   		subl	$5, %eax	#, D.2206
  87 0026 89442408 		movl	%eax, 8(%esp)	# D.2206,
  88 002a A1000000 		movl	wa, %eax	# wa, wa
  88      00
  89 002f 890424   		movl	%eax, (%esp)	# wa,
  90 0032 E8FCFFFF 		call	chThdCreateStatic	#
  90      FF
  91              	.LVL0:
  92              		.loc 1 69 0
  93 0037 C7442410 		movl	$.LC1, 16(%esp)	#,
  93      02000000 
  94 003f C744240C 		movl	$thread, 12(%esp)	#,
  94      40010000 
  95              		.loc 1 68 0
  96 0047 A3000000 		movl	%eax, threads	# D.2205, threads
  96      00
  97              		.loc 1 69 0
  98 004c A1180000 		movl	rlist+24, %eax	# rlist.r_current, rlist.r_current
  98      00
  99 0051 8B4008   		movl	8(%eax), %eax	# _9->p_prio, _9->p_prio
 100 0054 C7442404 		movl	$17008, 4(%esp)	#,
 100      70420000 
 101 005c 83E804   		subl	$4, %eax	#, D.2206
 102 005f 89442408 		movl	%eax, 8(%esp)	# D.2206,
GAS LISTING /tmp/ccWepkvC.s 			page 3


 103 0063 A1040000 		movl	wa+4, %eax	# wa, wa
 103      00
 104 0068 890424   		movl	%eax, (%esp)	# wa,
 105 006b E8FCFFFF 		call	chThdCreateStatic	#
 105      FF
 106              	.LVL1:
 107              		.loc 1 70 0
 108 0070 C7442410 		movl	$.LC2, 16(%esp)	#,
 108      04000000 
 109 0078 C744240C 		movl	$thread, 12(%esp)	#,
 109      40010000 
 110              		.loc 1 69 0
 111 0080 A3040000 		movl	%eax, threads+4	# D.2205, threads
 111      00
 112              		.loc 1 70 0
 113 0085 A1180000 		movl	rlist+24, %eax	# rlist.r_current, rlist.r_current
 113      00
 114 008a 8B4008   		movl	8(%eax), %eax	# _16->p_prio, _16->p_prio
 115 008d C7442404 		movl	$17008, 4(%esp)	#,
 115      70420000 
 116 0095 83E803   		subl	$3, %eax	#, D.2206
 117 0098 89442408 		movl	%eax, 8(%esp)	# D.2206,
 118 009c A1080000 		movl	wa+8, %eax	# wa, wa
 118      00
 119 00a1 890424   		movl	%eax, (%esp)	# wa,
 120 00a4 E8FCFFFF 		call	chThdCreateStatic	#
 120      FF
 121              	.LVL2:
 122              		.loc 1 71 0
 123 00a9 C7442410 		movl	$.LC3, 16(%esp)	#,
 123      06000000 
 124 00b1 C744240C 		movl	$thread, 12(%esp)	#,
 124      40010000 
 125              		.loc 1 70 0
 126 00b9 A3080000 		movl	%eax, threads+8	# D.2205, threads
 126      00
 127              		.loc 1 71 0
 128 00be A1180000 		movl	rlist+24, %eax	# rlist.r_current, rlist.r_current
 128      00
 129 00c3 8B4008   		movl	8(%eax), %eax	# _23->p_prio, _23->p_prio
 130 00c6 C7442404 		movl	$17008, 4(%esp)	#,
 130      70420000 
 131 00ce 83E802   		subl	$2, %eax	#, D.2206
 132 00d1 89442408 		movl	%eax, 8(%esp)	# D.2206,
 133 00d5 A10C0000 		movl	wa+12, %eax	# wa, wa
 133      00
 134 00da 890424   		movl	%eax, (%esp)	# wa,
 135 00dd E8FCFFFF 		call	chThdCreateStatic	#
 135      FF
 136              	.LVL3:
 137              		.loc 1 72 0
 138 00e2 C7442410 		movl	$.LC4, 16(%esp)	#,
 138      08000000 
 139 00ea C744240C 		movl	$thread, 12(%esp)	#,
 139      40010000 
 140              		.loc 1 71 0
 141 00f2 A30C0000 		movl	%eax, threads+12	# D.2205, threads
GAS LISTING /tmp/ccWepkvC.s 			page 4


 141      00
 142              		.loc 1 72 0
 143 00f7 A1180000 		movl	rlist+24, %eax	# rlist.r_current, rlist.r_current
 143      00
 144 00fc 8B4008   		movl	8(%eax), %eax	# _30->p_prio, _30->p_prio
 145 00ff C7442404 		movl	$17008, 4(%esp)	#,
 145      70420000 
 146 0107 83E801   		subl	$1, %eax	#, D.2206
 147 010a 89442408 		movl	%eax, 8(%esp)	# D.2206,
 148 010e A1100000 		movl	wa+16, %eax	# wa, wa
 148      00
 149 0113 890424   		movl	%eax, (%esp)	# wa,
 150 0116 E8FCFFFF 		call	chThdCreateStatic	#
 150      FF
 151              	.LVL4:
 152 011b A3100000 		movl	%eax, threads+16	# D.2205, threads
 152      00
 153              		.loc 1 73 0
 154 0120 E8FCFFFF 		call	test_wait_threads	#
 154      FF
 155              	.LVL5:
 156              		.loc 1 74 0
 157 0125 C7442404 		movl	$.LC5, 4(%esp)	#,
 157      0A000000 
 158 012d C7042401 		movl	$1, (%esp)	#,
 158      000000
 159 0134 E8FCFFFF 		call	_test_assert_sequence	#
 159      FF
 160              	.LVL6:
 161              		.loc 1 75 0
 162 0139 83C42C   		addl	$44, %esp	#,
 163              		.cfi_def_cfa_offset 4
 164 013c C3       		ret
 165              		.cfi_endproc
 166              	.LFE8:
 167              		.size	thd1_execute, .-thd1_execute
 168 013d 8D7600   		.p2align 4,,15
 169              		.type	thread, @function
 170              	thread:
 171              	.LFB7:
 172              		.loc 1 60 0
 173              		.cfi_startproc
 174              	.LVL7:
 175 0140 83EC1C   		subl	$28, %esp	#,
 176              		.cfi_def_cfa_offset 32
 177              		.loc 1 62 0
 178 0143 8B442420 		movl	32(%esp), %eax	# p, p
 179 0147 0FBE00   		movsbl	(%eax), %eax	# MEM[(char *)p_2(D)], MEM[(char *)p_2(D)]
 180 014a 890424   		movl	%eax, (%esp)	# MEM[(char *)p_2(D)],
 181 014d E8FCFFFF 		call	test_emit_token	#
 181      FF
 182              	.LVL8:
 183              		.loc 1 64 0
 184 0152 31C0     		xorl	%eax, %eax	#
 185 0154 83C41C   		addl	$28, %esp	#,
 186              		.cfi_def_cfa_offset 4
 187 0157 C3       		ret
GAS LISTING /tmp/ccWepkvC.s 			page 5


 188              		.cfi_endproc
 189              	.LFE7:
 190              		.size	thread, .-thread
 191 0158 908DB426 		.p2align 4,,15
 191      00000000 
 192              		.type	thd2_execute, @function
 193              	thd2_execute:
 194              	.LFB9:
 195              		.loc 1 94 0
 196              		.cfi_startproc
 197 0160 83EC2C   		subl	$44, %esp	#,
 198              		.cfi_def_cfa_offset 48
 199              		.loc 1 96 0
 200 0163 A1180000 		movl	rlist+24, %eax	# rlist.r_current, rlist.r_current
 200      00
 201 0168 C7442410 		movl	$.LC1, 16(%esp)	#,
 201      02000000 
 202 0170 C744240C 		movl	$thread, 12(%esp)	#,
 202      40010000 
 203 0178 8B4008   		movl	8(%eax), %eax	# _2->p_prio, _2->p_prio
 204 017b C7442404 		movl	$17008, 4(%esp)	#,
 204      70420000 
 205 0183 83E804   		subl	$4, %eax	#, D.2221
 206 0186 89442408 		movl	%eax, 8(%esp)	# D.2221,
 207 018a A1040000 		movl	wa+4, %eax	# wa, wa
 207      00
 208 018f 890424   		movl	%eax, (%esp)	# wa,
 209 0192 E8FCFFFF 		call	chThdCreateStatic	#
 209      FF
 210              	.LVL9:
 211              		.loc 1 97 0
 212 0197 C7442410 		movl	$.LC0, 16(%esp)	#,
 212      00000000 
 213 019f C744240C 		movl	$thread, 12(%esp)	#,
 213      40010000 
 214              		.loc 1 96 0
 215 01a7 A3040000 		movl	%eax, threads+4	# D.2220, threads
 215      00
 216              		.loc 1 97 0
 217 01ac A1180000 		movl	rlist+24, %eax	# rlist.r_current, rlist.r_current
 217      00
 218 01b1 8B4008   		movl	8(%eax), %eax	# _9->p_prio, _9->p_prio
 219 01b4 C7442404 		movl	$17008, 4(%esp)	#,
 219      70420000 
 220 01bc 83E805   		subl	$5, %eax	#, D.2221
 221 01bf 89442408 		movl	%eax, 8(%esp)	# D.2221,
 222 01c3 A1000000 		movl	wa, %eax	# wa, wa
 222      00
 223 01c8 890424   		movl	%eax, (%esp)	# wa,
 224 01cb E8FCFFFF 		call	chThdCreateStatic	#
 224      FF
 225              	.LVL10:
 226              		.loc 1 98 0
 227 01d0 C7442410 		movl	$.LC4, 16(%esp)	#,
 227      08000000 
 228 01d8 C744240C 		movl	$thread, 12(%esp)	#,
 228      40010000 
GAS LISTING /tmp/ccWepkvC.s 			page 6


 229              		.loc 1 97 0
 230 01e0 A3000000 		movl	%eax, threads	# D.2220, threads
 230      00
 231              		.loc 1 98 0
 232 01e5 A1180000 		movl	rlist+24, %eax	# rlist.r_current, rlist.r_current
 232      00
 233 01ea 8B4008   		movl	8(%eax), %eax	# _16->p_prio, _16->p_prio
 234 01ed C7442404 		movl	$17008, 4(%esp)	#,
 234      70420000 
 235 01f5 83E801   		subl	$1, %eax	#, D.2221
 236 01f8 89442408 		movl	%eax, 8(%esp)	# D.2221,
 237 01fc A1100000 		movl	wa+16, %eax	# wa, wa
 237      00
 238 0201 890424   		movl	%eax, (%esp)	# wa,
 239 0204 E8FCFFFF 		call	chThdCreateStatic	#
 239      FF
 240              	.LVL11:
 241              		.loc 1 99 0
 242 0209 C7442410 		movl	$.LC3, 16(%esp)	#,
 242      06000000 
 243 0211 C744240C 		movl	$thread, 12(%esp)	#,
 243      40010000 
 244              		.loc 1 98 0
 245 0219 A3100000 		movl	%eax, threads+16	# D.2220, threads
 245      00
 246              		.loc 1 99 0
 247 021e A1180000 		movl	rlist+24, %eax	# rlist.r_current, rlist.r_current
 247      00
 248 0223 8B4008   		movl	8(%eax), %eax	# _23->p_prio, _23->p_prio
 249 0226 C7442404 		movl	$17008, 4(%esp)	#,
 249      70420000 
 250 022e 83E802   		subl	$2, %eax	#, D.2221
 251 0231 89442408 		movl	%eax, 8(%esp)	# D.2221,
 252 0235 A10C0000 		movl	wa+12, %eax	# wa, wa
 252      00
 253 023a 890424   		movl	%eax, (%esp)	# wa,
 254 023d E8FCFFFF 		call	chThdCreateStatic	#
 254      FF
 255              	.LVL12:
 256 0242 A30C0000 		movl	%eax, threads+12	# D.2220, threads
 256      00
 257              		.loc 1 101 0
 258              	#APP
 259              	# 101 "../../../test/testthd.c" 1
   1              	/*
   2              	    ChibiOS/RT - Copyright (C) 2006-2013 Giovanni Di Sirio
   3              	
   4              	    Licensed under the Apache License, Version 2.0 (the "License");
   5              	    you may not use this file except in compliance with the License.
   6              	    You may obtain a copy of the License at
   7              	
   8              	        http://www.apache.org/licenses/LICENSE-2.0
   9              	
  10              	    Unless required by applicable law or agreed to in writing, software
  11              	    distributed under the License is distributed on an "AS IS" BASIS,
  12              	    WITHOUT WARRANTIES OR CONDITIONS OF ANY KIND, either express or implied.
  13              	    See the License for the specific language governing permissions and
GAS LISTING /tmp/ccWepkvC.s 			page 7


  14              	    limitations under the License.
  15              	*/
  16              	
  17              	#include "ch.h"
  18              	#include "test.h"
  19              	
  20              	/**
  21              	 * @page test_threads Threads and Scheduler test
  22              	 *
  23              	 * File: @ref testthd.c
  24              	 *
  25              	 * <h2>Description</h2>
  26              	 * This module implements the test sequence for the @ref scheduler,
  27              	 * @ref threads and @ref time subsystems.<br>
  28              	 * Note that the tests on those subsystems are formally required but most of
  29              	 * their functionality is already demonstrated because the test suite itself
  30              	 * depends on them, anyway double check is good.
  31              	 *
  32              	 * <h2>Objective</h2>
  33              	 * Objective of the test module is to cover 100% of the subsystems code.
  34              	 *
  35              	 * <h2>Preconditions</h2>
  36              	 * None.
  37              	 *
  38              	 * <h2>Test Cases</h2>
  39              	 * - @subpage test_threads_001
  40              	 * - @subpage test_threads_002
  41              	 * - @subpage test_threads_003
  42              	 * - @subpage test_threads_004
  43              	 * .
  44              	 * @file testthd.c
  45              	 * @brief Threads and Scheduler test source file
  46              	 * @file testthd.h
  47              	 * @brief Threads and Scheduler test header file
  48              	 */
  49              	
  50              	/**
  51              	 * @page test_threads_001 Ready List functionality #1
  52              	 *
  53              	 * <h2>Description</h2>
  54              	 * Five threads, with increasing priority, are enqueued in the ready list
  55              	 * and atomically executed.<br>
  56              	 * The test expects the threads to perform their operations in increasing
  57              	 * priority order regardless of the initial order.
  58              	 */
  59              	
  60              	static msg_t thread(void *p) {
  61              	
  62              	  test_emit_token(*(char *)p);
  63              	  return 0;
  64              	}
  65              	
  66              	static void thd1_execute(void) {
  67              	
  68              	  threads[0] = chThdCreateStatic(wa[0], WA_SIZE, chThdGetPriority()-5, thread, "E");
  69              	  threads[1] = chThdCreateStatic(wa[1], WA_SIZE, chThdGetPriority()-4, thread, "D");
  70              	  threads[2] = chThdCreateStatic(wa[2], WA_SIZE, chThdGetPriority()-3, thread, "C");
GAS LISTING /tmp/ccWepkvC.s 			page 8


  71              	  threads[3] = chThdCreateStatic(wa[3], WA_SIZE, chThdGetPriority()-2, thread, "B");
  72              	  threads[4] = chThdCreateStatic(wa[4], WA_SIZE, chThdGetPriority()-1, thread, "A");
  73              	  test_wait_threads();
  74              	  test_assert_sequence(1, "ABCDE");
  75              	}
  76              	
  77              	ROMCONST struct testcase testthd1 = {
  78              	  "Threads, enqueuing test #1",
  79              	  NULL,
  80              	  NULL,
  81              	  thd1_execute
  82              	};
  83              	
  84              	/**
  85              	 * @page test_threads_002 Ready List functionality #2
  86              	 *
  87              	 * <h2>Description</h2>
  88              	 * Five threads, with pseudo-random priority, are enqueued in the ready list
  89              	 * and atomically executed.<br>
  90              	 * The test expects the threads to perform their operations in increasing
  91              	 * priority order regardless of the initial order.
  92              	 */
  93              	
  94              	static void thd2_execute(void) {
  95              	
  96              	  threads[1] = chThdCreateStatic(wa[1], WA_SIZE, chThdGetPriority()-4, thread, "D");
  97              	  threads[0] = chThdCreateStatic(wa[0], WA_SIZE, chThdGetPriority()-5, thread, "E");
  98              	  threads[4] = chThdCreateStatic(wa[4], WA_SIZE, chThdGetPriority()-1, thread, "A");
  99              	  threads[3] = chThdCreateStatic(wa[3], WA_SIZE, chThdGetPriority()-2, thread, "B");
 100              	  /* Done this way for coverage of chThdCreateI() and chThdResume().*/
 101 0247 90       	  chSysLock();
 102              	  threads[2] = chThdCreateI(wa[2], WA_SIZE, chThdGetPriority()-3, thread, "C");
 260              		nop
 261              	# 0 "" 2
 262              		.loc 1 102 0
 263              	#NO_APP
 264 0248 A1180000 		movl	rlist+24, %eax	# rlist.r_current, rlist.r_current
 264      00
 265 024d C7442410 		movl	$.LC2, 16(%esp)	#,
 265      04000000 
 266 0255 C744240C 		movl	$thread, 12(%esp)	#,
 266      40010000 
 267 025d 8B4008   		movl	8(%eax), %eax	# _30->p_prio, _30->p_prio
 268 0260 C7442404 		movl	$17008, 4(%esp)	#,
 268      70420000 
 269 0268 83E803   		subl	$3, %eax	#, D.2221
 270 026b 89442408 		movl	%eax, 8(%esp)	# D.2221,
 271 026f A1080000 		movl	wa+8, %eax	# wa, wa
 271      00
 272 0274 890424   		movl	%eax, (%esp)	# wa,
 273 0277 E8FCFFFF 		call	chThdCreateI	#
 273      FF
 274              	.LVL13:
 275 027c A3080000 		movl	%eax, threads+8	# D.2220, threads
 275      00
 276              		.loc 1 103 0
 277              	#APP
GAS LISTING /tmp/ccWepkvC.s 			page 9


 278              	# 103 "../../../test/testthd.c" 1
 103 0281 90       	  chSysUnlock();
 104              	  chThdResume(threads[2]);
 279              		nop
 280              	# 0 "" 2
 281              		.loc 1 104 0
 282              	#NO_APP
 283 0282 890424   		movl	%eax, (%esp)	# D.2220,
 284 0285 E8FCFFFF 		call	chThdResume	#
 284      FF
 285              	.LVL14:
 286              		.loc 1 105 0
 287 028a E8FCFFFF 		call	test_wait_threads	#
 287      FF
 288              	.LVL15:
 289              		.loc 1 106 0
 290 028f C7442404 		movl	$.LC5, 4(%esp)	#,
 290      0A000000 
 291 0297 C7042401 		movl	$1, (%esp)	#,
 291      000000
 292 029e E8FCFFFF 		call	_test_assert_sequence	#
 292      FF
 293              	.LVL16:
 294              		.loc 1 107 0
 295 02a3 83C42C   		addl	$44, %esp	#,
 296              		.cfi_def_cfa_offset 4
 297 02a6 C3       		ret
 298              		.cfi_endproc
 299              	.LFE9:
 300              		.size	thd2_execute, .-thd2_execute
 301 02a7 89F68DBC 		.p2align 4,,15
 301      27000000 
 301      00
 302              		.type	thd3_execute, @function
 303              	thd3_execute:
 304              	.LFB10:
 305              		.loc 1 126 0
 306              		.cfi_startproc
 307 02b0 57       		pushl	%edi	#
 308              		.cfi_def_cfa_offset 8
 309              		.cfi_offset 7, -8
 310 02b1 56       		pushl	%esi	#
 311              		.cfi_def_cfa_offset 12
 312              		.cfi_offset 6, -12
 313 02b2 53       		pushl	%ebx	#
 314              		.cfi_def_cfa_offset 16
 315              		.cfi_offset 3, -16
 316 02b3 83EC10   		subl	$16, %esp	#,
 317              		.cfi_def_cfa_offset 32
 318              		.loc 1 129 0
 319 02b6 A1180000 		movl	rlist+24, %eax	# rlist.r_current, rlist.r_current
 319      00
 320 02bb 8B5808   		movl	8(%eax), %ebx	# _3->p_prio, prio
 321              	.LVL17:
 322              		.loc 1 130 0
 323 02be 8D7301   		leal	1(%ebx), %esi	#, D.2226
 324 02c1 893424   		movl	%esi, (%esp)	# D.2226,
GAS LISTING /tmp/ccWepkvC.s 			page 10


 325 02c4 E8FCFFFF 		call	chThdSetPriority	#
 325      FF
 326              	.LVL18:
 327              		.loc 1 131 0
 328 02c9 C7042401 		movl	$1, (%esp)	#,
 328      000000
 329              		.loc 1 130 0
 330 02d0 89C7     		movl	%eax, %edi	#, p1
 331              	.LVL19:
 332              		.loc 1 131 0
 333 02d2 31C0     		xorl	%eax, %eax	# D.2227
 334              	.LVL20:
 335 02d4 39DF     		cmpl	%ebx, %edi	# prio, p1
 336 02d6 0F94C0   		sete	%al	#, D.2227
 337 02d9 89442404 		movl	%eax, 4(%esp)	# D.2227,
 338 02dd E8FCFFFF 		call	_test_assert	#
 338      FF
 339              	.LVL21:
 340 02e2 84C0     		testb	%al, %al	# D.2227
 341 02e4 740A     		je	.L13	#,
 342              	.LVL22:
 343              	.L7:
 344              		.loc 1 172 0
 345 02e6 83C410   		addl	$16, %esp	#,
 346              		.cfi_remember_state
 347              		.cfi_def_cfa_offset 16
 348 02e9 5B       		popl	%ebx	#
 349              		.cfi_restore 3
 350              		.cfi_def_cfa_offset 12
 351              	.LVL23:
 352 02ea 5E       		popl	%esi	#
 353              		.cfi_restore 6
 354              		.cfi_def_cfa_offset 8
 355              	.LVL24:
 356 02eb 5F       		popl	%edi	#
 357              		.cfi_restore 7
 358              		.cfi_def_cfa_offset 4
 359 02ec C3       		ret
 360              	.LVL25:
 361 02ed 8D7600   		.p2align 4,,7
 362              		.p2align 3
 363              	.L13:
 364              		.cfi_restore_state
 365              		.loc 1 133 0
 366 02f0 A1180000 		movl	rlist+24, %eax	# rlist.r_current, rlist.r_current
 366      00
 367 02f5 3B7008   		cmpl	8(%eax), %esi	# _12->p_prio, D.2226
 368 02f8 C7042402 		movl	$2, (%esp)	#,
 368      000000
 369 02ff 0F94C0   		sete	%al	#, D.2227
 370 0302 0FB6C0   		movzbl	%al, %eax	# D.2227, D.2227
 371 0305 89442404 		movl	%eax, 4(%esp)	# D.2227,
 372 0309 E8FCFFFF 		call	_test_assert	#
 372      FF
 373              	.LVL26:
 374 030e 84C0     		testb	%al, %al	# D.2227
 375 0310 75D4     		jne	.L7	#,
GAS LISTING /tmp/ccWepkvC.s 			page 11


 376              		.loc 1 135 0
 377 0312 893C24   		movl	%edi, (%esp)	# p1,
 378 0315 E8FCFFFF 		call	chThdSetPriority	#
 378      FF
 379              	.LVL27:
 380              		.loc 1 136 0
 381 031a C7042403 		movl	$3, (%esp)	#,
 381      000000
 382 0321 39C6     		cmpl	%eax, %esi	# p1, D.2226
 383 0323 0F94C0   		sete	%al	#, D.2227
 384              	.LVL28:
 385 0326 0FB6C0   		movzbl	%al, %eax	# D.2227, D.2227
 386 0329 89442404 		movl	%eax, 4(%esp)	# D.2227,
 387 032d E8FCFFFF 		call	_test_assert	#
 387      FF
 388              	.LVL29:
 389 0332 84C0     		testb	%al, %al	# D.2227
 390 0334 75B0     		jne	.L7	#,
 391              		.loc 1 138 0
 392 0336 A1180000 		movl	rlist+24, %eax	# rlist.r_current, rlist.r_current
 392      00
 393 033b 395808   		cmpl	%ebx, 8(%eax)	# prio, _24->p_prio
 394 033e C7042404 		movl	$4, (%esp)	#,
 394      000000
 395 0345 0F94C0   		sete	%al	#, D.2227
 396 0348 0FB6C0   		movzbl	%al, %eax	# D.2227, D.2227
 397 034b 89442404 		movl	%eax, 4(%esp)	# D.2227,
 398 034f E8FCFFFF 		call	_test_assert	#
 398      FF
 399              	.LVL30:
 400 0354 84C0     		testb	%al, %al	# D.2227
 401 0356 758E     		jne	.L7	#,
 402              		.loc 1 143 0
 403              	#APP
 404              	# 143 "../../../test/testthd.c" 1
 105              	  test_wait_threads();
 106              	  test_assert_sequence(1, "ABCDE");
 107              	}
 108              	
 109              	ROMCONST struct testcase testthd2 = {
 110              	  "Threads, enqueuing test #2",
 111              	  NULL,
 112              	  NULL,
 113              	  thd2_execute
 114              	};
 115              	
 116              	/**
 117              	 * @page test_threads_003 Threads priority change test
 118              	 *
 119              	 * <h2>Description</h2>
 120              	 * A series of priority changes are performed on the current thread in order
 121              	 * to verify that the priority change happens as expected.<br>
 122              	 * If the @p CH_USE_MUTEXES option is enabled then the priority changes are
 123              	 * also tested under priority inheritance boosted priority state.
 124              	 */
 125              	
 126              	static void thd3_execute(void) {
GAS LISTING /tmp/ccWepkvC.s 			page 12


 127              	  tprio_t prio, p1;
 128              	
 129              	  prio = chThdGetPriority();
 130              	  p1 = chThdSetPriority(prio + 1);
 131              	  test_assert(1, p1 == prio,
 132              	              "unexpected returned priority level");
 133              	  test_assert(2, chThdGetPriority() == prio + 1,
 134              	              "unexpected priority level");
 135              	  p1 = chThdSetPriority(p1);
 136              	  test_assert(3, p1 == prio + 1,
 137              	              "unexpected returned priority level");
 138              	  test_assert(4, chThdGetPriority() == prio,
 139              	              "unexpected priority level");
 140              	
 141              	#if CH_USE_MUTEXES || defined(__DOXYGEN__)
 142              	  /* Simulates a priority boost situation (p_prio > p_realprio).*/
 143 0358 90       	  chSysLock();
 144              	  chThdSelf()->p_prio += 2;
 405              		nop
 406              	# 0 "" 2
 407              		.loc 1 144 0
 408              	#NO_APP
 409 0359 8B151800 		movl	rlist+24, %edx	# rlist.r_current, D.2225
 409      0000
 410 035f 8B4208   		movl	8(%edx), %eax	# _30->p_prio, tmp149
 411 0362 83C002   		addl	$2, %eax	#, D.2226
 412 0365 894208   		movl	%eax, 8(%edx)	# D.2226, _30->p_prio
 413              		.loc 1 145 0
 414              	#APP
 415              	# 145 "../../../test/testthd.c" 1
 145 0368 90       	  chSysUnlock();
 146              	  test_assert(5, chThdGetPriority() == prio + 2,
 416              		nop
 417              	# 0 "" 2
 418              		.loc 1 146 0
 419              	#NO_APP
 420 0369 8D7B02   		leal	2(%ebx), %edi	#, D.2226
 421 036c 39F8     		cmpl	%edi, %eax	# D.2226, D.2226
 422 036e 0F94C0   		sete	%al	#, D.2227
 423 0371 0FB6C0   		movzbl	%al, %eax	# D.2227, D.2227
 424 0374 89442404 		movl	%eax, 4(%esp)	# D.2227,
 425 0378 C7042405 		movl	$5, (%esp)	#,
 425      000000
 426 037f E8FCFFFF 		call	_test_assert	#
 426      FF
 427              	.LVL31:
 428 0384 84C0     		testb	%al, %al	# D.2227
 429 0386 0F855AFF 		jne	.L7	#,
 429      FFFF
 430              		.loc 1 150 0
 431 038c 893424   		movl	%esi, (%esp)	# D.2226,
 432 038f E8FCFFFF 		call	chThdSetPriority	#
 432      FF
 433              	.LVL32:
 434              		.loc 1 151 0
 435 0394 C7042406 		movl	$6, (%esp)	#,
 435      000000
GAS LISTING /tmp/ccWepkvC.s 			page 13


 436 039b 39D8     		cmpl	%ebx, %eax	# prio, p1
 437 039d 0F94C0   		sete	%al	#, D.2227
 438              	.LVL33:
 439 03a0 0FB6C0   		movzbl	%al, %eax	# D.2227, D.2227
 440 03a3 89442404 		movl	%eax, 4(%esp)	# D.2227,
 441 03a7 E8FCFFFF 		call	_test_assert	#
 441      FF
 442              	.LVL34:
 443 03ac 84C0     		testb	%al, %al	# D.2227
 444 03ae 0F8532FF 		jne	.L7	#,
 444      FFFF
 445              		.loc 1 153 0
 446 03b4 A1180000 		movl	rlist+24, %eax	# rlist.r_current, rlist.r_current
 446      00
 447 03b9 3B7808   		cmpl	8(%eax), %edi	# _45->p_prio, D.2226
 448 03bc C7042407 		movl	$7, (%esp)	#,
 448      000000
 449 03c3 0F94C0   		sete	%al	#, D.2227
 450 03c6 0FB6C0   		movzbl	%al, %eax	# D.2227, D.2227
 451 03c9 89442404 		movl	%eax, 4(%esp)	# D.2227,
 452 03cd E8FCFFFF 		call	_test_assert	#
 452      FF
 453              	.LVL35:
 454 03d2 84C0     		testb	%al, %al	# D.2227
 455 03d4 0F850CFF 		jne	.L7	#,
 455      FFFF
 456              		.loc 1 155 0
 457 03da A1180000 		movl	rlist+24, %eax	# rlist.r_current, rlist.r_current
 457      00
 458 03df 3B7040   		cmpl	64(%eax), %esi	# _51->p_realprio, D.2226
 459 03e2 C7042408 		movl	$8, (%esp)	#,
 459      000000
 460 03e9 0F94C0   		sete	%al	#, D.2227
 461 03ec 0FB6C0   		movzbl	%al, %eax	# D.2227, D.2227
 462 03ef 89442404 		movl	%eax, 4(%esp)	# D.2227,
 463 03f3 E8FCFFFF 		call	_test_assert	#
 463      FF
 464              	.LVL36:
 465 03f8 84C0     		testb	%al, %al	# D.2227
 466 03fa 0F85E6FE 		jne	.L7	#,
 466      FFFF
 467              		.loc 1 159 0
 468 0400 8D7B03   		leal	3(%ebx), %edi	#, D.2226
 469 0403 893C24   		movl	%edi, (%esp)	# D.2226,
 470 0406 E8FCFFFF 		call	chThdSetPriority	#
 470      FF
 471              	.LVL37:
 472              		.loc 1 160 0
 473 040b C7042409 		movl	$9, (%esp)	#,
 473      000000
 474 0412 39C6     		cmpl	%eax, %esi	# p1, D.2226
 475 0414 0F94C0   		sete	%al	#, D.2227
 476              	.LVL38:
 477 0417 0FB6C0   		movzbl	%al, %eax	# D.2227, D.2227
 478 041a 89442404 		movl	%eax, 4(%esp)	# D.2227,
 479 041e E8FCFFFF 		call	_test_assert	#
 479      FF
GAS LISTING /tmp/ccWepkvC.s 			page 14


 480              	.LVL39:
 481 0423 84C0     		testb	%al, %al	# D.2227
 482 0425 0F85BBFE 		jne	.L7	#,
 482      FFFF
 483              		.loc 1 162 0
 484 042b A1180000 		movl	rlist+24, %eax	# rlist.r_current, rlist.r_current
 484      00
 485 0430 3B7808   		cmpl	8(%eax), %edi	# _64->p_prio, D.2226
 486 0433 C704240A 		movl	$10, (%esp)	#,
 486      000000
 487 043a 0F94C0   		sete	%al	#, D.2227
 488 043d 0FB6C0   		movzbl	%al, %eax	# D.2227, D.2227
 489 0440 89442404 		movl	%eax, 4(%esp)	# D.2227,
 490 0444 E8FCFFFF 		call	_test_assert	#
 490      FF
 491              	.LVL40:
 492 0449 84C0     		testb	%al, %al	# D.2227
 493 044b 0F8595FE 		jne	.L7	#,
 493      FFFF
 494              		.loc 1 164 0
 495 0451 A1180000 		movl	rlist+24, %eax	# rlist.r_current, rlist.r_current
 495      00
 496 0456 3B7840   		cmpl	64(%eax), %edi	# _70->p_realprio, D.2226
 497 0459 C704240B 		movl	$11, (%esp)	#,
 497      000000
 498 0460 0F94C0   		sete	%al	#, D.2227
 499 0463 0FB6C0   		movzbl	%al, %eax	# D.2227, D.2227
 500 0466 89442404 		movl	%eax, 4(%esp)	# D.2227,
 501 046a E8FCFFFF 		call	_test_assert	#
 501      FF
 502              	.LVL41:
 503 046f 84C0     		testb	%al, %al	# D.2227
 504 0471 0F856FFE 		jne	.L7	#,
 504      FFFF
 505              		.loc 1 167 0
 506              	#APP
 507              	# 167 "../../../test/testthd.c" 1
 147              	              "unexpected priority level");
 148              	
 149              	  /* Tries to raise but below the boost level. */
 150              	  p1 = chThdSetPriority(prio + 1);
 151              	  test_assert(6, p1 == prio,
 152              	              "unexpected returned priority level");
 153              	  test_assert(7, chThdSelf()->p_prio == prio + 2,
 154              	              "unexpected priority level");
 155              	  test_assert(8, chThdSelf()->p_realprio == prio + 1,
 156              	              "unexpected returned real priority level");
 157              	
 158              	  /* Tries to raise above the boost level. */
 159              	  p1 = chThdSetPriority(prio + 3);
 160              	  test_assert(9, p1 == prio + 1,
 161              	              "unexpected returned priority level");
 162              	  test_assert(10, chThdSelf()->p_prio == prio + 3,
 163              	              "unexpected priority level");
 164              	  test_assert(11, chThdSelf()->p_realprio == prio + 3,
 165              	              "unexpected real priority level");
 166              	
GAS LISTING /tmp/ccWepkvC.s 			page 15


 167 0477 90       	  chSysLock();
 168              	  chThdSelf()->p_prio = prio;
 508              		nop
 509              	# 0 "" 2
 510              		.loc 1 168 0
 511              	#NO_APP
 512 0478 A1180000 		movl	rlist+24, %eax	# rlist.r_current, D.2225
 512      00
 513 047d 895808   		movl	%ebx, 8(%eax)	# prio, _76->p_prio
 514              		.loc 1 169 0
 515 0480 895840   		movl	%ebx, 64(%eax)	# prio, _76->p_realprio
 516              		.loc 1 170 0
 517              	#APP
 518              	# 170 "../../../test/testthd.c" 1
 169              	  chThdSelf()->p_realprio = prio;
 170 0483 90       	  chSysUnlock();
 171              	#endif
 519              		nop
 520              	# 0 "" 2
 521              	#NO_APP
 522 0484 E95DFEFF 		jmp	.L7	#
 522      FF
 523              		.cfi_endproc
 524              	.LFE10:
 525              		.size	thd3_execute, .-thd3_execute
 526 0489 8DB42600 		.p2align 4,,15
 526      000000
 527              		.type	thd4_execute, @function
 528              	thd4_execute:
 529              	.LFB11:
 530              		.loc 1 189 0
 531              		.cfi_startproc
 532 0490 56       		pushl	%esi	#
 533              		.cfi_def_cfa_offset 8
 534              		.cfi_offset 6, -8
 535 0491 53       		pushl	%ebx	#
 536              		.cfi_def_cfa_offset 12
 537              		.cfi_offset 3, -12
 538 0492 83EC14   		subl	$20, %esp	#,
 539              		.cfi_def_cfa_offset 32
 540              		.loc 1 192 0
 541 0495 E8FCFFFF 		call	test_wait_tick	#
 541      FF
 542              	.LVL42:
 543              		.loc 1 195 0
 544 049a 8B1D0C00 		movl	vtlist+12, %ebx	# vtlist.vt_systime, time
 544      0000
 545              	.LVL43:
 546              		.loc 1 196 0
 547 04a0 C7042464 		movl	$100, (%esp)	#,
 547      000000
 548 04a7 E8FCFFFF 		call	chThdSleep	#
 548      FF
 549              	.LVL44:
 550              		.loc 1 197 0
 551 04ac C7042401 		movl	$1, (%esp)	#,
 551      000000
GAS LISTING /tmp/ccWepkvC.s 			page 16


 552 04b3 8D4365   		leal	101(%ebx), %eax	#, D.2232
 553 04b6 83C364   		addl	$100, %ebx	#, D.2232
 554              	.LVL45:
 555 04b9 89442408 		movl	%eax, 8(%esp)	# D.2232,
 556 04bd 895C2404 		movl	%ebx, 4(%esp)	# D.2232,
 557 04c1 E8FCFFFF 		call	_test_assert_time_window	#
 557      FF
 558              	.LVL46:
 559 04c6 84C0     		testb	%al, %al	# D.2233
 560 04c8 7406     		je	.L19	#,
 561              	.LVL47:
 562              	.L14:
 563              		.loc 1 213 0
 564 04ca 83C414   		addl	$20, %esp	#,
 565              		.cfi_remember_state
 566              		.cfi_def_cfa_offset 12
 567 04cd 5B       		popl	%ebx	#
 568              		.cfi_restore 3
 569              		.cfi_def_cfa_offset 8
 570 04ce 5E       		popl	%esi	#
 571              		.cfi_restore 6
 572              		.cfi_def_cfa_offset 4
 573 04cf C3       		ret
 574              	.LVL48:
 575              		.p2align 4,,7
 576              		.p2align 3
 577              	.L19:
 578              		.cfi_restore_state
 579              		.loc 1 200 0
 580 04d0 8B1D0C00 		movl	vtlist+12, %ebx	# vtlist.vt_systime, time
 580      0000
 581              	.LVL49:
 582              		.loc 1 201 0
 583 04d6 C7042464 		movl	$100, (%esp)	#,
 583      000000
 584 04dd E8FCFFFF 		call	chThdSleep	#
 584      FF
 585              	.LVL50:
 586              		.loc 1 202 0
 587 04e2 C7042402 		movl	$2, (%esp)	#,
 587      000000
 588 04e9 8D4365   		leal	101(%ebx), %eax	#, D.2232
 589 04ec 83C364   		addl	$100, %ebx	#, D.2232
 590              	.LVL51:
 591 04ef 89442408 		movl	%eax, 8(%esp)	# D.2232,
 592 04f3 895C2404 		movl	%ebx, 4(%esp)	# D.2232,
 593 04f7 E8FCFFFF 		call	_test_assert_time_window	#
 593      FF
 594              	.LVL52:
 595 04fc 84C0     		testb	%al, %al	# D.2233
 596 04fe 75CA     		jne	.L14	#,
 597              	.LBB4:
 598              	.LBB5:
 599              		.loc 1 205 0
 600 0500 8B1D0C00 		movl	vtlist+12, %ebx	# vtlist.vt_systime, time
 600      0000
 601              	.LVL53:
GAS LISTING /tmp/ccWepkvC.s 			page 17


 602              		.loc 1 206 0
 603 0506 C70424E8 		movl	$1000, (%esp)	#,
 603      030000
 604 050d E8FCFFFF 		call	chThdSleep	#
 604      FF
 605              	.LVL54:
 606              		.loc 1 207 0
 607 0512 C7042403 		movl	$3, (%esp)	#,
 607      000000
 608 0519 8D83E903 		leal	1001(%ebx), %eax	#, D.2232
 608      0000
 609 051f 81C3E803 		addl	$1000, %ebx	#, D.2232
 609      0000
 610              	.LVL55:
 611 0525 89442408 		movl	%eax, 8(%esp)	# D.2232,
 612 0529 895C2404 		movl	%ebx, 4(%esp)	# D.2232,
 613 052d E8FCFFFF 		call	_test_assert_time_window	#
 613      FF
 614              	.LVL56:
 615 0532 84C0     		testb	%al, %al	# D.2233
 616 0534 7594     		jne	.L14	#,
 617              		.loc 1 210 0
 618 0536 8B350C00 		movl	vtlist+12, %esi	# vtlist.vt_systime, D.2232
 618      0000
 619 053c 8D5E64   		leal	100(%esi), %ebx	#, time
 620              	.LVL57:
 621              		.loc 1 212 0
 622 053f 83C665   		addl	$101, %esi	#, D.2232
 623              		.loc 1 211 0
 624 0542 891C24   		movl	%ebx, (%esp)	# time,
 625 0545 E8FCFFFF 		call	chThdSleepUntil	#
 625      FF
 626              	.LVL58:
 627              		.loc 1 212 0
 628 054a 89742408 		movl	%esi, 8(%esp)	# D.2232,
 629 054e 895C2404 		movl	%ebx, 4(%esp)	# time,
 630 0552 C7042404 		movl	$4, (%esp)	#,
 630      000000
 631 0559 E8FCFFFF 		call	_test_assert_time_window	#
 631      FF
 632              	.LVL59:
 633 055e E967FFFF 		jmp	.L14	#
 633      FF
 634              	.LBE5:
 635              	.LBE4:
 636              		.cfi_endproc
 637              	.LFE11:
 638              		.size	thd4_execute, .-thd4_execute
 639              		.globl	patternthd
 640              		.section	.rodata
 641              		.align 4
 642              		.type	patternthd, @object
 643              		.size	patternthd, 20
 644              	patternthd:
 645 0000 00000000 		.long	testthd1
 646 0004 00000000 		.long	testthd2
 647 0008 00000000 		.long	testthd3
GAS LISTING /tmp/ccWepkvC.s 			page 18


 648 000c 00000000 		.long	testthd4
 649 0010 00000000 		.long	0
 650              		.globl	testthd4
 651              		.section	.rodata.str1.1
 652              	.LC6:
 653 0010 54687265 		.string	"Threads, delays"
 653      6164732C 
 653      2064656C 
 653      61797300 
 654              		.section	.rodata
 655              		.align 4
 656              		.type	testthd4, @object
 657              		.size	testthd4, 16
 658              	testthd4:
 659              	# name:
 660 0014 10000000 		.long	.LC6
 661              	# setup:
 662 0018 00000000 		.long	0
 663              	# teardown:
 664 001c 00000000 		.long	0
 665              	# execute:
 666 0020 90040000 		.long	thd4_execute
 667              		.globl	testthd3
 668              		.section	.rodata.str1.1
 669              	.LC7:
 670 0020 54687265 		.string	"Threads, priority change"
 670      6164732C 
 670      20707269 
 670      6F726974 
 670      79206368 
 671              		.section	.rodata
 672              		.align 4
 673              		.type	testthd3, @object
 674              		.size	testthd3, 16
 675              	testthd3:
 676              	# name:
 677 0024 20000000 		.long	.LC7
 678              	# setup:
 679 0028 00000000 		.long	0
 680              	# teardown:
 681 002c 00000000 		.long	0
 682              	# execute:
 683 0030 B0020000 		.long	thd3_execute
 684              		.globl	testthd2
 685              		.section	.rodata.str1.1
 686              	.LC8:
 687 0039 54687265 		.string	"Threads, enqueuing test #2"
 687      6164732C 
 687      20656E71 
 687      75657569 
 687      6E672074 
 688              		.section	.rodata
 689              		.align 4
 690              		.type	testthd2, @object
 691              		.size	testthd2, 16
 692              	testthd2:
 693              	# name:
GAS LISTING /tmp/ccWepkvC.s 			page 19


 694 0034 39000000 		.long	.LC8
 695              	# setup:
 696 0038 00000000 		.long	0
 697              	# teardown:
 698 003c 00000000 		.long	0
 699              	# execute:
 700 0040 60010000 		.long	thd2_execute
 701              		.globl	testthd1
 702              		.section	.rodata.str1.1
 703              	.LC9:
 704 0054 54687265 		.string	"Threads, enqueuing test #1"
 704      6164732C 
 704      20656E71 
 704      75657569 
 704      6E672074 
 705              		.section	.rodata
 706              		.align 4
 707              		.type	testthd1, @object
 708              		.size	testthd1, 16
 709              	testthd1:
 710              	# name:
 711 0044 54000000 		.long	.LC9
 712              	# setup:
 713 0048 00000000 		.long	0
 714              	# teardown:
 715 004c 00000000 		.long	0
 716              	# execute:
 717 0050 00000000 		.long	thd1_execute
 718              		.text
 719              	.Letext0:
 720              		.file 2 "/usr/lib/gcc/x86_64-linux-gnu/4.8/include/stddef.h"
 721              		.file 3 "/usr/include/stdint.h"
 722              		.file 4 "../../../os/ports/GCC/SIMIA32/chtypes.h"
 723              		.file 5 "../../../os/kernel/include/chlists.h"
 724              		.file 6 "../../../os/kernel/include/chthreads.h"
 725              		.file 7 "../../../os/ports/GCC/SIMIA32/chcore.h"
 726              		.file 8 "../../../os/kernel/include/chvt.h"
 727              		.file 9 "../../../os/kernel/include/chschd.h"
 728              		.file 10 "../../../os/kernel/include/chmtx.h"
 729              		.file 11 "../../../test/test.h"
 3198              		.section	.note.GNU-stack,"",@progbits
GAS LISTING /tmp/ccWepkvC.s 			page 67

