GAS LISTING /tmp/cctuymYX.s 			page 1


   1              		.file	"testevt.c"
   2              	# GNU C (Ubuntu 4.8.2-19ubuntu1) version 4.8.2 (x86_64-linux-gnu)
   3              	#	compiled by GNU C version 4.8.2, GMP version 5.1.3, MPFR version 3.1.2-p3, MPC version 1.0.1
   4              	# GGC heuristics: --param ggc-min-expand=97 --param ggc-min-heapsize=126309
   5              	# options passed:  -I . -I ../../../os/ports/GCC/SIMIA32
   6              	# -I ../../../os/kernel/include -I ../../../test -I ../../../os/hal/include
   7              	# -I ../../../os/hal/platforms/Posix -I ../../../boards/simulator
   8              	# -I ../../../os/various -imultilib 32 -imultiarch i386-linux-gnu
   9              	# -MD ../../../test/testevt.d -MF .dep/testevt.o.d -MP
  10              	# -MQ ../../../test/testevt.o -D SIMULATOR -D SHELL_USE_IPRINTF=FALSE
  11              	# ../../../test/testevt.c -m32 -mtune=generic -march=i686
  12              	# -auxbase-strip ../../../test/testevt.o -ggdb -O2 -Wall -Wextra
  13              	# -Wstrict-prototypes -fomit-frame-pointer -fverbose-asm -fstack-protector
  14              	# -Wformat -Wformat-security
  15              	# options enabled:  -faggressive-loop-optimizations
  16              	# -fasynchronous-unwind-tables -fauto-inc-dec -fbranch-count-reg
  17              	# -fcaller-saves -fcombine-stack-adjustments -fcommon -fcompare-elim
  18              	# -fcprop-registers -fcrossjumping -fcse-follow-jumps -fdefer-pop
  19              	# -fdelete-null-pointer-checks -fdevirtualize -fdwarf2-cfi-asm
  20              	# -fearly-inlining -feliminate-unused-debug-types -fexpensive-optimizations
  21              	# -fforward-propagate -ffunction-cse -fgcse -fgcse-lm -fgnu-runtime
  22              	# -fguess-branch-probability -fhoist-adjacent-loads -fident -fif-conversion
  23              	# -fif-conversion2 -findirect-inlining -finline -finline-atomics
  24              	# -finline-functions-called-once -finline-small-functions -fipa-cp
  25              	# -fipa-profile -fipa-pure-const -fipa-reference -fipa-sra
  26              	# -fira-hoist-pressure -fira-share-save-slots -fira-share-spill-slots
  27              	# -fivopts -fkeep-static-consts -fleading-underscore -fmath-errno
  28              	# -fmerge-constants -fmerge-debug-strings -fmove-loop-invariants
  29              	# -fomit-frame-pointer -foptimize-register-move -foptimize-sibling-calls
  30              	# -foptimize-strlen -fpartial-inlining -fpcc-struct-return -fpeephole
  31              	# -fpeephole2 -fprefetch-loop-arrays -free -fregmove -freorder-blocks
  32              	# -freorder-functions -frerun-cse-after-loop
  33              	# -fsched-critical-path-heuristic -fsched-dep-count-heuristic
  34              	# -fsched-group-heuristic -fsched-interblock -fsched-last-insn-heuristic
  35              	# -fsched-rank-heuristic -fsched-spec -fsched-spec-insn-heuristic
  36              	# -fsched-stalled-insns-dep -fschedule-insns2 -fshow-column -fshrink-wrap
  37              	# -fsigned-zeros -fsplit-ivs-in-unroller -fsplit-wide-types
  38              	# -fstack-protector -fstrict-aliasing -fstrict-overflow
  39              	# -fstrict-volatile-bitfields -fsync-libcalls -fthread-jumps
  40              	# -ftoplevel-reorder -ftrapping-math -ftree-bit-ccp -ftree-builtin-call-dce
  41              	# -ftree-ccp -ftree-ch -ftree-coalesce-vars -ftree-copy-prop
  42              	# -ftree-copyrename -ftree-cselim -ftree-dce -ftree-dominator-opts
  43              	# -ftree-dse -ftree-forwprop -ftree-fre -ftree-loop-if-convert
  44              	# -ftree-loop-im -ftree-loop-ivcanon -ftree-loop-optimize
  45              	# -ftree-parallelize-loops= -ftree-phiprop -ftree-pre -ftree-pta
  46              	# -ftree-reassoc -ftree-scev-cprop -ftree-sink -ftree-slp-vectorize
  47              	# -ftree-slsr -ftree-sra -ftree-switch-conversion -ftree-tail-merge
  48              	# -ftree-ter -ftree-vect-loop-version -ftree-vrp -funit-at-a-time
  49              	# -funwind-tables -fvar-tracking -fvar-tracking-assignments -fverbose-asm
  50              	# -fzero-initialized-in-bss -m32 -m80387 -m96bit-long-double
  51              	# -maccumulate-outgoing-args -malign-stringops -mfancy-math-387
  52              	# -mfp-ret-in-387 -mglibc -mieee-fp -mlong-double-80 -mno-red-zone
  53              	# -mno-sse4 -mpush-args -msahf -mtls-direct-seg-refs
  54              	
  55              		.text
  56              	.Ltext0:
  57              		.section	.rodata.str1.1,"aMS",@progbits,1
GAS LISTING /tmp/cctuymYX.s 			page 2


  58              	.LC0:
  59 0000 41424300 		.string	"ABC"
  60              		.text
  61              		.p2align 4,,15
  62              		.type	evt1_execute, @function
  63              	evt1_execute:
  64              	.LFB11:
  65              		.file 1 "../../../test/testevt.c"
  66              		.loc 1 85 0
  67              		.cfi_startproc
  68 0000 56       		pushl	%esi	#
  69              		.cfi_def_cfa_offset 8
  70              		.cfi_offset 6, -8
  71 0001 53       		pushl	%ebx	#
  72              		.cfi_def_cfa_offset 12
  73              		.cfi_offset 3, -12
  74 0002 83EC34   		subl	$52, %esp	#,
  75              		.cfi_def_cfa_offset 64
  76              		.loc 1 92 0
  77 0005 8D5C2410 		leal	16(%esp), %ebx	#, tmp72
  78 0009 C7442408 		movl	$1, 8(%esp)	#,
  78      01000000 
  79              		.loc 1 93 0
  80 0011 8D742420 		leal	32(%esp), %esi	#, tmp73
  81              		.loc 1 92 0
  82 0015 895C2404 		movl	%ebx, 4(%esp)	# tmp72,
  83 0019 C7042404 		movl	$es1, (%esp)	#,
  83      000000
  84              		.loc 1 91 0
  85 0020 C7050400 		movl	$es1, es1	#, es1.es_next
  85      00000400 
  85      0000
  86              		.loc 1 92 0
  87 002a E8FCFFFF 		call	chEvtRegisterMask	#
  87      FF
  88              	.LVL0:
  89              		.loc 1 93 0
  90 002f C7442408 		movl	$2, 8(%esp)	#,
  90      02000000 
  91 0037 89742404 		movl	%esi, 4(%esp)	# tmp73,
  92 003b C7042404 		movl	$es1, (%esp)	#,
  92      000000
  93 0042 E8FCFFFF 		call	chEvtRegisterMask	#
  93      FF
  94              	.LVL1:
  95              		.loc 1 94 0
  96 0047 31C0     		xorl	%eax, %eax	# D.2237
  97 0049 813D0400 		cmpl	$es1, es1	#, es1.es_next
  97      00000400 
  97      0000
  98 0053 C7042401 		movl	$1, (%esp)	#,
  98      000000
  99 005a 0F95C0   		setne	%al	#, D.2237
 100 005d 89442404 		movl	%eax, 4(%esp)	# D.2237,
 101 0061 E8FCFFFF 		call	_test_assert	#
 101      FF
 102              	.LVL2:
GAS LISTING /tmp/cctuymYX.s 			page 3


 103 0066 84C0     		testb	%al, %al	# D.2237
 104 0068 7406     		je	.L6	#,
 105              	.L1:
 106              		.loc 1 105 0
 107 006a 83C434   		addl	$52, %esp	#,
 108              		.cfi_remember_state
 109              		.cfi_def_cfa_offset 12
 110 006d 5B       		popl	%ebx	#
 111              		.cfi_restore 3
 112              		.cfi_def_cfa_offset 8
 113 006e 5E       		popl	%esi	#
 114              		.cfi_restore 6
 115              		.cfi_def_cfa_offset 4
 116 006f C3       		ret
 117              		.p2align 4,,7
 118              		.p2align 3
 119              	.L6:
 120              		.cfi_restore_state
 121              		.loc 1 95 0
 122 0070 895C2404 		movl	%ebx, 4(%esp)	# tmp72,
 123 0074 C7042404 		movl	$es1, (%esp)	#,
 123      000000
 124 007b E8FCFFFF 		call	chEvtUnregister	#
 124      FF
 125              	.LVL3:
 126              		.loc 1 96 0
 127 0080 31C0     		xorl	%eax, %eax	# D.2237
 128 0082 813D0400 		cmpl	$es1, es1	#, es1.es_next
 128      00000400 
 128      0000
 129 008c C7042402 		movl	$2, (%esp)	#,
 129      000000
 130 0093 0F95C0   		setne	%al	#, D.2237
 131 0096 89442404 		movl	%eax, 4(%esp)	# D.2237,
 132 009a E8FCFFFF 		call	_test_assert	#
 132      FF
 133              	.LVL4:
 134 009f 84C0     		testb	%al, %al	# D.2237
 135 00a1 75C7     		jne	.L1	#,
 136              		.loc 1 97 0
 137 00a3 89742404 		movl	%esi, 4(%esp)	# tmp73,
 138 00a7 C7042404 		movl	$es1, (%esp)	#,
 138      000000
 139 00ae E8FCFFFF 		call	chEvtUnregister	#
 139      FF
 140              	.LVL5:
 141              		.loc 1 98 0
 142 00b3 31C0     		xorl	%eax, %eax	# D.2237
 143 00b5 813D0400 		cmpl	$es1, es1	#, es1.es_next
 143      00000400 
 143      0000
 144 00bf C7042403 		movl	$3, (%esp)	#,
 144      000000
 145 00c6 0F94C0   		sete	%al	#, D.2237
 146 00c9 89442404 		movl	%eax, 4(%esp)	# D.2237,
 147 00cd E8FCFFFF 		call	_test_assert	#
 147      FF
GAS LISTING /tmp/cctuymYX.s 			page 4


 148              	.LVL6:
 149 00d2 84C0     		testb	%al, %al	# D.2237
 150 00d4 7594     		jne	.L1	#,
 151              		.loc 1 103 0
 152 00d6 C7442404 		movl	$7, 4(%esp)	#,
 152      07000000 
 153 00de C7042440 		movl	$evhndl, (%esp)	#,
 153      000000
 154 00e5 E8FCFFFF 		call	chEvtDispatch	#
 154      FF
 155              	.LVL7:
 156              		.loc 1 104 0
 157 00ea C7442404 		movl	$.LC0, 4(%esp)	#,
 157      00000000 
 158 00f2 C7042404 		movl	$4, (%esp)	#,
 158      000000
 159 00f9 E8FCFFFF 		call	_test_assert_sequence	#
 159      FF
 160              	.LVL8:
 161 00fe E967FFFF 		jmp	.L1	#
 161      FF
 162              		.cfi_endproc
 163              	.LFE11:
 164              		.size	evt1_execute, .-evt1_execute
 165 0103 8DB60000 		.p2align 4,,15
 165      00008DBC 
 165      27000000 
 165      00
 166              		.type	h3, @function
 167              	h3:
 168              	.LFB10:
 169              		.loc 1 82 0
 170              		.cfi_startproc
 171              	.LVL9:
 172              		.loc 1 82 0
 173 0110 C7442404 		movl	$67, 4(%esp)	#,
 173      43000000 
 174              	.LVL10:
 175 0118 E9FCFFFF 		jmp	test_emit_token	#
 175      FF
 176              	.LVL11:
 177              		.cfi_endproc
 178              	.LFE10:
 179              		.size	h3, .-h3
 180 011d 8D7600   		.p2align 4,,15
 181              		.type	h2, @function
 182              	h2:
 183              	.LFB9:
 184              		.loc 1 81 0
 185              		.cfi_startproc
 186              	.LVL12:
 187              		.loc 1 81 0
 188 0120 C7442404 		movl	$66, 4(%esp)	#,
 188      42000000 
 189              	.LVL13:
 190 0128 E9FCFFFF 		jmp	test_emit_token	#
 190      FF
GAS LISTING /tmp/cctuymYX.s 			page 5


 191              	.LVL14:
 192              		.cfi_endproc
 193              	.LFE9:
 194              		.size	h2, .-h2
 195 012d 8D7600   		.p2align 4,,15
 196              		.type	h1, @function
 197              	h1:
 198              	.LFB8:
 199              		.loc 1 80 0
 200              		.cfi_startproc
 201              	.LVL15:
 202              		.loc 1 80 0
 203 0130 C7442404 		movl	$65, 4(%esp)	#,
 203      41000000 
 204              	.LVL16:
 205 0138 E9FCFFFF 		jmp	test_emit_token	#
 205      FF
 206              	.LVL17:
 207              		.cfi_endproc
 208              	.LFE8:
 209              		.size	h1, .-h1
 210 013d 8D7600   		.p2align 4,,15
 211              		.type	evt1_setup, @function
 212              	evt1_setup:
 213              	.LFB7:
 214              		.loc 1 75 0
 215              		.cfi_startproc
 216 0140 83EC1C   		subl	$28, %esp	#,
 217              		.cfi_def_cfa_offset 32
 218              		.loc 1 77 0
 219 0143 C70424FF 		movl	$-1, (%esp)	#,
 219      FFFFFF
 220 014a E8FCFFFF 		call	chEvtGetAndClearEvents	#
 220      FF
 221              	.LVL18:
 222              		.loc 1 78 0
 223 014f 83C41C   		addl	$28, %esp	#,
 224              		.cfi_def_cfa_offset 4
 225 0152 C3       		ret
 226              		.cfi_endproc
 227              	.LFE7:
 228              		.size	evt1_setup, .-evt1_setup
 229 0153 8DB60000 		.p2align 4,,15
 229      00008DBC 
 229      27000000 
 229      00
 230              		.type	evt2_setup, @function
 231              	evt2_setup:
 232              	.LFB12:
 233              		.loc 1 128 0
 234              		.cfi_startproc
 235 0160 83EC1C   		subl	$28, %esp	#,
 236              		.cfi_def_cfa_offset 32
 237              		.loc 1 130 0
 238 0163 C70424FF 		movl	$-1, (%esp)	#,
 238      FFFFFF
 239 016a E8FCFFFF 		call	chEvtGetAndClearEvents	#
GAS LISTING /tmp/cctuymYX.s 			page 6


 239      FF
 240              	.LVL19:
 241              		.loc 1 131 0
 242 016f 83C41C   		addl	$28, %esp	#,
 243              		.cfi_def_cfa_offset 4
 244 0172 C3       		ret
 245              		.cfi_endproc
 246              	.LFE12:
 247              		.size	evt2_setup, .-evt2_setup
 248 0173 8DB60000 		.p2align 4,,15
 248      00008DBC 
 248      27000000 
 248      00
 249              		.type	evt3_setup, @function
 250              	evt3_setup:
 251              	.LFB16:
 252              		.loc 1 247 0
 253              		.cfi_startproc
 254 0180 83EC1C   		subl	$28, %esp	#,
 255              		.cfi_def_cfa_offset 32
 256              		.loc 1 249 0
 257 0183 C70424FF 		movl	$-1, (%esp)	#,
 257      FFFFFF
 258 018a E8FCFFFF 		call	chEvtGetAndClearEvents	#
 258      FF
 259              	.LVL20:
 260              		.loc 1 250 0
 261 018f 83C41C   		addl	$28, %esp	#,
 262              		.cfi_def_cfa_offset 4
 263 0192 C3       		ret
 264              		.cfi_endproc
 265              	.LFE16:
 266              		.size	evt3_setup, .-evt3_setup
 267              		.section	.rodata.str1.1
 268              	.LC1:
 269 0004 4100     		.string	"A"
 270              		.text
 271 0193 8DB60000 		.p2align 4,,15
 271      00008DBC 
 271      27000000 
 271      00
 272              		.type	evt2_execute, @function
 273              	evt2_execute:
 274              	.LFB15:
 275              		.loc 1 149 0
 276              		.cfi_startproc
 277 01a0 55       		pushl	%ebp	#
 278              		.cfi_def_cfa_offset 8
 279              		.cfi_offset 5, -8
 280 01a1 57       		pushl	%edi	#
 281              		.cfi_def_cfa_offset 12
 282              		.cfi_offset 7, -12
 283 01a2 56       		pushl	%esi	#
 284              		.cfi_def_cfa_offset 16
 285              		.cfi_offset 6, -16
 286 01a3 53       		pushl	%ebx	#
 287              		.cfi_def_cfa_offset 20
GAS LISTING /tmp/cctuymYX.s 			page 7


 288              		.cfi_offset 3, -20
 289 01a4 83EC4C   		subl	$76, %esp	#,
 290              		.cfi_def_cfa_offset 96
 291              		.loc 1 157 0
 292 01a7 C7042405 		movl	$5, (%esp)	#,
 292      000000
 293 01ae E8FCFFFF 		call	chEvtAddEvents	#
 293      FF
 294              	.LVL21:
 295              		.loc 1 158 0
 296 01b3 C70424FF 		movl	$-1, (%esp)	#,
 296      FFFFFF
 297 01ba E8FCFFFF 		call	chEvtWaitOne	#
 297      FF
 298              	.LVL22:
 299              		.loc 1 159 0
 300 01bf C7042401 		movl	$1, (%esp)	#,
 300      000000
 301 01c6 83F801   		cmpl	$1, %eax	#, m
 302 01c9 0F94C0   		sete	%al	#, D.2254
 303              	.LVL23:
 304 01cc 0FB6C0   		movzbl	%al, %eax	# D.2254, D.2254
 305 01cf 89442404 		movl	%eax, 4(%esp)	# D.2254,
 306 01d3 E8FCFFFF 		call	_test_assert	#
 306      FF
 307              	.LVL24:
 308 01d8 84C0     		testb	%al, %al	# D.2254
 309 01da 740C     		je	.L20	#,
 310              	.L16:
 311              		.loc 1 222 0
 312 01dc 83C44C   		addl	$76, %esp	#,
 313              		.cfi_remember_state
 314              		.cfi_def_cfa_offset 20
 315 01df 5B       		popl	%ebx	#
 316              		.cfi_restore 3
 317              		.cfi_def_cfa_offset 16
 318 01e0 5E       		popl	%esi	#
 319              		.cfi_restore 6
 320              		.cfi_def_cfa_offset 12
 321 01e1 5F       		popl	%edi	#
 322              		.cfi_restore 7
 323              		.cfi_def_cfa_offset 8
 324 01e2 5D       		popl	%ebp	#
 325              		.cfi_restore 5
 326              		.cfi_def_cfa_offset 4
 327 01e3 C3       		ret
 328              		.p2align 4,,7
 329 01e4 8D742600 		.p2align 3
 330              	.L20:
 331              		.cfi_restore_state
 332              		.loc 1 160 0
 333 01e8 C70424FF 		movl	$-1, (%esp)	#,
 333      FFFFFF
 334 01ef E8FCFFFF 		call	chEvtWaitOne	#
 334      FF
 335              	.LVL25:
 336              		.loc 1 161 0
GAS LISTING /tmp/cctuymYX.s 			page 8


 337 01f4 C7042402 		movl	$2, (%esp)	#,
 337      000000
 338 01fb 83F804   		cmpl	$4, %eax	#, m
 339 01fe 0F94C0   		sete	%al	#, D.2254
 340              	.LVL26:
 341 0201 0FB6C0   		movzbl	%al, %eax	# D.2254, D.2254
 342 0204 89442404 		movl	%eax, 4(%esp)	# D.2254,
 343 0208 E8FCFFFF 		call	_test_assert	#
 343      FF
 344              	.LVL27:
 345 020d 84C0     		testb	%al, %al	# D.2254
 346 020f 75CB     		jne	.L16	#,
 347              		.loc 1 162 0
 348 0211 C70424FF 		movl	$-1, (%esp)	#,
 348      FFFFFF
 349 0218 E8FCFFFF 		call	chEvtGetAndClearEvents	#
 349      FF
 350              	.LVL28:
 351              		.loc 1 163 0
 352 021d C7042403 		movl	$3, (%esp)	#,
 352      000000
 353 0224 85C0     		testl	%eax, %eax	# m
 354 0226 0F94C0   		sete	%al	#, D.2254
 355              	.LVL29:
 356 0229 0FB6C0   		movzbl	%al, %eax	# D.2254, D.2254
 357 022c 89442404 		movl	%eax, 4(%esp)	# D.2254,
 358 0230 E8FCFFFF 		call	_test_assert	#
 358      FF
 359              	.LVL30:
 360 0235 84C0     		testb	%al, %al	# D.2254
 361 0237 75A3     		jne	.L16	#,
 362              		.loc 1 168 0
 363 0239 E8FCFFFF 		call	test_wait_tick	#
 363      FF
 364              	.LVL31:
 365              		.loc 1 170 0
 366 023e A1180000 		movl	rlist+24, %eax	# rlist.r_current, D.2257
 366      00
 367 0243 C744240C 		movl	$thread1, 12(%esp)	#,
 367      C0050000 
 368 024b 8B350000 		movl	wa, %esi	# wa, D.2258
 368      0000
 369              		.loc 1 169 0
 370 0251 8B1D0C00 		movl	vtlist+12, %ebx	# vtlist.vt_systime, D.2256
 370      0000
 371              	.LVL32:
 372              		.loc 1 170 0
 373 0257 89442410 		movl	%eax, 16(%esp)	# D.2257,
 374 025b 8B4008   		movl	8(%eax), %eax	# _26->p_prio, _26->p_prio
 375 025e C7442404 		movl	$17008, 4(%esp)	#,
 375      70420000 
 376 0266 893424   		movl	%esi, (%esp)	# D.2258,
 377 0269 83E801   		subl	$1, %eax	#, D.2256
 378 026c 89442408 		movl	%eax, 8(%esp)	# D.2256,
 379 0270 E8FCFFFF 		call	chThdCreateStatic	#
 379      FF
 380              	.LVL33:
GAS LISTING /tmp/cctuymYX.s 			page 9


 381              		.loc 1 172 0
 382 0275 C70424FF 		movl	$-1, (%esp)	#,
 382      FFFFFF
 383              		.loc 1 170 0
 384 027c A3000000 		movl	%eax, threads	# D.2257, threads
 384      00
 385              		.loc 1 172 0
 386 0281 E8FCFFFF 		call	chEvtWaitOne	#
 386      FF
 387              	.LVL34:
 388              		.loc 1 173 0
 389 0286 C7042404 		movl	$4, (%esp)	#,
 389      000000
 390              		.loc 1 172 0
 391 028d 89C7     		movl	%eax, %edi	#, m
 392              	.LVL35:
 393              		.loc 1 173 0
 394 028f 8D4337   		leal	55(%ebx), %eax	#, D.2256
 395              	.LVL36:
 396              		.loc 1 169 0
 397 0292 83C332   		addl	$50, %ebx	#, target_time
 398              	.LVL37:
 399              		.loc 1 173 0
 400 0295 89442408 		movl	%eax, 8(%esp)	# D.2256,
 401 0299 895C2404 		movl	%ebx, 4(%esp)	# target_time,
 402 029d E8FCFFFF 		call	_test_assert_time_window	#
 402      FF
 403              	.LVL38:
 404 02a2 84C0     		testb	%al, %al	# D.2254
 405 02a4 0F8532FF 		jne	.L16	#,
 405      FFFF
 406              		.loc 1 174 0
 407 02aa 31C0     		xorl	%eax, %eax	# D.2254
 408 02ac 83FF01   		cmpl	$1, %edi	#, m
 409 02af 0F94C0   		sete	%al	#, D.2254
 410 02b2 89442404 		movl	%eax, 4(%esp)	# D.2254,
 411 02b6 C7042405 		movl	$5, (%esp)	#,
 411      000000
 412 02bd E8FCFFFF 		call	_test_assert	#
 412      FF
 413              	.LVL39:
 414 02c2 84C0     		testb	%al, %al	# D.2254
 415 02c4 0F8512FF 		jne	.L16	#,
 415      FFFF
 416              		.loc 1 175 0
 417 02ca C70424FF 		movl	$-1, (%esp)	#,
 417      FFFFFF
 418 02d1 E8FCFFFF 		call	chEvtGetAndClearEvents	#
 418      FF
 419              	.LVL40:
 420              		.loc 1 176 0
 421 02d6 C7042406 		movl	$6, (%esp)	#,
 421      000000
 422 02dd 85C0     		testl	%eax, %eax	# m
 423 02df 0F94C0   		sete	%al	#, D.2254
 424              	.LVL41:
 425 02e2 0FB6C0   		movzbl	%al, %eax	# D.2254, D.2254
GAS LISTING /tmp/cctuymYX.s 			page 10


 426 02e5 89442404 		movl	%eax, 4(%esp)	# D.2254,
 427 02e9 E8FCFFFF 		call	_test_assert	#
 427      FF
 428              	.LVL42:
 429 02ee 84C0     		testb	%al, %al	# D.2254
 430 02f0 0F85E6FE 		jne	.L16	#,
 430      FFFF
 431              		.loc 1 177 0
 432 02f6 E8FCFFFF 		call	test_wait_threads	#
 432      FF
 433              	.LVL43:
 434              		.loc 1 182 0
 435 02fb C7042405 		movl	$5, (%esp)	#,
 435      000000
 436 0302 E8FCFFFF 		call	chEvtAddEvents	#
 436      FF
 437              	.LVL44:
 438              		.loc 1 183 0
 439 0307 C70424FF 		movl	$-1, (%esp)	#,
 439      FFFFFF
 440 030e E8FCFFFF 		call	chEvtWaitAny	#
 440      FF
 441              	.LVL45:
 442              		.loc 1 184 0
 443 0313 C7042407 		movl	$7, (%esp)	#,
 443      000000
 444 031a 83F805   		cmpl	$5, %eax	#, m
 445 031d 0F94C0   		sete	%al	#, D.2254
 446              	.LVL46:
 447 0320 0FB6C0   		movzbl	%al, %eax	# D.2254, D.2254
 448 0323 89442404 		movl	%eax, 4(%esp)	# D.2254,
 449 0327 E8FCFFFF 		call	_test_assert	#
 449      FF
 450              	.LVL47:
 451 032c 84C0     		testb	%al, %al	# D.2254
 452 032e 0F85A8FE 		jne	.L16	#,
 452      FFFF
 453              		.loc 1 185 0
 454 0334 C70424FF 		movl	$-1, (%esp)	#,
 454      FFFFFF
 455 033b E8FCFFFF 		call	chEvtGetAndClearEvents	#
 455      FF
 456              	.LVL48:
 457              		.loc 1 186 0
 458 0340 C7042408 		movl	$8, (%esp)	#,
 458      000000
 459 0347 85C0     		testl	%eax, %eax	# m
 460 0349 0F94C0   		sete	%al	#, D.2254
 461              	.LVL49:
 462 034c 0FB6C0   		movzbl	%al, %eax	# D.2254, D.2254
 463 034f 89442404 		movl	%eax, 4(%esp)	# D.2254,
 464 0353 E8FCFFFF 		call	_test_assert	#
 464      FF
 465              	.LVL50:
 466 0358 84C0     		testb	%al, %al	# D.2254
 467 035a 0F857CFE 		jne	.L16	#,
 467      FFFF
GAS LISTING /tmp/cctuymYX.s 			page 11


 468              		.loc 1 191 0
 469 0360 E8FCFFFF 		call	test_wait_tick	#
 469      FF
 470              	.LVL51:
 471              		.loc 1 193 0
 472 0365 A1180000 		movl	rlist+24, %eax	# rlist.r_current, D.2257
 472      00
 473 036a C744240C 		movl	$thread1, 12(%esp)	#,
 473      C0050000 
 474              		.loc 1 192 0
 475 0372 8B1D0C00 		movl	vtlist+12, %ebx	# vtlist.vt_systime, D.2256
 475      0000
 476              	.LVL52:
 477              		.loc 1 193 0
 478 0378 89442410 		movl	%eax, 16(%esp)	# D.2257,
 479 037c 8B4008   		movl	8(%eax), %eax	# _65->p_prio, _65->p_prio
 480 037f C7442404 		movl	$17008, 4(%esp)	#,
 480      70420000 
 481 0387 893424   		movl	%esi, (%esp)	# D.2258,
 482 038a 83E801   		subl	$1, %eax	#, D.2256
 483 038d 89442408 		movl	%eax, 8(%esp)	# D.2256,
 484 0391 E8FCFFFF 		call	chThdCreateStatic	#
 484      FF
 485              	.LVL53:
 486              		.loc 1 195 0
 487 0396 C70424FF 		movl	$-1, (%esp)	#,
 487      FFFFFF
 488              		.loc 1 193 0
 489 039d A3000000 		movl	%eax, threads	# D.2257, threads
 489      00
 490              		.loc 1 195 0
 491 03a2 E8FCFFFF 		call	chEvtWaitAny	#
 491      FF
 492              	.LVL54:
 493              		.loc 1 196 0
 494 03a7 C7042409 		movl	$9, (%esp)	#,
 494      000000
 495              		.loc 1 195 0
 496 03ae 89C7     		movl	%eax, %edi	#, m
 497              	.LVL55:
 498              		.loc 1 196 0
 499 03b0 8D4337   		leal	55(%ebx), %eax	#, D.2256
 500              	.LVL56:
 501              		.loc 1 192 0
 502 03b3 83C332   		addl	$50, %ebx	#, target_time
 503              	.LVL57:
 504              		.loc 1 196 0
 505 03b6 89442408 		movl	%eax, 8(%esp)	# D.2256,
 506 03ba 895C2404 		movl	%ebx, 4(%esp)	# target_time,
 507 03be E8FCFFFF 		call	_test_assert_time_window	#
 507      FF
 508              	.LVL58:
 509 03c3 84C0     		testb	%al, %al	# D.2254
 510 03c5 0F8511FE 		jne	.L16	#,
 510      FFFF
 511              		.loc 1 197 0
 512 03cb 31C0     		xorl	%eax, %eax	# D.2254
GAS LISTING /tmp/cctuymYX.s 			page 12


 513 03cd 83EF01   		subl	$1, %edi	#, m
 514              	.LVL59:
 515 03d0 0F94C0   		sete	%al	#, D.2254
 516 03d3 89442404 		movl	%eax, 4(%esp)	# D.2254,
 517 03d7 C704240A 		movl	$10, (%esp)	#,
 517      000000
 518 03de E8FCFFFF 		call	_test_assert	#
 518      FF
 519              	.LVL60:
 520 03e3 84C0     		testb	%al, %al	# D.2254
 521 03e5 0F85F1FD 		jne	.L16	#,
 521      FFFF
 522              		.loc 1 198 0
 523 03eb C70424FF 		movl	$-1, (%esp)	#,
 523      FFFFFF
 524 03f2 E8FCFFFF 		call	chEvtGetAndClearEvents	#
 524      FF
 525              	.LVL61:
 526              		.loc 1 199 0
 527 03f7 C704240B 		movl	$11, (%esp)	#,
 527      000000
 528 03fe 85C0     		testl	%eax, %eax	# m
 529 0400 0F94C0   		sete	%al	#, D.2254
 530              	.LVL62:
 531 0403 0FB6C0   		movzbl	%al, %eax	# D.2254, D.2254
 532 0406 89442404 		movl	%eax, 4(%esp)	# D.2254,
 533 040a E8FCFFFF 		call	_test_assert	#
 533      FF
 534              	.LVL63:
 535 040f 84C0     		testb	%al, %al	# D.2254
 536 0411 0F85C5FD 		jne	.L16	#,
 536      FFFF
 537              		.loc 1 207 0
 538 0417 8D7C2420 		leal	32(%esp), %edi	#, tmp165
 539              		.loc 1 200 0
 540 041b E8FCFFFF 		call	test_wait_threads	#
 540      FF
 541              	.LVL64:
 542              		.loc 1 208 0
 543 0420 8D5C2430 		leal	48(%esp), %ebx	#, tmp166
 544              	.LVL65:
 545              		.loc 1 207 0
 546 0424 C7442408 		movl	$1, 8(%esp)	#,
 546      01000000 
 547 042c 897C2404 		movl	%edi, 4(%esp)	# tmp165,
 548 0430 C7042404 		movl	$es1, (%esp)	#,
 548      000000
 549              		.loc 1 205 0
 550 0437 C7050400 		movl	$es1, es1	#, es1.es_next
 550      00000400 
 550      0000
 551              		.loc 1 206 0
 552 0441 C7050000 		movl	$es2, es2	#, es2.es_next
 552      00000000 
 552      0000
 553              		.loc 1 207 0
 554 044b E8FCFFFF 		call	chEvtRegisterMask	#
GAS LISTING /tmp/cctuymYX.s 			page 13


 554      FF
 555              	.LVL66:
 556              		.loc 1 208 0
 557 0450 C7442408 		movl	$4, 8(%esp)	#,
 557      04000000 
 558 0458 895C2404 		movl	%ebx, 4(%esp)	# tmp166,
 559 045c C7042400 		movl	$es2, (%esp)	#,
 559      000000
 560 0463 E8FCFFFF 		call	chEvtRegisterMask	#
 560      FF
 561              	.LVL67:
 562              		.loc 1 209 0
 563 0468 E8FCFFFF 		call	test_wait_tick	#
 563      FF
 564              	.LVL68:
 565              		.loc 1 211 0
 566 046d A1180000 		movl	rlist+24, %eax	# rlist.r_current, rlist.r_current
 566      00
 567 0472 C7442410 		movl	$.LC1, 16(%esp)	#,
 567      04000000 
 568              		.loc 1 210 0
 569 047a 8B2D0C00 		movl	vtlist+12, %ebp	# vtlist.vt_systime, D.2256
 569      0000
 570              	.LVL69:
 571              		.loc 1 211 0
 572 0480 C744240C 		movl	$thread2, 12(%esp)	#,
 572      80050000 
 573 0488 8B4008   		movl	8(%eax), %eax	# _94->p_prio, _94->p_prio
 574 048b C7442404 		movl	$17008, 4(%esp)	#,
 574      70420000 
 575 0493 893424   		movl	%esi, (%esp)	# D.2258,
 576 0496 83E801   		subl	$1, %eax	#, D.2256
 577 0499 89442408 		movl	%eax, 8(%esp)	# D.2256,
 578 049d E8FCFFFF 		call	chThdCreateStatic	#
 578      FF
 579              	.LVL70:
 580              		.loc 1 213 0
 581 04a2 C7042405 		movl	$5, (%esp)	#,
 581      000000
 582              		.loc 1 211 0
 583 04a9 A3000000 		movl	%eax, threads	# D.2257, threads
 583      00
 584              		.loc 1 213 0
 585 04ae E8FCFFFF 		call	chEvtWaitAll	#
 585      FF
 586              	.LVL71:
 587              		.loc 1 214 0
 588 04b3 8D4537   		leal	55(%ebp), %eax	#, D.2256
 589              		.loc 1 210 0
 590 04b6 83C532   		addl	$50, %ebp	#, target_time
 591              	.LVL72:
 592              		.loc 1 214 0
 593 04b9 89442408 		movl	%eax, 8(%esp)	# D.2256,
 594 04bd 896C2404 		movl	%ebp, 4(%esp)	# target_time,
 595 04c1 C704240C 		movl	$12, (%esp)	#,
 595      000000
 596 04c8 E8FCFFFF 		call	_test_assert_time_window	#
GAS LISTING /tmp/cctuymYX.s 			page 14


 596      FF
 597              	.LVL73:
 598 04cd 84C0     		testb	%al, %al	# D.2254
 599 04cf 0F8507FD 		jne	.L16	#,
 599      FFFF
 600              		.loc 1 215 0
 601 04d5 C70424FF 		movl	$-1, (%esp)	#,
 601      FFFFFF
 602 04dc E8FCFFFF 		call	chEvtGetAndClearEvents	#
 602      FF
 603              	.LVL74:
 604              		.loc 1 216 0
 605 04e1 C704240D 		movl	$13, (%esp)	#,
 605      000000
 606 04e8 85C0     		testl	%eax, %eax	# m
 607 04ea 0F94C0   		sete	%al	#, D.2254
 608              	.LVL75:
 609 04ed 0FB6C0   		movzbl	%al, %eax	# D.2254, D.2254
 610 04f0 89442404 		movl	%eax, 4(%esp)	# D.2254,
 611 04f4 E8FCFFFF 		call	_test_assert	#
 611      FF
 612              	.LVL76:
 613 04f9 84C0     		testb	%al, %al	# D.2254
 614 04fb 0F85DBFC 		jne	.L16	#,
 614      FFFF
 615              		.loc 1 217 0
 616 0501 E8FCFFFF 		call	test_wait_threads	#
 616      FF
 617              	.LVL77:
 618              		.loc 1 218 0
 619 0506 897C2404 		movl	%edi, 4(%esp)	# tmp165,
 620 050a C7042404 		movl	$es1, (%esp)	#,
 620      000000
 621 0511 E8FCFFFF 		call	chEvtUnregister	#
 621      FF
 622              	.LVL78:
 623              		.loc 1 219 0
 624 0516 895C2404 		movl	%ebx, 4(%esp)	# tmp166,
 625 051a C7042400 		movl	$es2, (%esp)	#,
 625      000000
 626 0521 E8FCFFFF 		call	chEvtUnregister	#
 626      FF
 627              	.LVL79:
 628              		.loc 1 220 0
 629 0526 31C0     		xorl	%eax, %eax	# D.2254
 630 0528 813D0400 		cmpl	$es1, es1	#, es1.es_next
 630      00000400 
 630      0000
 631 0532 C704240E 		movl	$14, (%esp)	#,
 631      000000
 632 0539 0F94C0   		sete	%al	#, D.2254
 633 053c 89442404 		movl	%eax, 4(%esp)	# D.2254,
 634 0540 E8FCFFFF 		call	_test_assert	#
 634      FF
 635              	.LVL80:
 636 0545 84C0     		testb	%al, %al	# D.2254
 637 0547 0F858FFC 		jne	.L16	#,
GAS LISTING /tmp/cctuymYX.s 			page 15


 637      FFFF
 638              		.loc 1 221 0
 639 054d 31C0     		xorl	%eax, %eax	# D.2254
 640 054f 813D0000 		cmpl	$es2, es2	#, es2.es_next
 640      00000000 
 640      0000
 641 0559 C704240F 		movl	$15, (%esp)	#,
 641      000000
 642 0560 0F94C0   		sete	%al	#, D.2254
 643 0563 89442404 		movl	%eax, 4(%esp)	# D.2254,
 644 0567 E8FCFFFF 		call	_test_assert	#
 644      FF
 645              	.LVL81:
 646 056c E96BFCFF 		jmp	.L16	#
 646      FF
 647              		.cfi_endproc
 648              	.LFE15:
 649              		.size	evt2_execute, .-evt2_execute
 650 0571 EB0D9090 		.p2align 4,,15
 650      90909090 
 650      90909090 
 650      909090
 651              		.type	thread2, @function
 652              	thread2:
 653              	.LFB14:
 654              		.loc 1 140 0
 655              		.cfi_startproc
 656              	.LVL82:
 657 0580 83EC1C   		subl	$28, %esp	#,
 658              		.cfi_def_cfa_offset 32
 659              		.loc 1 143 0
 660 0583 C7442404 		movl	$0, 4(%esp)	#,
 660      00000000 
 661 058b C7042404 		movl	$es1, (%esp)	#,
 661      000000
 662 0592 E8FCFFFF 		call	chEvtBroadcastFlags	#
 662      FF
 663              	.LVL83:
 664              		.loc 1 144 0
 665 0597 C7042432 		movl	$50, (%esp)	#,
 665      000000
 666 059e E8FCFFFF 		call	chThdSleep	#
 666      FF
 667              	.LVL84:
 668              		.loc 1 145 0
 669 05a3 C7442404 		movl	$0, 4(%esp)	#,
 669      00000000 
 670 05ab C7042400 		movl	$es2, (%esp)	#,
 670      000000
 671 05b2 E8FCFFFF 		call	chEvtBroadcastFlags	#
 671      FF
 672              	.LVL85:
 673              		.loc 1 147 0
 674 05b7 31C0     		xorl	%eax, %eax	#
 675 05b9 83C41C   		addl	$28, %esp	#,
 676              		.cfi_def_cfa_offset 4
 677 05bc C3       		ret
GAS LISTING /tmp/cctuymYX.s 			page 16


 678              		.cfi_endproc
 679              	.LFE14:
 680              		.size	thread2, .-thread2
 681 05bd 8D7600   		.p2align 4,,15
 682              		.type	thread1, @function
 683              	thread1:
 684              	.LFB13:
 685              		.loc 1 133 0
 686              		.cfi_startproc
 687              	.LVL86:
 688 05c0 83EC1C   		subl	$28, %esp	#,
 689              		.cfi_def_cfa_offset 32
 690              		.loc 1 135 0
 691 05c3 C7042432 		movl	$50, (%esp)	#,
 691      000000
 692 05ca E8FCFFFF 		call	chThdSleep	#
 692      FF
 693              	.LVL87:
 694              		.loc 1 136 0
 695 05cf 8B442420 		movl	32(%esp), %eax	# p, p
 696 05d3 C7442404 		movl	$1, 4(%esp)	#,
 696      01000000 
 697 05db 890424   		movl	%eax, (%esp)	# p,
 698 05de E8FCFFFF 		call	chEvtSignal	#
 698      FF
 699              	.LVL88:
 700              		.loc 1 138 0
 701 05e3 31C0     		xorl	%eax, %eax	#
 702 05e5 83C41C   		addl	$28, %esp	#,
 703              		.cfi_def_cfa_offset 4
 704 05e8 C3       		ret
 705              		.cfi_endproc
 706              	.LFE13:
 707              		.size	thread1, .-thread1
 708 05e9 8DB42600 		.p2align 4,,15
 708      000000
 709              		.type	evt3_execute, @function
 710              	evt3_execute:
 711              	.LFB17:
 712              		.loc 1 252 0
 713              		.cfi_startproc
 714 05f0 83EC1C   		subl	$28, %esp	#,
 715              		.cfi_def_cfa_offset 32
 716              		.loc 1 258 0
 717 05f3 C7442404 		movl	$0, 4(%esp)	#,
 717      00000000 
 718 05fb C70424FF 		movl	$-1, (%esp)	#,
 718      FFFFFF
 719 0602 E8FCFFFF 		call	chEvtWaitOneTimeout	#
 719      FF
 720              	.LVL89:
 721              		.loc 1 259 0
 722 0607 C7042401 		movl	$1, (%esp)	#,
 722      000000
 723 060e 85C0     		testl	%eax, %eax	# m
 724 0610 0F94C0   		sete	%al	#, D.2268
 725              	.LVL90:
GAS LISTING /tmp/cctuymYX.s 			page 17


 726 0613 0FB6C0   		movzbl	%al, %eax	# D.2268, D.2268
 727 0616 89442404 		movl	%eax, 4(%esp)	# D.2268,
 728 061a E8FCFFFF 		call	_test_assert	#
 728      FF
 729              	.LVL91:
 730 061f 84C0     		testb	%al, %al	# D.2268
 731 0621 7405     		je	.L30	#,
 732              	.L25:
 733              		.loc 1 270 0
 734 0623 83C41C   		addl	$28, %esp	#,
 735              		.cfi_remember_state
 736              		.cfi_def_cfa_offset 4
 737 0626 C3       		ret
 738              		.p2align 4,,7
 739 0627 90       		.p2align 3
 740              	.L30:
 741              		.cfi_restore_state
 742              		.loc 1 260 0
 743 0628 C7442404 		movl	$0, 4(%esp)	#,
 743      00000000 
 744 0630 C70424FF 		movl	$-1, (%esp)	#,
 744      FFFFFF
 745 0637 E8FCFFFF 		call	chEvtWaitAnyTimeout	#
 745      FF
 746              	.LVL92:
 747              		.loc 1 261 0
 748 063c C7042402 		movl	$2, (%esp)	#,
 748      000000
 749 0643 85C0     		testl	%eax, %eax	# m
 750 0645 0F94C0   		sete	%al	#, D.2268
 751              	.LVL93:
 752 0648 0FB6C0   		movzbl	%al, %eax	# D.2268, D.2268
 753 064b 89442404 		movl	%eax, 4(%esp)	# D.2268,
 754 064f E8FCFFFF 		call	_test_assert	#
 754      FF
 755              	.LVL94:
 756 0654 84C0     		testb	%al, %al	# D.2268
 757 0656 75CB     		jne	.L25	#,
 758              		.loc 1 262 0
 759 0658 C7442404 		movl	$0, 4(%esp)	#,
 759      00000000 
 760 0660 C70424FF 		movl	$-1, (%esp)	#,
 760      FFFFFF
 761 0667 E8FCFFFF 		call	chEvtWaitAllTimeout	#
 761      FF
 762              	.LVL95:
 763              		.loc 1 263 0
 764 066c C7042403 		movl	$3, (%esp)	#,
 764      000000
 765 0673 85C0     		testl	%eax, %eax	# m
 766 0675 0F94C0   		sete	%al	#, D.2268
 767              	.LVL96:
 768 0678 0FB6C0   		movzbl	%al, %eax	# D.2268, D.2268
 769 067b 89442404 		movl	%eax, 4(%esp)	# D.2268,
 770 067f E8FCFFFF 		call	_test_assert	#
 770      FF
 771              	.LVL97:
GAS LISTING /tmp/cctuymYX.s 			page 18


 772 0684 84C0     		testb	%al, %al	# D.2268
 773 0686 759B     		jne	.L25	#,
 774              	.LBB4:
 775              	.LBB5:
 776              		.loc 1 264 0
 777 0688 C7442404 		movl	$10, 4(%esp)	#,
 777      0A000000 
 778 0690 C70424FF 		movl	$-1, (%esp)	#,
 778      FFFFFF
 779 0697 E8FCFFFF 		call	chEvtWaitOneTimeout	#
 779      FF
 780              	.LVL98:
 781              		.loc 1 265 0
 782 069c C7042404 		movl	$4, (%esp)	#,
 782      000000
 783 06a3 85C0     		testl	%eax, %eax	# m
 784 06a5 0F94C0   		sete	%al	#, D.2268
 785              	.LVL99:
 786 06a8 0FB6C0   		movzbl	%al, %eax	# D.2268, D.2268
 787 06ab 89442404 		movl	%eax, 4(%esp)	# D.2268,
 788 06af E8FCFFFF 		call	_test_assert	#
 788      FF
 789              	.LVL100:
 790 06b4 84C0     		testb	%al, %al	# D.2268
 791 06b6 0F8567FF 		jne	.L25	#,
 791      FFFF
 792              		.loc 1 266 0
 793 06bc C7442404 		movl	$10, 4(%esp)	#,
 793      0A000000 
 794 06c4 C70424FF 		movl	$-1, (%esp)	#,
 794      FFFFFF
 795 06cb E8FCFFFF 		call	chEvtWaitAnyTimeout	#
 795      FF
 796              	.LVL101:
 797              		.loc 1 267 0
 798 06d0 C7042405 		movl	$5, (%esp)	#,
 798      000000
 799 06d7 85C0     		testl	%eax, %eax	# m
 800 06d9 0F94C0   		sete	%al	#, D.2268
 801              	.LVL102:
 802 06dc 0FB6C0   		movzbl	%al, %eax	# D.2268, D.2268
 803 06df 89442404 		movl	%eax, 4(%esp)	# D.2268,
 804 06e3 E8FCFFFF 		call	_test_assert	#
 804      FF
 805              	.LVL103:
 806 06e8 84C0     		testb	%al, %al	# D.2268
 807 06ea 0F8533FF 		jne	.L25	#,
 807      FFFF
 808              		.loc 1 268 0
 809 06f0 C7442404 		movl	$10, 4(%esp)	#,
 809      0A000000 
 810 06f8 C70424FF 		movl	$-1, (%esp)	#,
 810      FFFFFF
 811 06ff E8FCFFFF 		call	chEvtWaitAllTimeout	#
 811      FF
 812              	.LVL104:
 813              		.loc 1 269 0
GAS LISTING /tmp/cctuymYX.s 			page 19


 814 0704 C7042406 		movl	$6, (%esp)	#,
 814      000000
 815 070b 85C0     		testl	%eax, %eax	# m
 816 070d 0F94C0   		sete	%al	#, D.2268
 817              	.LVL105:
 818 0710 0FB6C0   		movzbl	%al, %eax	# D.2268, D.2268
 819 0713 89442404 		movl	%eax, 4(%esp)	# D.2268,
 820 0717 E8FCFFFF 		call	_test_assert	#
 820      FF
 821              	.LVL106:
 822 071c E902FFFF 		jmp	.L25	#
 822      FF
 823              	.LBE5:
 824              	.LBE4:
 825              		.cfi_endproc
 826              	.LFE17:
 827              		.size	evt3_execute, .-evt3_execute
 828              		.globl	patternevt
 829              		.section	.rodata
 830              		.align 4
 831              		.type	patternevt, @object
 832              		.size	patternevt, 16
 833              	patternevt:
 834 0000 00000000 		.long	testevt1
 835 0004 00000000 		.long	testevt2
 836 0008 00000000 		.long	testevt3
 837 000c 00000000 		.long	0
 838              		.globl	testevt3
 839              		.section	.rodata.str1.1
 840              	.LC2:
 841 0006 4576656E 		.string	"Events, timeouts"
 841      74732C20 
 841      74696D65 
 841      6F757473 
 841      00
 842              		.section	.rodata
 843              		.align 4
 844              		.type	testevt3, @object
 845              		.size	testevt3, 16
 846              	testevt3:
 847              	# name:
 848 0010 06000000 		.long	.LC2
 849              	# setup:
 850 0014 80010000 		.long	evt3_setup
 851              	# teardown:
 852 0018 00000000 		.long	0
 853              	# execute:
 854 001c F0050000 		.long	evt3_execute
 855              		.globl	testevt2
 856              		.section	.rodata.str1.1
 857              	.LC3:
 858 0017 4576656E 		.string	"Events, wait and broadcast"
 858      74732C20 
 858      77616974 
 858      20616E64 
 858      2062726F 
 859              		.section	.rodata
GAS LISTING /tmp/cctuymYX.s 			page 20


 860              		.align 4
 861              		.type	testevt2, @object
 862              		.size	testevt2, 16
 863              	testevt2:
 864              	# name:
 865 0020 17000000 		.long	.LC3
 866              	# setup:
 867 0024 60010000 		.long	evt2_setup
 868              	# teardown:
 869 0028 00000000 		.long	0
 870              	# execute:
 871 002c A0010000 		.long	evt2_execute
 872              		.globl	testevt1
 873              		.section	.rodata.str1.4,"aMS",@progbits,1
 874              		.align 4
 875              	.LC4:
 876 0000 4576656E 		.string	"Events, registration and dispatch"
 876      74732C20 
 876      72656769 
 876      73747261 
 876      74696F6E 
 877              		.section	.rodata
 878              		.align 4
 879              		.type	testevt1, @object
 880              		.size	testevt1, 16
 881              	testevt1:
 882              	# name:
 883 0030 00000000 		.long	.LC4
 884              	# setup:
 885 0034 40010000 		.long	evt1_setup
 886              	# teardown:
 887 0038 00000000 		.long	0
 888              	# execute:
 889 003c 00000000 		.long	evt1_execute
 890              		.align 4
 891              		.type	evhndl, @object
 892              		.size	evhndl, 12
 893              	evhndl:
 894 0040 30010000 		.long	h1
 895 0044 20010000 		.long	h2
 896 0048 10010000 		.long	h3
 897              		.data
 898              		.align 4
 899              		.type	es2, @object
 900              		.size	es2, 4
 901              	es2:
 902              	# es_next:
 903 0000 00000000 		.long	es2
 904              		.align 4
 905              		.type	es1, @object
 906              		.size	es1, 4
 907              	es1:
 908              	# es_next:
 909 0004 04000000 		.long	es1
 910              		.text
 911              	.Letext0:
 912              		.file 2 "/usr/lib/gcc/x86_64-linux-gnu/4.8/include/stddef.h"
GAS LISTING /tmp/cctuymYX.s 			page 21


 913              		.file 3 "/usr/include/stdint.h"
 914              		.file 4 "../../../os/ports/GCC/SIMIA32/chtypes.h"
 915              		.file 5 "../../../os/kernel/include/chlists.h"
 916              		.file 6 "../../../os/kernel/include/chthreads.h"
 917              		.file 7 "../../../os/ports/GCC/SIMIA32/chcore.h"
 918              		.file 8 "../../../os/kernel/include/chvt.h"
 919              		.file 9 "../../../os/kernel/include/chschd.h"
 920              		.file 10 "../../../os/kernel/include/chmtx.h"
 921              		.file 11 "../../../os/kernel/include/chevents.h"
 922              		.file 12 "../../../test/test.h"
 923              		.section	.debug_info,"",@progbits
 924              	.Ldebug_info0:
 925 0000 B8100000 		.long	0x10b8
 926 0004 0400     		.value	0x4
 927 0006 00000000 		.long	.Ldebug_abbrev0
 928 000a 04       		.byte	0x4
 929 000b 01       		.uleb128 0x1
 930 000c BC030000 		.long	.LASF124
 931 0010 01       		.byte	0x1
 932 0011 11050000 		.long	.LASF125
 933 0015 F1000000 		.long	.LASF126
 934 0019 00000000 		.long	.Ltext0
 935 001d 21070000 		.long	.Letext0-.Ltext0
 936 0021 00000000 		.long	.Ldebug_line0
 937 0025 02       		.uleb128 0x2
 938 0026 04       		.byte	0x4
 939 0027 05       		.byte	0x5
 940 0028 696E7400 		.string	"int"
 941 002c 03       		.uleb128 0x3
 942 002d 34000000 		.long	.LASF4
 943 0031 02       		.byte	0x2
 944 0032 D4       		.byte	0xd4
 945 0033 37000000 		.long	0x37
 946 0037 04       		.uleb128 0x4
 947 0038 04       		.byte	0x4
 948 0039 07       		.byte	0x7
 949 003a E4010000 		.long	.LASF0
 950 003e 04       		.uleb128 0x4
 951 003f 04       		.byte	0x4
 952 0040 05       		.byte	0x5
 953 0041 33010000 		.long	.LASF1
 954 0045 04       		.uleb128 0x4
 955 0046 01       		.byte	0x1
 956 0047 06       		.byte	0x6
 957 0048 BA000000 		.long	.LASF2
 958 004c 04       		.uleb128 0x4
 959 004d 02       		.byte	0x2
 960 004e 05       		.byte	0x5
 961 004f 38040000 		.long	.LASF3
 962 0053 03       		.uleb128 0x3
 963 0054 99030000 		.long	.LASF5
 964 0058 03       		.byte	0x3
 965 0059 26       		.byte	0x26
 966 005a 25000000 		.long	0x25
 967 005e 04       		.uleb128 0x4
 968 005f 08       		.byte	0x8
 969 0060 05       		.byte	0x5
GAS LISTING /tmp/cctuymYX.s 			page 22


 970 0061 AC000000 		.long	.LASF6
 971 0065 03       		.uleb128 0x3
 972 0066 40050000 		.long	.LASF7
 973 006a 03       		.byte	0x3
 974 006b 30       		.byte	0x30
 975 006c 70000000 		.long	0x70
 976 0070 04       		.uleb128 0x4
 977 0071 01       		.byte	0x1
 978 0072 08       		.byte	0x8
 979 0073 A1030000 		.long	.LASF8
 980 0077 04       		.uleb128 0x4
 981 0078 02       		.byte	0x2
 982 0079 07       		.byte	0x7
 983 007a 3C020000 		.long	.LASF9
 984 007e 03       		.uleb128 0x3
 985 007f A4040000 		.long	.LASF10
 986 0083 03       		.byte	0x3
 987 0084 33       		.byte	0x33
 988 0085 37000000 		.long	0x37
 989 0089 04       		.uleb128 0x4
 990 008a 08       		.byte	0x8
 991 008b 07       		.byte	0x7
 992 008c 55000000 		.long	.LASF11
 993 0090 03       		.uleb128 0x3
 994 0091 E2000000 		.long	.LASF12
 995 0095 04       		.byte	0x4
 996 0096 23       		.byte	0x23
 997 0097 9B000000 		.long	0x9b
 998 009b 04       		.uleb128 0x4
 999 009c 01       		.byte	0x1
 1000 009d 02       		.byte	0x2
 1001 009e 93030000 		.long	.LASF13
 1002 00a2 03       		.uleb128 0x3
 1003 00a3 7F020000 		.long	.LASF14
 1004 00a7 04       		.byte	0x4
 1005 00a8 24       		.byte	0x24
 1006 00a9 65000000 		.long	0x65
 1007 00ad 03       		.uleb128 0x3
 1008 00ae 48010000 		.long	.LASF15
 1009 00b2 04       		.byte	0x4
 1010 00b3 25       		.byte	0x25
 1011 00b4 65000000 		.long	0x65
 1012 00b8 03       		.uleb128 0x3
 1013 00b9 74030000 		.long	.LASF16
 1014 00bd 04       		.byte	0x4
 1015 00be 26       		.byte	0x26
 1016 00bf 65000000 		.long	0x65
 1017 00c3 03       		.uleb128 0x3
 1018 00c4 29010000 		.long	.LASF17
 1019 00c8 04       		.byte	0x4
 1020 00c9 27       		.byte	0x27
 1021 00ca 65000000 		.long	0x65
 1022 00ce 03       		.uleb128 0x3
 1023 00cf 8B030000 		.long	.LASF18
 1024 00d3 04       		.byte	0x4
 1025 00d4 28       		.byte	0x28
 1026 00d5 7E000000 		.long	0x7e
GAS LISTING /tmp/cctuymYX.s 			page 23


 1027 00d9 03       		.uleb128 0x3
 1028 00da 61020000 		.long	.LASF19
 1029 00de 04       		.byte	0x4
 1030 00df 29       		.byte	0x29
 1031 00e0 53000000 		.long	0x53
 1032 00e4 03       		.uleb128 0x3
 1033 00e5 C2010000 		.long	.LASF20
 1034 00e9 04       		.byte	0x4
 1035 00ea 2A       		.byte	0x2a
 1036 00eb 53000000 		.long	0x53
 1037 00ef 03       		.uleb128 0x3
 1038 00f0 93020000 		.long	.LASF21
 1039 00f4 04       		.byte	0x4
 1040 00f5 2B       		.byte	0x2b
 1041 00f6 7E000000 		.long	0x7e
 1042 00fa 03       		.uleb128 0x3
 1043 00fb FA040000 		.long	.LASF22
 1044 00ff 04       		.byte	0x4
 1045 0100 2C       		.byte	0x2c
 1046 0101 7E000000 		.long	0x7e
 1047 0105 03       		.uleb128 0x3
 1048 0106 C7040000 		.long	.LASF23
 1049 010a 04       		.byte	0x4
 1050 010b 2D       		.byte	0x2d
 1051 010c 7E000000 		.long	0x7e
 1052 0110 03       		.uleb128 0x3
 1053 0111 79040000 		.long	.LASF24
 1054 0115 05       		.byte	0x5
 1055 0116 2A       		.byte	0x2a
 1056 0117 1B010000 		.long	0x11b
 1057 011b 05       		.uleb128 0x5
 1058 011c 79040000 		.long	.LASF24
 1059 0120 48       		.byte	0x48
 1060 0121 06       		.byte	0x6
 1061 0122 5E       		.byte	0x5e
 1062 0123 18020000 		.long	0x218
 1063 0127 06       		.uleb128 0x6
 1064 0128 6A040000 		.long	.LASF25
 1065 012c 06       		.byte	0x6
 1066 012d 5F       		.byte	0x5f
 1067 012e 39020000 		.long	0x239
 1068 0132 00       		.byte	0
 1069 0133 06       		.uleb128 0x6
 1070 0134 7C030000 		.long	.LASF26
 1071 0138 06       		.byte	0x6
 1072 0139 61       		.byte	0x61
 1073 013a 39020000 		.long	0x239
 1074 013e 04       		.byte	0x4
 1075 013f 06       		.uleb128 0x6
 1076 0140 98000000 		.long	.LASF27
 1077 0144 06       		.byte	0x6
 1078 0145 63       		.byte	0x63
 1079 0146 CE000000 		.long	0xce
 1080 014a 08       		.byte	0x8
 1081 014b 06       		.uleb128 0x6
 1082 014c B6050000 		.long	.LASF28
 1083 0150 06       		.byte	0x6
GAS LISTING /tmp/cctuymYX.s 			page 24


 1084 0151 64       		.byte	0x64
 1085 0152 C7020000 		.long	0x2c7
 1086 0156 0C       		.byte	0xc
 1087 0157 06       		.uleb128 0x6
 1088 0158 89010000 		.long	.LASF29
 1089 015c 06       		.byte	0x6
 1090 015d 66       		.byte	0x66
 1091 015e 39020000 		.long	0x239
 1092 0162 10       		.byte	0x10
 1093 0163 06       		.uleb128 0x6
 1094 0164 06030000 		.long	.LASF30
 1095 0168 06       		.byte	0x6
 1096 0169 67       		.byte	0x67
 1097 016a 39020000 		.long	0x239
 1098 016e 14       		.byte	0x14
 1099 016f 06       		.uleb128 0x6
 1100 0170 5D050000 		.long	.LASF31
 1101 0174 06       		.byte	0x6
 1102 0175 6E       		.byte	0x6e
 1103 0176 0B050000 		.long	0x50b
 1104 017a 18       		.byte	0x18
 1105 017b 06       		.uleb128 0x6
 1106 017c 42040000 		.long	.LASF32
 1107 0180 06       		.byte	0x6
 1108 0181 79       		.byte	0x79
 1109 0182 AD000000 		.long	0xad
 1110 0186 1C       		.byte	0x1c
 1111 0187 06       		.uleb128 0x6
 1112 0188 71040000 		.long	.LASF33
 1113 018c 06       		.byte	0x6
 1114 018d 7D       		.byte	0x7d
 1115 018e A2000000 		.long	0xa2
 1116 0192 1D       		.byte	0x1d
 1117 0193 06       		.uleb128 0x6
 1118 0194 29050000 		.long	.LASF34
 1119 0198 06       		.byte	0x6
 1120 0199 82       		.byte	0x82
 1121 019a B8000000 		.long	0xb8
 1122 019e 1E       		.byte	0x1e
 1123 019f 06       		.uleb128 0x6
 1124 01a0 4A040000 		.long	.LASF35
 1125 01a4 06       		.byte	0x6
 1126 01a5 88       		.byte	0x88
 1127 01a6 C3000000 		.long	0xc3
 1128 01aa 1F       		.byte	0x1f
 1129 01ab 06       		.uleb128 0x6
 1130 01ac E5040000 		.long	.LASF36
 1131 01b0 06       		.byte	0x6
 1132 01b1 8F       		.byte	0x8f
 1133 01b2 9A030000 		.long	0x39a
 1134 01b6 20       		.byte	0x20
 1135 01b7 07       		.uleb128 0x7
 1136 01b8 705F7500 		.string	"p_u"
 1137 01bc 06       		.byte	0x6
 1138 01bd B4       		.byte	0xb4
 1139 01be D6040000 		.long	0x4d6
 1140 01c2 24       		.byte	0x24
GAS LISTING /tmp/cctuymYX.s 			page 25


 1141 01c3 06       		.uleb128 0x6
 1142 01c4 BC050000 		.long	.LASF37
 1143 01c8 06       		.byte	0x6
 1144 01c9 B9       		.byte	0xb9
 1145 01ca 5F020000 		.long	0x25f
 1146 01ce 28       		.byte	0x28
 1147 01cf 06       		.uleb128 0x6
 1148 01d0 F9010000 		.long	.LASF38
 1149 01d4 06       		.byte	0x6
 1150 01d5 BF       		.byte	0xbf
 1151 01d6 3F020000 		.long	0x23f
 1152 01da 2C       		.byte	0x2c
 1153 01db 06       		.uleb128 0x6
 1154 01dc 13000000 		.long	.LASF39
 1155 01e0 06       		.byte	0x6
 1156 01e1 C3       		.byte	0xc3
 1157 01e2 D9000000 		.long	0xd9
 1158 01e6 34       		.byte	0x34
 1159 01e7 06       		.uleb128 0x6
 1160 01e8 89040000 		.long	.LASF40
 1161 01ec 06       		.byte	0x6
 1162 01ed C9       		.byte	0xc9
 1163 01ee EF000000 		.long	0xef
 1164 01f2 38       		.byte	0x38
 1165 01f3 06       		.uleb128 0x6
 1166 01f4 2E040000 		.long	.LASF41
 1167 01f8 06       		.byte	0x6
 1168 01f9 D0       		.byte	0xd0
 1169 01fa 1D050000 		.long	0x51d
 1170 01fe 3C       		.byte	0x3c
 1171 01ff 06       		.uleb128 0x6
 1172 0200 D1040000 		.long	.LASF42
 1173 0204 06       		.byte	0x6
 1174 0205 D4       		.byte	0xd4
 1175 0206 CE000000 		.long	0xce
 1176 020a 40       		.byte	0x40
 1177 020b 06       		.uleb128 0x6
 1178 020c DA000000 		.long	.LASF43
 1179 0210 06       		.byte	0x6
 1180 0211 DA       		.byte	0xda
 1181 0212 7C020000 		.long	0x27c
 1182 0216 44       		.byte	0x44
 1183 0217 00       		.byte	0
 1184 0218 08       		.uleb128 0x8
 1185 0219 08       		.byte	0x8
 1186 021a 05       		.byte	0x5
 1187 021b 61       		.byte	0x61
 1188 021c 39020000 		.long	0x239
 1189 0220 06       		.uleb128 0x6
 1190 0221 6A040000 		.long	.LASF25
 1191 0225 05       		.byte	0x5
 1192 0226 62       		.byte	0x62
 1193 0227 39020000 		.long	0x239
 1194 022b 00       		.byte	0
 1195 022c 06       		.uleb128 0x6
 1196 022d 7C030000 		.long	.LASF26
 1197 0231 05       		.byte	0x5
GAS LISTING /tmp/cctuymYX.s 			page 26


 1198 0232 64       		.byte	0x64
 1199 0233 39020000 		.long	0x239
 1200 0237 04       		.byte	0x4
 1201 0238 00       		.byte	0
 1202 0239 09       		.uleb128 0x9
 1203 023a 04       		.byte	0x4
 1204 023b 10010000 		.long	0x110
 1205 023f 03       		.uleb128 0x3
 1206 0240 24030000 		.long	.LASF44
 1207 0244 05       		.byte	0x5
 1208 0245 66       		.byte	0x66
 1209 0246 18020000 		.long	0x218
 1210 024a 08       		.uleb128 0x8
 1211 024b 04       		.byte	0x4
 1212 024c 05       		.byte	0x5
 1213 024d 6B       		.byte	0x6b
 1214 024e 5F020000 		.long	0x25f
 1215 0252 06       		.uleb128 0x6
 1216 0253 6A040000 		.long	.LASF25
 1217 0257 05       		.byte	0x5
 1218 0258 6D       		.byte	0x6d
 1219 0259 39020000 		.long	0x239
 1220 025d 00       		.byte	0
 1221 025e 00       		.byte	0
 1222 025f 03       		.uleb128 0x3
 1223 0260 87020000 		.long	.LASF45
 1224 0264 05       		.byte	0x5
 1225 0265 70       		.byte	0x70
 1226 0266 4A020000 		.long	0x24a
 1227 026a 04       		.uleb128 0x4
 1228 026b 04       		.byte	0x4
 1229 026c 07       		.byte	0x7
 1230 026d CA020000 		.long	.LASF46
 1231 0271 03       		.uleb128 0x3
 1232 0272 84050000 		.long	.LASF47
 1233 0276 07       		.byte	0x7
 1234 0277 4B       		.byte	0x4b
 1235 0278 7C020000 		.long	0x27c
 1236 027c 0A       		.uleb128 0xa
 1237 027d 04       		.byte	0x4
 1238 027e 05       		.uleb128 0x5
 1239 027f EC040000 		.long	.LASF48
 1240 0283 14       		.byte	0x14
 1241 0284 07       		.byte	0x7
 1242 0285 59       		.byte	0x59
 1243 0286 C7020000 		.long	0x2c7
 1244 028a 07       		.uleb128 0x7
 1245 028b 65627800 		.string	"ebx"
 1246 028f 07       		.byte	0x7
 1247 0290 5A       		.byte	0x5a
 1248 0291 71020000 		.long	0x271
 1249 0295 00       		.byte	0
 1250 0296 07       		.uleb128 0x7
 1251 0297 65646900 		.string	"edi"
 1252 029b 07       		.byte	0x7
 1253 029c 5B       		.byte	0x5b
 1254 029d 71020000 		.long	0x271
GAS LISTING /tmp/cctuymYX.s 			page 27


 1255 02a1 04       		.byte	0x4
 1256 02a2 07       		.uleb128 0x7
 1257 02a3 65736900 		.string	"esi"
 1258 02a7 07       		.byte	0x7
 1259 02a8 5C       		.byte	0x5c
 1260 02a9 71020000 		.long	0x271
 1261 02ad 08       		.byte	0x8
 1262 02ae 07       		.uleb128 0x7
 1263 02af 65627000 		.string	"ebp"
 1264 02b3 07       		.byte	0x7
 1265 02b4 5D       		.byte	0x5d
 1266 02b5 71020000 		.long	0x271
 1267 02b9 0C       		.byte	0xc
 1268 02ba 07       		.uleb128 0x7
 1269 02bb 65697000 		.string	"eip"
 1270 02bf 07       		.byte	0x7
 1271 02c0 5E       		.byte	0x5e
 1272 02c1 71020000 		.long	0x271
 1273 02c5 10       		.byte	0x10
 1274 02c6 00       		.byte	0
 1275 02c7 05       		.uleb128 0x5
 1276 02c8 34020000 		.long	.LASF49
 1277 02cc 04       		.byte	0x4
 1278 02cd 07       		.byte	0x7
 1279 02ce 66       		.byte	0x66
 1280 02cf E0020000 		.long	0x2e0
 1281 02d3 07       		.uleb128 0x7
 1282 02d4 65737000 		.string	"esp"
 1283 02d8 07       		.byte	0x7
 1284 02d9 67       		.byte	0x67
 1285 02da E0020000 		.long	0x2e0
 1286 02de 00       		.byte	0
 1287 02df 00       		.byte	0
 1288 02e0 09       		.uleb128 0x9
 1289 02e1 04       		.byte	0x4
 1290 02e2 E6020000 		.long	0x2e6
 1291 02e6 0B       		.uleb128 0xb
 1292 02e7 7E020000 		.long	0x27e
 1293 02eb 03       		.uleb128 0x3
 1294 02ec DC040000 		.long	.LASF50
 1295 02f0 08       		.byte	0x8
 1296 02f1 58       		.byte	0x58
 1297 02f2 F6020000 		.long	0x2f6
 1298 02f6 09       		.uleb128 0x9
 1299 02f7 04       		.byte	0x4
 1300 02f8 FC020000 		.long	0x2fc
 1301 02fc 0C       		.uleb128 0xc
 1302 02fd 07030000 		.long	0x307
 1303 0301 0D       		.uleb128 0xd
 1304 0302 7C020000 		.long	0x27c
 1305 0306 00       		.byte	0
 1306 0307 03       		.uleb128 0x3
 1307 0308 B5040000 		.long	.LASF51
 1308 030c 08       		.byte	0x8
 1309 030d 5D       		.byte	0x5d
 1310 030e 12030000 		.long	0x312
 1311 0312 05       		.uleb128 0x5
GAS LISTING /tmp/cctuymYX.s 			page 28


 1312 0313 B5040000 		.long	.LASF51
 1313 0317 14       		.byte	0x14
 1314 0318 08       		.byte	0x8
 1315 0319 64       		.byte	0x64
 1316 031a 5B030000 		.long	0x35b
 1317 031e 06       		.uleb128 0x6
 1318 031f F1010000 		.long	.LASF52
 1319 0323 08       		.byte	0x8
 1320 0324 65       		.byte	0x65
 1321 0325 5B030000 		.long	0x35b
 1322 0329 00       		.byte	0
 1323 032a 06       		.uleb128 0x6
 1324 032b A6010000 		.long	.LASF53
 1325 032f 08       		.byte	0x8
 1326 0330 67       		.byte	0x67
 1327 0331 5B030000 		.long	0x35b
 1328 0335 04       		.byte	0x4
 1329 0336 06       		.uleb128 0x6
 1330 0337 B7020000 		.long	.LASF54
 1331 033b 08       		.byte	0x8
 1332 033c 69       		.byte	0x69
 1333 033d 05010000 		.long	0x105
 1334 0341 08       		.byte	0x8
 1335 0342 06       		.uleb128 0x6
 1336 0343 D3020000 		.long	.LASF55
 1337 0347 08       		.byte	0x8
 1338 0348 6A       		.byte	0x6a
 1339 0349 EB020000 		.long	0x2eb
 1340 034d 0C       		.byte	0xc
 1341 034e 06       		.uleb128 0x6
 1342 034f F3040000 		.long	.LASF56
 1343 0353 08       		.byte	0x8
 1344 0354 6C       		.byte	0x6c
 1345 0355 7C020000 		.long	0x27c
 1346 0359 10       		.byte	0x10
 1347 035a 00       		.byte	0
 1348 035b 09       		.uleb128 0x9
 1349 035c 04       		.byte	0x4
 1350 035d 07030000 		.long	0x307
 1351 0361 08       		.uleb128 0x8
 1352 0362 10       		.byte	0x10
 1353 0363 08       		.byte	0x8
 1354 0364 76       		.byte	0x76
 1355 0365 9A030000 		.long	0x39a
 1356 0369 06       		.uleb128 0x6
 1357 036a F1010000 		.long	.LASF52
 1358 036e 08       		.byte	0x8
 1359 036f 77       		.byte	0x77
 1360 0370 5B030000 		.long	0x35b
 1361 0374 00       		.byte	0
 1362 0375 06       		.uleb128 0x6
 1363 0376 A6010000 		.long	.LASF53
 1364 037a 08       		.byte	0x8
 1365 037b 79       		.byte	0x79
 1366 037c 5B030000 		.long	0x35b
 1367 0380 04       		.byte	0x4
 1368 0381 06       		.uleb128 0x6
GAS LISTING /tmp/cctuymYX.s 			page 29


 1369 0382 B7020000 		.long	.LASF54
 1370 0386 08       		.byte	0x8
 1371 0387 7B       		.byte	0x7b
 1372 0388 05010000 		.long	0x105
 1373 038c 08       		.byte	0x8
 1374 038d 06       		.uleb128 0x6
 1375 038e 71050000 		.long	.LASF57
 1376 0392 08       		.byte	0x8
 1377 0393 7C       		.byte	0x7c
 1378 0394 9A030000 		.long	0x39a
 1379 0398 0C       		.byte	0xc
 1380 0399 00       		.byte	0
 1381 039a 0B       		.uleb128 0xb
 1382 039b 05010000 		.long	0x105
 1383 039f 03       		.uleb128 0x3
 1384 03a0 8B050000 		.long	.LASF58
 1385 03a4 08       		.byte	0x8
 1386 03a5 7D       		.byte	0x7d
 1387 03a6 61030000 		.long	0x361
 1388 03aa 08       		.uleb128 0x8
 1389 03ab 1C       		.byte	0x1c
 1390 03ac 09       		.byte	0x9
 1391 03ad 5E       		.byte	0x5e
 1392 03ae FB030000 		.long	0x3fb
 1393 03b2 06       		.uleb128 0x6
 1394 03b3 AD040000 		.long	.LASF59
 1395 03b7 09       		.byte	0x9
 1396 03b8 5F       		.byte	0x5f
 1397 03b9 3F020000 		.long	0x23f
 1398 03bd 00       		.byte	0
 1399 03be 06       		.uleb128 0x6
 1400 03bf 5C040000 		.long	.LASF60
 1401 03c3 09       		.byte	0x9
 1402 03c4 60       		.byte	0x60
 1403 03c5 CE000000 		.long	0xce
 1404 03c9 08       		.byte	0x8
 1405 03ca 06       		.uleb128 0x6
 1406 03cb 1E030000 		.long	.LASF61
 1407 03cf 09       		.byte	0x9
 1408 03d0 62       		.byte	0x62
 1409 03d1 C7020000 		.long	0x2c7
 1410 03d5 0C       		.byte	0xc
 1411 03d6 06       		.uleb128 0x6
 1412 03d7 91010000 		.long	.LASF62
 1413 03db 09       		.byte	0x9
 1414 03dc 65       		.byte	0x65
 1415 03dd 39020000 		.long	0x239
 1416 03e1 10       		.byte	0x10
 1417 03e2 06       		.uleb128 0x6
 1418 03e3 64030000 		.long	.LASF63
 1419 03e7 09       		.byte	0x9
 1420 03e8 66       		.byte	0x66
 1421 03e9 39020000 		.long	0x239
 1422 03ed 14       		.byte	0x14
 1423 03ee 06       		.uleb128 0x6
 1424 03ef 5A030000 		.long	.LASF64
 1425 03f3 09       		.byte	0x9
GAS LISTING /tmp/cctuymYX.s 			page 30


 1426 03f4 69       		.byte	0x69
 1427 03f5 39020000 		.long	0x239
 1428 03f9 18       		.byte	0x18
 1429 03fa 00       		.byte	0
 1430 03fb 03       		.uleb128 0x3
 1431 03fc 30050000 		.long	.LASF65
 1432 0400 09       		.byte	0x9
 1433 0401 6B       		.byte	0x6b
 1434 0402 AA030000 		.long	0x3aa
 1435 0406 05       		.uleb128 0x5
 1436 0407 9F020000 		.long	.LASF66
 1437 040b 10       		.byte	0x10
 1438 040c 0A       		.byte	0xa
 1439 040d 2C       		.byte	0x2c
 1440 040e 37040000 		.long	0x437
 1441 0412 06       		.uleb128 0x6
 1442 0413 E9000000 		.long	.LASF67
 1443 0417 0A       		.byte	0xa
 1444 0418 2D       		.byte	0x2d
 1445 0419 3F020000 		.long	0x23f
 1446 041d 00       		.byte	0
 1447 041e 06       		.uleb128 0x6
 1448 041f 92050000 		.long	.LASF68
 1449 0423 0A       		.byte	0xa
 1450 0424 2F       		.byte	0x2f
 1451 0425 39020000 		.long	0x239
 1452 0429 08       		.byte	0x8
 1453 042a 06       		.uleb128 0x6
 1454 042b 19000000 		.long	.LASF69
 1455 042f 0A       		.byte	0xa
 1456 0430 31       		.byte	0x31
 1457 0431 37040000 		.long	0x437
 1458 0435 0C       		.byte	0xc
 1459 0436 00       		.byte	0
 1460 0437 09       		.uleb128 0x9
 1461 0438 04       		.byte	0x4
 1462 0439 06040000 		.long	0x406
 1463 043d 03       		.uleb128 0x3
 1464 043e 9F020000 		.long	.LASF66
 1465 0442 0A       		.byte	0xa
 1466 0443 33       		.byte	0x33
 1467 0444 06040000 		.long	0x406
 1468 0448 03       		.uleb128 0x3
 1469 0449 48050000 		.long	.LASF70
 1470 044d 0B       		.byte	0xb
 1471 044e 2C       		.byte	0x2c
 1472 044f 53040000 		.long	0x453
 1473 0453 05       		.uleb128 0x5
 1474 0454 48050000 		.long	.LASF70
 1475 0458 10       		.byte	0x10
 1476 0459 0B       		.byte	0xb
 1477 045a 31       		.byte	0x31
 1478 045b 90040000 		.long	0x490
 1479 045f 06       		.uleb128 0x6
 1480 0460 67020000 		.long	.LASF71
 1481 0464 0B       		.byte	0xb
 1482 0465 32       		.byte	0x32
GAS LISTING /tmp/cctuymYX.s 			page 31


 1483 0466 90040000 		.long	0x490
 1484 046a 00       		.byte	0
 1485 046b 06       		.uleb128 0x6
 1486 046c 19040000 		.long	.LASF72
 1487 0470 0B       		.byte	0xb
 1488 0471 35       		.byte	0x35
 1489 0472 39020000 		.long	0x239
 1490 0476 04       		.byte	0x4
 1491 0477 06       		.uleb128 0x6
 1492 0478 6C030000 		.long	.LASF73
 1493 047c 0B       		.byte	0xb
 1494 047d 37       		.byte	0x37
 1495 047e EF000000 		.long	0xef
 1496 0482 08       		.byte	0x8
 1497 0483 06       		.uleb128 0x6
 1498 0484 25040000 		.long	.LASF74
 1499 0488 0B       		.byte	0xb
 1500 0489 3A       		.byte	0x3a
 1501 048a FA000000 		.long	0xfa
 1502 048e 0C       		.byte	0xc
 1503 048f 00       		.byte	0
 1504 0490 09       		.uleb128 0x9
 1505 0491 04       		.byte	0x4
 1506 0492 48040000 		.long	0x448
 1507 0496 05       		.uleb128 0x5
 1508 0497 CC010000 		.long	.LASF75
 1509 049b 04       		.byte	0x4
 1510 049c 0B       		.byte	0xb
 1511 049d 41       		.byte	0x41
 1512 049e AF040000 		.long	0x4af
 1513 04a2 06       		.uleb128 0x6
 1514 04a3 7C050000 		.long	.LASF76
 1515 04a7 0B       		.byte	0xb
 1516 04a8 42       		.byte	0x42
 1517 04a9 90040000 		.long	0x490
 1518 04ad 00       		.byte	0
 1519 04ae 00       		.byte	0
 1520 04af 03       		.uleb128 0x3
 1521 04b0 CC010000 		.long	.LASF75
 1522 04b4 0B       		.byte	0xb
 1523 04b5 45       		.byte	0x45
 1524 04b6 96040000 		.long	0x496
 1525 04ba 03       		.uleb128 0x3
 1526 04bb D8010000 		.long	.LASF77
 1527 04bf 0B       		.byte	0xb
 1528 04c0 4A       		.byte	0x4a
 1529 04c1 C5040000 		.long	0x4c5
 1530 04c5 09       		.uleb128 0x9
 1531 04c6 04       		.byte	0x4
 1532 04c7 CB040000 		.long	0x4cb
 1533 04cb 0C       		.uleb128 0xc
 1534 04cc D6040000 		.long	0x4d6
 1535 04d0 0D       		.uleb128 0xd
 1536 04d1 E4000000 		.long	0xe4
 1537 04d5 00       		.byte	0
 1538 04d6 0E       		.uleb128 0xe
 1539 04d7 04       		.byte	0x4
GAS LISTING /tmp/cctuymYX.s 			page 32


 1540 04d8 06       		.byte	0x6
 1541 04d9 96       		.byte	0x96
 1542 04da 0B050000 		.long	0x50b
 1543 04de 0F       		.uleb128 0xf
 1544 04df 3B000000 		.long	.LASF78
 1545 04e3 06       		.byte	0x6
 1546 04e4 9D       		.byte	0x9d
 1547 04e5 D9000000 		.long	0xd9
 1548 04e9 0F       		.uleb128 0xf
 1549 04ea 7B000000 		.long	.LASF79
 1550 04ee 06       		.byte	0x6
 1551 04ef A4       		.byte	0xa4
 1552 04f0 D9000000 		.long	0xd9
 1553 04f4 0F       		.uleb128 0xf
 1554 04f5 56050000 		.long	.LASF80
 1555 04f9 06       		.byte	0x6
 1556 04fa AB       		.byte	0xab
 1557 04fb 7C020000 		.long	0x27c
 1558 04ff 0F       		.uleb128 0xf
 1559 0500 63040000 		.long	.LASF81
 1560 0504 06       		.byte	0x6
 1561 0505 B2       		.byte	0xb2
 1562 0506 EF000000 		.long	0xef
 1563 050a 00       		.byte	0
 1564 050b 09       		.uleb128 0x9
 1565 050c 04       		.byte	0x4
 1566 050d 11050000 		.long	0x511
 1567 0511 10       		.uleb128 0x10
 1568 0512 16050000 		.long	0x516
 1569 0516 04       		.uleb128 0x4
 1570 0517 01       		.byte	0x1
 1571 0518 06       		.byte	0x6
 1572 0519 C2040000 		.long	.LASF82
 1573 051d 09       		.uleb128 0x9
 1574 051e 04       		.byte	0x4
 1575 051f 3D040000 		.long	0x43d
 1576 0523 03       		.uleb128 0x3
 1577 0524 00000000 		.long	.LASF83
 1578 0528 06       		.byte	0x6
 1579 0529 E5       		.byte	0xe5
 1580 052a 2E050000 		.long	0x52e
 1581 052e 09       		.uleb128 0x9
 1582 052f 04       		.byte	0x4
 1583 0530 34050000 		.long	0x534
 1584 0534 11       		.uleb128 0x11
 1585 0535 D9000000 		.long	0xd9
 1586 0539 43050000 		.long	0x543
 1587 053d 0D       		.uleb128 0xd
 1588 053e 7C020000 		.long	0x27c
 1589 0542 00       		.byte	0
 1590 0543 05       		.uleb128 0x5
 1591 0544 80040000 		.long	.LASF84
 1592 0548 10       		.byte	0x10
 1593 0549 0C       		.byte	0xc
 1594 054a 3B       		.byte	0x3b
 1595 054b 80050000 		.long	0x580
 1596 054f 06       		.uleb128 0x6
GAS LISTING /tmp/cctuymYX.s 			page 33


 1597 0550 2F020000 		.long	.LASF85
 1598 0554 0C       		.byte	0xc
 1599 0555 3C       		.byte	0x3c
 1600 0556 0B050000 		.long	0x50b
 1601 055a 00       		.byte	0
 1602 055b 06       		.uleb128 0x6
 1603 055c 31030000 		.long	.LASF86
 1604 0560 0C       		.byte	0xc
 1605 0561 3D       		.byte	0x3d
 1606 0562 81050000 		.long	0x581
 1607 0566 04       		.byte	0x4
 1608 0567 06       		.uleb128 0x6
 1609 0568 1B020000 		.long	.LASF87
 1610 056c 0C       		.byte	0xc
 1611 056d 3E       		.byte	0x3e
 1612 056e 81050000 		.long	0x581
 1613 0572 08       		.byte	0x8
 1614 0573 06       		.uleb128 0x6
 1615 0574 83030000 		.long	.LASF88
 1616 0578 0C       		.byte	0xc
 1617 0579 3F       		.byte	0x3f
 1618 057a 81050000 		.long	0x581
 1619 057e 0C       		.byte	0xc
 1620 057f 00       		.byte	0
 1621 0580 12       		.uleb128 0x12
 1622 0581 09       		.uleb128 0x9
 1623 0582 04       		.byte	0x4
 1624 0583 80050000 		.long	0x580
 1625 0587 13       		.uleb128 0x13
 1626 0588 99010000 		.long	.LASF127
 1627 058c 01       		.byte	0x1
 1628 058d FC       		.byte	0xfc
 1629 058e 01       		.byte	0x1
 1630 058f 9D050000 		.long	0x59d
 1631 0593 14       		.uleb128 0x14
 1632 0594 6D00     		.string	"m"
 1633 0596 01       		.byte	0x1
 1634 0597 FD       		.byte	0xfd
 1635 0598 EF000000 		.long	0xef
 1636 059c 00       		.byte	0
 1637 059d 15       		.uleb128 0x15
 1638 059e A9050000 		.long	.LASF89
 1639 05a2 01       		.byte	0x1
 1640 05a3 55       		.byte	0x55
 1641 05a4 00000000 		.long	.LFB11
 1642 05a8 03010000 		.long	.LFE11-.LFB11
 1643 05ac 01       		.uleb128 0x1
 1644 05ad 9C       		.byte	0x9c
 1645 05ae CB060000 		.long	0x6cb
 1646 05b2 16       		.uleb128 0x16
 1647 05b3 656C3100 		.string	"el1"
 1648 05b7 01       		.byte	0x1
 1649 05b8 56       		.byte	0x56
 1650 05b9 48040000 		.long	0x448
 1651 05bd 02       		.uleb128 0x2
 1652 05be 91       		.byte	0x91
 1653 05bf 50       		.sleb128 -48
GAS LISTING /tmp/cctuymYX.s 			page 34


 1654 05c0 16       		.uleb128 0x16
 1655 05c1 656C3200 		.string	"el2"
 1656 05c5 01       		.byte	0x1
 1657 05c6 56       		.byte	0x56
 1658 05c7 48040000 		.long	0x448
 1659 05cb 02       		.uleb128 0x2
 1660 05cc 91       		.byte	0x91
 1661 05cd 60       		.sleb128 -32
 1662 05ce 17       		.uleb128 0x17
 1663 05cf 2F000000 		.long	.LVL0
 1664 05d3 CC0E0000 		.long	0xecc
 1665 05d7 F3050000 		.long	0x5f3
 1666 05db 18       		.uleb128 0x18
 1667 05dc 02       		.uleb128 0x2
 1668 05dd 74       		.byte	0x74
 1669 05de 00       		.sleb128 0
 1670 05df 05       		.uleb128 0x5
 1671 05e0 03       		.byte	0x3
 1672 05e1 04000000 		.long	es1
 1673 05e5 18       		.uleb128 0x18
 1674 05e6 02       		.uleb128 0x2
 1675 05e7 74       		.byte	0x74
 1676 05e8 04       		.sleb128 4
 1677 05e9 02       		.uleb128 0x2
 1678 05ea 73       		.byte	0x73
 1679 05eb 00       		.sleb128 0
 1680 05ec 18       		.uleb128 0x18
 1681 05ed 02       		.uleb128 0x2
 1682 05ee 74       		.byte	0x74
 1683 05ef 08       		.sleb128 8
 1684 05f0 01       		.uleb128 0x1
 1685 05f1 31       		.byte	0x31
 1686 05f2 00       		.byte	0
 1687 05f3 17       		.uleb128 0x17
 1688 05f4 47000000 		.long	.LVL1
 1689 05f8 CC0E0000 		.long	0xecc
 1690 05fc 18060000 		.long	0x618
 1691 0600 18       		.uleb128 0x18
 1692 0601 02       		.uleb128 0x2
 1693 0602 74       		.byte	0x74
 1694 0603 00       		.sleb128 0
 1695 0604 05       		.uleb128 0x5
 1696 0605 03       		.byte	0x3
 1697 0606 04000000 		.long	es1
 1698 060a 18       		.uleb128 0x18
 1699 060b 02       		.uleb128 0x2
 1700 060c 74       		.byte	0x74
 1701 060d 04       		.sleb128 4
 1702 060e 02       		.uleb128 0x2
 1703 060f 76       		.byte	0x76
 1704 0610 00       		.sleb128 0
 1705 0611 18       		.uleb128 0x18
 1706 0612 02       		.uleb128 0x2
 1707 0613 74       		.byte	0x74
 1708 0614 08       		.sleb128 8
 1709 0615 01       		.uleb128 0x1
 1710 0616 32       		.byte	0x32
GAS LISTING /tmp/cctuymYX.s 			page 35


 1711 0617 00       		.byte	0
 1712 0618 17       		.uleb128 0x17
 1713 0619 66000000 		.long	.LVL2
 1714 061d ED0E0000 		.long	0xeed
 1715 0621 2C060000 		.long	0x62c
 1716 0625 18       		.uleb128 0x18
 1717 0626 02       		.uleb128 0x2
 1718 0627 74       		.byte	0x74
 1719 0628 00       		.sleb128 0
 1720 0629 01       		.uleb128 0x1
 1721 062a 31       		.byte	0x31
 1722 062b 00       		.byte	0
 1723 062c 17       		.uleb128 0x17
 1724 062d 80000000 		.long	.LVL3
 1725 0631 070F0000 		.long	0xf07
 1726 0635 4B060000 		.long	0x64b
 1727 0639 18       		.uleb128 0x18
 1728 063a 02       		.uleb128 0x2
 1729 063b 74       		.byte	0x74
 1730 063c 00       		.sleb128 0
 1731 063d 05       		.uleb128 0x5
 1732 063e 03       		.byte	0x3
 1733 063f 04000000 		.long	es1
 1734 0643 18       		.uleb128 0x18
 1735 0644 02       		.uleb128 0x2
 1736 0645 74       		.byte	0x74
 1737 0646 04       		.sleb128 4
 1738 0647 02       		.uleb128 0x2
 1739 0648 73       		.byte	0x73
 1740 0649 00       		.sleb128 0
 1741 064a 00       		.byte	0
 1742 064b 17       		.uleb128 0x17
 1743 064c 9F000000 		.long	.LVL4
 1744 0650 ED0E0000 		.long	0xeed
 1745 0654 5F060000 		.long	0x65f
 1746 0658 18       		.uleb128 0x18
 1747 0659 02       		.uleb128 0x2
 1748 065a 74       		.byte	0x74
 1749 065b 00       		.sleb128 0
 1750 065c 01       		.uleb128 0x1
 1751 065d 32       		.byte	0x32
 1752 065e 00       		.byte	0
 1753 065f 17       		.uleb128 0x17
 1754 0660 B3000000 		.long	.LVL5
 1755 0664 070F0000 		.long	0xf07
 1756 0668 7E060000 		.long	0x67e
 1757 066c 18       		.uleb128 0x18
 1758 066d 02       		.uleb128 0x2
 1759 066e 74       		.byte	0x74
 1760 066f 00       		.sleb128 0
 1761 0670 05       		.uleb128 0x5
 1762 0671 03       		.byte	0x3
 1763 0672 04000000 		.long	es1
 1764 0676 18       		.uleb128 0x18
 1765 0677 02       		.uleb128 0x2
 1766 0678 74       		.byte	0x74
 1767 0679 04       		.sleb128 4
GAS LISTING /tmp/cctuymYX.s 			page 36


 1768 067a 02       		.uleb128 0x2
 1769 067b 76       		.byte	0x76
 1770 067c 00       		.sleb128 0
 1771 067d 00       		.byte	0
 1772 067e 17       		.uleb128 0x17
 1773 067f D2000000 		.long	.LVL6
 1774 0683 ED0E0000 		.long	0xeed
 1775 0687 92060000 		.long	0x692
 1776 068b 18       		.uleb128 0x18
 1777 068c 02       		.uleb128 0x2
 1778 068d 74       		.byte	0x74
 1779 068e 00       		.sleb128 0
 1780 068f 01       		.uleb128 0x1
 1781 0690 33       		.byte	0x33
 1782 0691 00       		.byte	0
 1783 0692 17       		.uleb128 0x17
 1784 0693 EA000000 		.long	.LVL7
 1785 0697 1D0F0000 		.long	0xf1d
 1786 069b B0060000 		.long	0x6b0
 1787 069f 18       		.uleb128 0x18
 1788 06a0 02       		.uleb128 0x2
 1789 06a1 74       		.byte	0x74
 1790 06a2 00       		.sleb128 0
 1791 06a3 05       		.uleb128 0x5
 1792 06a4 03       		.byte	0x3
 1793 06a5 40000000 		.long	evhndl
 1794 06a9 18       		.uleb128 0x18
 1795 06aa 02       		.uleb128 0x2
 1796 06ab 74       		.byte	0x74
 1797 06ac 04       		.sleb128 4
 1798 06ad 01       		.uleb128 0x1
 1799 06ae 37       		.byte	0x37
 1800 06af 00       		.byte	0
 1801 06b0 19       		.uleb128 0x19
 1802 06b1 FE000000 		.long	.LVL8
 1803 06b5 3E0F0000 		.long	0xf3e
 1804 06b9 18       		.uleb128 0x18
 1805 06ba 02       		.uleb128 0x2
 1806 06bb 74       		.byte	0x74
 1807 06bc 00       		.sleb128 0
 1808 06bd 01       		.uleb128 0x1
 1809 06be 34       		.byte	0x34
 1810 06bf 18       		.uleb128 0x18
 1811 06c0 02       		.uleb128 0x2
 1812 06c1 74       		.byte	0x74
 1813 06c2 04       		.sleb128 4
 1814 06c3 05       		.uleb128 0x5
 1815 06c4 03       		.byte	0x3
 1816 06c5 00000000 		.long	.LC0
 1817 06c9 00       		.byte	0
 1818 06ca 00       		.byte	0
 1819 06cb 1A       		.uleb128 0x1a
 1820 06cc 683300   		.string	"h3"
 1821 06cf 01       		.byte	0x1
 1822 06d0 52       		.byte	0x52
 1823 06d1 10010000 		.long	.LFB10
 1824 06d5 0D000000 		.long	.LFE10-.LFB10
GAS LISTING /tmp/cctuymYX.s 			page 37


 1825 06d9 01       		.uleb128 0x1
 1826 06da 9C       		.byte	0x9c
 1827 06db FF060000 		.long	0x6ff
 1828 06df 1B       		.uleb128 0x1b
 1829 06e0 696400   		.string	"id"
 1830 06e3 01       		.byte	0x1
 1831 06e4 52       		.byte	0x52
 1832 06e5 E4000000 		.long	0xe4
 1833 06e9 00000000 		.long	.LLST0
 1834 06ed 1C       		.uleb128 0x1c
 1835 06ee 1D010000 		.long	.LVL11
 1836 06f2 5E0F0000 		.long	0xf5e
 1837 06f6 18       		.uleb128 0x18
 1838 06f7 02       		.uleb128 0x2
 1839 06f8 91       		.byte	0x91
 1840 06f9 00       		.sleb128 0
 1841 06fa 02       		.uleb128 0x2
 1842 06fb 08       		.byte	0x8
 1843 06fc 43       		.byte	0x43
 1844 06fd 00       		.byte	0
 1845 06fe 00       		.byte	0
 1846 06ff 1A       		.uleb128 0x1a
 1847 0700 683200   		.string	"h2"
 1848 0703 01       		.byte	0x1
 1849 0704 51       		.byte	0x51
 1850 0705 20010000 		.long	.LFB9
 1851 0709 0D000000 		.long	.LFE9-.LFB9
 1852 070d 01       		.uleb128 0x1
 1853 070e 9C       		.byte	0x9c
 1854 070f 33070000 		.long	0x733
 1855 0713 1B       		.uleb128 0x1b
 1856 0714 696400   		.string	"id"
 1857 0717 01       		.byte	0x1
 1858 0718 51       		.byte	0x51
 1859 0719 E4000000 		.long	0xe4
 1860 071d 14000000 		.long	.LLST1
 1861 0721 1C       		.uleb128 0x1c
 1862 0722 2D010000 		.long	.LVL14
 1863 0726 5E0F0000 		.long	0xf5e
 1864 072a 18       		.uleb128 0x18
 1865 072b 02       		.uleb128 0x2
 1866 072c 91       		.byte	0x91
 1867 072d 00       		.sleb128 0
 1868 072e 02       		.uleb128 0x2
 1869 072f 08       		.byte	0x8
 1870 0730 42       		.byte	0x42
 1871 0731 00       		.byte	0
 1872 0732 00       		.byte	0
 1873 0733 1A       		.uleb128 0x1a
 1874 0734 683100   		.string	"h1"
 1875 0737 01       		.byte	0x1
 1876 0738 50       		.byte	0x50
 1877 0739 30010000 		.long	.LFB8
 1878 073d 0D000000 		.long	.LFE8-.LFB8
 1879 0741 01       		.uleb128 0x1
 1880 0742 9C       		.byte	0x9c
 1881 0743 67070000 		.long	0x767
GAS LISTING /tmp/cctuymYX.s 			page 38


 1882 0747 1B       		.uleb128 0x1b
 1883 0748 696400   		.string	"id"
 1884 074b 01       		.byte	0x1
 1885 074c 50       		.byte	0x50
 1886 074d E4000000 		.long	0xe4
 1887 0751 28000000 		.long	.LLST2
 1888 0755 1C       		.uleb128 0x1c
 1889 0756 3D010000 		.long	.LVL17
 1890 075a 5E0F0000 		.long	0xf5e
 1891 075e 18       		.uleb128 0x18
 1892 075f 02       		.uleb128 0x2
 1893 0760 91       		.byte	0x91
 1894 0761 00       		.sleb128 0
 1895 0762 02       		.uleb128 0x2
 1896 0763 08       		.byte	0x8
 1897 0764 41       		.byte	0x41
 1898 0765 00       		.byte	0
 1899 0766 00       		.byte	0
 1900 0767 15       		.uleb128 0x15
 1901 0768 BF020000 		.long	.LASF90
 1902 076c 01       		.byte	0x1
 1903 076d 4B       		.byte	0x4b
 1904 076e 40010000 		.long	.LFB7
 1905 0772 13000000 		.long	.LFE7-.LFB7
 1906 0776 01       		.uleb128 0x1
 1907 0777 9C       		.byte	0x9c
 1908 0778 8E070000 		.long	0x78e
 1909 077c 19       		.uleb128 0x19
 1910 077d 4F010000 		.long	.LVL18
 1911 0781 6F0F0000 		.long	0xf6f
 1912 0785 18       		.uleb128 0x18
 1913 0786 02       		.uleb128 0x2
 1914 0787 74       		.byte	0x74
 1915 0788 00       		.sleb128 0
 1916 0789 02       		.uleb128 0x2
 1917 078a 09       		.byte	0x9
 1918 078b FF       		.byte	0xff
 1919 078c 00       		.byte	0
 1920 078d 00       		.byte	0
 1921 078e 15       		.uleb128 0x15
 1922 078f 08000000 		.long	.LASF91
 1923 0793 01       		.byte	0x1
 1924 0794 80       		.byte	0x80
 1925 0795 60010000 		.long	.LFB12
 1926 0799 13000000 		.long	.LFE12-.LFB12
 1927 079d 01       		.uleb128 0x1
 1928 079e 9C       		.byte	0x9c
 1929 079f B5070000 		.long	0x7b5
 1930 07a3 19       		.uleb128 0x19
 1931 07a4 6F010000 		.long	.LVL19
 1932 07a8 6F0F0000 		.long	0xf6f
 1933 07ac 18       		.uleb128 0x18
 1934 07ad 02       		.uleb128 0x2
 1935 07ae 74       		.byte	0x74
 1936 07af 00       		.sleb128 0
 1937 07b0 02       		.uleb128 0x2
 1938 07b1 09       		.byte	0x9
GAS LISTING /tmp/cctuymYX.s 			page 39


 1939 07b2 FF       		.byte	0xff
 1940 07b3 00       		.byte	0
 1941 07b4 00       		.byte	0
 1942 07b5 15       		.uleb128 0x15
 1943 07b6 E9020000 		.long	.LASF92
 1944 07ba 01       		.byte	0x1
 1945 07bb F7       		.byte	0xf7
 1946 07bc 80010000 		.long	.LFB16
 1947 07c0 13000000 		.long	.LFE16-.LFB16
 1948 07c4 01       		.uleb128 0x1
 1949 07c5 9C       		.byte	0x9c
 1950 07c6 DC070000 		.long	0x7dc
 1951 07ca 19       		.uleb128 0x19
 1952 07cb 8F010000 		.long	.LVL20
 1953 07cf 6F0F0000 		.long	0xf6f
 1954 07d3 18       		.uleb128 0x18
 1955 07d4 02       		.uleb128 0x2
 1956 07d5 74       		.byte	0x74
 1957 07d6 00       		.sleb128 0
 1958 07d7 02       		.uleb128 0x2
 1959 07d8 09       		.byte	0x9
 1960 07d9 FF       		.byte	0xff
 1961 07da 00       		.byte	0
 1962 07db 00       		.byte	0
 1963 07dc 15       		.uleb128 0x15
 1964 07dd 9F000000 		.long	.LASF93
 1965 07e1 01       		.byte	0x1
 1966 07e2 95       		.byte	0x95
 1967 07e3 A0010000 		.long	.LFB15
 1968 07e7 D1030000 		.long	.LFE15-.LFB15
 1969 07eb 01       		.uleb128 0x1
 1970 07ec 9C       		.byte	0x9c
 1971 07ed C70B0000 		.long	0xbc7
 1972 07f1 1D       		.uleb128 0x1d
 1973 07f2 6D00     		.string	"m"
 1974 07f4 01       		.byte	0x1
 1975 07f5 96       		.byte	0x96
 1976 07f6 EF000000 		.long	0xef
 1977 07fa 3C000000 		.long	.LLST3
 1978 07fe 16       		.uleb128 0x16
 1979 07ff 656C3100 		.string	"el1"
 1980 0803 01       		.byte	0x1
 1981 0804 97       		.byte	0x97
 1982 0805 48040000 		.long	0x448
 1983 0809 02       		.uleb128 0x2
 1984 080a 91       		.byte	0x91
 1985 080b 40       		.sleb128 -64
 1986 080c 16       		.uleb128 0x16
 1987 080d 656C3200 		.string	"el2"
 1988 0811 01       		.byte	0x1
 1989 0812 97       		.byte	0x97
 1990 0813 48040000 		.long	0x448
 1991 0817 02       		.uleb128 0x2
 1992 0818 91       		.byte	0x91
 1993 0819 50       		.sleb128 -48
 1994 081a 1E       		.uleb128 0x1e
 1995 081b 3C010000 		.long	.LASF94
GAS LISTING /tmp/cctuymYX.s 			page 40


 1996 081f 01       		.byte	0x1
 1997 0820 98       		.byte	0x98
 1998 0821 05010000 		.long	0x105
 1999 0825 C8000000 		.long	.LLST4
 2000 0829 17       		.uleb128 0x17
 2001 082a B3010000 		.long	.LVL21
 2002 082e 840F0000 		.long	0xf84
 2003 0832 3D080000 		.long	0x83d
 2004 0836 18       		.uleb128 0x18
 2005 0837 02       		.uleb128 0x2
 2006 0838 74       		.byte	0x74
 2007 0839 00       		.sleb128 0
 2008 083a 01       		.uleb128 0x1
 2009 083b 35       		.byte	0x35
 2010 083c 00       		.byte	0
 2011 083d 17       		.uleb128 0x17
 2012 083e BF010000 		.long	.LVL22
 2013 0842 990F0000 		.long	0xf99
 2014 0846 52080000 		.long	0x852
 2015 084a 18       		.uleb128 0x18
 2016 084b 02       		.uleb128 0x2
 2017 084c 74       		.byte	0x74
 2018 084d 00       		.sleb128 0
 2019 084e 02       		.uleb128 0x2
 2020 084f 09       		.byte	0x9
 2021 0850 FF       		.byte	0xff
 2022 0851 00       		.byte	0
 2023 0852 17       		.uleb128 0x17
 2024 0853 D8010000 		.long	.LVL24
 2025 0857 ED0E0000 		.long	0xeed
 2026 085b 66080000 		.long	0x866
 2027 085f 18       		.uleb128 0x18
 2028 0860 02       		.uleb128 0x2
 2029 0861 74       		.byte	0x74
 2030 0862 00       		.sleb128 0
 2031 0863 01       		.uleb128 0x1
 2032 0864 31       		.byte	0x31
 2033 0865 00       		.byte	0
 2034 0866 17       		.uleb128 0x17
 2035 0867 F4010000 		.long	.LVL25
 2036 086b 990F0000 		.long	0xf99
 2037 086f 7B080000 		.long	0x87b
 2038 0873 18       		.uleb128 0x18
 2039 0874 02       		.uleb128 0x2
 2040 0875 74       		.byte	0x74
 2041 0876 00       		.sleb128 0
 2042 0877 02       		.uleb128 0x2
 2043 0878 09       		.byte	0x9
 2044 0879 FF       		.byte	0xff
 2045 087a 00       		.byte	0
 2046 087b 17       		.uleb128 0x17
 2047 087c 0D020000 		.long	.LVL27
 2048 0880 ED0E0000 		.long	0xeed
 2049 0884 8F080000 		.long	0x88f
 2050 0888 18       		.uleb128 0x18
 2051 0889 02       		.uleb128 0x2
 2052 088a 74       		.byte	0x74
GAS LISTING /tmp/cctuymYX.s 			page 41


 2053 088b 00       		.sleb128 0
 2054 088c 01       		.uleb128 0x1
 2055 088d 32       		.byte	0x32
 2056 088e 00       		.byte	0
 2057 088f 17       		.uleb128 0x17
 2058 0890 1D020000 		.long	.LVL28
 2059 0894 6F0F0000 		.long	0xf6f
 2060 0898 A4080000 		.long	0x8a4
 2061 089c 18       		.uleb128 0x18
 2062 089d 02       		.uleb128 0x2
 2063 089e 74       		.byte	0x74
 2064 089f 00       		.sleb128 0
 2065 08a0 02       		.uleb128 0x2
 2066 08a1 09       		.byte	0x9
 2067 08a2 FF       		.byte	0xff
 2068 08a3 00       		.byte	0
 2069 08a4 17       		.uleb128 0x17
 2070 08a5 35020000 		.long	.LVL30
 2071 08a9 ED0E0000 		.long	0xeed
 2072 08ad B8080000 		.long	0x8b8
 2073 08b1 18       		.uleb128 0x18
 2074 08b2 02       		.uleb128 0x2
 2075 08b3 74       		.byte	0x74
 2076 08b4 00       		.sleb128 0
 2077 08b5 01       		.uleb128 0x1
 2078 08b6 33       		.byte	0x33
 2079 08b7 00       		.byte	0
 2080 08b8 1F       		.uleb128 0x1f
 2081 08b9 3E020000 		.long	.LVL31
 2082 08bd AE0F0000 		.long	0xfae
 2083 08c1 17       		.uleb128 0x17
 2084 08c2 75020000 		.long	.LVL33
 2085 08c6 B90F0000 		.long	0xfb9
 2086 08ca E8080000 		.long	0x8e8
 2087 08ce 18       		.uleb128 0x18
 2088 08cf 02       		.uleb128 0x2
 2089 08d0 74       		.byte	0x74
 2090 08d1 00       		.sleb128 0
 2091 08d2 02       		.uleb128 0x2
 2092 08d3 76       		.byte	0x76
 2093 08d4 00       		.sleb128 0
 2094 08d5 18       		.uleb128 0x18
 2095 08d6 02       		.uleb128 0x2
 2096 08d7 74       		.byte	0x74
 2097 08d8 04       		.sleb128 4
 2098 08d9 03       		.uleb128 0x3
 2099 08da 0A       		.byte	0xa
 2100 08db 7042     		.value	0x4270
 2101 08dd 18       		.uleb128 0x18
 2102 08de 02       		.uleb128 0x2
 2103 08df 74       		.byte	0x74
 2104 08e0 0C       		.sleb128 12
 2105 08e1 05       		.uleb128 0x5
 2106 08e2 03       		.byte	0x3
 2107 08e3 C0050000 		.long	thread1
 2108 08e7 00       		.byte	0
 2109 08e8 17       		.uleb128 0x17
GAS LISTING /tmp/cctuymYX.s 			page 42


 2110 08e9 86020000 		.long	.LVL34
 2111 08ed 990F0000 		.long	0xf99
 2112 08f1 FD080000 		.long	0x8fd
 2113 08f5 18       		.uleb128 0x18
 2114 08f6 02       		.uleb128 0x2
 2115 08f7 74       		.byte	0x74
 2116 08f8 00       		.sleb128 0
 2117 08f9 02       		.uleb128 0x2
 2118 08fa 09       		.byte	0x9
 2119 08fb FF       		.byte	0xff
 2120 08fc 00       		.byte	0
 2121 08fd 17       		.uleb128 0x17
 2122 08fe A2020000 		.long	.LVL38
 2123 0902 E30F0000 		.long	0xfe3
 2124 0906 1F090000 		.long	0x91f
 2125 090a 18       		.uleb128 0x18
 2126 090b 02       		.uleb128 0x2
 2127 090c 74       		.byte	0x74
 2128 090d 00       		.sleb128 0
 2129 090e 01       		.uleb128 0x1
 2130 090f 34       		.byte	0x34
 2131 0910 18       		.uleb128 0x18
 2132 0911 02       		.uleb128 0x2
 2133 0912 74       		.byte	0x74
 2134 0913 04       		.sleb128 4
 2135 0914 02       		.uleb128 0x2
 2136 0915 73       		.byte	0x73
 2137 0916 00       		.sleb128 0
 2138 0917 18       		.uleb128 0x18
 2139 0918 02       		.uleb128 0x2
 2140 0919 74       		.byte	0x74
 2141 091a 08       		.sleb128 8
 2142 091b 02       		.uleb128 0x2
 2143 091c 73       		.byte	0x73
 2144 091d 05       		.sleb128 5
 2145 091e 00       		.byte	0
 2146 091f 17       		.uleb128 0x17
 2147 0920 C2020000 		.long	.LVL39
 2148 0924 ED0E0000 		.long	0xeed
 2149 0928 33090000 		.long	0x933
 2150 092c 18       		.uleb128 0x18
 2151 092d 02       		.uleb128 0x2
 2152 092e 74       		.byte	0x74
 2153 092f 00       		.sleb128 0
 2154 0930 01       		.uleb128 0x1
 2155 0931 35       		.byte	0x35
 2156 0932 00       		.byte	0
 2157 0933 17       		.uleb128 0x17
 2158 0934 D6020000 		.long	.LVL40
 2159 0938 6F0F0000 		.long	0xf6f
 2160 093c 48090000 		.long	0x948
 2161 0940 18       		.uleb128 0x18
 2162 0941 02       		.uleb128 0x2
 2163 0942 74       		.byte	0x74
 2164 0943 00       		.sleb128 0
 2165 0944 02       		.uleb128 0x2
 2166 0945 09       		.byte	0x9
GAS LISTING /tmp/cctuymYX.s 			page 43


 2167 0946 FF       		.byte	0xff
 2168 0947 00       		.byte	0
 2169 0948 17       		.uleb128 0x17
 2170 0949 EE020000 		.long	.LVL42
 2171 094d ED0E0000 		.long	0xeed
 2172 0951 5C090000 		.long	0x95c
 2173 0955 18       		.uleb128 0x18
 2174 0956 02       		.uleb128 0x2
 2175 0957 74       		.byte	0x74
 2176 0958 00       		.sleb128 0
 2177 0959 01       		.uleb128 0x1
 2178 095a 36       		.byte	0x36
 2179 095b 00       		.byte	0
 2180 095c 1F       		.uleb128 0x1f
 2181 095d FB020000 		.long	.LVL43
 2182 0961 02100000 		.long	0x1002
 2183 0965 17       		.uleb128 0x17
 2184 0966 07030000 		.long	.LVL44
 2185 096a 840F0000 		.long	0xf84
 2186 096e 79090000 		.long	0x979
 2187 0972 18       		.uleb128 0x18
 2188 0973 02       		.uleb128 0x2
 2189 0974 74       		.byte	0x74
 2190 0975 00       		.sleb128 0
 2191 0976 01       		.uleb128 0x1
 2192 0977 35       		.byte	0x35
 2193 0978 00       		.byte	0
 2194 0979 17       		.uleb128 0x17
 2195 097a 13030000 		.long	.LVL45
 2196 097e 09100000 		.long	0x1009
 2197 0982 8E090000 		.long	0x98e
 2198 0986 18       		.uleb128 0x18
 2199 0987 02       		.uleb128 0x2
 2200 0988 74       		.byte	0x74
 2201 0989 00       		.sleb128 0
 2202 098a 02       		.uleb128 0x2
 2203 098b 09       		.byte	0x9
 2204 098c FF       		.byte	0xff
 2205 098d 00       		.byte	0
 2206 098e 17       		.uleb128 0x17
 2207 098f 2C030000 		.long	.LVL47
 2208 0993 ED0E0000 		.long	0xeed
 2209 0997 A2090000 		.long	0x9a2
 2210 099b 18       		.uleb128 0x18
 2211 099c 02       		.uleb128 0x2
 2212 099d 74       		.byte	0x74
 2213 099e 00       		.sleb128 0
 2214 099f 01       		.uleb128 0x1
 2215 09a0 37       		.byte	0x37
 2216 09a1 00       		.byte	0
 2217 09a2 17       		.uleb128 0x17
 2218 09a3 40030000 		.long	.LVL48
 2219 09a7 6F0F0000 		.long	0xf6f
 2220 09ab B7090000 		.long	0x9b7
 2221 09af 18       		.uleb128 0x18
 2222 09b0 02       		.uleb128 0x2
 2223 09b1 74       		.byte	0x74
GAS LISTING /tmp/cctuymYX.s 			page 44


 2224 09b2 00       		.sleb128 0
 2225 09b3 02       		.uleb128 0x2
 2226 09b4 09       		.byte	0x9
 2227 09b5 FF       		.byte	0xff
 2228 09b6 00       		.byte	0
 2229 09b7 17       		.uleb128 0x17
 2230 09b8 58030000 		.long	.LVL50
 2231 09bc ED0E0000 		.long	0xeed
 2232 09c0 CB090000 		.long	0x9cb
 2233 09c4 18       		.uleb128 0x18
 2234 09c5 02       		.uleb128 0x2
 2235 09c6 74       		.byte	0x74
 2236 09c7 00       		.sleb128 0
 2237 09c8 01       		.uleb128 0x1
 2238 09c9 38       		.byte	0x38
 2239 09ca 00       		.byte	0
 2240 09cb 1F       		.uleb128 0x1f
 2241 09cc 65030000 		.long	.LVL51
 2242 09d0 AE0F0000 		.long	0xfae
 2243 09d4 17       		.uleb128 0x17
 2244 09d5 96030000 		.long	.LVL53
 2245 09d9 B90F0000 		.long	0xfb9
 2246 09dd FB090000 		.long	0x9fb
 2247 09e1 18       		.uleb128 0x18
 2248 09e2 02       		.uleb128 0x2
 2249 09e3 74       		.byte	0x74
 2250 09e4 00       		.sleb128 0
 2251 09e5 02       		.uleb128 0x2
 2252 09e6 76       		.byte	0x76
 2253 09e7 00       		.sleb128 0
 2254 09e8 18       		.uleb128 0x18
 2255 09e9 02       		.uleb128 0x2
 2256 09ea 74       		.byte	0x74
 2257 09eb 04       		.sleb128 4
 2258 09ec 03       		.uleb128 0x3
 2259 09ed 0A       		.byte	0xa
 2260 09ee 7042     		.value	0x4270
 2261 09f0 18       		.uleb128 0x18
 2262 09f1 02       		.uleb128 0x2
 2263 09f2 74       		.byte	0x74
 2264 09f3 0C       		.sleb128 12
 2265 09f4 05       		.uleb128 0x5
 2266 09f5 03       		.byte	0x3
 2267 09f6 C0050000 		.long	thread1
 2268 09fa 00       		.byte	0
 2269 09fb 17       		.uleb128 0x17
 2270 09fc A7030000 		.long	.LVL54
 2271 0a00 09100000 		.long	0x1009
 2272 0a04 100A0000 		.long	0xa10
 2273 0a08 18       		.uleb128 0x18
 2274 0a09 02       		.uleb128 0x2
 2275 0a0a 74       		.byte	0x74
 2276 0a0b 00       		.sleb128 0
 2277 0a0c 02       		.uleb128 0x2
 2278 0a0d 09       		.byte	0x9
 2279 0a0e FF       		.byte	0xff
 2280 0a0f 00       		.byte	0
GAS LISTING /tmp/cctuymYX.s 			page 45


 2281 0a10 17       		.uleb128 0x17
 2282 0a11 C3030000 		.long	.LVL58
 2283 0a15 E30F0000 		.long	0xfe3
 2284 0a19 320A0000 		.long	0xa32
 2285 0a1d 18       		.uleb128 0x18
 2286 0a1e 02       		.uleb128 0x2
 2287 0a1f 74       		.byte	0x74
 2288 0a20 00       		.sleb128 0
 2289 0a21 01       		.uleb128 0x1
 2290 0a22 39       		.byte	0x39
 2291 0a23 18       		.uleb128 0x18
 2292 0a24 02       		.uleb128 0x2
 2293 0a25 74       		.byte	0x74
 2294 0a26 04       		.sleb128 4
 2295 0a27 02       		.uleb128 0x2
 2296 0a28 73       		.byte	0x73
 2297 0a29 00       		.sleb128 0
 2298 0a2a 18       		.uleb128 0x18
 2299 0a2b 02       		.uleb128 0x2
 2300 0a2c 74       		.byte	0x74
 2301 0a2d 08       		.sleb128 8
 2302 0a2e 02       		.uleb128 0x2
 2303 0a2f 73       		.byte	0x73
 2304 0a30 05       		.sleb128 5
 2305 0a31 00       		.byte	0
 2306 0a32 17       		.uleb128 0x17
 2307 0a33 E3030000 		.long	.LVL60
 2308 0a37 ED0E0000 		.long	0xeed
 2309 0a3b 460A0000 		.long	0xa46
 2310 0a3f 18       		.uleb128 0x18
 2311 0a40 02       		.uleb128 0x2
 2312 0a41 74       		.byte	0x74
 2313 0a42 00       		.sleb128 0
 2314 0a43 01       		.uleb128 0x1
 2315 0a44 3A       		.byte	0x3a
 2316 0a45 00       		.byte	0
 2317 0a46 17       		.uleb128 0x17
 2318 0a47 F7030000 		.long	.LVL61
 2319 0a4b 6F0F0000 		.long	0xf6f
 2320 0a4f 5B0A0000 		.long	0xa5b
 2321 0a53 18       		.uleb128 0x18
 2322 0a54 02       		.uleb128 0x2
 2323 0a55 74       		.byte	0x74
 2324 0a56 00       		.sleb128 0
 2325 0a57 02       		.uleb128 0x2
 2326 0a58 09       		.byte	0x9
 2327 0a59 FF       		.byte	0xff
 2328 0a5a 00       		.byte	0
 2329 0a5b 17       		.uleb128 0x17
 2330 0a5c 0F040000 		.long	.LVL63
 2331 0a60 ED0E0000 		.long	0xeed
 2332 0a64 6F0A0000 		.long	0xa6f
 2333 0a68 18       		.uleb128 0x18
 2334 0a69 02       		.uleb128 0x2
 2335 0a6a 74       		.byte	0x74
 2336 0a6b 00       		.sleb128 0
 2337 0a6c 01       		.uleb128 0x1
GAS LISTING /tmp/cctuymYX.s 			page 46


 2338 0a6d 3B       		.byte	0x3b
 2339 0a6e 00       		.byte	0
 2340 0a6f 1F       		.uleb128 0x1f
 2341 0a70 20040000 		.long	.LVL64
 2342 0a74 02100000 		.long	0x1002
 2343 0a78 17       		.uleb128 0x17
 2344 0a79 50040000 		.long	.LVL66
 2345 0a7d CC0E0000 		.long	0xecc
 2346 0a81 9D0A0000 		.long	0xa9d
 2347 0a85 18       		.uleb128 0x18
 2348 0a86 02       		.uleb128 0x2
 2349 0a87 74       		.byte	0x74
 2350 0a88 00       		.sleb128 0
 2351 0a89 05       		.uleb128 0x5
 2352 0a8a 03       		.byte	0x3
 2353 0a8b 04000000 		.long	es1
 2354 0a8f 18       		.uleb128 0x18
 2355 0a90 02       		.uleb128 0x2
 2356 0a91 74       		.byte	0x74
 2357 0a92 04       		.sleb128 4
 2358 0a93 02       		.uleb128 0x2
 2359 0a94 77       		.byte	0x77
 2360 0a95 00       		.sleb128 0
 2361 0a96 18       		.uleb128 0x18
 2362 0a97 02       		.uleb128 0x2
 2363 0a98 74       		.byte	0x74
 2364 0a99 08       		.sleb128 8
 2365 0a9a 01       		.uleb128 0x1
 2366 0a9b 31       		.byte	0x31
 2367 0a9c 00       		.byte	0
 2368 0a9d 17       		.uleb128 0x17
 2369 0a9e 68040000 		.long	.LVL67
 2370 0aa2 CC0E0000 		.long	0xecc
 2371 0aa6 C20A0000 		.long	0xac2
 2372 0aaa 18       		.uleb128 0x18
 2373 0aab 02       		.uleb128 0x2
 2374 0aac 74       		.byte	0x74
 2375 0aad 00       		.sleb128 0
 2376 0aae 05       		.uleb128 0x5
 2377 0aaf 03       		.byte	0x3
 2378 0ab0 00000000 		.long	es2
 2379 0ab4 18       		.uleb128 0x18
 2380 0ab5 02       		.uleb128 0x2
 2381 0ab6 74       		.byte	0x74
 2382 0ab7 04       		.sleb128 4
 2383 0ab8 02       		.uleb128 0x2
 2384 0ab9 73       		.byte	0x73
 2385 0aba 00       		.sleb128 0
 2386 0abb 18       		.uleb128 0x18
 2387 0abc 02       		.uleb128 0x2
 2388 0abd 74       		.byte	0x74
 2389 0abe 08       		.sleb128 8
 2390 0abf 01       		.uleb128 0x1
 2391 0ac0 34       		.byte	0x34
 2392 0ac1 00       		.byte	0
 2393 0ac2 1F       		.uleb128 0x1f
 2394 0ac3 6D040000 		.long	.LVL68
GAS LISTING /tmp/cctuymYX.s 			page 47


 2395 0ac7 AE0F0000 		.long	0xfae
 2396 0acb 17       		.uleb128 0x17
 2397 0acc A2040000 		.long	.LVL70
 2398 0ad0 B90F0000 		.long	0xfb9
 2399 0ad4 FC0A0000 		.long	0xafc
 2400 0ad8 18       		.uleb128 0x18
 2401 0ad9 02       		.uleb128 0x2
 2402 0ada 74       		.byte	0x74
 2403 0adb 00       		.sleb128 0
 2404 0adc 02       		.uleb128 0x2
 2405 0add 76       		.byte	0x76
 2406 0ade 00       		.sleb128 0
 2407 0adf 18       		.uleb128 0x18
 2408 0ae0 02       		.uleb128 0x2
 2409 0ae1 74       		.byte	0x74
 2410 0ae2 04       		.sleb128 4
 2411 0ae3 03       		.uleb128 0x3
 2412 0ae4 0A       		.byte	0xa
 2413 0ae5 7042     		.value	0x4270
 2414 0ae7 18       		.uleb128 0x18
 2415 0ae8 02       		.uleb128 0x2
 2416 0ae9 74       		.byte	0x74
 2417 0aea 0C       		.sleb128 12
 2418 0aeb 05       		.uleb128 0x5
 2419 0aec 03       		.byte	0x3
 2420 0aed 80050000 		.long	thread2
 2421 0af1 18       		.uleb128 0x18
 2422 0af2 02       		.uleb128 0x2
 2423 0af3 74       		.byte	0x74
 2424 0af4 10       		.sleb128 16
 2425 0af5 05       		.uleb128 0x5
 2426 0af6 03       		.byte	0x3
 2427 0af7 04000000 		.long	.LC1
 2428 0afb 00       		.byte	0
 2429 0afc 17       		.uleb128 0x17
 2430 0afd B3040000 		.long	.LVL71
 2431 0b01 1E100000 		.long	0x101e
 2432 0b05 100B0000 		.long	0xb10
 2433 0b09 18       		.uleb128 0x18
 2434 0b0a 02       		.uleb128 0x2
 2435 0b0b 74       		.byte	0x74
 2436 0b0c 00       		.sleb128 0
 2437 0b0d 01       		.uleb128 0x1
 2438 0b0e 35       		.byte	0x35
 2439 0b0f 00       		.byte	0
 2440 0b10 17       		.uleb128 0x17
 2441 0b11 CD040000 		.long	.LVL73
 2442 0b15 E30F0000 		.long	0xfe3
 2443 0b19 320B0000 		.long	0xb32
 2444 0b1d 18       		.uleb128 0x18
 2445 0b1e 02       		.uleb128 0x2
 2446 0b1f 74       		.byte	0x74
 2447 0b20 00       		.sleb128 0
 2448 0b21 01       		.uleb128 0x1
 2449 0b22 3C       		.byte	0x3c
 2450 0b23 18       		.uleb128 0x18
 2451 0b24 02       		.uleb128 0x2
GAS LISTING /tmp/cctuymYX.s 			page 48


 2452 0b25 74       		.byte	0x74
 2453 0b26 04       		.sleb128 4
 2454 0b27 02       		.uleb128 0x2
 2455 0b28 75       		.byte	0x75
 2456 0b29 00       		.sleb128 0
 2457 0b2a 18       		.uleb128 0x18
 2458 0b2b 02       		.uleb128 0x2
 2459 0b2c 74       		.byte	0x74
 2460 0b2d 08       		.sleb128 8
 2461 0b2e 02       		.uleb128 0x2
 2462 0b2f 75       		.byte	0x75
 2463 0b30 05       		.sleb128 5
 2464 0b31 00       		.byte	0
 2465 0b32 17       		.uleb128 0x17
 2466 0b33 E1040000 		.long	.LVL74
 2467 0b37 6F0F0000 		.long	0xf6f
 2468 0b3b 470B0000 		.long	0xb47
 2469 0b3f 18       		.uleb128 0x18
 2470 0b40 02       		.uleb128 0x2
 2471 0b41 74       		.byte	0x74
 2472 0b42 00       		.sleb128 0
 2473 0b43 02       		.uleb128 0x2
 2474 0b44 09       		.byte	0x9
 2475 0b45 FF       		.byte	0xff
 2476 0b46 00       		.byte	0
 2477 0b47 17       		.uleb128 0x17
 2478 0b48 F9040000 		.long	.LVL76
 2479 0b4c ED0E0000 		.long	0xeed
 2480 0b50 5B0B0000 		.long	0xb5b
 2481 0b54 18       		.uleb128 0x18
 2482 0b55 02       		.uleb128 0x2
 2483 0b56 74       		.byte	0x74
 2484 0b57 00       		.sleb128 0
 2485 0b58 01       		.uleb128 0x1
 2486 0b59 3D       		.byte	0x3d
 2487 0b5a 00       		.byte	0
 2488 0b5b 1F       		.uleb128 0x1f
 2489 0b5c 06050000 		.long	.LVL77
 2490 0b60 02100000 		.long	0x1002
 2491 0b64 17       		.uleb128 0x17
 2492 0b65 16050000 		.long	.LVL78
 2493 0b69 070F0000 		.long	0xf07
 2494 0b6d 830B0000 		.long	0xb83
 2495 0b71 18       		.uleb128 0x18
 2496 0b72 02       		.uleb128 0x2
 2497 0b73 74       		.byte	0x74
 2498 0b74 00       		.sleb128 0
 2499 0b75 05       		.uleb128 0x5
 2500 0b76 03       		.byte	0x3
 2501 0b77 04000000 		.long	es1
 2502 0b7b 18       		.uleb128 0x18
 2503 0b7c 02       		.uleb128 0x2
 2504 0b7d 74       		.byte	0x74
 2505 0b7e 04       		.sleb128 4
 2506 0b7f 02       		.uleb128 0x2
 2507 0b80 77       		.byte	0x77
 2508 0b81 00       		.sleb128 0
GAS LISTING /tmp/cctuymYX.s 			page 49


 2509 0b82 00       		.byte	0
 2510 0b83 17       		.uleb128 0x17
 2511 0b84 26050000 		.long	.LVL79
 2512 0b88 070F0000 		.long	0xf07
 2513 0b8c A20B0000 		.long	0xba2
 2514 0b90 18       		.uleb128 0x18
 2515 0b91 02       		.uleb128 0x2
 2516 0b92 74       		.byte	0x74
 2517 0b93 00       		.sleb128 0
 2518 0b94 05       		.uleb128 0x5
 2519 0b95 03       		.byte	0x3
 2520 0b96 00000000 		.long	es2
 2521 0b9a 18       		.uleb128 0x18
 2522 0b9b 02       		.uleb128 0x2
 2523 0b9c 74       		.byte	0x74
 2524 0b9d 04       		.sleb128 4
 2525 0b9e 02       		.uleb128 0x2
 2526 0b9f 73       		.byte	0x73
 2527 0ba0 00       		.sleb128 0
 2528 0ba1 00       		.byte	0
 2529 0ba2 17       		.uleb128 0x17
 2530 0ba3 45050000 		.long	.LVL80
 2531 0ba7 ED0E0000 		.long	0xeed
 2532 0bab B60B0000 		.long	0xbb6
 2533 0baf 18       		.uleb128 0x18
 2534 0bb0 02       		.uleb128 0x2
 2535 0bb1 74       		.byte	0x74
 2536 0bb2 00       		.sleb128 0
 2537 0bb3 01       		.uleb128 0x1
 2538 0bb4 3E       		.byte	0x3e
 2539 0bb5 00       		.byte	0
 2540 0bb6 19       		.uleb128 0x19
 2541 0bb7 6C050000 		.long	.LVL81
 2542 0bbb ED0E0000 		.long	0xeed
 2543 0bbf 18       		.uleb128 0x18
 2544 0bc0 02       		.uleb128 0x2
 2545 0bc1 74       		.byte	0x74
 2546 0bc2 00       		.sleb128 0
 2547 0bc3 01       		.uleb128 0x1
 2548 0bc4 3F       		.byte	0x3f
 2549 0bc5 00       		.byte	0
 2550 0bc6 00       		.byte	0
 2551 0bc7 20       		.uleb128 0x20
 2552 0bc8 16030000 		.long	.LASF95
 2553 0bcc 01       		.byte	0x1
 2554 0bcd 8C       		.byte	0x8c
 2555 0bce D9000000 		.long	0xd9
 2556 0bd2 80050000 		.long	.LFB14
 2557 0bd6 3D000000 		.long	.LFE14-.LFB14
 2558 0bda 01       		.uleb128 0x1
 2559 0bdb 9C       		.byte	0x9c
 2560 0bdc 3A0C0000 		.long	0xc3a
 2561 0be0 21       		.uleb128 0x21
 2562 0be1 7000     		.string	"p"
 2563 0be3 01       		.byte	0x1
 2564 0be4 8C       		.byte	0x8c
 2565 0be5 7C020000 		.long	0x27c
GAS LISTING /tmp/cctuymYX.s 			page 50


 2566 0be9 02       		.uleb128 0x2
 2567 0bea 91       		.byte	0x91
 2568 0beb 00       		.sleb128 0
 2569 0bec 17       		.uleb128 0x17
 2570 0bed 97050000 		.long	.LVL83
 2571 0bf1 33100000 		.long	0x1033
 2572 0bf5 0A0C0000 		.long	0xc0a
 2573 0bf9 18       		.uleb128 0x18
 2574 0bfa 02       		.uleb128 0x2
 2575 0bfb 74       		.byte	0x74
 2576 0bfc 00       		.sleb128 0
 2577 0bfd 05       		.uleb128 0x5
 2578 0bfe 03       		.byte	0x3
 2579 0bff 04000000 		.long	es1
 2580 0c03 18       		.uleb128 0x18
 2581 0c04 02       		.uleb128 0x2
 2582 0c05 74       		.byte	0x74
 2583 0c06 04       		.sleb128 4
 2584 0c07 01       		.uleb128 0x1
 2585 0c08 30       		.byte	0x30
 2586 0c09 00       		.byte	0
 2587 0c0a 17       		.uleb128 0x17
 2588 0c0b A3050000 		.long	.LVL84
 2589 0c0f 49100000 		.long	0x1049
 2590 0c13 1F0C0000 		.long	0xc1f
 2591 0c17 18       		.uleb128 0x18
 2592 0c18 02       		.uleb128 0x2
 2593 0c19 74       		.byte	0x74
 2594 0c1a 00       		.sleb128 0
 2595 0c1b 02       		.uleb128 0x2
 2596 0c1c 08       		.byte	0x8
 2597 0c1d 32       		.byte	0x32
 2598 0c1e 00       		.byte	0
 2599 0c1f 19       		.uleb128 0x19
 2600 0c20 B7050000 		.long	.LVL85
 2601 0c24 33100000 		.long	0x1033
 2602 0c28 18       		.uleb128 0x18
 2603 0c29 02       		.uleb128 0x2
 2604 0c2a 74       		.byte	0x74
 2605 0c2b 00       		.sleb128 0
 2606 0c2c 05       		.uleb128 0x5
 2607 0c2d 03       		.byte	0x3
 2608 0c2e 00000000 		.long	es2
 2609 0c32 18       		.uleb128 0x18
 2610 0c33 02       		.uleb128 0x2
 2611 0c34 74       		.byte	0x74
 2612 0c35 04       		.sleb128 4
 2613 0c36 01       		.uleb128 0x1
 2614 0c37 30       		.byte	0x30
 2615 0c38 00       		.byte	0
 2616 0c39 00       		.byte	0
 2617 0c3a 20       		.uleb128 0x20
 2618 0c3b 0E030000 		.long	.LASF96
 2619 0c3f 01       		.byte	0x1
 2620 0c40 85       		.byte	0x85
 2621 0c41 D9000000 		.long	0xd9
 2622 0c45 C0050000 		.long	.LFB13
GAS LISTING /tmp/cctuymYX.s 			page 51


 2623 0c49 29000000 		.long	.LFE13-.LFB13
 2624 0c4d 01       		.uleb128 0x1
 2625 0c4e 9C       		.byte	0x9c
 2626 0c4f 8D0C0000 		.long	0xc8d
 2627 0c53 21       		.uleb128 0x21
 2628 0c54 7000     		.string	"p"
 2629 0c56 01       		.byte	0x1
 2630 0c57 85       		.byte	0x85
 2631 0c58 7C020000 		.long	0x27c
 2632 0c5c 02       		.uleb128 0x2
 2633 0c5d 91       		.byte	0x91
 2634 0c5e 00       		.sleb128 0
 2635 0c5f 17       		.uleb128 0x17
 2636 0c60 CF050000 		.long	.LVL87
 2637 0c64 49100000 		.long	0x1049
 2638 0c68 740C0000 		.long	0xc74
 2639 0c6c 18       		.uleb128 0x18
 2640 0c6d 02       		.uleb128 0x2
 2641 0c6e 74       		.byte	0x74
 2642 0c6f 00       		.sleb128 0
 2643 0c70 02       		.uleb128 0x2
 2644 0c71 08       		.byte	0x8
 2645 0c72 32       		.byte	0x32
 2646 0c73 00       		.byte	0
 2647 0c74 19       		.uleb128 0x19
 2648 0c75 E3050000 		.long	.LVL88
 2649 0c79 5B100000 		.long	0x105b
 2650 0c7d 18       		.uleb128 0x18
 2651 0c7e 02       		.uleb128 0x2
 2652 0c7f 74       		.byte	0x74
 2653 0c80 00       		.sleb128 0
 2654 0c81 03       		.uleb128 0x3
 2655 0c82 91       		.byte	0x91
 2656 0c83 00       		.sleb128 0
 2657 0c84 06       		.byte	0x6
 2658 0c85 18       		.uleb128 0x18
 2659 0c86 02       		.uleb128 0x2
 2660 0c87 74       		.byte	0x74
 2661 0c88 04       		.sleb128 4
 2662 0c89 01       		.uleb128 0x1
 2663 0c8a 31       		.byte	0x31
 2664 0c8b 00       		.byte	0
 2665 0c8c 00       		.byte	0
 2666 0c8d 22       		.uleb128 0x22
 2667 0c8e 87050000 		.long	0x587
 2668 0c92 F0050000 		.long	.LFB17
 2669 0c96 31010000 		.long	.LFE17-.LFB17
 2670 0c9a 01       		.uleb128 0x1
 2671 0c9b 9C       		.byte	0x9c
 2672 0c9c D30D0000 		.long	0xdd3
 2673 0ca0 23       		.uleb128 0x23
 2674 0ca1 93050000 		.long	0x593
 2675 0ca5 18010000 		.long	.LLST5
 2676 0ca9 24       		.uleb128 0x24
 2677 0caa 88060000 		.long	.LBB5
 2678 0cae 99000000 		.long	.LBE5-.LBB5
 2679 0cb2 490D0000 		.long	0xd49
GAS LISTING /tmp/cctuymYX.s 			page 52


 2680 0cb6 23       		.uleb128 0x23
 2681 0cb7 93050000 		.long	0x593
 2682 0cbb 41010000 		.long	.LLST6
 2683 0cbf 17       		.uleb128 0x17
 2684 0cc0 9C060000 		.long	.LVL98
 2685 0cc4 71100000 		.long	0x1071
 2686 0cc8 DA0C0000 		.long	0xcda
 2687 0ccc 18       		.uleb128 0x18
 2688 0ccd 02       		.uleb128 0x2
 2689 0cce 74       		.byte	0x74
 2690 0ccf 00       		.sleb128 0
 2691 0cd0 02       		.uleb128 0x2
 2692 0cd1 09       		.byte	0x9
 2693 0cd2 FF       		.byte	0xff
 2694 0cd3 18       		.uleb128 0x18
 2695 0cd4 02       		.uleb128 0x2
 2696 0cd5 74       		.byte	0x74
 2697 0cd6 04       		.sleb128 4
 2698 0cd7 01       		.uleb128 0x1
 2699 0cd8 3A       		.byte	0x3a
 2700 0cd9 00       		.byte	0
 2701 0cda 17       		.uleb128 0x17
 2702 0cdb B4060000 		.long	.LVL100
 2703 0cdf ED0E0000 		.long	0xeed
 2704 0ce3 EE0C0000 		.long	0xcee
 2705 0ce7 18       		.uleb128 0x18
 2706 0ce8 02       		.uleb128 0x2
 2707 0ce9 74       		.byte	0x74
 2708 0cea 00       		.sleb128 0
 2709 0ceb 01       		.uleb128 0x1
 2710 0cec 34       		.byte	0x34
 2711 0ced 00       		.byte	0
 2712 0cee 17       		.uleb128 0x17
 2713 0cef D0060000 		.long	.LVL101
 2714 0cf3 8B100000 		.long	0x108b
 2715 0cf7 090D0000 		.long	0xd09
 2716 0cfb 18       		.uleb128 0x18
 2717 0cfc 02       		.uleb128 0x2
 2718 0cfd 74       		.byte	0x74
 2719 0cfe 00       		.sleb128 0
 2720 0cff 02       		.uleb128 0x2
 2721 0d00 09       		.byte	0x9
 2722 0d01 FF       		.byte	0xff
 2723 0d02 18       		.uleb128 0x18
 2724 0d03 02       		.uleb128 0x2
 2725 0d04 74       		.byte	0x74
 2726 0d05 04       		.sleb128 4
 2727 0d06 01       		.uleb128 0x1
 2728 0d07 3A       		.byte	0x3a
 2729 0d08 00       		.byte	0
 2730 0d09 17       		.uleb128 0x17
 2731 0d0a E8060000 		.long	.LVL103
 2732 0d0e ED0E0000 		.long	0xeed
 2733 0d12 1D0D0000 		.long	0xd1d
 2734 0d16 18       		.uleb128 0x18
 2735 0d17 02       		.uleb128 0x2
 2736 0d18 74       		.byte	0x74
GAS LISTING /tmp/cctuymYX.s 			page 53


 2737 0d19 00       		.sleb128 0
 2738 0d1a 01       		.uleb128 0x1
 2739 0d1b 35       		.byte	0x35
 2740 0d1c 00       		.byte	0
 2741 0d1d 17       		.uleb128 0x17
 2742 0d1e 04070000 		.long	.LVL104
 2743 0d22 A5100000 		.long	0x10a5
 2744 0d26 380D0000 		.long	0xd38
 2745 0d2a 18       		.uleb128 0x18
 2746 0d2b 02       		.uleb128 0x2
 2747 0d2c 74       		.byte	0x74
 2748 0d2d 00       		.sleb128 0
 2749 0d2e 02       		.uleb128 0x2
 2750 0d2f 09       		.byte	0x9
 2751 0d30 FF       		.byte	0xff
 2752 0d31 18       		.uleb128 0x18
 2753 0d32 02       		.uleb128 0x2
 2754 0d33 74       		.byte	0x74
 2755 0d34 04       		.sleb128 4
 2756 0d35 01       		.uleb128 0x1
 2757 0d36 3A       		.byte	0x3a
 2758 0d37 00       		.byte	0
 2759 0d38 19       		.uleb128 0x19
 2760 0d39 1C070000 		.long	.LVL106
 2761 0d3d ED0E0000 		.long	0xeed
 2762 0d41 18       		.uleb128 0x18
 2763 0d42 02       		.uleb128 0x2
 2764 0d43 74       		.byte	0x74
 2765 0d44 00       		.sleb128 0
 2766 0d45 01       		.uleb128 0x1
 2767 0d46 36       		.byte	0x36
 2768 0d47 00       		.byte	0
 2769 0d48 00       		.byte	0
 2770 0d49 17       		.uleb128 0x17
 2771 0d4a 07060000 		.long	.LVL89
 2772 0d4e 71100000 		.long	0x1071
 2773 0d52 640D0000 		.long	0xd64
 2774 0d56 18       		.uleb128 0x18
 2775 0d57 02       		.uleb128 0x2
 2776 0d58 74       		.byte	0x74
 2777 0d59 00       		.sleb128 0
 2778 0d5a 02       		.uleb128 0x2
 2779 0d5b 09       		.byte	0x9
 2780 0d5c FF       		.byte	0xff
 2781 0d5d 18       		.uleb128 0x18
 2782 0d5e 02       		.uleb128 0x2
 2783 0d5f 74       		.byte	0x74
 2784 0d60 04       		.sleb128 4
 2785 0d61 01       		.uleb128 0x1
 2786 0d62 30       		.byte	0x30
 2787 0d63 00       		.byte	0
 2788 0d64 17       		.uleb128 0x17
 2789 0d65 1F060000 		.long	.LVL91
 2790 0d69 ED0E0000 		.long	0xeed
 2791 0d6d 780D0000 		.long	0xd78
 2792 0d71 18       		.uleb128 0x18
 2793 0d72 02       		.uleb128 0x2
GAS LISTING /tmp/cctuymYX.s 			page 54


 2794 0d73 74       		.byte	0x74
 2795 0d74 00       		.sleb128 0
 2796 0d75 01       		.uleb128 0x1
 2797 0d76 31       		.byte	0x31
 2798 0d77 00       		.byte	0
 2799 0d78 17       		.uleb128 0x17
 2800 0d79 3C060000 		.long	.LVL92
 2801 0d7d 8B100000 		.long	0x108b
 2802 0d81 930D0000 		.long	0xd93
 2803 0d85 18       		.uleb128 0x18
 2804 0d86 02       		.uleb128 0x2
 2805 0d87 74       		.byte	0x74
 2806 0d88 00       		.sleb128 0
 2807 0d89 02       		.uleb128 0x2
 2808 0d8a 09       		.byte	0x9
 2809 0d8b FF       		.byte	0xff
 2810 0d8c 18       		.uleb128 0x18
 2811 0d8d 02       		.uleb128 0x2
 2812 0d8e 74       		.byte	0x74
 2813 0d8f 04       		.sleb128 4
 2814 0d90 01       		.uleb128 0x1
 2815 0d91 30       		.byte	0x30
 2816 0d92 00       		.byte	0
 2817 0d93 17       		.uleb128 0x17
 2818 0d94 54060000 		.long	.LVL94
 2819 0d98 ED0E0000 		.long	0xeed
 2820 0d9c A70D0000 		.long	0xda7
 2821 0da0 18       		.uleb128 0x18
 2822 0da1 02       		.uleb128 0x2
 2823 0da2 74       		.byte	0x74
 2824 0da3 00       		.sleb128 0
 2825 0da4 01       		.uleb128 0x1
 2826 0da5 32       		.byte	0x32
 2827 0da6 00       		.byte	0
 2828 0da7 17       		.uleb128 0x17
 2829 0da8 6C060000 		.long	.LVL95
 2830 0dac A5100000 		.long	0x10a5
 2831 0db0 C20D0000 		.long	0xdc2
 2832 0db4 18       		.uleb128 0x18
 2833 0db5 02       		.uleb128 0x2
 2834 0db6 74       		.byte	0x74
 2835 0db7 00       		.sleb128 0
 2836 0db8 02       		.uleb128 0x2
 2837 0db9 09       		.byte	0x9
 2838 0dba FF       		.byte	0xff
 2839 0dbb 18       		.uleb128 0x18
 2840 0dbc 02       		.uleb128 0x2
 2841 0dbd 74       		.byte	0x74
 2842 0dbe 04       		.sleb128 4
 2843 0dbf 01       		.uleb128 0x1
 2844 0dc0 30       		.byte	0x30
 2845 0dc1 00       		.byte	0
 2846 0dc2 19       		.uleb128 0x19
 2847 0dc3 84060000 		.long	.LVL97
 2848 0dc7 ED0E0000 		.long	0xeed
 2849 0dcb 18       		.uleb128 0x18
 2850 0dcc 02       		.uleb128 0x2
GAS LISTING /tmp/cctuymYX.s 			page 55


 2851 0dcd 74       		.byte	0x74
 2852 0dce 00       		.sleb128 0
 2853 0dcf 01       		.uleb128 0x1
 2854 0dd0 33       		.byte	0x33
 2855 0dd1 00       		.byte	0
 2856 0dd2 00       		.byte	0
 2857 0dd3 16       		.uleb128 0x16
 2858 0dd4 65733100 		.string	"es1"
 2859 0dd8 01       		.byte	0x1
 2860 0dd9 3B       		.byte	0x3b
 2861 0dda AF040000 		.long	0x4af
 2862 0dde 05       		.uleb128 0x5
 2863 0ddf 03       		.byte	0x3
 2864 0de0 04000000 		.long	es1
 2865 0de4 16       		.uleb128 0x16
 2866 0de5 65733200 		.string	"es2"
 2867 0de9 01       		.byte	0x1
 2868 0dea 3C       		.byte	0x3c
 2869 0deb AF040000 		.long	0x4af
 2870 0def 05       		.uleb128 0x5
 2871 0df0 03       		.byte	0x3
 2872 0df1 00000000 		.long	es2
 2873 0df5 25       		.uleb128 0x25
 2874 0df6 BA040000 		.long	0x4ba
 2875 0dfa 050E0000 		.long	0xe05
 2876 0dfe 26       		.uleb128 0x26
 2877 0dff 6A020000 		.long	0x26a
 2878 0e03 02       		.byte	0x2
 2879 0e04 00       		.byte	0
 2880 0e05 27       		.uleb128 0x27
 2881 0e06 9D040000 		.long	.LASF97
 2882 0e0a 01       		.byte	0x1
 2883 0e0b 53       		.byte	0x53
 2884 0e0c 160E0000 		.long	0xe16
 2885 0e10 05       		.uleb128 0x5
 2886 0e11 03       		.byte	0x3
 2887 0e12 40000000 		.long	evhndl
 2888 0e16 10       		.uleb128 0x10
 2889 0e17 F50D0000 		.long	0xdf5
 2890 0e1b 28       		.uleb128 0x28
 2891 0e1c 42000000 		.long	.LASF98
 2892 0e20 08       		.byte	0x8
 2893 0e21 F5       		.byte	0xf5
 2894 0e22 9F030000 		.long	0x39f
 2895 0e26 28       		.uleb128 0x28
 2896 0e27 3A050000 		.long	.LASF99
 2897 0e2b 09       		.byte	0x9
 2898 0e2c 6F       		.byte	0x6f
 2899 0e2d FB030000 		.long	0x3fb
 2900 0e31 25       		.uleb128 0x25
 2901 0e32 39020000 		.long	0x239
 2902 0e36 410E0000 		.long	0xe41
 2903 0e3a 26       		.uleb128 0x26
 2904 0e3b 6A020000 		.long	0x26a
 2905 0e3f 04       		.byte	0x4
 2906 0e40 00       		.byte	0
 2907 0e41 28       		.uleb128 0x28
GAS LISTING /tmp/cctuymYX.s 			page 56


 2908 0e42 54040000 		.long	.LASF100
 2909 0e46 0C       		.byte	0xc
 2910 0e47 A5       		.byte	0xa5
 2911 0e48 310E0000 		.long	0xe31
 2912 0e4c 25       		.uleb128 0x25
 2913 0e4d 7C020000 		.long	0x27c
 2914 0e51 570E0000 		.long	0xe57
 2915 0e55 29       		.uleb128 0x29
 2916 0e56 00       		.byte	0
 2917 0e57 2A       		.uleb128 0x2a
 2918 0e58 776100   		.string	"wa"
 2919 0e5b 0C       		.byte	0xc
 2920 0e5c A7       		.byte	0xa7
 2921 0e5d 610E0000 		.long	0xe61
 2922 0e61 10       		.uleb128 0x10
 2923 0e62 4C0E0000 		.long	0xe4c
 2924 0e66 2B       		.uleb128 0x2b
 2925 0e67 94040000 		.long	.LASF101
 2926 0e6b 01       		.byte	0x1
 2927 0e6c 6B       		.byte	0x6b
 2928 0e6d 770E0000 		.long	0xe77
 2929 0e71 05       		.uleb128 0x5
 2930 0e72 03       		.byte	0x3
 2931 0e73 00000000 		.long	testevt1
 2932 0e77 10       		.uleb128 0x10
 2933 0e78 43050000 		.long	0x543
 2934 0e7c 2B       		.uleb128 0x2b
 2935 0e7d 6A010000 		.long	.LASF102
 2936 0e81 01       		.byte	0x1
 2937 0e82 E0       		.byte	0xe0
 2938 0e83 770E0000 		.long	0xe77
 2939 0e87 05       		.uleb128 0x5
 2940 0e88 03       		.byte	0x3
 2941 0e89 00000000 		.long	testevt2
 2942 0e8d 2C       		.uleb128 0x2c
 2943 0e8e 80010000 		.long	.LASF103
 2944 0e92 01       		.byte	0x1
 2945 0e93 1001     		.value	0x110
 2946 0e95 770E0000 		.long	0xe77
 2947 0e99 05       		.uleb128 0x5
 2948 0e9a 03       		.byte	0x3
 2949 0e9b 00000000 		.long	testevt3
 2950 0e9f 25       		.uleb128 0x25
 2951 0ea0 AF0E0000 		.long	0xeaf
 2952 0ea4 AF0E0000 		.long	0xeaf
 2953 0ea8 26       		.uleb128 0x26
 2954 0ea9 6A020000 		.long	0x26a
 2955 0ead 03       		.byte	0x3
 2956 0eae 00       		.byte	0
 2957 0eaf 09       		.uleb128 0x9
 2958 0eb0 04       		.byte	0x4
 2959 0eb1 770E0000 		.long	0xe77
 2960 0eb5 2C       		.uleb128 0x2c
 2961 0eb6 24020000 		.long	.LASF104
 2962 0eba 01       		.byte	0x1
 2963 0ebb 1B01     		.value	0x11b
 2964 0ebd C70E0000 		.long	0xec7
GAS LISTING /tmp/cctuymYX.s 			page 57


 2965 0ec1 05       		.uleb128 0x5
 2966 0ec2 03       		.byte	0x3
 2967 0ec3 00000000 		.long	patternevt
 2968 0ec7 10       		.uleb128 0x10
 2969 0ec8 9F0E0000 		.long	0xe9f
 2970 0ecc 2D       		.uleb128 0x2d
 2971 0ecd 4F020000 		.long	.LASF105
 2972 0ed1 0B       		.byte	0xb
 2973 0ed2 AF       		.byte	0xaf
 2974 0ed3 E70E0000 		.long	0xee7
 2975 0ed7 0D       		.uleb128 0xd
 2976 0ed8 E70E0000 		.long	0xee7
 2977 0edc 0D       		.uleb128 0xd
 2978 0edd 90040000 		.long	0x490
 2979 0ee1 0D       		.uleb128 0xd
 2980 0ee2 EF000000 		.long	0xef
 2981 0ee6 00       		.byte	0
 2982 0ee7 09       		.uleb128 0x9
 2983 0ee8 04       		.byte	0x4
 2984 0ee9 AF040000 		.long	0x4af
 2985 0eed 2E       		.uleb128 0x2e
 2986 0eee 64050000 		.long	.LASF108
 2987 0ef2 0C       		.byte	0xc
 2988 0ef3 58       		.byte	0x58
 2989 0ef4 90000000 		.long	0x90
 2990 0ef8 070F0000 		.long	0xf07
 2991 0efc 0D       		.uleb128 0xd
 2992 0efd 37000000 		.long	0x37
 2993 0f01 0D       		.uleb128 0xd
 2994 0f02 90000000 		.long	0x90
 2995 0f06 00       		.byte	0
 2996 0f07 2D       		.uleb128 0x2d
 2997 0f08 6F020000 		.long	.LASF106
 2998 0f0c 0B       		.byte	0xb
 2999 0f0d B2       		.byte	0xb2
 3000 0f0e 1D0F0000 		.long	0xf1d
 3001 0f12 0D       		.uleb128 0xd
 3002 0f13 E70E0000 		.long	0xee7
 3003 0f17 0D       		.uleb128 0xd
 3004 0f18 90040000 		.long	0x490
 3005 0f1c 00       		.byte	0
 3006 0f1d 2D       		.uleb128 0x2d
 3007 0f1e DB020000 		.long	.LASF107
 3008 0f22 0B       		.byte	0xb
 3009 0f23 BB       		.byte	0xbb
 3010 0f24 330F0000 		.long	0xf33
 3011 0f28 0D       		.uleb128 0xd
 3012 0f29 330F0000 		.long	0xf33
 3013 0f2d 0D       		.uleb128 0xd
 3014 0f2e EF000000 		.long	0xef
 3015 0f32 00       		.byte	0
 3016 0f33 09       		.uleb128 0x9
 3017 0f34 04       		.byte	0x4
 3018 0f35 390F0000 		.long	0xf39
 3019 0f39 10       		.uleb128 0x10
 3020 0f3a BA040000 		.long	0x4ba
 3021 0f3e 2E       		.uleb128 0x2e
GAS LISTING /tmp/cctuymYX.s 			page 58


 3022 0f3f 37030000 		.long	.LASF109
 3023 0f43 0C       		.byte	0xc
 3024 0f44 59       		.byte	0x59
 3025 0f45 90000000 		.long	0x90
 3026 0f49 580F0000 		.long	0xf58
 3027 0f4d 0D       		.uleb128 0xd
 3028 0f4e 37000000 		.long	0x37
 3029 0f52 0D       		.uleb128 0xd
 3030 0f53 580F0000 		.long	0xf58
 3031 0f57 00       		.byte	0
 3032 0f58 09       		.uleb128 0x9
 3033 0f59 04       		.byte	0x4
 3034 0f5a 16050000 		.long	0x516
 3035 0f5e 2D       		.uleb128 0x2d
 3036 0f5f 19010000 		.long	.LASF110
 3037 0f63 0C       		.byte	0xc
 3038 0f64 56       		.byte	0x56
 3039 0f65 6F0F0000 		.long	0xf6f
 3040 0f69 0D       		.uleb128 0xd
 3041 0f6a 16050000 		.long	0x516
 3042 0f6e 00       		.byte	0
 3043 0f6f 2E       		.uleb128 0x2e
 3044 0f70 04020000 		.long	.LASF111
 3045 0f74 0B       		.byte	0xb
 3046 0f75 B3       		.byte	0xb3
 3047 0f76 EF000000 		.long	0xef
 3048 0f7a 840F0000 		.long	0xf84
 3049 0f7e 0D       		.uleb128 0xd
 3050 0f7f EF000000 		.long	0xef
 3051 0f83 00       		.byte	0
 3052 0f84 2E       		.uleb128 0x2e
 3053 0f85 6C000000 		.long	.LASF112
 3054 0f89 0B       		.byte	0xb
 3055 0f8a B4       		.byte	0xb4
 3056 0f8b EF000000 		.long	0xef
 3057 0f8f 990F0000 		.long	0xf99
 3058 0f93 0D       		.uleb128 0xd
 3059 0f94 EF000000 		.long	0xef
 3060 0f98 00       		.byte	0
 3061 0f99 2E       		.uleb128 0x2e
 3062 0f9a AF030000 		.long	.LASF113
 3063 0f9e 0B       		.byte	0xb
 3064 0f9f BD       		.byte	0xbd
 3065 0fa0 EF000000 		.long	0xef
 3066 0fa4 AE0F0000 		.long	0xfae
 3067 0fa8 0D       		.uleb128 0xd
 3068 0fa9 EF000000 		.long	0xef
 3069 0fad 00       		.byte	0
 3070 0fae 2F       		.uleb128 0x2f
 3071 0faf 9A050000 		.long	.LASF128
 3072 0fb3 0C       		.byte	0xc
 3073 0fb4 5D       		.byte	0x5d
 3074 0fb5 05010000 		.long	0x105
 3075 0fb9 30       		.uleb128 0x30
 3076 0fba A5020000 		.long	.LASF114
 3077 0fbe 06       		.byte	0x6
 3078 0fbf 7001     		.value	0x170
GAS LISTING /tmp/cctuymYX.s 			page 59


 3079 0fc1 39020000 		.long	0x239
 3080 0fc5 E30F0000 		.long	0xfe3
 3081 0fc9 0D       		.uleb128 0xd
 3082 0fca 7C020000 		.long	0x27c
 3083 0fce 0D       		.uleb128 0xd
 3084 0fcf 2C000000 		.long	0x2c
 3085 0fd3 0D       		.uleb128 0xd
 3086 0fd4 CE000000 		.long	0xce
 3087 0fd8 0D       		.uleb128 0xd
 3088 0fd9 23050000 		.long	0x523
 3089 0fdd 0D       		.uleb128 0xd
 3090 0fde 7C020000 		.long	0x27c
 3091 0fe2 00       		.byte	0
 3092 0fe3 2E       		.uleb128 0x2e
 3093 0fe4 51010000 		.long	.LASF115
 3094 0fe8 0C       		.byte	0xc
 3095 0fe9 5A       		.byte	0x5a
 3096 0fea 90000000 		.long	0x90
 3097 0fee 02100000 		.long	0x1002
 3098 0ff2 0D       		.uleb128 0xd
 3099 0ff3 37000000 		.long	0x37
 3100 0ff7 0D       		.uleb128 0xd
 3101 0ff8 05010000 		.long	0x105
 3102 0ffc 0D       		.uleb128 0xd
 3103 0ffd 05010000 		.long	0x105
 3104 1001 00       		.byte	0
 3105 1002 31       		.uleb128 0x31
 3106 1003 F4020000 		.long	.LASF129
 3107 1007 0C       		.byte	0xc
 3108 1008 5C       		.byte	0x5c
 3109 1009 2E       		.uleb128 0x2e
 3110 100a 73010000 		.long	.LASF116
 3111 100e 0B       		.byte	0xb
 3112 100f BE       		.byte	0xbe
 3113 1010 EF000000 		.long	0xef
 3114 1014 1E100000 		.long	0x101e
 3115 1018 0D       		.uleb128 0xd
 3116 1019 EF000000 		.long	0xef
 3117 101d 00       		.byte	0
 3118 101e 2E       		.uleb128 0x2e
 3119 101f 4D030000 		.long	.LASF117
 3120 1023 0B       		.byte	0xb
 3121 1024 BF       		.byte	0xbf
 3122 1025 EF000000 		.long	0xef
 3123 1029 33100000 		.long	0x1033
 3124 102d 0D       		.uleb128 0xd
 3125 102e EF000000 		.long	0xef
 3126 1032 00       		.byte	0
 3127 1033 2D       		.uleb128 0x2d
 3128 1034 AE010000 		.long	.LASF118
 3129 1038 0B       		.byte	0xb
 3130 1039 B9       		.byte	0xb9
 3131 103a 49100000 		.long	0x1049
 3132 103e 0D       		.uleb128 0xd
 3133 103f E70E0000 		.long	0xee7
 3134 1043 0D       		.uleb128 0xd
 3135 1044 FA000000 		.long	0xfa
GAS LISTING /tmp/cctuymYX.s 			page 60


 3136 1048 00       		.byte	0
 3137 1049 32       		.uleb128 0x32
 3138 104a 06050000 		.long	.LASF119
 3139 104e 06       		.byte	0x6
 3140 104f 7501     		.value	0x175
 3141 1051 5B100000 		.long	0x105b
 3142 1055 0D       		.uleb128 0xd
 3143 1056 05010000 		.long	0x105
 3144 105a 00       		.byte	0
 3145 105b 2D       		.uleb128 0x2d
 3146 105c 49000000 		.long	.LASF120
 3147 1060 0B       		.byte	0xb
 3148 1061 B7       		.byte	0xb7
 3149 1062 71100000 		.long	0x1071
 3150 1066 0D       		.uleb128 0xd
 3151 1067 39020000 		.long	0x239
 3152 106b 0D       		.uleb128 0xd
 3153 106c EF000000 		.long	0xef
 3154 1070 00       		.byte	0
 3155 1071 2E       		.uleb128 0x2e
 3156 1072 20000000 		.long	.LASF121
 3157 1076 0B       		.byte	0xb
 3158 1077 C2       		.byte	0xc2
 3159 1078 EF000000 		.long	0xef
 3160 107c 8B100000 		.long	0x108b
 3161 1080 0D       		.uleb128 0xd
 3162 1081 EF000000 		.long	0xef
 3163 1085 0D       		.uleb128 0xd
 3164 1086 05010000 		.long	0x105
 3165 108a 00       		.byte	0
 3166 108b 2E       		.uleb128 0x2e
 3167 108c 84000000 		.long	.LASF122
 3168 1090 0B       		.byte	0xb
 3169 1091 C3       		.byte	0xc3
 3170 1092 EF000000 		.long	0xef
 3171 1096 A5100000 		.long	0x10a5
 3172 109a 0D       		.uleb128 0xd
 3173 109b EF000000 		.long	0xef
 3174 109f 0D       		.uleb128 0xd
 3175 10a0 05010000 		.long	0x105
 3176 10a4 00       		.byte	0
 3177 10a5 33       		.uleb128 0x33
 3178 10a6 C6000000 		.long	.LASF123
 3179 10aa 0B       		.byte	0xb
 3180 10ab C4       		.byte	0xc4
 3181 10ac EF000000 		.long	0xef
 3182 10b0 0D       		.uleb128 0xd
 3183 10b1 EF000000 		.long	0xef
 3184 10b5 0D       		.uleb128 0xd
 3185 10b6 05010000 		.long	0x105
 3186 10ba 00       		.byte	0
 3187 10bb 00       		.byte	0
 3188              		.section	.debug_abbrev,"",@progbits
 3189              	.Ldebug_abbrev0:
 3190 0000 01       		.uleb128 0x1
 3191 0001 11       		.uleb128 0x11
 3192 0002 01       		.byte	0x1
GAS LISTING /tmp/cctuymYX.s 			page 61


 3193 0003 25       		.uleb128 0x25
 3194 0004 0E       		.uleb128 0xe
 3195 0005 13       		.uleb128 0x13
 3196 0006 0B       		.uleb128 0xb
 3197 0007 03       		.uleb128 0x3
 3198 0008 0E       		.uleb128 0xe
 3199 0009 1B       		.uleb128 0x1b
 3200 000a 0E       		.uleb128 0xe
 3201 000b 11       		.uleb128 0x11
 3202 000c 01       		.uleb128 0x1
 3203 000d 12       		.uleb128 0x12
 3204 000e 06       		.uleb128 0x6
 3205 000f 10       		.uleb128 0x10
 3206 0010 17       		.uleb128 0x17
 3207 0011 00       		.byte	0
 3208 0012 00       		.byte	0
 3209 0013 02       		.uleb128 0x2
 3210 0014 24       		.uleb128 0x24
 3211 0015 00       		.byte	0
 3212 0016 0B       		.uleb128 0xb
 3213 0017 0B       		.uleb128 0xb
 3214 0018 3E       		.uleb128 0x3e
 3215 0019 0B       		.uleb128 0xb
 3216 001a 03       		.uleb128 0x3
 3217 001b 08       		.uleb128 0x8
 3218 001c 00       		.byte	0
 3219 001d 00       		.byte	0
 3220 001e 03       		.uleb128 0x3
 3221 001f 16       		.uleb128 0x16
 3222 0020 00       		.byte	0
 3223 0021 03       		.uleb128 0x3
 3224 0022 0E       		.uleb128 0xe
 3225 0023 3A       		.uleb128 0x3a
 3226 0024 0B       		.uleb128 0xb
 3227 0025 3B       		.uleb128 0x3b
 3228 0026 0B       		.uleb128 0xb
 3229 0027 49       		.uleb128 0x49
 3230 0028 13       		.uleb128 0x13
 3231 0029 00       		.byte	0
 3232 002a 00       		.byte	0
 3233 002b 04       		.uleb128 0x4
 3234 002c 24       		.uleb128 0x24
 3235 002d 00       		.byte	0
 3236 002e 0B       		.uleb128 0xb
 3237 002f 0B       		.uleb128 0xb
 3238 0030 3E       		.uleb128 0x3e
 3239 0031 0B       		.uleb128 0xb
 3240 0032 03       		.uleb128 0x3
 3241 0033 0E       		.uleb128 0xe
 3242 0034 00       		.byte	0
 3243 0035 00       		.byte	0
 3244 0036 05       		.uleb128 0x5
 3245 0037 13       		.uleb128 0x13
 3246 0038 01       		.byte	0x1
 3247 0039 03       		.uleb128 0x3
 3248 003a 0E       		.uleb128 0xe
 3249 003b 0B       		.uleb128 0xb
GAS LISTING /tmp/cctuymYX.s 			page 62


 3250 003c 0B       		.uleb128 0xb
 3251 003d 3A       		.uleb128 0x3a
 3252 003e 0B       		.uleb128 0xb
 3253 003f 3B       		.uleb128 0x3b
 3254 0040 0B       		.uleb128 0xb
 3255 0041 01       		.uleb128 0x1
 3256 0042 13       		.uleb128 0x13
 3257 0043 00       		.byte	0
 3258 0044 00       		.byte	0
 3259 0045 06       		.uleb128 0x6
 3260 0046 0D       		.uleb128 0xd
 3261 0047 00       		.byte	0
 3262 0048 03       		.uleb128 0x3
 3263 0049 0E       		.uleb128 0xe
 3264 004a 3A       		.uleb128 0x3a
 3265 004b 0B       		.uleb128 0xb
 3266 004c 3B       		.uleb128 0x3b
 3267 004d 0B       		.uleb128 0xb
 3268 004e 49       		.uleb128 0x49
 3269 004f 13       		.uleb128 0x13
 3270 0050 38       		.uleb128 0x38
 3271 0051 0B       		.uleb128 0xb
 3272 0052 00       		.byte	0
 3273 0053 00       		.byte	0
 3274 0054 07       		.uleb128 0x7
 3275 0055 0D       		.uleb128 0xd
 3276 0056 00       		.byte	0
 3277 0057 03       		.uleb128 0x3
 3278 0058 08       		.uleb128 0x8
 3279 0059 3A       		.uleb128 0x3a
 3280 005a 0B       		.uleb128 0xb
 3281 005b 3B       		.uleb128 0x3b
 3282 005c 0B       		.uleb128 0xb
 3283 005d 49       		.uleb128 0x49
 3284 005e 13       		.uleb128 0x13
 3285 005f 38       		.uleb128 0x38
 3286 0060 0B       		.uleb128 0xb
 3287 0061 00       		.byte	0
 3288 0062 00       		.byte	0
 3289 0063 08       		.uleb128 0x8
 3290 0064 13       		.uleb128 0x13
 3291 0065 01       		.byte	0x1
 3292 0066 0B       		.uleb128 0xb
 3293 0067 0B       		.uleb128 0xb
 3294 0068 3A       		.uleb128 0x3a
 3295 0069 0B       		.uleb128 0xb
 3296 006a 3B       		.uleb128 0x3b
 3297 006b 0B       		.uleb128 0xb
 3298 006c 01       		.uleb128 0x1
 3299 006d 13       		.uleb128 0x13
 3300 006e 00       		.byte	0
 3301 006f 00       		.byte	0
 3302 0070 09       		.uleb128 0x9
 3303 0071 0F       		.uleb128 0xf
 3304 0072 00       		.byte	0
 3305 0073 0B       		.uleb128 0xb
 3306 0074 0B       		.uleb128 0xb
GAS LISTING /tmp/cctuymYX.s 			page 63


 3307 0075 49       		.uleb128 0x49
 3308 0076 13       		.uleb128 0x13
 3309 0077 00       		.byte	0
 3310 0078 00       		.byte	0
 3311 0079 0A       		.uleb128 0xa
 3312 007a 0F       		.uleb128 0xf
 3313 007b 00       		.byte	0
 3314 007c 0B       		.uleb128 0xb
 3315 007d 0B       		.uleb128 0xb
 3316 007e 00       		.byte	0
 3317 007f 00       		.byte	0
 3318 0080 0B       		.uleb128 0xb
 3319 0081 35       		.uleb128 0x35
 3320 0082 00       		.byte	0
 3321 0083 49       		.uleb128 0x49
 3322 0084 13       		.uleb128 0x13
 3323 0085 00       		.byte	0
 3324 0086 00       		.byte	0
 3325 0087 0C       		.uleb128 0xc
 3326 0088 15       		.uleb128 0x15
 3327 0089 01       		.byte	0x1
 3328 008a 27       		.uleb128 0x27
 3329 008b 19       		.uleb128 0x19
 3330 008c 01       		.uleb128 0x1
 3331 008d 13       		.uleb128 0x13
 3332 008e 00       		.byte	0
 3333 008f 00       		.byte	0
 3334 0090 0D       		.uleb128 0xd
 3335 0091 05       		.uleb128 0x5
 3336 0092 00       		.byte	0
 3337 0093 49       		.uleb128 0x49
 3338 0094 13       		.uleb128 0x13
 3339 0095 00       		.byte	0
 3340 0096 00       		.byte	0
 3341 0097 0E       		.uleb128 0xe
 3342 0098 17       		.uleb128 0x17
 3343 0099 01       		.byte	0x1
 3344 009a 0B       		.uleb128 0xb
 3345 009b 0B       		.uleb128 0xb
 3346 009c 3A       		.uleb128 0x3a
 3347 009d 0B       		.uleb128 0xb
 3348 009e 3B       		.uleb128 0x3b
 3349 009f 0B       		.uleb128 0xb
 3350 00a0 01       		.uleb128 0x1
 3351 00a1 13       		.uleb128 0x13
 3352 00a2 00       		.byte	0
 3353 00a3 00       		.byte	0
 3354 00a4 0F       		.uleb128 0xf
 3355 00a5 0D       		.uleb128 0xd
 3356 00a6 00       		.byte	0
 3357 00a7 03       		.uleb128 0x3
 3358 00a8 0E       		.uleb128 0xe
 3359 00a9 3A       		.uleb128 0x3a
 3360 00aa 0B       		.uleb128 0xb
 3361 00ab 3B       		.uleb128 0x3b
 3362 00ac 0B       		.uleb128 0xb
 3363 00ad 49       		.uleb128 0x49
GAS LISTING /tmp/cctuymYX.s 			page 64


 3364 00ae 13       		.uleb128 0x13
 3365 00af 00       		.byte	0
 3366 00b0 00       		.byte	0
 3367 00b1 10       		.uleb128 0x10
 3368 00b2 26       		.uleb128 0x26
 3369 00b3 00       		.byte	0
 3370 00b4 49       		.uleb128 0x49
 3371 00b5 13       		.uleb128 0x13
 3372 00b6 00       		.byte	0
 3373 00b7 00       		.byte	0
 3374 00b8 11       		.uleb128 0x11
 3375 00b9 15       		.uleb128 0x15
 3376 00ba 01       		.byte	0x1
 3377 00bb 27       		.uleb128 0x27
 3378 00bc 19       		.uleb128 0x19
 3379 00bd 49       		.uleb128 0x49
 3380 00be 13       		.uleb128 0x13
 3381 00bf 01       		.uleb128 0x1
 3382 00c0 13       		.uleb128 0x13
 3383 00c1 00       		.byte	0
 3384 00c2 00       		.byte	0
 3385 00c3 12       		.uleb128 0x12
 3386 00c4 15       		.uleb128 0x15
 3387 00c5 00       		.byte	0
 3388 00c6 27       		.uleb128 0x27
 3389 00c7 19       		.uleb128 0x19
 3390 00c8 00       		.byte	0
 3391 00c9 00       		.byte	0
 3392 00ca 13       		.uleb128 0x13
 3393 00cb 2E       		.uleb128 0x2e
 3394 00cc 01       		.byte	0x1
 3395 00cd 03       		.uleb128 0x3
 3396 00ce 0E       		.uleb128 0xe
 3397 00cf 3A       		.uleb128 0x3a
 3398 00d0 0B       		.uleb128 0xb
 3399 00d1 3B       		.uleb128 0x3b
 3400 00d2 0B       		.uleb128 0xb
 3401 00d3 27       		.uleb128 0x27
 3402 00d4 19       		.uleb128 0x19
 3403 00d5 20       		.uleb128 0x20
 3404 00d6 0B       		.uleb128 0xb
 3405 00d7 01       		.uleb128 0x1
 3406 00d8 13       		.uleb128 0x13
 3407 00d9 00       		.byte	0
 3408 00da 00       		.byte	0
 3409 00db 14       		.uleb128 0x14
 3410 00dc 34       		.uleb128 0x34
 3411 00dd 00       		.byte	0
 3412 00de 03       		.uleb128 0x3
 3413 00df 08       		.uleb128 0x8
 3414 00e0 3A       		.uleb128 0x3a
 3415 00e1 0B       		.uleb128 0xb
 3416 00e2 3B       		.uleb128 0x3b
 3417 00e3 0B       		.uleb128 0xb
 3418 00e4 49       		.uleb128 0x49
 3419 00e5 13       		.uleb128 0x13
 3420 00e6 00       		.byte	0
GAS LISTING /tmp/cctuymYX.s 			page 65


 3421 00e7 00       		.byte	0
 3422 00e8 15       		.uleb128 0x15
 3423 00e9 2E       		.uleb128 0x2e
 3424 00ea 01       		.byte	0x1
 3425 00eb 03       		.uleb128 0x3
 3426 00ec 0E       		.uleb128 0xe
 3427 00ed 3A       		.uleb128 0x3a
 3428 00ee 0B       		.uleb128 0xb
 3429 00ef 3B       		.uleb128 0x3b
 3430 00f0 0B       		.uleb128 0xb
 3431 00f1 27       		.uleb128 0x27
 3432 00f2 19       		.uleb128 0x19
 3433 00f3 11       		.uleb128 0x11
 3434 00f4 01       		.uleb128 0x1
 3435 00f5 12       		.uleb128 0x12
 3436 00f6 06       		.uleb128 0x6
 3437 00f7 40       		.uleb128 0x40
 3438 00f8 18       		.uleb128 0x18
 3439 00f9 9742     		.uleb128 0x2117
 3440 00fb 19       		.uleb128 0x19
 3441 00fc 01       		.uleb128 0x1
 3442 00fd 13       		.uleb128 0x13
 3443 00fe 00       		.byte	0
 3444 00ff 00       		.byte	0
 3445 0100 16       		.uleb128 0x16
 3446 0101 34       		.uleb128 0x34
 3447 0102 00       		.byte	0
 3448 0103 03       		.uleb128 0x3
 3449 0104 08       		.uleb128 0x8
 3450 0105 3A       		.uleb128 0x3a
 3451 0106 0B       		.uleb128 0xb
 3452 0107 3B       		.uleb128 0x3b
 3453 0108 0B       		.uleb128 0xb
 3454 0109 49       		.uleb128 0x49
 3455 010a 13       		.uleb128 0x13
 3456 010b 02       		.uleb128 0x2
 3457 010c 18       		.uleb128 0x18
 3458 010d 00       		.byte	0
 3459 010e 00       		.byte	0
 3460 010f 17       		.uleb128 0x17
 3461 0110 898201   		.uleb128 0x4109
 3462 0113 01       		.byte	0x1
 3463 0114 11       		.uleb128 0x11
 3464 0115 01       		.uleb128 0x1
 3465 0116 31       		.uleb128 0x31
 3466 0117 13       		.uleb128 0x13
 3467 0118 01       		.uleb128 0x1
 3468 0119 13       		.uleb128 0x13
 3469 011a 00       		.byte	0
 3470 011b 00       		.byte	0
 3471 011c 18       		.uleb128 0x18
 3472 011d 8A8201   		.uleb128 0x410a
 3473 0120 00       		.byte	0
 3474 0121 02       		.uleb128 0x2
 3475 0122 18       		.uleb128 0x18
 3476 0123 9142     		.uleb128 0x2111
 3477 0125 18       		.uleb128 0x18
GAS LISTING /tmp/cctuymYX.s 			page 66


 3478 0126 00       		.byte	0
 3479 0127 00       		.byte	0
 3480 0128 19       		.uleb128 0x19
 3481 0129 898201   		.uleb128 0x4109
 3482 012c 01       		.byte	0x1
 3483 012d 11       		.uleb128 0x11
 3484 012e 01       		.uleb128 0x1
 3485 012f 31       		.uleb128 0x31
 3486 0130 13       		.uleb128 0x13
 3487 0131 00       		.byte	0
 3488 0132 00       		.byte	0
 3489 0133 1A       		.uleb128 0x1a
 3490 0134 2E       		.uleb128 0x2e
 3491 0135 01       		.byte	0x1
 3492 0136 03       		.uleb128 0x3
 3493 0137 08       		.uleb128 0x8
 3494 0138 3A       		.uleb128 0x3a
 3495 0139 0B       		.uleb128 0xb
 3496 013a 3B       		.uleb128 0x3b
 3497 013b 0B       		.uleb128 0xb
 3498 013c 27       		.uleb128 0x27
 3499 013d 19       		.uleb128 0x19
 3500 013e 11       		.uleb128 0x11
 3501 013f 01       		.uleb128 0x1
 3502 0140 12       		.uleb128 0x12
 3503 0141 06       		.uleb128 0x6
 3504 0142 40       		.uleb128 0x40
 3505 0143 18       		.uleb128 0x18
 3506 0144 9742     		.uleb128 0x2117
 3507 0146 19       		.uleb128 0x19
 3508 0147 01       		.uleb128 0x1
 3509 0148 13       		.uleb128 0x13
 3510 0149 00       		.byte	0
 3511 014a 00       		.byte	0
 3512 014b 1B       		.uleb128 0x1b
 3513 014c 05       		.uleb128 0x5
 3514 014d 00       		.byte	0
 3515 014e 03       		.uleb128 0x3
 3516 014f 08       		.uleb128 0x8
 3517 0150 3A       		.uleb128 0x3a
 3518 0151 0B       		.uleb128 0xb
 3519 0152 3B       		.uleb128 0x3b
 3520 0153 0B       		.uleb128 0xb
 3521 0154 49       		.uleb128 0x49
 3522 0155 13       		.uleb128 0x13
 3523 0156 02       		.uleb128 0x2
 3524 0157 17       		.uleb128 0x17
 3525 0158 00       		.byte	0
 3526 0159 00       		.byte	0
 3527 015a 1C       		.uleb128 0x1c
 3528 015b 898201   		.uleb128 0x4109
 3529 015e 01       		.byte	0x1
 3530 015f 11       		.uleb128 0x11
 3531 0160 01       		.uleb128 0x1
 3532 0161 9542     		.uleb128 0x2115
 3533 0163 19       		.uleb128 0x19
 3534 0164 31       		.uleb128 0x31
GAS LISTING /tmp/cctuymYX.s 			page 67


 3535 0165 13       		.uleb128 0x13
 3536 0166 00       		.byte	0
 3537 0167 00       		.byte	0
 3538 0168 1D       		.uleb128 0x1d
 3539 0169 34       		.uleb128 0x34
 3540 016a 00       		.byte	0
 3541 016b 03       		.uleb128 0x3
 3542 016c 08       		.uleb128 0x8
 3543 016d 3A       		.uleb128 0x3a
 3544 016e 0B       		.uleb128 0xb
 3545 016f 3B       		.uleb128 0x3b
 3546 0170 0B       		.uleb128 0xb
 3547 0171 49       		.uleb128 0x49
 3548 0172 13       		.uleb128 0x13
 3549 0173 02       		.uleb128 0x2
 3550 0174 17       		.uleb128 0x17
 3551 0175 00       		.byte	0
 3552 0176 00       		.byte	0
 3553 0177 1E       		.uleb128 0x1e
 3554 0178 34       		.uleb128 0x34
 3555 0179 00       		.byte	0
 3556 017a 03       		.uleb128 0x3
 3557 017b 0E       		.uleb128 0xe
 3558 017c 3A       		.uleb128 0x3a
 3559 017d 0B       		.uleb128 0xb
 3560 017e 3B       		.uleb128 0x3b
 3561 017f 0B       		.uleb128 0xb
 3562 0180 49       		.uleb128 0x49
 3563 0181 13       		.uleb128 0x13
 3564 0182 02       		.uleb128 0x2
 3565 0183 17       		.uleb128 0x17
 3566 0184 00       		.byte	0
 3567 0185 00       		.byte	0
 3568 0186 1F       		.uleb128 0x1f
 3569 0187 898201   		.uleb128 0x4109
 3570 018a 00       		.byte	0
 3571 018b 11       		.uleb128 0x11
 3572 018c 01       		.uleb128 0x1
 3573 018d 31       		.uleb128 0x31
 3574 018e 13       		.uleb128 0x13
 3575 018f 00       		.byte	0
 3576 0190 00       		.byte	0
 3577 0191 20       		.uleb128 0x20
 3578 0192 2E       		.uleb128 0x2e
 3579 0193 01       		.byte	0x1
 3580 0194 03       		.uleb128 0x3
 3581 0195 0E       		.uleb128 0xe
 3582 0196 3A       		.uleb128 0x3a
 3583 0197 0B       		.uleb128 0xb
 3584 0198 3B       		.uleb128 0x3b
 3585 0199 0B       		.uleb128 0xb
 3586 019a 27       		.uleb128 0x27
 3587 019b 19       		.uleb128 0x19
 3588 019c 49       		.uleb128 0x49
 3589 019d 13       		.uleb128 0x13
 3590 019e 11       		.uleb128 0x11
 3591 019f 01       		.uleb128 0x1
GAS LISTING /tmp/cctuymYX.s 			page 68


 3592 01a0 12       		.uleb128 0x12
 3593 01a1 06       		.uleb128 0x6
 3594 01a2 40       		.uleb128 0x40
 3595 01a3 18       		.uleb128 0x18
 3596 01a4 9742     		.uleb128 0x2117
 3597 01a6 19       		.uleb128 0x19
 3598 01a7 01       		.uleb128 0x1
 3599 01a8 13       		.uleb128 0x13
 3600 01a9 00       		.byte	0
 3601 01aa 00       		.byte	0
 3602 01ab 21       		.uleb128 0x21
 3603 01ac 05       		.uleb128 0x5
 3604 01ad 00       		.byte	0
 3605 01ae 03       		.uleb128 0x3
 3606 01af 08       		.uleb128 0x8
 3607 01b0 3A       		.uleb128 0x3a
 3608 01b1 0B       		.uleb128 0xb
 3609 01b2 3B       		.uleb128 0x3b
 3610 01b3 0B       		.uleb128 0xb
 3611 01b4 49       		.uleb128 0x49
 3612 01b5 13       		.uleb128 0x13
 3613 01b6 02       		.uleb128 0x2
 3614 01b7 18       		.uleb128 0x18
 3615 01b8 00       		.byte	0
 3616 01b9 00       		.byte	0
 3617 01ba 22       		.uleb128 0x22
 3618 01bb 2E       		.uleb128 0x2e
 3619 01bc 01       		.byte	0x1
 3620 01bd 31       		.uleb128 0x31
 3621 01be 13       		.uleb128 0x13
 3622 01bf 11       		.uleb128 0x11
 3623 01c0 01       		.uleb128 0x1
 3624 01c1 12       		.uleb128 0x12
 3625 01c2 06       		.uleb128 0x6
 3626 01c3 40       		.uleb128 0x40
 3627 01c4 18       		.uleb128 0x18
 3628 01c5 9742     		.uleb128 0x2117
 3629 01c7 19       		.uleb128 0x19
 3630 01c8 01       		.uleb128 0x1
 3631 01c9 13       		.uleb128 0x13
 3632 01ca 00       		.byte	0
 3633 01cb 00       		.byte	0
 3634 01cc 23       		.uleb128 0x23
 3635 01cd 34       		.uleb128 0x34
 3636 01ce 00       		.byte	0
 3637 01cf 31       		.uleb128 0x31
 3638 01d0 13       		.uleb128 0x13
 3639 01d1 02       		.uleb128 0x2
 3640 01d2 17       		.uleb128 0x17
 3641 01d3 00       		.byte	0
 3642 01d4 00       		.byte	0
 3643 01d5 24       		.uleb128 0x24
 3644 01d6 0B       		.uleb128 0xb
 3645 01d7 01       		.byte	0x1
 3646 01d8 11       		.uleb128 0x11
 3647 01d9 01       		.uleb128 0x1
 3648 01da 12       		.uleb128 0x12
GAS LISTING /tmp/cctuymYX.s 			page 69


 3649 01db 06       		.uleb128 0x6
 3650 01dc 01       		.uleb128 0x1
 3651 01dd 13       		.uleb128 0x13
 3652 01de 00       		.byte	0
 3653 01df 00       		.byte	0
 3654 01e0 25       		.uleb128 0x25
 3655 01e1 01       		.uleb128 0x1
 3656 01e2 01       		.byte	0x1
 3657 01e3 49       		.uleb128 0x49
 3658 01e4 13       		.uleb128 0x13
 3659 01e5 01       		.uleb128 0x1
 3660 01e6 13       		.uleb128 0x13
 3661 01e7 00       		.byte	0
 3662 01e8 00       		.byte	0
 3663 01e9 26       		.uleb128 0x26
 3664 01ea 21       		.uleb128 0x21
 3665 01eb 00       		.byte	0
 3666 01ec 49       		.uleb128 0x49
 3667 01ed 13       		.uleb128 0x13
 3668 01ee 2F       		.uleb128 0x2f
 3669 01ef 0B       		.uleb128 0xb
 3670 01f0 00       		.byte	0
 3671 01f1 00       		.byte	0
 3672 01f2 27       		.uleb128 0x27
 3673 01f3 34       		.uleb128 0x34
 3674 01f4 00       		.byte	0
 3675 01f5 03       		.uleb128 0x3
 3676 01f6 0E       		.uleb128 0xe
 3677 01f7 3A       		.uleb128 0x3a
 3678 01f8 0B       		.uleb128 0xb
 3679 01f9 3B       		.uleb128 0x3b
 3680 01fa 0B       		.uleb128 0xb
 3681 01fb 49       		.uleb128 0x49
 3682 01fc 13       		.uleb128 0x13
 3683 01fd 02       		.uleb128 0x2
 3684 01fe 18       		.uleb128 0x18
 3685 01ff 00       		.byte	0
 3686 0200 00       		.byte	0
 3687 0201 28       		.uleb128 0x28
 3688 0202 34       		.uleb128 0x34
 3689 0203 00       		.byte	0
 3690 0204 03       		.uleb128 0x3
 3691 0205 0E       		.uleb128 0xe
 3692 0206 3A       		.uleb128 0x3a
 3693 0207 0B       		.uleb128 0xb
 3694 0208 3B       		.uleb128 0x3b
 3695 0209 0B       		.uleb128 0xb
 3696 020a 49       		.uleb128 0x49
 3697 020b 13       		.uleb128 0x13
 3698 020c 3F       		.uleb128 0x3f
 3699 020d 19       		.uleb128 0x19
 3700 020e 3C       		.uleb128 0x3c
 3701 020f 19       		.uleb128 0x19
 3702 0210 00       		.byte	0
 3703 0211 00       		.byte	0
 3704 0212 29       		.uleb128 0x29
 3705 0213 21       		.uleb128 0x21
GAS LISTING /tmp/cctuymYX.s 			page 70


 3706 0214 00       		.byte	0
 3707 0215 00       		.byte	0
 3708 0216 00       		.byte	0
 3709 0217 2A       		.uleb128 0x2a
 3710 0218 34       		.uleb128 0x34
 3711 0219 00       		.byte	0
 3712 021a 03       		.uleb128 0x3
 3713 021b 08       		.uleb128 0x8
 3714 021c 3A       		.uleb128 0x3a
 3715 021d 0B       		.uleb128 0xb
 3716 021e 3B       		.uleb128 0x3b
 3717 021f 0B       		.uleb128 0xb
 3718 0220 49       		.uleb128 0x49
 3719 0221 13       		.uleb128 0x13
 3720 0222 3F       		.uleb128 0x3f
 3721 0223 19       		.uleb128 0x19
 3722 0224 3C       		.uleb128 0x3c
 3723 0225 19       		.uleb128 0x19
 3724 0226 00       		.byte	0
 3725 0227 00       		.byte	0
 3726 0228 2B       		.uleb128 0x2b
 3727 0229 34       		.uleb128 0x34
 3728 022a 00       		.byte	0
 3729 022b 03       		.uleb128 0x3
 3730 022c 0E       		.uleb128 0xe
 3731 022d 3A       		.uleb128 0x3a
 3732 022e 0B       		.uleb128 0xb
 3733 022f 3B       		.uleb128 0x3b
 3734 0230 0B       		.uleb128 0xb
 3735 0231 49       		.uleb128 0x49
 3736 0232 13       		.uleb128 0x13
 3737 0233 3F       		.uleb128 0x3f
 3738 0234 19       		.uleb128 0x19
 3739 0235 02       		.uleb128 0x2
 3740 0236 18       		.uleb128 0x18
 3741 0237 00       		.byte	0
 3742 0238 00       		.byte	0
 3743 0239 2C       		.uleb128 0x2c
 3744 023a 34       		.uleb128 0x34
 3745 023b 00       		.byte	0
 3746 023c 03       		.uleb128 0x3
 3747 023d 0E       		.uleb128 0xe
 3748 023e 3A       		.uleb128 0x3a
 3749 023f 0B       		.uleb128 0xb
 3750 0240 3B       		.uleb128 0x3b
 3751 0241 05       		.uleb128 0x5
 3752 0242 49       		.uleb128 0x49
 3753 0243 13       		.uleb128 0x13
 3754 0244 3F       		.uleb128 0x3f
 3755 0245 19       		.uleb128 0x19
 3756 0246 02       		.uleb128 0x2
 3757 0247 18       		.uleb128 0x18
 3758 0248 00       		.byte	0
 3759 0249 00       		.byte	0
 3760 024a 2D       		.uleb128 0x2d
 3761 024b 2E       		.uleb128 0x2e
 3762 024c 01       		.byte	0x1
GAS LISTING /tmp/cctuymYX.s 			page 71


 3763 024d 3F       		.uleb128 0x3f
 3764 024e 19       		.uleb128 0x19
 3765 024f 03       		.uleb128 0x3
 3766 0250 0E       		.uleb128 0xe
 3767 0251 3A       		.uleb128 0x3a
 3768 0252 0B       		.uleb128 0xb
 3769 0253 3B       		.uleb128 0x3b
 3770 0254 0B       		.uleb128 0xb
 3771 0255 27       		.uleb128 0x27
 3772 0256 19       		.uleb128 0x19
 3773 0257 3C       		.uleb128 0x3c
 3774 0258 19       		.uleb128 0x19
 3775 0259 01       		.uleb128 0x1
 3776 025a 13       		.uleb128 0x13
 3777 025b 00       		.byte	0
 3778 025c 00       		.byte	0
 3779 025d 2E       		.uleb128 0x2e
 3780 025e 2E       		.uleb128 0x2e
 3781 025f 01       		.byte	0x1
 3782 0260 3F       		.uleb128 0x3f
 3783 0261 19       		.uleb128 0x19
 3784 0262 03       		.uleb128 0x3
 3785 0263 0E       		.uleb128 0xe
 3786 0264 3A       		.uleb128 0x3a
 3787 0265 0B       		.uleb128 0xb
 3788 0266 3B       		.uleb128 0x3b
 3789 0267 0B       		.uleb128 0xb
 3790 0268 27       		.uleb128 0x27
 3791 0269 19       		.uleb128 0x19
 3792 026a 49       		.uleb128 0x49
 3793 026b 13       		.uleb128 0x13
 3794 026c 3C       		.uleb128 0x3c
 3795 026d 19       		.uleb128 0x19
 3796 026e 01       		.uleb128 0x1
 3797 026f 13       		.uleb128 0x13
 3798 0270 00       		.byte	0
 3799 0271 00       		.byte	0
 3800 0272 2F       		.uleb128 0x2f
 3801 0273 2E       		.uleb128 0x2e
 3802 0274 00       		.byte	0
 3803 0275 3F       		.uleb128 0x3f
 3804 0276 19       		.uleb128 0x19
 3805 0277 03       		.uleb128 0x3
 3806 0278 0E       		.uleb128 0xe
 3807 0279 3A       		.uleb128 0x3a
 3808 027a 0B       		.uleb128 0xb
 3809 027b 3B       		.uleb128 0x3b
 3810 027c 0B       		.uleb128 0xb
 3811 027d 27       		.uleb128 0x27
 3812 027e 19       		.uleb128 0x19
 3813 027f 49       		.uleb128 0x49
 3814 0280 13       		.uleb128 0x13
 3815 0281 3C       		.uleb128 0x3c
 3816 0282 19       		.uleb128 0x19
 3817 0283 00       		.byte	0
 3818 0284 00       		.byte	0
 3819 0285 30       		.uleb128 0x30
GAS LISTING /tmp/cctuymYX.s 			page 72


 3820 0286 2E       		.uleb128 0x2e
 3821 0287 01       		.byte	0x1
 3822 0288 3F       		.uleb128 0x3f
 3823 0289 19       		.uleb128 0x19
 3824 028a 03       		.uleb128 0x3
 3825 028b 0E       		.uleb128 0xe
 3826 028c 3A       		.uleb128 0x3a
 3827 028d 0B       		.uleb128 0xb
 3828 028e 3B       		.uleb128 0x3b
 3829 028f 05       		.uleb128 0x5
 3830 0290 27       		.uleb128 0x27
 3831 0291 19       		.uleb128 0x19
 3832 0292 49       		.uleb128 0x49
 3833 0293 13       		.uleb128 0x13
 3834 0294 3C       		.uleb128 0x3c
 3835 0295 19       		.uleb128 0x19
 3836 0296 01       		.uleb128 0x1
 3837 0297 13       		.uleb128 0x13
 3838 0298 00       		.byte	0
 3839 0299 00       		.byte	0
 3840 029a 31       		.uleb128 0x31
 3841 029b 2E       		.uleb128 0x2e
 3842 029c 00       		.byte	0
 3843 029d 3F       		.uleb128 0x3f
 3844 029e 19       		.uleb128 0x19
 3845 029f 03       		.uleb128 0x3
 3846 02a0 0E       		.uleb128 0xe
 3847 02a1 3A       		.uleb128 0x3a
 3848 02a2 0B       		.uleb128 0xb
 3849 02a3 3B       		.uleb128 0x3b
 3850 02a4 0B       		.uleb128 0xb
 3851 02a5 27       		.uleb128 0x27
 3852 02a6 19       		.uleb128 0x19
 3853 02a7 3C       		.uleb128 0x3c
 3854 02a8 19       		.uleb128 0x19
 3855 02a9 00       		.byte	0
 3856 02aa 00       		.byte	0
 3857 02ab 32       		.uleb128 0x32
 3858 02ac 2E       		.uleb128 0x2e
 3859 02ad 01       		.byte	0x1
 3860 02ae 3F       		.uleb128 0x3f
 3861 02af 19       		.uleb128 0x19
 3862 02b0 03       		.uleb128 0x3
 3863 02b1 0E       		.uleb128 0xe
 3864 02b2 3A       		.uleb128 0x3a
 3865 02b3 0B       		.uleb128 0xb
 3866 02b4 3B       		.uleb128 0x3b
 3867 02b5 05       		.uleb128 0x5
 3868 02b6 27       		.uleb128 0x27
 3869 02b7 19       		.uleb128 0x19
 3870 02b8 3C       		.uleb128 0x3c
 3871 02b9 19       		.uleb128 0x19
 3872 02ba 01       		.uleb128 0x1
 3873 02bb 13       		.uleb128 0x13
 3874 02bc 00       		.byte	0
 3875 02bd 00       		.byte	0
 3876 02be 33       		.uleb128 0x33
GAS LISTING /tmp/cctuymYX.s 			page 73


 3877 02bf 2E       		.uleb128 0x2e
 3878 02c0 01       		.byte	0x1
 3879 02c1 3F       		.uleb128 0x3f
 3880 02c2 19       		.uleb128 0x19
 3881 02c3 03       		.uleb128 0x3
 3882 02c4 0E       		.uleb128 0xe
 3883 02c5 3A       		.uleb128 0x3a
 3884 02c6 0B       		.uleb128 0xb
 3885 02c7 3B       		.uleb128 0x3b
 3886 02c8 0B       		.uleb128 0xb
 3887 02c9 27       		.uleb128 0x27
 3888 02ca 19       		.uleb128 0x19
 3889 02cb 49       		.uleb128 0x49
 3890 02cc 13       		.uleb128 0x13
 3891 02cd 3C       		.uleb128 0x3c
 3892 02ce 19       		.uleb128 0x19
 3893 02cf 00       		.byte	0
 3894 02d0 00       		.byte	0
 3895 02d1 00       		.byte	0
 3896              		.section	.debug_loc,"",@progbits
 3897              	.Ldebug_loc0:
 3898              	.LLST0:
 3899 0000 10010000 		.long	.LVL9-.Ltext0
 3900 0004 18010000 		.long	.LVL10-.Ltext0
 3901 0008 0200     		.value	0x2
 3902 000a 91       		.byte	0x91
 3903 000b 00       		.sleb128 0
 3904 000c 00000000 		.long	0
 3905 0010 00000000 		.long	0
 3906              	.LLST1:
 3907 0014 20010000 		.long	.LVL12-.Ltext0
 3908 0018 28010000 		.long	.LVL13-.Ltext0
 3909 001c 0200     		.value	0x2
 3910 001e 91       		.byte	0x91
 3911 001f 00       		.sleb128 0
 3912 0020 00000000 		.long	0
 3913 0024 00000000 		.long	0
 3914              	.LLST2:
 3915 0028 30010000 		.long	.LVL15-.Ltext0
 3916 002c 38010000 		.long	.LVL16-.Ltext0
 3917 0030 0200     		.value	0x2
 3918 0032 91       		.byte	0x91
 3919 0033 00       		.sleb128 0
 3920 0034 00000000 		.long	0
 3921 0038 00000000 		.long	0
 3922              	.LLST3:
 3923 003c BF010000 		.long	.LVL22-.Ltext0
 3924 0040 CC010000 		.long	.LVL23-.Ltext0
 3925 0044 0100     		.value	0x1
 3926 0046 50       		.byte	0x50
 3927 0047 F4010000 		.long	.LVL25-.Ltext0
 3928 004b 01020000 		.long	.LVL26-.Ltext0
 3929 004f 0100     		.value	0x1
 3930 0051 50       		.byte	0x50
 3931 0052 1D020000 		.long	.LVL28-.Ltext0
 3932 0056 29020000 		.long	.LVL29-.Ltext0
 3933 005a 0100     		.value	0x1
GAS LISTING /tmp/cctuymYX.s 			page 74


 3934 005c 50       		.byte	0x50
 3935 005d 8F020000 		.long	.LVL35-.Ltext0
 3936 0061 92020000 		.long	.LVL36-.Ltext0
 3937 0065 0100     		.value	0x1
 3938 0067 50       		.byte	0x50
 3939 0068 92020000 		.long	.LVL36-.Ltext0
 3940 006c D6020000 		.long	.LVL40-.Ltext0
 3941 0070 0100     		.value	0x1
 3942 0072 57       		.byte	0x57
 3943 0073 D6020000 		.long	.LVL40-.Ltext0
 3944 0077 E2020000 		.long	.LVL41-.Ltext0
 3945 007b 0100     		.value	0x1
 3946 007d 50       		.byte	0x50
 3947 007e 13030000 		.long	.LVL45-.Ltext0
 3948 0082 20030000 		.long	.LVL46-.Ltext0
 3949 0086 0100     		.value	0x1
 3950 0088 50       		.byte	0x50
 3951 0089 40030000 		.long	.LVL48-.Ltext0
 3952 008d 4C030000 		.long	.LVL49-.Ltext0
 3953 0091 0100     		.value	0x1
 3954 0093 50       		.byte	0x50
 3955 0094 B0030000 		.long	.LVL55-.Ltext0
 3956 0098 B3030000 		.long	.LVL56-.Ltext0
 3957 009c 0100     		.value	0x1
 3958 009e 50       		.byte	0x50
 3959 009f B3030000 		.long	.LVL56-.Ltext0
 3960 00a3 D0030000 		.long	.LVL59-.Ltext0
 3961 00a7 0100     		.value	0x1
 3962 00a9 57       		.byte	0x57
 3963 00aa F7030000 		.long	.LVL61-.Ltext0
 3964 00ae 03040000 		.long	.LVL62-.Ltext0
 3965 00b2 0100     		.value	0x1
 3966 00b4 50       		.byte	0x50
 3967 00b5 E1040000 		.long	.LVL74-.Ltext0
 3968 00b9 ED040000 		.long	.LVL75-.Ltext0
 3969 00bd 0100     		.value	0x1
 3970 00bf 50       		.byte	0x50
 3971 00c0 00000000 		.long	0
 3972 00c4 00000000 		.long	0
 3973              	.LLST4:
 3974 00c8 57020000 		.long	.LVL32-.Ltext0
 3975 00cc 95020000 		.long	.LVL37-.Ltext0
 3976 00d0 0300     		.value	0x3
 3977 00d2 73       		.byte	0x73
 3978 00d3 32       		.sleb128 50
 3979 00d4 9F       		.byte	0x9f
 3980 00d5 95020000 		.long	.LVL37-.Ltext0
 3981 00d9 78030000 		.long	.LVL52-.Ltext0
 3982 00dd 0100     		.value	0x1
 3983 00df 53       		.byte	0x53
 3984 00e0 78030000 		.long	.LVL52-.Ltext0
 3985 00e4 B6030000 		.long	.LVL57-.Ltext0
 3986 00e8 0300     		.value	0x3
 3987 00ea 73       		.byte	0x73
 3988 00eb 32       		.sleb128 50
 3989 00ec 9F       		.byte	0x9f
 3990 00ed B6030000 		.long	.LVL57-.Ltext0
GAS LISTING /tmp/cctuymYX.s 			page 75


 3991 00f1 24040000 		.long	.LVL65-.Ltext0
 3992 00f5 0100     		.value	0x1
 3993 00f7 53       		.byte	0x53
 3994 00f8 80040000 		.long	.LVL69-.Ltext0
 3995 00fc B9040000 		.long	.LVL72-.Ltext0
 3996 0100 0300     		.value	0x3
 3997 0102 75       		.byte	0x75
 3998 0103 32       		.sleb128 50
 3999 0104 9F       		.byte	0x9f
 4000 0105 B9040000 		.long	.LVL72-.Ltext0
 4001 0109 71050000 		.long	.LFE15-.Ltext0
 4002 010d 0100     		.value	0x1
 4003 010f 55       		.byte	0x55
 4004 0110 00000000 		.long	0
 4005 0114 00000000 		.long	0
 4006              	.LLST5:
 4007 0118 07060000 		.long	.LVL89-.Ltext0
 4008 011c 13060000 		.long	.LVL90-.Ltext0
 4009 0120 0100     		.value	0x1
 4010 0122 50       		.byte	0x50
 4011 0123 3C060000 		.long	.LVL92-.Ltext0
 4012 0127 48060000 		.long	.LVL93-.Ltext0
 4013 012b 0100     		.value	0x1
 4014 012d 50       		.byte	0x50
 4015 012e 6C060000 		.long	.LVL95-.Ltext0
 4016 0132 78060000 		.long	.LVL96-.Ltext0
 4017 0136 0100     		.value	0x1
 4018 0138 50       		.byte	0x50
 4019 0139 00000000 		.long	0
 4020 013d 00000000 		.long	0
 4021              	.LLST6:
 4022 0141 9C060000 		.long	.LVL98-.Ltext0
 4023 0145 A8060000 		.long	.LVL99-.Ltext0
 4024 0149 0100     		.value	0x1
 4025 014b 50       		.byte	0x50
 4026 014c D0060000 		.long	.LVL101-.Ltext0
 4027 0150 DC060000 		.long	.LVL102-.Ltext0
 4028 0154 0100     		.value	0x1
 4029 0156 50       		.byte	0x50
 4030 0157 04070000 		.long	.LVL104-.Ltext0
 4031 015b 10070000 		.long	.LVL105-.Ltext0
 4032 015f 0100     		.value	0x1
 4033 0161 50       		.byte	0x50
 4034 0162 00000000 		.long	0
 4035 0166 00000000 		.long	0
 4036              		.section	.debug_aranges,"",@progbits
 4037 0000 1C000000 		.long	0x1c
 4038 0004 0200     		.value	0x2
 4039 0006 00000000 		.long	.Ldebug_info0
 4040 000a 04       		.byte	0x4
 4041 000b 00       		.byte	0
 4042 000c 0000     		.value	0
 4043 000e 0000     		.value	0
 4044 0010 00000000 		.long	.Ltext0
 4045 0014 21070000 		.long	.Letext0-.Ltext0
 4046 0018 00000000 		.long	0
 4047 001c 00000000 		.long	0
GAS LISTING /tmp/cctuymYX.s 			page 76


 4048              		.section	.debug_line,"",@progbits
 4049              	.Ldebug_line0:
 4050 0000 07020000 		.section	.debug_str,"MS",@progbits,1
 4050      02002401 
 4050      00000101 
 4050      FB0E0D00 
 4050      01010101 
 4051              	.LASF83:
 4052 0000 7466756E 		.string	"tfunc_t"
 4052      635F7400 
 4053              	.LASF91:
 4054 0008 65767432 		.string	"evt2_setup"
 4054      5F736574 
 4054      757000
 4055              	.LASF39:
 4056 0013 705F6D73 		.string	"p_msg"
 4056      6700
 4057              	.LASF69:
 4058 0019 6D5F6E65 		.string	"m_next"
 4058      787400
 4059              	.LASF121:
 4060 0020 63684576 		.string	"chEvtWaitOneTimeout"
 4060      74576169 
 4060      744F6E65 
 4060      54696D65 
 4060      6F757400 
 4061              	.LASF4:
 4062 0034 73697A65 		.string	"size_t"
 4062      5F7400
 4063              	.LASF78:
 4064 003b 7264796D 		.string	"rdymsg"
 4064      736700
 4065              	.LASF98:
 4066 0042 76746C69 		.string	"vtlist"
 4066      737400
 4067              	.LASF120:
 4068 0049 63684576 		.string	"chEvtSignal"
 4068      74536967 
 4068      6E616C00 
 4069              	.LASF11:
 4070 0055 6C6F6E67 		.string	"long long unsigned int"
 4070      206C6F6E 
 4070      6720756E 
 4070      7369676E 
 4070      65642069 
 4071              	.LASF112:
 4072 006c 63684576 		.string	"chEvtAddEvents"
 4072      74416464 
 4072      4576656E 
 4072      747300
 4073              	.LASF79:
 4074 007b 65786974 		.string	"exitcode"
 4074      636F6465 
 4074      00
 4075              	.LASF122:
 4076 0084 63684576 		.string	"chEvtWaitAnyTimeout"
 4076      74576169 
GAS LISTING /tmp/cctuymYX.s 			page 77


 4076      74416E79 
 4076      54696D65 
 4076      6F757400 
 4077              	.LASF27:
 4078 0098 705F7072 		.string	"p_prio"
 4078      696F00
 4079              	.LASF93:
 4080 009f 65767432 		.string	"evt2_execute"
 4080      5F657865 
 4080      63757465 
 4080      00
 4081              	.LASF6:
 4082 00ac 6C6F6E67 		.string	"long long int"
 4082      206C6F6E 
 4082      6720696E 
 4082      7400
 4083              	.LASF2:
 4084 00ba 7369676E 		.string	"signed char"
 4084      65642063 
 4084      68617200 
 4085              	.LASF123:
 4086 00c6 63684576 		.string	"chEvtWaitAllTimeout"
 4086      74576169 
 4086      74416C6C 
 4086      54696D65 
 4086      6F757400 
 4087              	.LASF43:
 4088 00da 705F6D70 		.string	"p_mpool"
 4088      6F6F6C00 
 4089              	.LASF12:
 4090 00e2 626F6F6C 		.string	"bool_t"
 4090      5F7400
 4091              	.LASF67:
 4092 00e9 6D5F7175 		.string	"m_queue"
 4092      65756500 
 4093              	.LASF126:
 4094 00f1 2F686F6D 		.string	"/home/tony/ChibiOS-RT/testhal/Posix/EXT"
 4094      652F746F 
 4094      6E792F43 
 4094      68696269 
 4094      4F532D52 
 4095              	.LASF110:
 4096 0119 74657374 		.string	"test_emit_token"
 4096      5F656D69 
 4096      745F746F 
 4096      6B656E00 
 4097              	.LASF17:
 4098 0129 74736C69 		.string	"tslices_t"
 4098      6365735F 
 4098      7400
 4099              	.LASF1:
 4100 0133 6C6F6E67 		.string	"long int"
 4100      20696E74 
 4100      00
 4101              	.LASF94:
 4102 013c 74617267 		.string	"target_time"
 4102      65745F74 
GAS LISTING /tmp/cctuymYX.s 			page 78


 4102      696D6500 
 4103              	.LASF15:
 4104 0148 74737461 		.string	"tstate_t"
 4104      74655F74 
 4104      00
 4105              	.LASF115:
 4106 0151 5F746573 		.string	"_test_assert_time_window"
 4106      745F6173 
 4106      73657274 
 4106      5F74696D 
 4106      655F7769 
 4107              	.LASF102:
 4108 016a 74657374 		.string	"testevt2"
 4108      65767432 
 4108      00
 4109              	.LASF116:
 4110 0173 63684576 		.string	"chEvtWaitAny"
 4110      74576169 
 4110      74416E79 
 4110      00
 4111              	.LASF103:
 4112 0180 74657374 		.string	"testevt3"
 4112      65767433 
 4112      00
 4113              	.LASF29:
 4114 0189 705F6E65 		.string	"p_newer"
 4114      77657200 
 4115              	.LASF62:
 4116 0191 725F6E65 		.string	"r_newer"
 4116      77657200 
 4117              	.LASF127:
 4118 0199 65767433 		.string	"evt3_execute"
 4118      5F657865 
 4118      63757465 
 4118      00
 4119              	.LASF53:
 4120 01a6 76745F70 		.string	"vt_prev"
 4120      72657600 
 4121              	.LASF118:
 4122 01ae 63684576 		.string	"chEvtBroadcastFlags"
 4122      7442726F 
 4122      61646361 
 4122      7374466C 
 4122      61677300 
 4123              	.LASF20:
 4124 01c2 6576656E 		.string	"eventid_t"
 4124      7469645F 
 4124      7400
 4125              	.LASF75:
 4126 01cc 4576656E 		.string	"EventSource"
 4126      74536F75 
 4126      72636500 
 4127              	.LASF77:
 4128 01d8 65766861 		.string	"evhandler_t"
 4128      6E646C65 
 4128      725F7400 
 4129              	.LASF0:
GAS LISTING /tmp/cctuymYX.s 			page 79


 4130 01e4 756E7369 		.string	"unsigned int"
 4130      676E6564 
 4130      20696E74 
 4130      00
 4131              	.LASF52:
 4132 01f1 76745F6E 		.string	"vt_next"
 4132      65787400 
 4133              	.LASF38:
 4134 01f9 705F6D73 		.string	"p_msgqueue"
 4134      67717565 
 4134      756500
 4135              	.LASF111:
 4136 0204 63684576 		.string	"chEvtGetAndClearEvents"
 4136      74476574 
 4136      416E6443 
 4136      6C656172 
 4136      4576656E 
 4137              	.LASF87:
 4138 021b 74656172 		.string	"teardown"
 4138      646F776E 
 4138      00
 4139              	.LASF104:
 4140 0224 70617474 		.string	"patternevt"
 4140      65726E65 
 4140      767400
 4141              	.LASF85:
 4142 022f 6E616D65 		.string	"name"
 4142      00
 4143              	.LASF49:
 4144 0234 636F6E74 		.string	"context"
 4144      65787400 
 4145              	.LASF9:
 4146 023c 73686F72 		.string	"short unsigned int"
 4146      7420756E 
 4146      7369676E 
 4146      65642069 
 4146      6E7400
 4147              	.LASF105:
 4148 024f 63684576 		.string	"chEvtRegisterMask"
 4148      74526567 
 4148      69737465 
 4148      724D6173 
 4148      6B00
 4149              	.LASF19:
 4150 0261 6D73675F 		.string	"msg_t"
 4150      7400
 4151              	.LASF71:
 4152 0267 656C5F6E 		.string	"el_next"
 4152      65787400 
 4153              	.LASF106:
 4154 026f 63684576 		.string	"chEvtUnregister"
 4154      74556E72 
 4154      65676973 
 4154      74657200 
 4155              	.LASF14:
 4156 027f 746D6F64 		.string	"tmode_t"
 4156      655F7400 
GAS LISTING /tmp/cctuymYX.s 			page 80


 4157              	.LASF45:
 4158 0287 54687265 		.string	"ThreadsList"
 4158      6164734C 
 4158      69737400 
 4159              	.LASF21:
 4160 0293 6576656E 		.string	"eventmask_t"
 4160      746D6173 
 4160      6B5F7400 
 4161              	.LASF66:
 4162 029f 4D757465 		.string	"Mutex"
 4162      7800
 4163              	.LASF114:
 4164 02a5 63685468 		.string	"chThdCreateStatic"
 4164      64437265 
 4164      61746553 
 4164      74617469 
 4164      6300
 4165              	.LASF54:
 4166 02b7 76745F74 		.string	"vt_time"
 4166      696D6500 
 4167              	.LASF90:
 4168 02bf 65767431 		.string	"evt1_setup"
 4168      5F736574 
 4168      757000
 4169              	.LASF46:
 4170 02ca 73697A65 		.string	"sizetype"
 4170      74797065 
 4170      00
 4171              	.LASF55:
 4172 02d3 76745F66 		.string	"vt_func"
 4172      756E6300 
 4173              	.LASF107:
 4174 02db 63684576 		.string	"chEvtDispatch"
 4174      74446973 
 4174      70617463 
 4174      6800
 4175              	.LASF92:
 4176 02e9 65767433 		.string	"evt3_setup"
 4176      5F736574 
 4176      757000
 4177              	.LASF129:
 4178 02f4 74657374 		.string	"test_wait_threads"
 4178      5F776169 
 4178      745F7468 
 4178      72656164 
 4178      7300
 4179              	.LASF30:
 4180 0306 705F6F6C 		.string	"p_older"
 4180      64657200 
 4181              	.LASF96:
 4182 030e 74687265 		.string	"thread1"
 4182      61643100 
 4183              	.LASF95:
 4184 0316 74687265 		.string	"thread2"
 4184      61643200 
 4185              	.LASF61:
 4186 031e 725F6374 		.string	"r_ctx"
GAS LISTING /tmp/cctuymYX.s 			page 81


 4186      7800
 4187              	.LASF44:
 4188 0324 54687265 		.string	"ThreadsQueue"
 4188      61647351 
 4188      75657565 
 4188      00
 4189              	.LASF86:
 4190 0331 73657475 		.string	"setup"
 4190      7000
 4191              	.LASF109:
 4192 0337 5F746573 		.string	"_test_assert_sequence"
 4192      745F6173 
 4192      73657274 
 4192      5F736571 
 4192      75656E63 
 4193              	.LASF117:
 4194 034d 63684576 		.string	"chEvtWaitAll"
 4194      74576169 
 4194      74416C6C 
 4194      00
 4195              	.LASF64:
 4196 035a 725F6375 		.string	"r_current"
 4196      7272656E 
 4196      7400
 4197              	.LASF63:
 4198 0364 725F6F6C 		.string	"r_older"
 4198      64657200 
 4199              	.LASF73:
 4200 036c 656C5F6D 		.string	"el_mask"
 4200      61736B00 
 4201              	.LASF16:
 4202 0374 74726566 		.string	"trefs_t"
 4202      735F7400 
 4203              	.LASF26:
 4204 037c 705F7072 		.string	"p_prev"
 4204      657600
 4205              	.LASF88:
 4206 0383 65786563 		.string	"execute"
 4206      75746500 
 4207              	.LASF18:
 4208 038b 74707269 		.string	"tprio_t"
 4208      6F5F7400 
 4209              	.LASF13:
 4210 0393 5F426F6F 		.string	"_Bool"
 4210      6C00
 4211              	.LASF5:
 4212 0399 696E7433 		.string	"int32_t"
 4212      325F7400 
 4213              	.LASF8:
 4214 03a1 756E7369 		.string	"unsigned char"
 4214      676E6564 
 4214      20636861 
 4214      7200
 4215              	.LASF113:
 4216 03af 63684576 		.string	"chEvtWaitOne"
 4216      74576169 
 4216      744F6E65 
GAS LISTING /tmp/cctuymYX.s 			page 82


 4216      00
 4217              	.LASF124:
 4218 03bc 474E5520 		.string	"GNU C 4.8.2 -m32 -mtune=generic -march=i686 -ggdb -O2 -fomit-frame-pointer -fstack-protec
 4218      4320342E 
 4218      382E3220 
 4218      2D6D3332 
 4218      202D6D74 
 4219              	.LASF72:
 4220 0419 656C5F6C 		.string	"el_listener"
 4220      69737465 
 4220      6E657200 
 4221              	.LASF74:
 4222 0425 656C5F66 		.string	"el_flags"
 4222      6C616773 
 4222      00
 4223              	.LASF41:
 4224 042e 705F6D74 		.string	"p_mtxlist"
 4224      786C6973 
 4224      7400
 4225              	.LASF3:
 4226 0438 73686F72 		.string	"short int"
 4226      7420696E 
 4226      7400
 4227              	.LASF32:
 4228 0442 705F7374 		.string	"p_state"
 4228      61746500 
 4229              	.LASF35:
 4230 044a 705F7072 		.string	"p_preempt"
 4230      65656D70 
 4230      7400
 4231              	.LASF100:
 4232 0454 74687265 		.string	"threads"
 4232      61647300 
 4233              	.LASF60:
 4234 045c 725F7072 		.string	"r_prio"
 4234      696F00
 4235              	.LASF81:
 4236 0463 65776D61 		.string	"ewmask"
 4236      736B00
 4237              	.LASF25:
 4238 046a 705F6E65 		.string	"p_next"
 4238      787400
 4239              	.LASF33:
 4240 0471 705F666C 		.string	"p_flags"
 4240      61677300 
 4241              	.LASF24:
 4242 0479 54687265 		.string	"Thread"
 4242      616400
 4243              	.LASF84:
 4244 0480 74657374 		.string	"testcase"
 4244      63617365 
 4244      00
 4245              	.LASF40:
 4246 0489 705F6570 		.string	"p_epending"
 4246      656E6469 
 4246      6E6700
 4247              	.LASF101:
GAS LISTING /tmp/cctuymYX.s 			page 83


 4248 0494 74657374 		.string	"testevt1"
 4248      65767431 
 4248      00
 4249              	.LASF97:
 4250 049d 6576686E 		.string	"evhndl"
 4250      646C00
 4251              	.LASF10:
 4252 04a4 75696E74 		.string	"uint32_t"
 4252      33325F74 
 4252      00
 4253              	.LASF59:
 4254 04ad 725F7175 		.string	"r_queue"
 4254      65756500 
 4255              	.LASF51:
 4256 04b5 56697274 		.string	"VirtualTimer"
 4256      75616C54 
 4256      696D6572 
 4256      00
 4257              	.LASF82:
 4258 04c2 63686172 		.string	"char"
 4258      00
 4259              	.LASF23:
 4260 04c7 73797374 		.string	"systime_t"
 4260      696D655F 
 4260      7400
 4261              	.LASF42:
 4262 04d1 705F7265 		.string	"p_realprio"
 4262      616C7072 
 4262      696F00
 4263              	.LASF50:
 4264 04dc 76746675 		.string	"vtfunc_t"
 4264      6E635F74 
 4264      00
 4265              	.LASF36:
 4266 04e5 705F7469 		.string	"p_time"
 4266      6D6500
 4267              	.LASF48:
 4268 04ec 696E7463 		.string	"intctx"
 4268      747800
 4269              	.LASF56:
 4270 04f3 76745F70 		.string	"vt_par"
 4270      617200
 4271              	.LASF22:
 4272 04fa 666C6167 		.string	"flagsmask_t"
 4272      736D6173 
 4272      6B5F7400 
 4273              	.LASF119:
 4274 0506 63685468 		.string	"chThdSleep"
 4274      64536C65 
 4274      657000
 4275              	.LASF125:
 4276 0511 2E2E2F2E 		.string	"../../../test/testevt.c"
 4276      2E2F2E2E 
 4276      2F746573 
 4276      742F7465 
 4276      73746576 
 4277              	.LASF34:
GAS LISTING /tmp/cctuymYX.s 			page 84


 4278 0529 705F7265 		.string	"p_refs"
 4278      667300
 4279              	.LASF65:
 4280 0530 52656164 		.string	"ReadyList"
 4280      794C6973 
 4280      7400
 4281              	.LASF99:
 4282 053a 726C6973 		.string	"rlist"
 4282      7400
 4283              	.LASF7:
 4284 0540 75696E74 		.string	"uint8_t"
 4284      385F7400 
 4285              	.LASF70:
 4286 0548 4576656E 		.string	"EventListener"
 4286      744C6973 
 4286      74656E65 
 4286      7200
 4287              	.LASF80:
 4288 0556 77746F62 		.string	"wtobjp"
 4288      6A7000
 4289              	.LASF31:
 4290 055d 705F6E61 		.string	"p_name"
 4290      6D6500
 4291              	.LASF108:
 4292 0564 5F746573 		.string	"_test_assert"
 4292      745F6173 
 4292      73657274 
 4292      00
 4293              	.LASF57:
 4294 0571 76745F73 		.string	"vt_systime"
 4294      79737469 
 4294      6D6500
 4295              	.LASF76:
 4296 057c 65735F6E 		.string	"es_next"
 4296      65787400 
 4297              	.LASF47:
 4298 0584 72656778 		.string	"regx86"
 4298      383600
 4299              	.LASF58:
 4300 058b 56544C69 		.string	"VTList"
 4300      737400
 4301              	.LASF68:
 4302 0592 6D5F6F77 		.string	"m_owner"
 4302      6E657200 
 4303              	.LASF128:
 4304 059a 74657374 		.string	"test_wait_tick"
 4304      5F776169 
 4304      745F7469 
 4304      636B00
 4305              	.LASF89:
 4306 05a9 65767431 		.string	"evt1_execute"
 4306      5F657865 
 4306      63757465 
 4306      00
 4307              	.LASF28:
 4308 05b6 705F6374 		.string	"p_ctx"
 4308      7800
GAS LISTING /tmp/cctuymYX.s 			page 85


 4309              	.LASF37:
 4310 05bc 705F7761 		.string	"p_waiting"
 4310      6974696E 
 4310      6700
 4311              		.ident	"GCC: (Ubuntu 4.8.2-19ubuntu1) 4.8.2"
 4312              		.section	.note.GNU-stack,"",@progbits
GAS LISTING /tmp/cctuymYX.s 			page 86


DEFINED SYMBOLS
                            *ABS*:0000000000000000 testevt.c
     /tmp/cctuymYX.s:63     .text:0000000000000000 evt1_execute
     /tmp/cctuymYX.s:907    .data:0000000000000004 es1
     /tmp/cctuymYX.s:893    .rodata:0000000000000040 evhndl
     /tmp/cctuymYX.s:167    .text:0000000000000110 h3
     /tmp/cctuymYX.s:182    .text:0000000000000120 h2
     /tmp/cctuymYX.s:197    .text:0000000000000130 h1
     /tmp/cctuymYX.s:212    .text:0000000000000140 evt1_setup
     /tmp/cctuymYX.s:231    .text:0000000000000160 evt2_setup
     /tmp/cctuymYX.s:250    .text:0000000000000180 evt3_setup
     /tmp/cctuymYX.s:273    .text:00000000000001a0 evt2_execute
     /tmp/cctuymYX.s:683    .text:00000000000005c0 thread1
     /tmp/cctuymYX.s:901    .data:0000000000000000 es2
     /tmp/cctuymYX.s:652    .text:0000000000000580 thread2
     /tmp/cctuymYX.s:710    .text:00000000000005f0 evt3_execute
     /tmp/cctuymYX.s:833    .rodata:0000000000000000 patternevt
     /tmp/cctuymYX.s:881    .rodata:0000000000000030 testevt1
     /tmp/cctuymYX.s:863    .rodata:0000000000000020 testevt2
     /tmp/cctuymYX.s:846    .rodata:0000000000000010 testevt3

UNDEFINED SYMBOLS
chEvtRegisterMask
_test_assert
chEvtUnregister
chEvtDispatch
_test_assert_sequence
test_emit_token
chEvtGetAndClearEvents
chEvtAddEvents
chEvtWaitOne
test_wait_tick
rlist
wa
vtlist
chThdCreateStatic
threads
_test_assert_time_window
test_wait_threads
chEvtWaitAny
chEvtWaitAll
chEvtBroadcastFlags
chThdSleep
chEvtSignal
chEvtWaitOneTimeout
chEvtWaitAnyTimeout
chEvtWaitAllTimeout
