GAS LISTING /tmp/ccnl8CWE.s 			page 1


   1              		.file	"testmtx.c"
   2              	# GNU C (Ubuntu 4.8.2-19ubuntu1) version 4.8.2 (x86_64-linux-gnu)
   3              	#	compiled by GNU C version 4.8.2, GMP version 5.1.3, MPFR version 3.1.2-p3, MPC version 1.0.1
   4              	# GGC heuristics: --param ggc-min-expand=97 --param ggc-min-heapsize=126309
   5              	# options passed:  -I . -I ../../../os/ports/GCC/SIMIA32
   6              	# -I ../../../os/kernel/include -I ../../../test -I ../../../os/hal/include
   7              	# -I ../../../os/hal/platforms/Posix -I ../../../boards/simulator
   8              	# -I ../../../os/various -imultilib 32 -imultiarch i386-linux-gnu
   9              	# -MD ../../../test/testmtx.d -MF .dep/testmtx.o.d -MP
  10              	# -MQ ../../../test/testmtx.o -D SIMULATOR -D SHELL_USE_IPRINTF=FALSE
  11              	# ../../../test/testmtx.c -m32 -mtune=generic -march=i686
  12              	# -auxbase-strip ../../../test/testmtx.o -ggdb -O2 -Wall -Wextra
  13              	# -Wstrict-prototypes -fomit-frame-pointer -fverbose-asm -fstack-protector
  14              	# -Wformat -Wformat-security
  15              	# options enabled:  -faggressive-loop-optimizations
  16              	# -fasynchronous-unwind-tables -fauto-inc-dec -fbranch-count-reg
  17              	# -fcaller-saves -fcombine-stack-adjustments -fcommon -fcompare-elim
  18              	# -fcprop-registers -fcrossjumping -fcse-follow-jumps -fdefer-pop
  19              	# -fdelete-null-pointer-checks -fdevirtualize -fdwarf2-cfi-asm
  20              	# -fearly-inlining -feliminate-unused-debug-types -fexpensive-optimizations
  21              	# -fforward-propagate -ffunction-cse -fgcse -fgcse-lm -fgnu-runtime
  22              	# -fguess-branch-probability -fhoist-adjacent-loads -fident -fif-conversion
  23              	# -fif-conversion2 -findirect-inlining -finline -finline-atomics
  24              	# -finline-functions-called-once -finline-small-functions -fipa-cp
  25              	# -fipa-profile -fipa-pure-const -fipa-reference -fipa-sra
  26              	# -fira-hoist-pressure -fira-share-save-slots -fira-share-spill-slots
  27              	# -fivopts -fkeep-static-consts -fleading-underscore -fmath-errno
  28              	# -fmerge-constants -fmerge-debug-strings -fmove-loop-invariants
  29              	# -fomit-frame-pointer -foptimize-register-move -foptimize-sibling-calls
  30              	# -foptimize-strlen -fpartial-inlining -fpcc-struct-return -fpeephole
  31              	# -fpeephole2 -fprefetch-loop-arrays -free -fregmove -freorder-blocks
  32              	# -freorder-functions -frerun-cse-after-loop
  33              	# -fsched-critical-path-heuristic -fsched-dep-count-heuristic
  34              	# -fsched-group-heuristic -fsched-interblock -fsched-last-insn-heuristic
  35              	# -fsched-rank-heuristic -fsched-spec -fsched-spec-insn-heuristic
  36              	# -fsched-stalled-insns-dep -fschedule-insns2 -fshow-column -fshrink-wrap
  37              	# -fsigned-zeros -fsplit-ivs-in-unroller -fsplit-wide-types
  38              	# -fstack-protector -fstrict-aliasing -fstrict-overflow
  39              	# -fstrict-volatile-bitfields -fsync-libcalls -fthread-jumps
  40              	# -ftoplevel-reorder -ftrapping-math -ftree-bit-ccp -ftree-builtin-call-dce
  41              	# -ftree-ccp -ftree-ch -ftree-coalesce-vars -ftree-copy-prop
  42              	# -ftree-copyrename -ftree-cselim -ftree-dce -ftree-dominator-opts
  43              	# -ftree-dse -ftree-forwprop -ftree-fre -ftree-loop-if-convert
  44              	# -ftree-loop-im -ftree-loop-ivcanon -ftree-loop-optimize
  45              	# -ftree-parallelize-loops= -ftree-phiprop -ftree-pre -ftree-pta
  46              	# -ftree-reassoc -ftree-scev-cprop -ftree-sink -ftree-slp-vectorize
  47              	# -ftree-slsr -ftree-sra -ftree-switch-conversion -ftree-tail-merge
  48              	# -ftree-ter -ftree-vect-loop-version -ftree-vrp -funit-at-a-time
  49              	# -funwind-tables -fvar-tracking -fvar-tracking-assignments -fverbose-asm
  50              	# -fzero-initialized-in-bss -m32 -m80387 -m96bit-long-double
  51              	# -maccumulate-outgoing-args -malign-stringops -mfancy-math-387
  52              	# -mfp-ret-in-387 -mglibc -mieee-fp -mlong-double-80 -mno-red-zone
  53              	# -mno-sse4 -mpush-args -msahf -mtls-direct-seg-refs
  54              	
  55              		.text
  56              	.Ltext0:
  57              		.section	.rodata.str1.1,"aMS",@progbits,1
GAS LISTING /tmp/ccnl8CWE.s 			page 2


  58              	.LC0:
  59 0000 4500     		.string	"E"
  60              	.LC1:
  61 0002 4400     		.string	"D"
  62              	.LC2:
  63 0004 4300     		.string	"C"
  64              	.LC3:
  65 0006 4200     		.string	"B"
  66              	.LC4:
  67 0008 4100     		.string	"A"
  68              	.LC5:
  69 000a 41424344 		.string	"ABCDE"
  69      4500
  70              		.text
  71              		.p2align 4,,15
  72              		.type	mtx1_execute, @function
  73              	mtx1_execute:
  74              	.LFB9:
  75              		.file 1 "../../../test/testmtx.c"
  76              		.loc 1 97 0
  77              		.cfi_startproc
  78 0000 53       		pushl	%ebx	#
  79              		.cfi_def_cfa_offset 8
  80              		.cfi_offset 3, -8
  81 0001 83EC28   		subl	$40, %esp	#,
  82              		.cfi_def_cfa_offset 48
  83              		.loc 1 99 0
  84 0004 A1180000 		movl	rlist+24, %eax	# rlist.r_current, rlist.r_current
  84      00
  85 0009 8B5808   		movl	8(%eax), %ebx	# _3->p_prio, prio
  86              	.LVL0:
  87              		.loc 1 100 0
  88 000c C7042418 		movl	$m1, (%esp)	#,
  88      000000
  89 0013 E8FCFFFF 		call	chMtxLock	#
  89      FF
  90              	.LVL1:
  91              		.loc 1 101 0
  92 0018 C7442410 		movl	$.LC0, 16(%esp)	#,
  92      00000000 
  93 0020 8D4301   		leal	1(%ebx), %eax	#, D.2476
  94 0023 89442408 		movl	%eax, 8(%esp)	# D.2476,
  95 0027 A1000000 		movl	wa, %eax	# wa, wa
  95      00
  96 002c C744240C 		movl	$thread1, 12(%esp)	#,
  96      60010000 
  97 0034 C7442404 		movl	$17008, 4(%esp)	#,
  97      70420000 
  98 003c 890424   		movl	%eax, (%esp)	# wa,
  99 003f E8FCFFFF 		call	chThdCreateStatic	#
  99      FF
 100              	.LVL2:
 101              		.loc 1 102 0
 102 0044 C7442410 		movl	$.LC1, 16(%esp)	#,
 102      02000000 
 103 004c C744240C 		movl	$thread1, 12(%esp)	#,
 103      60010000 
GAS LISTING /tmp/ccnl8CWE.s 			page 3


 104 0054 C7442404 		movl	$17008, 4(%esp)	#,
 104      70420000 
 105              		.loc 1 101 0
 106 005c A3000000 		movl	%eax, threads	# D.2475, threads
 106      00
 107              		.loc 1 102 0
 108 0061 8D4302   		leal	2(%ebx), %eax	#, D.2476
 109 0064 89442408 		movl	%eax, 8(%esp)	# D.2476,
 110 0068 A1040000 		movl	wa+4, %eax	# wa, wa
 110      00
 111 006d 890424   		movl	%eax, (%esp)	# wa,
 112 0070 E8FCFFFF 		call	chThdCreateStatic	#
 112      FF
 113              	.LVL3:
 114              		.loc 1 103 0
 115 0075 C7442410 		movl	$.LC2, 16(%esp)	#,
 115      04000000 
 116 007d C744240C 		movl	$thread1, 12(%esp)	#,
 116      60010000 
 117 0085 C7442404 		movl	$17008, 4(%esp)	#,
 117      70420000 
 118              		.loc 1 102 0
 119 008d A3040000 		movl	%eax, threads+4	# D.2475, threads
 119      00
 120              		.loc 1 103 0
 121 0092 8D4303   		leal	3(%ebx), %eax	#, D.2476
 122 0095 89442408 		movl	%eax, 8(%esp)	# D.2476,
 123 0099 A1080000 		movl	wa+8, %eax	# wa, wa
 123      00
 124 009e 890424   		movl	%eax, (%esp)	# wa,
 125 00a1 E8FCFFFF 		call	chThdCreateStatic	#
 125      FF
 126              	.LVL4:
 127              		.loc 1 104 0
 128 00a6 C7442410 		movl	$.LC3, 16(%esp)	#,
 128      06000000 
 129 00ae C744240C 		movl	$thread1, 12(%esp)	#,
 129      60010000 
 130 00b6 C7442404 		movl	$17008, 4(%esp)	#,
 130      70420000 
 131              		.loc 1 103 0
 132 00be A3080000 		movl	%eax, threads+8	# D.2475, threads
 132      00
 133              		.loc 1 104 0
 134 00c3 8D4304   		leal	4(%ebx), %eax	#, D.2476
 135 00c6 89442408 		movl	%eax, 8(%esp)	# D.2476,
 136 00ca A10C0000 		movl	wa+12, %eax	# wa, wa
 136      00
 137 00cf 890424   		movl	%eax, (%esp)	# wa,
 138 00d2 E8FCFFFF 		call	chThdCreateStatic	#
 138      FF
 139              	.LVL5:
 140              		.loc 1 105 0
 141 00d7 C7442410 		movl	$.LC4, 16(%esp)	#,
 141      08000000 
 142 00df C744240C 		movl	$thread1, 12(%esp)	#,
 142      60010000 
GAS LISTING /tmp/ccnl8CWE.s 			page 4


 143 00e7 C7442404 		movl	$17008, 4(%esp)	#,
 143      70420000 
 144              		.loc 1 104 0
 145 00ef A30C0000 		movl	%eax, threads+12	# D.2475, threads
 145      00
 146              		.loc 1 105 0
 147 00f4 8D4305   		leal	5(%ebx), %eax	#, D.2476
 148 00f7 89442408 		movl	%eax, 8(%esp)	# D.2476,
 149 00fb A1100000 		movl	wa+16, %eax	# wa, wa
 149      00
 150 0100 890424   		movl	%eax, (%esp)	# wa,
 151 0103 E8FCFFFF 		call	chThdCreateStatic	#
 151      FF
 152              	.LVL6:
 153 0108 A3100000 		movl	%eax, threads+16	# D.2475, threads
 153      00
 154              		.loc 1 106 0
 155 010d E8FCFFFF 		call	chMtxUnlock	#
 155      FF
 156              	.LVL7:
 157              		.loc 1 107 0
 158 0112 E8FCFFFF 		call	test_wait_threads	#
 158      FF
 159              	.LVL8:
 160              		.loc 1 108 0
 161 0117 A1180000 		movl	rlist+24, %eax	# rlist.r_current, rlist.r_current
 161      00
 162 011c 395808   		cmpl	%ebx, 8(%eax)	# prio, _33->p_prio
 163 011f C7042401 		movl	$1, (%esp)	#,
 163      000000
 164 0126 0F94C0   		sete	%al	#, D.2478
 165 0129 0FB6C0   		movzbl	%al, %eax	# D.2478, D.2478
 166 012c 89442404 		movl	%eax, 4(%esp)	# D.2478,
 167 0130 E8FCFFFF 		call	_test_assert	#
 167      FF
 168              	.LVL9:
 169 0135 84C0     		testb	%al, %al	# D.2478
 170 0137 7514     		jne	.L1	#,
 171              		.loc 1 109 0
 172 0139 C7442404 		movl	$.LC5, 4(%esp)	#,
 172      0A000000 
 173 0141 C7042402 		movl	$2, (%esp)	#,
 173      000000
 174 0148 E8FCFFFF 		call	_test_assert_sequence	#
 174      FF
 175              	.LVL10:
 176              	.L1:
 177              		.loc 1 110 0
 178 014d 83C428   		addl	$40, %esp	#,
 179              		.cfi_def_cfa_offset 8
 180 0150 5B       		popl	%ebx	#
 181              		.cfi_restore 3
 182              		.cfi_def_cfa_offset 4
 183              	.LVL11:
 184 0151 C3       		ret
 185              		.cfi_endproc
 186              	.LFE9:
GAS LISTING /tmp/ccnl8CWE.s 			page 5


 187              		.size	mtx1_execute, .-mtx1_execute
 188 0152 8DB42600 		.p2align 4,,15
 188      0000008D 
 188      BC270000 
 188      0000
 189              		.type	thread1, @function
 190              	thread1:
 191              	.LFB8:
 192              		.loc 1 89 0
 193              		.cfi_startproc
 194              	.LVL12:
 195 0160 83EC1C   		subl	$28, %esp	#,
 196              		.cfi_def_cfa_offset 32
 197              		.loc 1 91 0
 198 0163 C7042418 		movl	$m1, (%esp)	#,
 198      000000
 199 016a E8FCFFFF 		call	chMtxLock	#
 199      FF
 200              	.LVL13:
 201              		.loc 1 92 0
 202 016f 8B442420 		movl	32(%esp), %eax	# p, p
 203 0173 0FBE00   		movsbl	(%eax), %eax	# MEM[(char *)p_3(D)], MEM[(char *)p_3(D)]
 204 0176 890424   		movl	%eax, (%esp)	# MEM[(char *)p_3(D)],
 205 0179 E8FCFFFF 		call	test_emit_token	#
 205      FF
 206              	.LVL14:
 207              		.loc 1 93 0
 208 017e E8FCFFFF 		call	chMtxUnlock	#
 208      FF
 209              	.LVL15:
 210              		.loc 1 95 0
 211 0183 31C0     		xorl	%eax, %eax	#
 212 0185 83C41C   		addl	$28, %esp	#,
 213              		.cfi_def_cfa_offset 4
 214 0188 C3       		ret
 215              		.cfi_endproc
 216              	.LFE8:
 217              		.size	thread1, .-thread1
 218 0189 8DB42600 		.p2align 4,,15
 218      000000
 219              		.type	thread12, @function
 220              	thread12:
 221              	.LFB35:
 222              		.loc 1 588 0
 223              		.cfi_startproc
 224              	.LVL16:
 225 0190 83EC1C   		subl	$28, %esp	#,
 226              		.cfi_def_cfa_offset 32
 227              		.loc 1 590 0
 228 0193 C7042408 		movl	$m2, (%esp)	#,
 228      000000
 229 019a E8FCFFFF 		call	chMtxLock	#
 229      FF
 230              	.LVL17:
 231              		.loc 1 591 0
 232 019f 8B442420 		movl	32(%esp), %eax	# p, p
 233 01a3 0FBE00   		movsbl	(%eax), %eax	# MEM[(char *)p_3(D)], MEM[(char *)p_3(D)]
GAS LISTING /tmp/ccnl8CWE.s 			page 6


 234 01a6 890424   		movl	%eax, (%esp)	# MEM[(char *)p_3(D)],
 235 01a9 E8FCFFFF 		call	test_emit_token	#
 235      FF
 236              	.LVL18:
 237              		.loc 1 592 0
 238 01ae E8FCFFFF 		call	chMtxUnlock	#
 238      FF
 239              	.LVL19:
 240              		.loc 1 594 0
 241 01b3 31C0     		xorl	%eax, %eax	#
 242 01b5 83C41C   		addl	$28, %esp	#,
 243              		.cfi_def_cfa_offset 4
 244 01b8 C3       		ret
 245              		.cfi_endproc
 246              	.LFE35:
 247              		.size	thread12, .-thread12
 248 01b9 8DB42600 		.p2align 4,,15
 248      000000
 249              		.type	mtx1_setup, @function
 250              	mtx1_setup:
 251              	.LFB7:
 252              		.loc 1 84 0
 253              		.cfi_startproc
 254 01c0 83EC1C   		subl	$28, %esp	#,
 255              		.cfi_def_cfa_offset 32
 256              		.loc 1 86 0
 257 01c3 C7042418 		movl	$m1, (%esp)	#,
 257      000000
 258 01ca E8FCFFFF 		call	chMtxInit	#
 258      FF
 259              	.LVL20:
 260              		.loc 1 87 0
 261 01cf 83C41C   		addl	$28, %esp	#,
 262              		.cfi_def_cfa_offset 4
 263 01d2 C3       		ret
 264              		.cfi_endproc
 265              	.LFE7:
 266              		.size	mtx1_setup, .-mtx1_setup
 267 01d3 8DB60000 		.p2align 4,,15
 267      00008DBC 
 267      27000000 
 267      00
 268              		.type	mtx2_setup, @function
 269              	mtx2_setup:
 270              	.LFB10:
 271              		.loc 1 151 0
 272              		.cfi_startproc
 273 01e0 83EC1C   		subl	$28, %esp	#,
 274              		.cfi_def_cfa_offset 32
 275              		.loc 1 153 0
 276 01e3 C7042418 		movl	$m1, (%esp)	#,
 276      000000
 277 01ea E8FCFFFF 		call	chMtxInit	#
 277      FF
 278              	.LVL21:
 279              		.loc 1 154 0
 280 01ef 83C41C   		addl	$28, %esp	#,
GAS LISTING /tmp/ccnl8CWE.s 			page 7


 281              		.cfi_def_cfa_offset 4
 282 01f2 C3       		ret
 283              		.cfi_endproc
 284              	.LFE10:
 285              		.size	mtx2_setup, .-mtx2_setup
 286 01f3 8DB60000 		.p2align 4,,15
 286      00008DBC 
 286      27000000 
 286      00
 287              		.type	mtx3_setup, @function
 288              	mtx3_setup:
 289              	.LFB15:
 290              		.loc 1 241 0
 291              		.cfi_startproc
 292 0200 83EC1C   		subl	$28, %esp	#,
 293              		.cfi_def_cfa_offset 32
 294              		.loc 1 243 0
 295 0203 C7042418 		movl	$m1, (%esp)	#,
 295      000000
 296 020a E8FCFFFF 		call	chMtxInit	#
 296      FF
 297              	.LVL22:
 298              		.loc 1 244 0
 299 020f C7042408 		movl	$m2, (%esp)	#,
 299      000000
 300 0216 E8FCFFFF 		call	chMtxInit	#
 300      FF
 301              	.LVL23:
 302              		.loc 1 245 0
 303 021b 83C41C   		addl	$28, %esp	#,
 304              		.cfi_def_cfa_offset 4
 305 021e C3       		ret
 306              		.cfi_endproc
 307              	.LFE15:
 308              		.size	mtx3_setup, .-mtx3_setup
 309 021f 90       		.p2align 4,,15
 310              		.type	mtx4_setup, @function
 311              	mtx4_setup:
 312              	.LFB22:
 313              		.loc 1 341 0
 314              		.cfi_startproc
 315 0220 83EC1C   		subl	$28, %esp	#,
 316              		.cfi_def_cfa_offset 32
 317              		.loc 1 343 0
 318 0223 C7042418 		movl	$m1, (%esp)	#,
 318      000000
 319 022a E8FCFFFF 		call	chMtxInit	#
 319      FF
 320              	.LVL24:
 321              		.loc 1 344 0
 322 022f C7042408 		movl	$m2, (%esp)	#,
 322      000000
 323 0236 E8FCFFFF 		call	chMtxInit	#
 323      FF
 324              	.LVL25:
 325              		.loc 1 345 0
 326 023b 83C41C   		addl	$28, %esp	#,
GAS LISTING /tmp/ccnl8CWE.s 			page 8


 327              		.cfi_def_cfa_offset 4
 328 023e C3       		ret
 329              		.cfi_endproc
 330              	.LFE22:
 331              		.size	mtx4_setup, .-mtx4_setup
 332 023f 90       		.p2align 4,,15
 333              		.type	mtx5_setup, @function
 334              	mtx5_setup:
 335              	.LFB26:
 336              		.loc 1 429 0
 337              		.cfi_startproc
 338 0240 83EC1C   		subl	$28, %esp	#,
 339              		.cfi_def_cfa_offset 32
 340              		.loc 1 431 0
 341 0243 C7042418 		movl	$m1, (%esp)	#,
 341      000000
 342 024a E8FCFFFF 		call	chMtxInit	#
 342      FF
 343              	.LVL26:
 344              		.loc 1 432 0
 345 024f 83C41C   		addl	$28, %esp	#,
 346              		.cfi_def_cfa_offset 4
 347 0252 C3       		ret
 348              		.cfi_endproc
 349              	.LFE26:
 350              		.size	mtx5_setup, .-mtx5_setup
 351              		.section	.rodata.str1.1
 352              	.LC6:
 353 0010 41424300 		.string	"ABC"
 354              		.text
 355 0253 8DB60000 		.p2align 4,,15
 355      00008DBC 
 355      27000000 
 355      00
 356              		.type	mtx2_execute, @function
 357              	mtx2_execute:
 358              	.LFB14:
 359              		.loc 1 190 0
 360              		.cfi_startproc
 361 0260 53       		pushl	%ebx	#
 362              		.cfi_def_cfa_offset 8
 363              		.cfi_offset 3, -8
 364 0261 83EC28   		subl	$40, %esp	#,
 365              		.cfi_def_cfa_offset 48
 366              		.loc 1 193 0
 367 0264 E8FCFFFF 		call	test_wait_tick	#
 367      FF
 368              	.LVL27:
 369              		.loc 1 195 0
 370 0269 A1180000 		movl	rlist+24, %eax	# rlist.r_current, rlist.r_current
 370      00
 371 026e C7442410 		movl	$0, 16(%esp)	#,
 371      00000000 
 372              		.loc 1 194 0
 373 0276 8B1D0C00 		movl	vtlist+12, %ebx	# vtlist.vt_systime, time
 373      0000
 374              	.LVL28:
GAS LISTING /tmp/ccnl8CWE.s 			page 9


 375              		.loc 1 195 0
 376 027c C744240C 		movl	$thread2H, 12(%esp)	#,
 376      80050000 
 377 0284 8B4008   		movl	8(%eax), %eax	# _5->p_prio, _5->p_prio
 378 0287 C7442404 		movl	$17008, 4(%esp)	#,
 378      70420000 
 379 028f 83E801   		subl	$1, %eax	#, D.2507
 380 0292 89442408 		movl	%eax, 8(%esp)	# D.2507,
 381 0296 A1000000 		movl	wa, %eax	# wa, wa
 381      00
 382 029b 890424   		movl	%eax, (%esp)	# wa,
 383 029e E8FCFFFF 		call	chThdCreateStatic	#
 383      FF
 384              	.LVL29:
 385              		.loc 1 196 0
 386 02a3 C7442410 		movl	$0, 16(%esp)	#,
 386      00000000 
 387 02ab C744240C 		movl	$thread2M, 12(%esp)	#,
 387      50050000 
 388              		.loc 1 195 0
 389 02b3 A3000000 		movl	%eax, threads	# D.2506, threads
 389      00
 390              		.loc 1 196 0
 391 02b8 A1180000 		movl	rlist+24, %eax	# rlist.r_current, rlist.r_current
 391      00
 392 02bd 8B4008   		movl	8(%eax), %eax	# _12->p_prio, _12->p_prio
 393 02c0 C7442404 		movl	$17008, 4(%esp)	#,
 393      70420000 
 394 02c8 83E802   		subl	$2, %eax	#, D.2507
 395 02cb 89442408 		movl	%eax, 8(%esp)	# D.2507,
 396 02cf A1040000 		movl	wa+4, %eax	# wa, wa
 396      00
 397 02d4 890424   		movl	%eax, (%esp)	# wa,
 398 02d7 E8FCFFFF 		call	chThdCreateStatic	#
 398      FF
 399              	.LVL30:
 400              		.loc 1 197 0
 401 02dc C7442410 		movl	$0, 16(%esp)	#,
 401      00000000 
 402 02e4 C744240C 		movl	$thread2L, 12(%esp)	#,
 402      D0040000 
 403              		.loc 1 196 0
 404 02ec A3040000 		movl	%eax, threads+4	# D.2506, threads
 404      00
 405              		.loc 1 197 0
 406 02f1 A1180000 		movl	rlist+24, %eax	# rlist.r_current, rlist.r_current
 406      00
 407 02f6 8B4008   		movl	8(%eax), %eax	# _19->p_prio, _19->p_prio
 408 02f9 C7442404 		movl	$17008, 4(%esp)	#,
 408      70420000 
 409 0301 83E803   		subl	$3, %eax	#, D.2507
 410 0304 89442408 		movl	%eax, 8(%esp)	# D.2507,
 411 0308 A1080000 		movl	wa+8, %eax	# wa, wa
 411      00
 412 030d 890424   		movl	%eax, (%esp)	# wa,
 413 0310 E8FCFFFF 		call	chThdCreateStatic	#
 413      FF
GAS LISTING /tmp/ccnl8CWE.s 			page 10


 414              	.LVL31:
 415 0315 A3080000 		movl	%eax, threads+8	# D.2506, threads
 415      00
 416              		.loc 1 198 0
 417 031a E8FCFFFF 		call	test_wait_threads	#
 417      FF
 418              	.LVL32:
 419              		.loc 1 199 0
 420 031f C7442404 		movl	$.LC6, 4(%esp)	#,
 420      10000000 
 421 0327 C7042401 		movl	$1, (%esp)	#,
 421      000000
 422 032e E8FCFFFF 		call	_test_assert_sequence	#
 422      FF
 423              	.LVL33:
 424 0333 84C0     		testb	%al, %al	# D.2509
 425 0335 751A     		jne	.L19	#,
 426              		.loc 1 200 0
 427 0337 8D4369   		leal	105(%ebx), %eax	#, D.2507
 428 033a 83C364   		addl	$100, %ebx	#, D.2507
 429              	.LVL34:
 430 033d 89442408 		movl	%eax, 8(%esp)	# D.2507,
 431 0341 895C2404 		movl	%ebx, 4(%esp)	# D.2507,
 432 0345 C7042402 		movl	$2, (%esp)	#,
 432      000000
 433 034c E8FCFFFF 		call	_test_assert_time_window	#
 433      FF
 434              	.LVL35:
 435              	.L19:
 436              		.loc 1 201 0
 437 0351 83C428   		addl	$40, %esp	#,
 438              		.cfi_def_cfa_offset 8
 439 0354 5B       		popl	%ebx	#
 440              		.cfi_restore 3
 441              		.cfi_def_cfa_offset 4
 442 0355 C3       		ret
 443              		.cfi_endproc
 444              	.LFE14:
 445              		.size	mtx2_execute, .-mtx2_execute
 446 0356 8D76008D 		.p2align 4,,15
 446      BC270000 
 446      0000
 447              		.type	mtx3_execute, @function
 448              	mtx3_execute:
 449              	.LFB21:
 450              		.loc 1 308 0
 451              		.cfi_startproc
 452 0360 53       		pushl	%ebx	#
 453              		.cfi_def_cfa_offset 8
 454              		.cfi_offset 3, -8
 455 0361 83EC28   		subl	$40, %esp	#,
 456              		.cfi_def_cfa_offset 48
 457              		.loc 1 311 0
 458 0364 E8FCFFFF 		call	test_wait_tick	#
 458      FF
 459              	.LVL36:
 460              		.loc 1 313 0
GAS LISTING /tmp/ccnl8CWE.s 			page 11


 461 0369 A1180000 		movl	rlist+24, %eax	# rlist.r_current, rlist.r_current
 461      00
 462 036e C7442410 		movl	$0, 16(%esp)	#,
 462      00000000 
 463              		.loc 1 312 0
 464 0376 8B1D0C00 		movl	vtlist+12, %ebx	# vtlist.vt_systime, time
 464      0000
 465              	.LVL37:
 466              		.loc 1 313 0
 467 037c C744240C 		movl	$thread3LL, 12(%esp)	#,
 467      10050000 
 468 0384 8B4008   		movl	8(%eax), %eax	# _5->p_prio, _5->p_prio
 469 0387 C7442404 		movl	$17008, 4(%esp)	#,
 469      70420000 
 470 038f 83E805   		subl	$5, %eax	#, D.2514
 471 0392 89442408 		movl	%eax, 8(%esp)	# D.2514,
 472 0396 A1000000 		movl	wa, %eax	# wa, wa
 472      00
 473 039b 890424   		movl	%eax, (%esp)	# wa,
 474 039e E8FCFFFF 		call	chThdCreateStatic	#
 474      FF
 475              	.LVL38:
 476              		.loc 1 314 0
 477 03a3 C7442410 		movl	$0, 16(%esp)	#,
 477      00000000 
 478 03ab C744240C 		movl	$thread3L, 12(%esp)	#,
 478      70060000 
 479              		.loc 1 313 0
 480 03b3 A3000000 		movl	%eax, threads	# D.2513, threads
 480      00
 481              		.loc 1 314 0
 482 03b8 A1180000 		movl	rlist+24, %eax	# rlist.r_current, rlist.r_current
 482      00
 483 03bd 8B4008   		movl	8(%eax), %eax	# _12->p_prio, _12->p_prio
 484 03c0 C7442404 		movl	$17008, 4(%esp)	#,
 484      70420000 
 485 03c8 83E804   		subl	$4, %eax	#, D.2514
 486 03cb 89442408 		movl	%eax, 8(%esp)	# D.2514,
 487 03cf A1040000 		movl	wa+4, %eax	# wa, wa
 487      00
 488 03d4 890424   		movl	%eax, (%esp)	# wa,
 489 03d7 E8FCFFFF 		call	chThdCreateStatic	#
 489      FF
 490              	.LVL39:
 491              		.loc 1 315 0
 492 03dc C7442410 		movl	$0, 16(%esp)	#,
 492      00000000 
 493 03e4 C744240C 		movl	$thread3M, 12(%esp)	#,
 493      30060000 
 494              		.loc 1 314 0
 495 03ec A3040000 		movl	%eax, threads+4	# D.2513, threads
 495      00
 496              		.loc 1 315 0
 497 03f1 A1180000 		movl	rlist+24, %eax	# rlist.r_current, rlist.r_current
 497      00
 498 03f6 8B4008   		movl	8(%eax), %eax	# _19->p_prio, _19->p_prio
 499 03f9 C7442404 		movl	$17008, 4(%esp)	#,
GAS LISTING /tmp/ccnl8CWE.s 			page 12


 499      70420000 
 500 0401 83E803   		subl	$3, %eax	#, D.2514
 501 0404 89442408 		movl	%eax, 8(%esp)	# D.2514,
 502 0408 A1080000 		movl	wa+8, %eax	# wa, wa
 502      00
 503 040d 890424   		movl	%eax, (%esp)	# wa,
 504 0410 E8FCFFFF 		call	chThdCreateStatic	#
 504      FF
 505              	.LVL40:
 506              		.loc 1 316 0
 507 0415 C7442410 		movl	$0, 16(%esp)	#,
 507      00000000 
 508 041d C744240C 		movl	$thread3H, 12(%esp)	#,
 508      00060000 
 509              		.loc 1 315 0
 510 0425 A3080000 		movl	%eax, threads+8	# D.2513, threads
 510      00
 511              		.loc 1 316 0
 512 042a A1180000 		movl	rlist+24, %eax	# rlist.r_current, rlist.r_current
 512      00
 513 042f 8B4008   		movl	8(%eax), %eax	# _26->p_prio, _26->p_prio
 514 0432 C7442404 		movl	$17008, 4(%esp)	#,
 514      70420000 
 515 043a 83E802   		subl	$2, %eax	#, D.2514
 516 043d 89442408 		movl	%eax, 8(%esp)	# D.2514,
 517 0441 A10C0000 		movl	wa+12, %eax	# wa, wa
 517      00
 518 0446 890424   		movl	%eax, (%esp)	# wa,
 519 0449 E8FCFFFF 		call	chThdCreateStatic	#
 519      FF
 520              	.LVL41:
 521              		.loc 1 317 0
 522 044e C7442410 		movl	$0, 16(%esp)	#,
 522      00000000 
 523 0456 C744240C 		movl	$thread3HH, 12(%esp)	#,
 523      C0050000 
 524              		.loc 1 316 0
 525 045e A30C0000 		movl	%eax, threads+12	# D.2513, threads
 525      00
 526              		.loc 1 317 0
 527 0463 A1180000 		movl	rlist+24, %eax	# rlist.r_current, rlist.r_current
 527      00
 528 0468 8B4008   		movl	8(%eax), %eax	# _33->p_prio, _33->p_prio
 529 046b C7442404 		movl	$17008, 4(%esp)	#,
 529      70420000 
 530 0473 83E801   		subl	$1, %eax	#, D.2514
 531 0476 89442408 		movl	%eax, 8(%esp)	# D.2514,
 532 047a A1100000 		movl	wa+16, %eax	# wa, wa
 532      00
 533 047f 890424   		movl	%eax, (%esp)	# wa,
 534 0482 E8FCFFFF 		call	chThdCreateStatic	#
 534      FF
 535              	.LVL42:
 536 0487 A3100000 		movl	%eax, threads+16	# D.2513, threads
 536      00
 537              		.loc 1 318 0
 538 048c E8FCFFFF 		call	test_wait_threads	#
GAS LISTING /tmp/ccnl8CWE.s 			page 13


 538      FF
 539              	.LVL43:
 540              		.loc 1 319 0
 541 0491 C7442404 		movl	$.LC5, 4(%esp)	#,
 541      0A000000 
 542 0499 C7042401 		movl	$1, (%esp)	#,
 542      000000
 543 04a0 E8FCFFFF 		call	_test_assert_sequence	#
 543      FF
 544              	.LVL44:
 545 04a5 84C0     		testb	%al, %al	# D.2516
 546 04a7 751A     		jne	.L22	#,
 547              		.loc 1 320 0
 548 04a9 8D4373   		leal	115(%ebx), %eax	#, D.2514
 549 04ac 83C36E   		addl	$110, %ebx	#, D.2514
 550              	.LVL45:
 551 04af 89442408 		movl	%eax, 8(%esp)	# D.2514,
 552 04b3 895C2404 		movl	%ebx, 4(%esp)	# D.2514,
 553 04b7 C7042402 		movl	$2, (%esp)	#,
 553      000000
 554 04be E8FCFFFF 		call	_test_assert_time_window	#
 554      FF
 555              	.LVL46:
 556              	.L22:
 557              		.loc 1 321 0
 558 04c3 83C428   		addl	$40, %esp	#,
 559              		.cfi_def_cfa_offset 8
 560 04c6 5B       		popl	%ebx	#
 561              		.cfi_restore 3
 562              		.cfi_def_cfa_offset 4
 563 04c7 C3       		ret
 564              		.cfi_endproc
 565              	.LFE21:
 566              		.size	mtx3_execute, .-mtx3_execute
 567 04c8 908DB426 		.p2align 4,,15
 567      00000000 
 568              		.type	thread2L, @function
 569              	thread2L:
 570              	.LFB11:
 571              		.loc 1 157 0
 572              		.cfi_startproc
 573              	.LVL47:
 574 04d0 83EC1C   		subl	$28, %esp	#,
 575              		.cfi_def_cfa_offset 32
 576              		.loc 1 160 0
 577 04d3 C7042418 		movl	$m1, (%esp)	#,
 577      000000
 578 04da E8FCFFFF 		call	chMtxLock	#
 578      FF
 579              	.LVL48:
 580              		.loc 1 161 0
 581 04df C7042428 		movl	$40, (%esp)	#,
 581      000000
 582 04e6 E8FCFFFF 		call	test_cpu_pulse	#
 582      FF
 583              	.LVL49:
 584              		.loc 1 162 0
GAS LISTING /tmp/ccnl8CWE.s 			page 14


 585 04eb E8FCFFFF 		call	chMtxUnlock	#
 585      FF
 586              	.LVL50:
 587              		.loc 1 163 0
 588 04f0 C704240A 		movl	$10, (%esp)	#,
 588      000000
 589 04f7 E8FCFFFF 		call	test_cpu_pulse	#
 589      FF
 590              	.LVL51:
 591              		.loc 1 164 0
 592 04fc C7042443 		movl	$67, (%esp)	#,
 592      000000
 593 0503 E8FCFFFF 		call	test_emit_token	#
 593      FF
 594              	.LVL52:
 595              		.loc 1 166 0
 596 0508 31C0     		xorl	%eax, %eax	#
 597 050a 83C41C   		addl	$28, %esp	#,
 598              		.cfi_def_cfa_offset 4
 599 050d C3       		ret
 600              		.cfi_endproc
 601              	.LFE11:
 602              		.size	thread2L, .-thread2L
 603 050e 6690     		.p2align 4,,15
 604              		.type	thread3LL, @function
 605              	thread3LL:
 606              	.LFB16:
 607              		.loc 1 248 0
 608              		.cfi_startproc
 609              	.LVL53:
 610 0510 83EC1C   		subl	$28, %esp	#,
 611              		.cfi_def_cfa_offset 32
 612              		.loc 1 251 0
 613 0513 C7042418 		movl	$m1, (%esp)	#,
 613      000000
 614 051a E8FCFFFF 		call	chMtxLock	#
 614      FF
 615              	.LVL54:
 616              		.loc 1 252 0
 617 051f C704241E 		movl	$30, (%esp)	#,
 617      000000
 618 0526 E8FCFFFF 		call	test_cpu_pulse	#
 618      FF
 619              	.LVL55:
 620              		.loc 1 253 0
 621 052b E8FCFFFF 		call	chMtxUnlock	#
 621      FF
 622              	.LVL56:
 623              		.loc 1 254 0
 624 0530 C7042445 		movl	$69, (%esp)	#,
 624      000000
 625 0537 E8FCFFFF 		call	test_emit_token	#
 625      FF
 626              	.LVL57:
 627              		.loc 1 256 0
 628 053c 31C0     		xorl	%eax, %eax	#
 629 053e 83C41C   		addl	$28, %esp	#,
GAS LISTING /tmp/ccnl8CWE.s 			page 15


 630              		.cfi_def_cfa_offset 4
 631 0541 C3       		ret
 632              		.cfi_endproc
 633              	.LFE16:
 634              		.size	thread3LL, .-thread3LL
 635 0542 8DB42600 		.p2align 4,,15
 635      0000008D 
 635      BC270000 
 635      0000
 636              		.type	thread2M, @function
 637              	thread2M:
 638              	.LFB12:
 639              		.loc 1 169 0
 640              		.cfi_startproc
 641              	.LVL58:
 642 0550 83EC1C   		subl	$28, %esp	#,
 643              		.cfi_def_cfa_offset 32
 644              		.loc 1 172 0
 645 0553 C7042414 		movl	$20, (%esp)	#,
 645      000000
 646 055a E8FCFFFF 		call	chThdSleep	#
 646      FF
 647              	.LVL59:
 648              		.loc 1 173 0
 649 055f C7042428 		movl	$40, (%esp)	#,
 649      000000
 650 0566 E8FCFFFF 		call	test_cpu_pulse	#
 650      FF
 651              	.LVL60:
 652              		.loc 1 174 0
 653 056b C7042442 		movl	$66, (%esp)	#,
 653      000000
 654 0572 E8FCFFFF 		call	test_emit_token	#
 654      FF
 655              	.LVL61:
 656              		.loc 1 176 0
 657 0577 31C0     		xorl	%eax, %eax	#
 658 0579 83C41C   		addl	$28, %esp	#,
 659              		.cfi_def_cfa_offset 4
 660 057c C3       		ret
 661              		.cfi_endproc
 662              	.LFE12:
 663              		.size	thread2M, .-thread2M
 664 057d 8D7600   		.p2align 4,,15
 665              		.type	thread2H, @function
 666              	thread2H:
 667              	.LFB13:
 668              		.loc 1 179 0
 669              		.cfi_startproc
 670              	.LVL62:
 671 0580 83EC1C   		subl	$28, %esp	#,
 672              		.cfi_def_cfa_offset 32
 673              		.loc 1 182 0
 674 0583 C7042428 		movl	$40, (%esp)	#,
 674      000000
 675 058a E8FCFFFF 		call	chThdSleep	#
 675      FF
GAS LISTING /tmp/ccnl8CWE.s 			page 16


 676              	.LVL63:
 677              		.loc 1 183 0
 678 058f C7042418 		movl	$m1, (%esp)	#,
 678      000000
 679 0596 E8FCFFFF 		call	chMtxLock	#
 679      FF
 680              	.LVL64:
 681              		.loc 1 184 0
 682 059b C704240A 		movl	$10, (%esp)	#,
 682      000000
 683 05a2 E8FCFFFF 		call	test_cpu_pulse	#
 683      FF
 684              	.LVL65:
 685              		.loc 1 185 0
 686 05a7 E8FCFFFF 		call	chMtxUnlock	#
 686      FF
 687              	.LVL66:
 688              		.loc 1 186 0
 689 05ac C7042441 		movl	$65, (%esp)	#,
 689      000000
 690 05b3 E8FCFFFF 		call	test_emit_token	#
 690      FF
 691              	.LVL67:
 692              		.loc 1 188 0
 693 05b8 31C0     		xorl	%eax, %eax	#
 694 05ba 83C41C   		addl	$28, %esp	#,
 695              		.cfi_def_cfa_offset 4
 696 05bd C3       		ret
 697              		.cfi_endproc
 698              	.LFE13:
 699              		.size	thread2H, .-thread2H
 700 05be 6690     		.p2align 4,,15
 701              		.type	thread3HH, @function
 702              	thread3HH:
 703              	.LFB20:
 704              		.loc 1 297 0
 705              		.cfi_startproc
 706              	.LVL68:
 707 05c0 83EC1C   		subl	$28, %esp	#,
 708              		.cfi_def_cfa_offset 32
 709              		.loc 1 300 0
 710 05c3 C7042432 		movl	$50, (%esp)	#,
 710      000000
 711 05ca E8FCFFFF 		call	chThdSleep	#
 711      FF
 712              	.LVL69:
 713              		.loc 1 301 0
 714 05cf C7042408 		movl	$m2, (%esp)	#,
 714      000000
 715 05d6 E8FCFFFF 		call	chMtxLock	#
 715      FF
 716              	.LVL70:
 717              		.loc 1 302 0
 718 05db C704240A 		movl	$10, (%esp)	#,
 718      000000
 719 05e2 E8FCFFFF 		call	test_cpu_pulse	#
 719      FF
GAS LISTING /tmp/ccnl8CWE.s 			page 17


 720              	.LVL71:
 721              		.loc 1 303 0
 722 05e7 E8FCFFFF 		call	chMtxUnlock	#
 722      FF
 723              	.LVL72:
 724              		.loc 1 304 0
 725 05ec C7042441 		movl	$65, (%esp)	#,
 725      000000
 726 05f3 E8FCFFFF 		call	test_emit_token	#
 726      FF
 727              	.LVL73:
 728              		.loc 1 306 0
 729 05f8 31C0     		xorl	%eax, %eax	#
 730 05fa 83C41C   		addl	$28, %esp	#,
 731              		.cfi_def_cfa_offset 4
 732 05fd C3       		ret
 733              		.cfi_endproc
 734              	.LFE20:
 735              		.size	thread3HH, .-thread3HH
 736 05fe 6690     		.p2align 4,,15
 737              		.type	thread3H, @function
 738              	thread3H:
 739              	.LFB19:
 740              		.loc 1 287 0
 741              		.cfi_startproc
 742              	.LVL74:
 743 0600 83EC1C   		subl	$28, %esp	#,
 744              		.cfi_def_cfa_offset 32
 745              		.loc 1 290 0
 746 0603 C7042428 		movl	$40, (%esp)	#,
 746      000000
 747 060a E8FCFFFF 		call	chThdSleep	#
 747      FF
 748              	.LVL75:
 749              		.loc 1 291 0
 750 060f C7042414 		movl	$20, (%esp)	#,
 750      000000
 751 0616 E8FCFFFF 		call	test_cpu_pulse	#
 751      FF
 752              	.LVL76:
 753              		.loc 1 292 0
 754 061b C7042442 		movl	$66, (%esp)	#,
 754      000000
 755 0622 E8FCFFFF 		call	test_emit_token	#
 755      FF
 756              	.LVL77:
 757              		.loc 1 294 0
 758 0627 31C0     		xorl	%eax, %eax	#
 759 0629 83C41C   		addl	$28, %esp	#,
 760              		.cfi_def_cfa_offset 4
 761 062c C3       		ret
 762              		.cfi_endproc
 763              	.LFE19:
 764              		.size	thread3H, .-thread3H
 765 062d 8D7600   		.p2align 4,,15
 766              		.type	thread3M, @function
 767              	thread3M:
GAS LISTING /tmp/ccnl8CWE.s 			page 18


 768              	.LFB18:
 769              		.loc 1 275 0
 770              		.cfi_startproc
 771              	.LVL78:
 772 0630 83EC1C   		subl	$28, %esp	#,
 773              		.cfi_def_cfa_offset 32
 774              		.loc 1 278 0
 775 0633 C7042414 		movl	$20, (%esp)	#,
 775      000000
 776 063a E8FCFFFF 		call	chThdSleep	#
 776      FF
 777              	.LVL79:
 778              		.loc 1 279 0
 779 063f C7042408 		movl	$m2, (%esp)	#,
 779      000000
 780 0646 E8FCFFFF 		call	chMtxLock	#
 780      FF
 781              	.LVL80:
 782              		.loc 1 280 0
 783 064b C704240A 		movl	$10, (%esp)	#,
 783      000000
 784 0652 E8FCFFFF 		call	test_cpu_pulse	#
 784      FF
 785              	.LVL81:
 786              		.loc 1 281 0
 787 0657 E8FCFFFF 		call	chMtxUnlock	#
 787      FF
 788              	.LVL82:
 789              		.loc 1 282 0
 790 065c C7042443 		movl	$67, (%esp)	#,
 790      000000
 791 0663 E8FCFFFF 		call	test_emit_token	#
 791      FF
 792              	.LVL83:
 793              		.loc 1 284 0
 794 0668 31C0     		xorl	%eax, %eax	#
 795 066a 83C41C   		addl	$28, %esp	#,
 796              		.cfi_def_cfa_offset 4
 797 066d C3       		ret
 798              		.cfi_endproc
 799              	.LFE18:
 800              		.size	thread3M, .-thread3M
 801 066e 6690     		.p2align 4,,15
 802              		.type	thread3L, @function
 803              	thread3L:
 804              	.LFB17:
 805              		.loc 1 259 0
 806              		.cfi_startproc
 807              	.LVL84:
 808 0670 83EC1C   		subl	$28, %esp	#,
 809              		.cfi_def_cfa_offset 32
 810              		.loc 1 262 0
 811 0673 C704240A 		movl	$10, (%esp)	#,
 811      000000
 812 067a E8FCFFFF 		call	chThdSleep	#
 812      FF
 813              	.LVL85:
GAS LISTING /tmp/ccnl8CWE.s 			page 19


 814              		.loc 1 263 0
 815 067f C7042408 		movl	$m2, (%esp)	#,
 815      000000
 816 0686 E8FCFFFF 		call	chMtxLock	#
 816      FF
 817              	.LVL86:
 818              		.loc 1 264 0
 819 068b C7042414 		movl	$20, (%esp)	#,
 819      000000
 820 0692 E8FCFFFF 		call	test_cpu_pulse	#
 820      FF
 821              	.LVL87:
 822              		.loc 1 265 0
 823 0697 C7042418 		movl	$m1, (%esp)	#,
 823      000000
 824 069e E8FCFFFF 		call	chMtxLock	#
 824      FF
 825              	.LVL88:
 826              		.loc 1 266 0
 827 06a3 C704240A 		movl	$10, (%esp)	#,
 827      000000
 828 06aa E8FCFFFF 		call	test_cpu_pulse	#
 828      FF
 829              	.LVL89:
 830              		.loc 1 267 0
 831 06af E8FCFFFF 		call	chMtxUnlock	#
 831      FF
 832              	.LVL90:
 833              		.loc 1 268 0
 834 06b4 C704240A 		movl	$10, (%esp)	#,
 834      000000
 835 06bb E8FCFFFF 		call	test_cpu_pulse	#
 835      FF
 836              	.LVL91:
 837              		.loc 1 269 0
 838 06c0 E8FCFFFF 		call	chMtxUnlock	#
 838      FF
 839              	.LVL92:
 840              		.loc 1 270 0
 841 06c5 C7042444 		movl	$68, (%esp)	#,
 841      000000
 842 06cc E8FCFFFF 		call	test_emit_token	#
 842      FF
 843              	.LVL93:
 844              		.loc 1 272 0
 845 06d1 31C0     		xorl	%eax, %eax	#
 846 06d3 83C41C   		addl	$28, %esp	#,
 847              		.cfi_def_cfa_offset 4
 848 06d6 C3       		ret
 849              		.cfi_endproc
 850              	.LFE17:
 851              		.size	thread3L, .-thread3L
 852 06d7 89F68DBC 		.p2align 4,,15
 852      27000000 
 852      00
 853              		.type	thread4b, @function
 854              	thread4b:
GAS LISTING /tmp/ccnl8CWE.s 			page 20


 855              	.LFB24:
 856              		.loc 1 356 0
 857              		.cfi_startproc
 858              	.LVL94:
 859 06e0 83EC1C   		subl	$28, %esp	#,
 860              		.cfi_def_cfa_offset 32
 861              		.loc 1 359 0
 862 06e3 C7042496 		movl	$150, (%esp)	#,
 862      000000
 863 06ea E8FCFFFF 		call	chThdSleep	#
 863      FF
 864              	.LVL95:
 865              		.loc 1 360 0
 866 06ef C7042418 		movl	$m1, (%esp)	#,
 866      000000
 867 06f6 E8FCFFFF 		call	chMtxLock	#
 867      FF
 868              	.LVL96:
 869              		.loc 1 361 0
 870 06fb E8FCFFFF 		call	chMtxUnlock	#
 870      FF
 871              	.LVL97:
 872              		.loc 1 363 0
 873 0700 31C0     		xorl	%eax, %eax	#
 874 0702 83C41C   		addl	$28, %esp	#,
 875              		.cfi_def_cfa_offset 4
 876 0705 C3       		ret
 877              		.cfi_endproc
 878              	.LFE24:
 879              		.size	thread4b, .-thread4b
 880 0706 8D76008D 		.p2align 4,,15
 880      BC270000 
 880      0000
 881              		.type	thread4a, @function
 882              	thread4a:
 883              	.LFB23:
 884              		.loc 1 347 0
 885              		.cfi_startproc
 886              	.LVL98:
 887 0710 83EC1C   		subl	$28, %esp	#,
 888              		.cfi_def_cfa_offset 32
 889              		.loc 1 350 0
 890 0713 C7042432 		movl	$50, (%esp)	#,
 890      000000
 891 071a E8FCFFFF 		call	chThdSleep	#
 891      FF
 892              	.LVL99:
 893              		.loc 1 351 0
 894 071f C7042408 		movl	$m2, (%esp)	#,
 894      000000
 895 0726 E8FCFFFF 		call	chMtxLock	#
 895      FF
 896              	.LVL100:
 897              		.loc 1 352 0
 898 072b E8FCFFFF 		call	chMtxUnlock	#
 898      FF
 899              	.LVL101:
GAS LISTING /tmp/ccnl8CWE.s 			page 21


 900              		.loc 1 354 0
 901 0730 31C0     		xorl	%eax, %eax	#
 902 0732 83C41C   		addl	$28, %esp	#,
 903              		.cfi_def_cfa_offset 4
 904 0735 C3       		ret
 905              		.cfi_endproc
 906              	.LFE23:
 907              		.size	thread4a, .-thread4a
 908 0736 8D76008D 		.p2align 4,,15
 908      BC270000 
 908      0000
 909              		.type	mtx4_execute, @function
 910              	mtx4_execute:
 911              	.LFB25:
 912              		.loc 1 365 0
 913              		.cfi_startproc
 914 0740 55       		pushl	%ebp	#
 915              		.cfi_def_cfa_offset 8
 916              		.cfi_offset 5, -8
 917 0741 57       		pushl	%edi	#
 918              		.cfi_def_cfa_offset 12
 919              		.cfi_offset 7, -12
 920 0742 56       		pushl	%esi	#
 921              		.cfi_def_cfa_offset 16
 922              		.cfi_offset 6, -16
 923 0743 53       		pushl	%ebx	#
 924              		.cfi_def_cfa_offset 20
 925              		.cfi_offset 3, -20
 926 0744 83EC2C   		subl	$44, %esp	#,
 927              		.cfi_def_cfa_offset 64
 928              		.loc 1 368 0
 929 0747 A1180000 		movl	rlist+24, %eax	# rlist.r_current, rlist.r_current
 929      00
 930 074c 8B5808   		movl	8(%eax), %ebx	# _3->p_prio, p
 931              	.LVL102:
 932              		.loc 1 371 0
 933 074f A1000000 		movl	wa, %eax	# wa, tmp188
 933      00
 934 0754 C7442410 		movl	$.LC3, 16(%esp)	#,
 934      06000000 
 935 075c C744240C 		movl	$thread4a, 12(%esp)	#,
 935      10070000 
 936              		.loc 1 369 0
 937 0764 8D7301   		leal	1(%ebx), %esi	#, p1
 938              	.LVL103:
 939              		.loc 1 371 0
 940 0767 89742408 		movl	%esi, 8(%esp)	# p1,
 941              		.loc 1 370 0
 942 076b 8D7B02   		leal	2(%ebx), %edi	#, p2
 943              	.LVL104:
 944              		.loc 1 371 0
 945 076e C7442404 		movl	$17008, 4(%esp)	#,
 945      70420000 
 946 0776 890424   		movl	%eax, (%esp)	# tmp188,
 947 0779 E8FCFFFF 		call	chThdCreateStatic	#
 947      FF
 948              	.LVL105:
GAS LISTING /tmp/ccnl8CWE.s 			page 22


 949              		.loc 1 372 0
 950 077e 8B2D0400 		movl	wa+4, %ebp	# wa, D.2540
 950      0000
 951 0784 C7442410 		movl	$.LC4, 16(%esp)	#,
 951      08000000 
 952 078c C744240C 		movl	$thread4b, 12(%esp)	#,
 952      E0060000 
 953 0794 897C2408 		movl	%edi, 8(%esp)	# p2,
 954 0798 C7442404 		movl	$17008, 4(%esp)	#,
 954      70420000 
 955 07a0 892C24   		movl	%ebp, (%esp)	# D.2540,
 956              		.loc 1 371 0
 957 07a3 A3000000 		movl	%eax, threads	# D.2539, threads
 957      00
 958              		.loc 1 372 0
 959 07a8 E8FCFFFF 		call	chThdCreateStatic	#
 959      FF
 960              	.LVL106:
 961              		.loc 1 373 0
 962 07ad C7042408 		movl	$m2, (%esp)	#,
 962      000000
 963              		.loc 1 372 0
 964 07b4 A3040000 		movl	%eax, threads+4	# D.2539, threads
 964      00
 965              		.loc 1 373 0
 966 07b9 E8FCFFFF 		call	chMtxLock	#
 966      FF
 967              	.LVL107:
 968              		.loc 1 374 0
 969 07be A1180000 		movl	rlist+24, %eax	# rlist.r_current, rlist.r_current
 969      00
 970 07c3 395808   		cmpl	%ebx, 8(%eax)	# p, _16->p_prio
 971 07c6 C7042401 		movl	$1, (%esp)	#,
 971      000000
 972 07cd 0F94C0   		sete	%al	#, D.2542
 973 07d0 0FB6C0   		movzbl	%al, %eax	# D.2542, D.2542
 974 07d3 89442404 		movl	%eax, 4(%esp)	# D.2542,
 975 07d7 E8FCFFFF 		call	_test_assert	#
 975      FF
 976              	.LVL108:
 977 07dc 84C0     		testb	%al, %al	# D.2542
 978 07de 7408     		je	.L50	#,
 979              	.L45:
 980              		.loc 1 410 0
 981 07e0 83C42C   		addl	$44, %esp	#,
 982              		.cfi_remember_state
 983              		.cfi_def_cfa_offset 20
 984 07e3 5B       		popl	%ebx	#
 985              		.cfi_restore 3
 986              		.cfi_def_cfa_offset 16
 987              	.LVL109:
 988 07e4 5E       		popl	%esi	#
 989              		.cfi_restore 6
 990              		.cfi_def_cfa_offset 12
 991              	.LVL110:
 992 07e5 5F       		popl	%edi	#
 993              		.cfi_restore 7
GAS LISTING /tmp/ccnl8CWE.s 			page 23


 994              		.cfi_def_cfa_offset 8
 995              	.LVL111:
 996 07e6 5D       		popl	%ebp	#
 997              		.cfi_restore 5
 998              		.cfi_def_cfa_offset 4
 999 07e7 C3       		ret
 1000              	.LVL112:
 1001              		.p2align 4,,7
 1002              		.p2align 3
 1003              	.L50:
 1004              		.cfi_restore_state
 1005              		.loc 1 375 0
 1006 07e8 C7042464 		movl	$100, (%esp)	#,
 1006      000000
 1007 07ef E8FCFFFF 		call	chThdSleep	#
 1007      FF
 1008              	.LVL113:
 1009              		.loc 1 376 0
 1010 07f4 A1180000 		movl	rlist+24, %eax	# rlist.r_current, rlist.r_current
 1010      00
 1011 07f9 397008   		cmpl	%esi, 8(%eax)	# p1, _23->p_prio
 1012 07fc C7042402 		movl	$2, (%esp)	#,
 1012      000000
 1013 0803 0F94C0   		sete	%al	#, D.2542
 1014 0806 0FB6C0   		movzbl	%al, %eax	# D.2542, D.2542
 1015 0809 89442404 		movl	%eax, 4(%esp)	# D.2542,
 1016 080d E8FCFFFF 		call	_test_assert	#
 1016      FF
 1017              	.LVL114:
 1018 0812 84C0     		testb	%al, %al	# D.2542
 1019 0814 75CA     		jne	.L45	#,
 1020              		.loc 1 377 0
 1021 0816 C7042418 		movl	$m1, (%esp)	#,
 1021      000000
 1022 081d E8FCFFFF 		call	chMtxLock	#
 1022      FF
 1023              	.LVL115:
 1024              		.loc 1 378 0
 1025 0822 A1180000 		movl	rlist+24, %eax	# rlist.r_current, rlist.r_current
 1025      00
 1026 0827 397008   		cmpl	%esi, 8(%eax)	# p1, _30->p_prio
 1027 082a C7042403 		movl	$3, (%esp)	#,
 1027      000000
 1028 0831 0F94C0   		sete	%al	#, D.2542
 1029 0834 0FB6C0   		movzbl	%al, %eax	# D.2542, D.2542
 1030 0837 89442404 		movl	%eax, 4(%esp)	# D.2542,
 1031 083b E8FCFFFF 		call	_test_assert	#
 1031      FF
 1032              	.LVL116:
 1033 0840 84C0     		testb	%al, %al	# D.2542
 1034 0842 759C     		jne	.L45	#,
 1035              		.loc 1 379 0
 1036 0844 C7042464 		movl	$100, (%esp)	#,
 1036      000000
 1037 084b E8FCFFFF 		call	chThdSleep	#
 1037      FF
 1038              	.LVL117:
GAS LISTING /tmp/ccnl8CWE.s 			page 24


 1039              		.loc 1 380 0
 1040 0850 A1180000 		movl	rlist+24, %eax	# rlist.r_current, rlist.r_current
 1040      00
 1041 0855 397808   		cmpl	%edi, 8(%eax)	# p2, _37->p_prio
 1042 0858 C7042404 		movl	$4, (%esp)	#,
 1042      000000
 1043 085f 0F94C0   		sete	%al	#, D.2542
 1044 0862 0FB6C0   		movzbl	%al, %eax	# D.2542, D.2542
 1045 0865 89442404 		movl	%eax, 4(%esp)	# D.2542,
 1046 0869 E8FCFFFF 		call	_test_assert	#
 1046      FF
 1047              	.LVL118:
 1048 086e 84C0     		testb	%al, %al	# D.2542
 1049 0870 0F856AFF 		jne	.L45	#,
 1049      FFFF
 1050              		.loc 1 381 0
 1051 0876 E8FCFFFF 		call	chMtxUnlock	#
 1051      FF
 1052              	.LVL119:
 1053              		.loc 1 382 0
 1054 087b A1180000 		movl	rlist+24, %eax	# rlist.r_current, rlist.r_current
 1054      00
 1055 0880 397008   		cmpl	%esi, 8(%eax)	# p1, _44->p_prio
 1056 0883 C7042405 		movl	$5, (%esp)	#,
 1056      000000
 1057 088a 0F94C0   		sete	%al	#, D.2542
 1058 088d 0FB6C0   		movzbl	%al, %eax	# D.2542, D.2542
 1059 0890 89442404 		movl	%eax, 4(%esp)	# D.2542,
 1060 0894 E8FCFFFF 		call	_test_assert	#
 1060      FF
 1061              	.LVL120:
 1062 0899 84C0     		testb	%al, %al	# D.2542
 1063 089b 0F853FFF 		jne	.L45	#,
 1063      FFFF
 1064              		.loc 1 383 0
 1065 08a1 C7042464 		movl	$100, (%esp)	#,
 1065      000000
 1066 08a8 E8FCFFFF 		call	chThdSleep	#
 1066      FF
 1067              	.LVL121:
 1068              		.loc 1 384 0
 1069 08ad A1180000 		movl	rlist+24, %eax	# rlist.r_current, rlist.r_current
 1069      00
 1070 08b2 397008   		cmpl	%esi, 8(%eax)	# p1, _51->p_prio
 1071 08b5 C7042406 		movl	$6, (%esp)	#,
 1071      000000
 1072 08bc 0F94C0   		sete	%al	#, D.2542
 1073 08bf 0FB6C0   		movzbl	%al, %eax	# D.2542, D.2542
 1074 08c2 89442404 		movl	%eax, 4(%esp)	# D.2542,
 1075 08c6 E8FCFFFF 		call	_test_assert	#
 1075      FF
 1076              	.LVL122:
 1077 08cb 84C0     		testb	%al, %al	# D.2542
 1078 08cd 0F850DFF 		jne	.L45	#,
 1078      FFFF
 1079              		.loc 1 385 0
 1080 08d3 E8FCFFFF 		call	chMtxUnlockAll	#
GAS LISTING /tmp/ccnl8CWE.s 			page 25


 1080      FF
 1081              	.LVL123:
 1082              		.loc 1 386 0
 1083 08d8 A1180000 		movl	rlist+24, %eax	# rlist.r_current, rlist.r_current
 1083      00
 1084 08dd 395808   		cmpl	%ebx, 8(%eax)	# p, _58->p_prio
 1085 08e0 C7042407 		movl	$7, (%esp)	#,
 1085      000000
 1086 08e7 0F94C0   		sete	%al	#, D.2542
 1087 08ea 0FB6C0   		movzbl	%al, %eax	# D.2542, D.2542
 1088 08ed 89442404 		movl	%eax, 4(%esp)	# D.2542,
 1089 08f1 E8FCFFFF 		call	_test_assert	#
 1089      FF
 1090              	.LVL124:
 1091 08f6 84C0     		testb	%al, %al	# D.2542
 1092 08f8 0F85E2FE 		jne	.L45	#,
 1092      FFFF
 1093              		.loc 1 387 0
 1094 08fe E8FCFFFF 		call	test_wait_threads	#
 1094      FF
 1095              	.LVL125:
 1096              		.loc 1 390 0
 1097 0903 A1000000 		movl	wa, %eax	# wa, tmp189
 1097      00
 1098 0908 C7442410 		movl	$.LC1, 16(%esp)	#,
 1098      02000000 
 1099 0910 C744240C 		movl	$thread4a, 12(%esp)	#,
 1099      10070000 
 1100 0918 89742408 		movl	%esi, 8(%esp)	# p1,
 1101 091c C7442404 		movl	$17008, 4(%esp)	#,
 1101      70420000 
 1102 0924 890424   		movl	%eax, (%esp)	# tmp189,
 1103 0927 E8FCFFFF 		call	chThdCreateStatic	#
 1103      FF
 1104              	.LVL126:
 1105              		.loc 1 391 0
 1106 092c C7442410 		movl	$.LC2, 16(%esp)	#,
 1106      04000000 
 1107 0934 C744240C 		movl	$thread4b, 12(%esp)	#,
 1107      E0060000 
 1108 093c 897C2408 		movl	%edi, 8(%esp)	# p2,
 1109 0940 C7442404 		movl	$17008, 4(%esp)	#,
 1109      70420000 
 1110 0948 892C24   		movl	%ebp, (%esp)	# D.2540,
 1111              		.loc 1 390 0
 1112 094b A3000000 		movl	%eax, threads	# D.2539, threads
 1112      00
 1113              		.loc 1 391 0
 1114 0950 E8FCFFFF 		call	chThdCreateStatic	#
 1114      FF
 1115              	.LVL127:
 1116              		.loc 1 392 0
 1117 0955 C7042408 		movl	$m2, (%esp)	#,
 1117      000000
 1118              		.loc 1 391 0
 1119 095c A3040000 		movl	%eax, threads+4	# D.2539, threads
 1119      00
GAS LISTING /tmp/ccnl8CWE.s 			page 26


 1120              		.loc 1 392 0
 1121 0961 E8FCFFFF 		call	chMtxLock	#
 1121      FF
 1122              	.LVL128:
 1123              		.loc 1 393 0
 1124 0966 A1180000 		movl	rlist+24, %eax	# rlist.r_current, rlist.r_current
 1124      00
 1125 096b 395808   		cmpl	%ebx, 8(%eax)	# p, _72->p_prio
 1126 096e C7042408 		movl	$8, (%esp)	#,
 1126      000000
 1127 0975 0F94C0   		sete	%al	#, D.2542
 1128 0978 0FB6C0   		movzbl	%al, %eax	# D.2542, D.2542
 1129 097b 89442404 		movl	%eax, 4(%esp)	# D.2542,
 1130 097f E8FCFFFF 		call	_test_assert	#
 1130      FF
 1131              	.LVL129:
 1132 0984 84C0     		testb	%al, %al	# D.2542
 1133 0986 0F8554FE 		jne	.L45	#,
 1133      FFFF
 1134              		.loc 1 394 0
 1135 098c C7042464 		movl	$100, (%esp)	#,
 1135      000000
 1136 0993 E8FCFFFF 		call	chThdSleep	#
 1136      FF
 1137              	.LVL130:
 1138              		.loc 1 395 0
 1139 0998 A1180000 		movl	rlist+24, %eax	# rlist.r_current, rlist.r_current
 1139      00
 1140 099d 397008   		cmpl	%esi, 8(%eax)	# p1, _79->p_prio
 1141 09a0 C7042409 		movl	$9, (%esp)	#,
 1141      000000
 1142 09a7 0F94C0   		sete	%al	#, D.2542
 1143 09aa 0FB6C0   		movzbl	%al, %eax	# D.2542, D.2542
 1144 09ad 89442404 		movl	%eax, 4(%esp)	# D.2542,
 1145 09b1 E8FCFFFF 		call	_test_assert	#
 1145      FF
 1146              	.LVL131:
 1147 09b6 84C0     		testb	%al, %al	# D.2542
 1148 09b8 0F8522FE 		jne	.L45	#,
 1148      FFFF
 1149              		.loc 1 396 0
 1150 09be C7042418 		movl	$m1, (%esp)	#,
 1150      000000
 1151 09c5 E8FCFFFF 		call	chMtxLock	#
 1151      FF
 1152              	.LVL132:
 1153              		.loc 1 397 0
 1154 09ca A1180000 		movl	rlist+24, %eax	# rlist.r_current, rlist.r_current
 1154      00
 1155 09cf 397008   		cmpl	%esi, 8(%eax)	# p1, _86->p_prio
 1156 09d2 C704240A 		movl	$10, (%esp)	#,
 1156      000000
 1157 09d9 0F94C0   		sete	%al	#, D.2542
 1158 09dc 0FB6C0   		movzbl	%al, %eax	# D.2542, D.2542
 1159 09df 89442404 		movl	%eax, 4(%esp)	# D.2542,
 1160 09e3 E8FCFFFF 		call	_test_assert	#
 1160      FF
GAS LISTING /tmp/ccnl8CWE.s 			page 27


 1161              	.LVL133:
 1162 09e8 84C0     		testb	%al, %al	# D.2542
 1163 09ea 0F85F0FD 		jne	.L45	#,
 1163      FFFF
 1164              		.loc 1 398 0
 1165 09f0 C7042464 		movl	$100, (%esp)	#,
 1165      000000
 1166 09f7 E8FCFFFF 		call	chThdSleep	#
 1166      FF
 1167              	.LVL134:
 1168              		.loc 1 399 0
 1169 09fc A1180000 		movl	rlist+24, %eax	# rlist.r_current, rlist.r_current
 1169      00
 1170 0a01 397808   		cmpl	%edi, 8(%eax)	# p2, _93->p_prio
 1171 0a04 C704240B 		movl	$11, (%esp)	#,
 1171      000000
 1172 0a0b 0F94C0   		sete	%al	#, D.2542
 1173 0a0e 0FB6C0   		movzbl	%al, %eax	# D.2542, D.2542
 1174 0a11 89442404 		movl	%eax, 4(%esp)	# D.2542,
 1175 0a15 E8FCFFFF 		call	_test_assert	#
 1175      FF
 1176              	.LVL135:
 1177 0a1a 84C0     		testb	%al, %al	# D.2542
 1178 0a1c 0F85BEFD 		jne	.L45	#,
 1178      FFFF
 1179              		.loc 1 400 0
 1180              	#APP
 1181              	# 400 "../../../test/testmtx.c" 1
   1              	/*
   2              	    ChibiOS/RT - Copyright (C) 2006-2013 Giovanni Di Sirio
   3              	
   4              	    Licensed under the Apache License, Version 2.0 (the "License");
   5              	    you may not use this file except in compliance with the License.
   6              	    You may obtain a copy of the License at
   7              	
   8              	        http://www.apache.org/licenses/LICENSE-2.0
   9              	
  10              	    Unless required by applicable law or agreed to in writing, software
  11              	    distributed under the License is distributed on an "AS IS" BASIS,
  12              	    WITHOUT WARRANTIES OR CONDITIONS OF ANY KIND, either express or implied.
  13              	    See the License for the specific language governing permissions and
  14              	    limitations under the License.
  15              	*/
  16              	
  17              	#include "ch.h"
  18              	#include "test.h"
  19              	
  20              	/**
  21              	 * @page test_mtx Mutexes test
  22              	 *
  23              	 * File: @ref testmtx.c
  24              	 *
  25              	 * <h2>Description</h2>
  26              	 * This module implements the test sequence for the @ref mutexes and
  27              	 * @ref condvars subsystems.<br>
  28              	 * Tests on those subsystems are particularly critical because the system-wide
  29              	 * implications of the Priority Inheritance mechanism.
GAS LISTING /tmp/ccnl8CWE.s 			page 28


  30              	 *
  31              	 * <h2>Objective</h2>
  32              	 * Objective of the test module is to cover 100% of the subsystems code.
  33              	 *
  34              	 * <h2>Preconditions</h2>
  35              	 * The module requires the following kernel options:
  36              	 * - @p CH_USE_MUTEXES
  37              	 * - @p CH_USE_CONDVARS
  38              	 * - @p CH_DBG_THREADS_PROFILING
  39              	 * .
  40              	 * In case some of the required options are not enabled then some or all tests
  41              	 * may be skipped.
  42              	 *
  43              	 * <h2>Test Cases</h2>
  44              	 * - @subpage test_mtx_001
  45              	 * - @subpage test_mtx_002
  46              	 * - @subpage test_mtx_003
  47              	 * - @subpage test_mtx_004
  48              	 * - @subpage test_mtx_005
  49              	 * - @subpage test_mtx_006
  50              	 * - @subpage test_mtx_007
  51              	 * - @subpage test_mtx_008
  52              	 * .
  53              	 * @file testmtx.c
  54              	 * @brief Mutexes and CondVars test source file
  55              	 * @file testmtx.h
  56              	 * @brief Mutexes and CondVars test header file
  57              	 */
  58              	
  59              	#if CH_USE_MUTEXES || defined(__DOXYGEN__)
  60              	
  61              	#define ALLOWED_DELAY 5
  62              	
  63              	/*
  64              	 * Note, the static initializers are not really required because the
  65              	 * variables are explicitly initialized in each test case. It is done in order
  66              	 * to test the macros.
  67              	 */
  68              	static MUTEX_DECL(m1);
  69              	static MUTEX_DECL(m2);
  70              	#if CH_USE_CONDVARS || defined(__DOXYGEN__)
  71              	static CONDVAR_DECL(c1);
  72              	#endif
  73              	
  74              	/**
  75              	 * @page test_mtx_001 Priority enqueuing test
  76              	 *
  77              	 * <h2>Description</h2>
  78              	 * Five threads, with increasing priority, are enqueued on a locked mutex then
  79              	 * the mutex is unlocked.<br>
  80              	 * The test expects the threads to perform their operations in increasing
  81              	 * priority order regardless of the initial order.
  82              	 */
  83              	
  84              	static void mtx1_setup(void) {
  85              	
  86              	  chMtxInit(&m1);
GAS LISTING /tmp/ccnl8CWE.s 			page 29


  87              	}
  88              	
  89              	static msg_t thread1(void *p) {
  90              	
  91              	  chMtxLock(&m1);
  92              	  test_emit_token(*(char *)p);
  93              	  chMtxUnlock();
  94              	  return 0;
  95              	}
  96              	
  97              	static void mtx1_execute(void) {
  98              	
  99              	  tprio_t prio = chThdGetPriority(); /* Because priority inheritance.*/
 100              	  chMtxLock(&m1);
 101              	  threads[0] = chThdCreateStatic(wa[0], WA_SIZE, prio+1, thread1, "E");
 102              	  threads[1] = chThdCreateStatic(wa[1], WA_SIZE, prio+2, thread1, "D");
 103              	  threads[2] = chThdCreateStatic(wa[2], WA_SIZE, prio+3, thread1, "C");
 104              	  threads[3] = chThdCreateStatic(wa[3], WA_SIZE, prio+4, thread1, "B");
 105              	  threads[4] = chThdCreateStatic(wa[4], WA_SIZE, prio+5, thread1, "A");
 106              	  chMtxUnlock();
 107              	  test_wait_threads();
 108              	  test_assert(1, prio == chThdGetPriority(), "wrong priority level");
 109              	  test_assert_sequence(2, "ABCDE");
 110              	}
 111              	
 112              	ROMCONST struct testcase testmtx1 = {
 113              	  "Mutexes, priority enqueuing test",
 114              	  mtx1_setup,
 115              	  NULL,
 116              	  mtx1_execute
 117              	};
 118              	
 119              	#if CH_DBG_THREADS_PROFILING || defined(__DOXYGEN__)
 120              	/**
 121              	 * @page test_mtx_002 Priority inheritance, simple case
 122              	 *
 123              	 * <h2>Description</h2>
 124              	 * Three threads are involved in the classic priority inversion scenario, a
 125              	 * medium priority thread tries to starve an high priority thread by
 126              	 * blocking a low priority thread into a mutex lock zone.<br>
 127              	 * The test expects the threads to reach their goal in increasing priority
 128              	 * order by rearranging their priorities in order to avoid the priority
 129              	 * inversion trap.
 130              	 *
 131              	 * <h2>Scenario</h2>
 132              	 * This weird looking diagram should explain what happens in the test case:
 133              	 * @code
 134              	 * Time ----> 0     10    20    30    40    50    60    70    80    90    100
 135              	 *    0 ......AL++++++++++............2+++++++++++AU0---------------++++++G...
 136              	 *    1 ..................++++++++++++------------------++++++++++++G.........
 137              	 *    2  .............................AL..........++++++AUG...................
 138              	 *                                    ^           ^
 139              	 * Legend:
 140              	 *   0..2 - Priority levels
 141              	 *   +++  - Running
 142              	 *   ---  - Ready
 143              	 *   ...  - Waiting or Terminated
GAS LISTING /tmp/ccnl8CWE.s 			page 30


 144              	 *   xL   - Lock operation on mutex 'x'
 145              	 *   xUn  - Unlock operation on mutex 'x' with priority returning to level 'n'
 146              	 *   G    - Goal
 147              	 *   ^    - Priority transition (boost or return).
 148              	 * @endcode
 149              	 */
 150              	
 151              	static void mtx2_setup(void) {
 152              	
 153              	  chMtxInit(&m1);
 154              	}
 155              	
 156              	/* Low priority thread */
 157              	static msg_t thread2L(void *p) {
 158              	
 159              	  (void)p;
 160              	  chMtxLock(&m1);
 161              	  test_cpu_pulse(40);
 162              	  chMtxUnlock();
 163              	  test_cpu_pulse(10);
 164              	  test_emit_token('C');
 165              	  return 0;
 166              	}
 167              	
 168              	/* Medium priority thread */
 169              	static msg_t thread2M(void *p) {
 170              	
 171              	  (void)p;
 172              	  chThdSleepMilliseconds(20);
 173              	  test_cpu_pulse(40);
 174              	  test_emit_token('B');
 175              	  return 0;
 176              	}
 177              	
 178              	/* High priority thread */
 179              	static msg_t thread2H(void *p) {
 180              	
 181              	  (void)p;
 182              	  chThdSleepMilliseconds(40);
 183              	  chMtxLock(&m1);
 184              	  test_cpu_pulse(10);
 185              	  chMtxUnlock();
 186              	  test_emit_token('A');
 187              	  return 0;
 188              	}
 189              	
 190              	static void mtx2_execute(void) {
 191              	  systime_t time;
 192              	
 193              	  test_wait_tick();
 194              	  time = chTimeNow();
 195              	  threads[0] = chThdCreateStatic(wa[0], WA_SIZE, chThdGetPriority()-1, thread2H, 0);
 196              	  threads[1] = chThdCreateStatic(wa[1], WA_SIZE, chThdGetPriority()-2, thread2M, 0);
 197              	  threads[2] = chThdCreateStatic(wa[2], WA_SIZE, chThdGetPriority()-3, thread2L, 0);
 198              	  test_wait_threads();
 199              	  test_assert_sequence(1, "ABC");
 200              	  test_assert_time_window(2, time + MS2ST(100), time + MS2ST(100) + ALLOWED_DELAY);
GAS LISTING /tmp/ccnl8CWE.s 			page 31


 201              	}
 202              	
 203              	ROMCONST struct testcase testmtx2 = {
 204              	  "Mutexes, priority inheritance, simple case",
 205              	  mtx2_setup,
 206              	  NULL,
 207              	  mtx2_execute
 208              	};
 209              	
 210              	/**
 211              	 * @page test_mtx_003 Priority inheritance, complex case
 212              	 *
 213              	 * <h2>Description</h2>
 214              	 * Five threads are involved in the complex priority inversion scenario,
 215              	 * please refer to the diagram below for the complete scenario.<br>
 216              	 * The test expects the threads to perform their operations in increasing
 217              	 * priority order by rearranging their priorities in order to avoid the
 218              	 * priority inversion trap.
 219              	 *
 220              	 * <h2>Scenario</h2>
 221              	 * This weird looking diagram should explain what happens in the test case:
 222              	 * @code
 223              	 * Time ----> 0     10    20    30    40    50    60    70    80    90    100   110
 224              	 *    0 ......BL++++------------2+++++------4+++++BU0---------------------------G.....
 225              	 *    1 ............AL++++2+++++BL----------4-----++++++BU4+++AU1---------------G.....
 226              	 *    2 ..................AL----------------------------------------------++++++AUG...
 227              	 *    3 ..............................+++++++-----------------------++++++G...........
 228              	 *    4 ....................................AL................++++++AUG...............
 229              	 *                        ^     ^           ^     ^     ^     ^
 230              	 * Legend:
 231              	 *   0..4 - Priority levels
 232              	 *   +++  - Running
 233              	 *   ---  - Ready
 234              	 *   ...  - Waiting or Terminated
 235              	 *   xL   - Lock operation on mutex 'x'
 236              	 *   xUn  - Unlock operation on mutex 'x' with priority returning to level 'n'
 237              	 *   ^    - Priority transition (boost or return).
 238              	 * @endcode
 239              	 */
 240              	
 241              	static void mtx3_setup(void) {
 242              	
 243              	  chMtxInit(&m1); /* Mutex B.*/
 244              	  chMtxInit(&m2); /* Mutex A.*/
 245              	}
 246              	
 247              	/* Lowest priority thread */
 248              	static msg_t thread3LL(void *p) {
 249              	
 250              	  (void)p;
 251              	  chMtxLock(&m1);
 252              	  test_cpu_pulse(30);
 253              	  chMtxUnlock();
 254              	  test_emit_token('E');
 255              	  return 0;
 256              	}
 257              	
GAS LISTING /tmp/ccnl8CWE.s 			page 32


 258              	/* Low priority thread */
 259              	static msg_t thread3L(void *p) {
 260              	
 261              	  (void)p;
 262              	  chThdSleepMilliseconds(10);
 263              	  chMtxLock(&m2);
 264              	  test_cpu_pulse(20);
 265              	  chMtxLock(&m1);
 266              	  test_cpu_pulse(10);
 267              	  chMtxUnlock();
 268              	  test_cpu_pulse(10);
 269              	  chMtxUnlock();
 270              	  test_emit_token('D');
 271              	  return 0;
 272              	}
 273              	
 274              	/* Medium priority thread */
 275              	static msg_t thread3M(void *p) {
 276              	
 277              	  (void)p;
 278              	  chThdSleepMilliseconds(20);
 279              	  chMtxLock(&m2);
 280              	  test_cpu_pulse(10);
 281              	  chMtxUnlock();
 282              	  test_emit_token('C');
 283              	  return 0;
 284              	}
 285              	
 286              	/* High priority thread */
 287              	static msg_t thread3H(void *p) {
 288              	
 289              	  (void)p;
 290              	  chThdSleepMilliseconds(40);
 291              	  test_cpu_pulse(20);
 292              	  test_emit_token('B');
 293              	  return 0;
 294              	}
 295              	
 296              	/* Highest priority thread */
 297              	static msg_t thread3HH(void *p) {
 298              	
 299              	  (void)p;
 300              	  chThdSleepMilliseconds(50);
 301              	  chMtxLock(&m2);
 302              	  test_cpu_pulse(10);
 303              	  chMtxUnlock();
 304              	  test_emit_token('A');
 305              	  return 0;
 306              	}
 307              	
 308              	static void mtx3_execute(void) {
 309              	  systime_t time;
 310              	
 311              	  test_wait_tick();
 312              	  time = chTimeNow();
 313              	  threads[0] = chThdCreateStatic(wa[0], WA_SIZE, chThdGetPriority()-5, thread3LL, 0);
 314              	  threads[1] = chThdCreateStatic(wa[1], WA_SIZE, chThdGetPriority()-4, thread3L, 0);
GAS LISTING /tmp/ccnl8CWE.s 			page 33


 315              	  threads[2] = chThdCreateStatic(wa[2], WA_SIZE, chThdGetPriority()-3, thread3M, 0);
 316              	  threads[3] = chThdCreateStatic(wa[3], WA_SIZE, chThdGetPriority()-2, thread3H, 0);
 317              	  threads[4] = chThdCreateStatic(wa[4], WA_SIZE, chThdGetPriority()-1, thread3HH, 0);
 318              	  test_wait_threads();
 319              	  test_assert_sequence(1, "ABCDE");
 320              	  test_assert_time_window(2, time + MS2ST(110), time + MS2ST(110) + ALLOWED_DELAY);
 321              	}
 322              	
 323              	ROMCONST struct testcase testmtx3 = {
 324              	  "Mutexes, priority inheritance, complex case",
 325              	  mtx3_setup,
 326              	  NULL,
 327              	  mtx3_execute
 328              	};
 329              	#endif /* CH_DBG_THREADS_PROFILING */
 330              	
 331              	/**
 332              	 * @page test_mtx_004 Priority return verification
 333              	 *
 334              	 * <h2>Description</h2>
 335              	 * Two threads are spawned that try to lock the mutexes locked by the tester
 336              	 * thread with precise timing.<br>
 337              	 * The test expects that the priority changes caused by the priority
 338              	 * inheritance algorithm happen at the right moment and with the right values.
 339              	 */
 340              	
 341              	static void mtx4_setup(void) {
 342              	
 343              	  chMtxInit(&m1);
 344              	  chMtxInit(&m2);
 345              	}
 346              	
 347              	static msg_t thread4a(void *p) {
 348              	
 349              	  (void)p;
 350              	  chThdSleepMilliseconds(50);
 351              	  chMtxLock(&m2);
 352              	  chMtxUnlock();
 353              	  return 0;
 354              	}
 355              	
 356              	static msg_t thread4b(void *p) {
 357              	
 358              	  (void)p;
 359              	  chThdSleepMilliseconds(150);
 360              	  chMtxLock(&m1);
 361              	  chMtxUnlock();
 362              	  return 0;
 363              	}
 364              	
 365              	static void mtx4_execute(void) {
 366              	  tprio_t p, p1, p2;
 367              	
 368              	  p = chThdGetPriority();
 369              	  p1 = p + 1;
 370              	  p2 = p + 2;
 371              	  threads[0] = chThdCreateStatic(wa[0], WA_SIZE, p1, thread4a, "B");
GAS LISTING /tmp/ccnl8CWE.s 			page 34


 372              	  threads[1] = chThdCreateStatic(wa[1], WA_SIZE, p2, thread4b, "A");
 373              	  chMtxLock(&m2);
 374              	  test_assert(1, chThdGetPriority() == p, "wrong priority level");
 375              	  chThdSleepMilliseconds(100);
 376              	  test_assert(2, chThdGetPriority() == p1, "wrong priority level");
 377              	  chMtxLock(&m1);
 378              	  test_assert(3, chThdGetPriority() == p1, "wrong priority level");
 379              	  chThdSleepMilliseconds(100);
 380              	  test_assert(4, chThdGetPriority() == p2, "wrong priority level");
 381              	  chMtxUnlock();
 382              	  test_assert(5, chThdGetPriority() == p1, "wrong priority level");
 383              	  chThdSleepMilliseconds(100);
 384              	  test_assert(6, chThdGetPriority() == p1, "wrong priority level");
 385              	  chMtxUnlockAll();
 386              	  test_assert(7, chThdGetPriority() == p, "wrong priority level");
 387              	  test_wait_threads();
 388              	
 389              	  /* Test repeated in order to cover chMtxUnlockS().*/
 390              	  threads[0] = chThdCreateStatic(wa[0], WA_SIZE, p1, thread4a, "D");
 391              	  threads[1] = chThdCreateStatic(wa[1], WA_SIZE, p2, thread4b, "C");
 392              	  chMtxLock(&m2);
 393              	  test_assert(8, chThdGetPriority() == p, "wrong priority level");
 394              	  chThdSleepMilliseconds(100);
 395              	  test_assert(9, chThdGetPriority() == p1, "wrong priority level");
 396              	  chMtxLock(&m1);
 397              	  test_assert(10, chThdGetPriority() == p1, "wrong priority level");
 398              	  chThdSleepMilliseconds(100);
 399              	  test_assert(11, chThdGetPriority() == p2, "wrong priority level");
 400 0a22 90       	  chSysLock();
 401              	  chMtxUnlockS();
 1182              		nop
 1183              	# 0 "" 2
 1184              		.loc 1 401 0
 1185              	#NO_APP
 1186 0a23 E8FCFFFF 		call	chMtxUnlockS	#
 1186      FF
 1187              	.LVL136:
 1188              		.loc 1 402 0
 1189              		.p2align 4,,6
 1190 0a28 E8FCFFFF 		call	chSchRescheduleS	#
 1190      FF
 1191              	.LVL137:
 1192              		.loc 1 403 0
 1193              	#APP
 1194              	# 403 "../../../test/testmtx.c" 1
 402              	  chSchRescheduleS();
 403 0a2d 90       	  chSysUnlock();
 404              	  test_assert(12, chThdGetPriority() == p1, "wrong priority level");
 1195              		nop
 1196              	# 0 "" 2
 1197              		.loc 1 404 0
 1198              	#NO_APP
 1199 0a2e A1180000 		movl	rlist+24, %eax	# rlist.r_current, rlist.r_current
 1199      00
 1200 0a33 397008   		cmpl	%esi, 8(%eax)	# p1, _101->p_prio
 1201 0a36 C704240C 		movl	$12, (%esp)	#,
 1201      000000
GAS LISTING /tmp/ccnl8CWE.s 			page 35


 1202 0a3d 0F94C0   		sete	%al	#, D.2542
 1203 0a40 0FB6C0   		movzbl	%al, %eax	# D.2542, D.2542
 1204 0a43 89442404 		movl	%eax, 4(%esp)	# D.2542,
 1205 0a47 E8FCFFFF 		call	_test_assert	#
 1205      FF
 1206              	.LVL138:
 1207 0a4c 84C0     		testb	%al, %al	# D.2542
 1208 0a4e 0F858CFD 		jne	.L45	#,
 1208      FFFF
 1209              		.loc 1 405 0
 1210 0a54 C7042464 		movl	$100, (%esp)	#,
 1210      000000
 1211 0a5b E8FCFFFF 		call	chThdSleep	#
 1211      FF
 1212              	.LVL139:
 1213              		.loc 1 406 0
 1214 0a60 A1180000 		movl	rlist+24, %eax	# rlist.r_current, rlist.r_current
 1214      00
 1215 0a65 397008   		cmpl	%esi, 8(%eax)	# p1, _108->p_prio
 1216 0a68 C704240D 		movl	$13, (%esp)	#,
 1216      000000
 1217 0a6f 0F94C0   		sete	%al	#, D.2542
 1218 0a72 0FB6C0   		movzbl	%al, %eax	# D.2542, D.2542
 1219 0a75 89442404 		movl	%eax, 4(%esp)	# D.2542,
 1220 0a79 E8FCFFFF 		call	_test_assert	#
 1220      FF
 1221              	.LVL140:
 1222 0a7e 84C0     		testb	%al, %al	# D.2542
 1223 0a80 0F855AFD 		jne	.L45	#,
 1223      FFFF
 1224              		.loc 1 407 0
 1225 0a86 E8FCFFFF 		call	chMtxUnlockAll	#
 1225      FF
 1226              	.LVL141:
 1227              		.loc 1 408 0
 1228 0a8b A1180000 		movl	rlist+24, %eax	# rlist.r_current, rlist.r_current
 1228      00
 1229 0a90 395808   		cmpl	%ebx, 8(%eax)	# p, _115->p_prio
 1230 0a93 C704240E 		movl	$14, (%esp)	#,
 1230      000000
 1231 0a9a 0F94C0   		sete	%al	#, D.2542
 1232 0a9d 0FB6C0   		movzbl	%al, %eax	# D.2542, D.2542
 1233 0aa0 89442404 		movl	%eax, 4(%esp)	# D.2542,
 1234 0aa4 E8FCFFFF 		call	_test_assert	#
 1234      FF
 1235              	.LVL142:
 1236 0aa9 84C0     		testb	%al, %al	# D.2542
 1237 0aab 0F852FFD 		jne	.L45	#,
 1237      FFFF
 1238              		.loc 1 410 0
 1239 0ab1 83C42C   		addl	$44, %esp	#,
 1240              		.cfi_def_cfa_offset 20
 1241 0ab4 5B       		popl	%ebx	#
 1242              		.cfi_restore 3
 1243              		.cfi_def_cfa_offset 16
 1244              	.LVL143:
 1245 0ab5 5E       		popl	%esi	#
GAS LISTING /tmp/ccnl8CWE.s 			page 36


 1246              		.cfi_restore 6
 1247              		.cfi_def_cfa_offset 12
 1248              	.LVL144:
 1249 0ab6 5F       		popl	%edi	#
 1250              		.cfi_restore 7
 1251              		.cfi_def_cfa_offset 8
 1252              	.LVL145:
 1253 0ab7 5D       		popl	%ebp	#
 1254              		.cfi_restore 5
 1255              		.cfi_def_cfa_offset 4
 1256              		.loc 1 409 0
 1257 0ab8 E9FCFFFF 		jmp	test_wait_threads	#
 1257      FF
 1258              	.LVL146:
 1259              		.cfi_endproc
 1260              	.LFE25:
 1261              		.size	mtx4_execute, .-mtx4_execute
 1262 0abd 8D7600   		.p2align 4,,15
 1263              		.type	mtx5_execute, @function
 1264              	mtx5_execute:
 1265              	.LFB27:
 1266              		.loc 1 434 0
 1267              		.cfi_startproc
 1268 0ac0 53       		pushl	%ebx	#
 1269              		.cfi_def_cfa_offset 8
 1270              		.cfi_offset 3, -8
 1271 0ac1 83EC18   		subl	$24, %esp	#,
 1272              		.cfi_def_cfa_offset 32
 1273              		.loc 1 438 0
 1274 0ac4 A1180000 		movl	rlist+24, %eax	# rlist.r_current, rlist.r_current
 1274      00
 1275 0ac9 8B5808   		movl	8(%eax), %ebx	# _3->p_prio, prio
 1276              	.LVL147:
 1277              		.loc 1 440 0
 1278 0acc C7042418 		movl	$m1, (%esp)	#,
 1278      000000
 1279 0ad3 E8FCFFFF 		call	chMtxTryLock	#
 1279      FF
 1280              	.LVL148:
 1281              		.loc 1 441 0
 1282 0ad8 C7042401 		movl	$1, (%esp)	#,
 1282      000000
 1283 0adf 0FB6C0   		movzbl	%al, %eax	# b, b
 1284 0ae2 89442404 		movl	%eax, 4(%esp)	# b,
 1285 0ae6 E8FCFFFF 		call	_test_assert	#
 1285      FF
 1286              	.LVL149:
 1287 0aeb 84C0     		testb	%al, %al	# D.2548
 1288 0aed 7409     		je	.L56	#,
 1289              	.L51:
 1290              		.loc 1 458 0
 1291 0aef 83C418   		addl	$24, %esp	#,
 1292              		.cfi_remember_state
 1293              		.cfi_def_cfa_offset 8
 1294 0af2 5B       		popl	%ebx	#
 1295              		.cfi_restore 3
 1296              		.cfi_def_cfa_offset 4
GAS LISTING /tmp/ccnl8CWE.s 			page 37


 1297              	.LVL150:
 1298 0af3 C3       		ret
 1299              	.LVL151:
 1300              		.p2align 4,,7
 1301 0af4 8D742600 		.p2align 3
 1302              	.L56:
 1303              		.cfi_restore_state
 1304              		.loc 1 443 0
 1305 0af8 C7042418 		movl	$m1, (%esp)	#,
 1305      000000
 1306 0aff E8FCFFFF 		call	chMtxTryLock	#
 1306      FF
 1307              	.LVL152:
 1308              		.loc 1 444 0
 1309 0b04 C7042402 		movl	$2, (%esp)	#,
 1309      000000
 1310 0b0b 83F001   		xorl	$1, %eax	#, D.2548
 1311              	.LVL153:
 1312 0b0e 0FB6C0   		movzbl	%al, %eax	# D.2548, D.2548
 1313 0b11 89442404 		movl	%eax, 4(%esp)	# D.2548,
 1314 0b15 E8FCFFFF 		call	_test_assert	#
 1314      FF
 1315              	.LVL154:
 1316 0b1a 84C0     		testb	%al, %al	# D.2548
 1317 0b1c 75D1     		jne	.L51	#,
 1318              		.loc 1 446 0
 1319              	#APP
 1320              	# 446 "../../../test/testmtx.c" 1
 405              	  chThdSleepMilliseconds(100);
 406              	  test_assert(13, chThdGetPriority() == p1, "wrong priority level");
 407              	  chMtxUnlockAll();
 408              	  test_assert(14, chThdGetPriority() == p, "wrong priority level");
 409              	  test_wait_threads();
 410              	}
 411              	
 412              	ROMCONST struct testcase testmtx4 = {
 413              	  "Mutexes, priority return",
 414              	  mtx4_setup,
 415              	  NULL,
 416              	  mtx4_execute
 417              	};
 418              	
 419              	/**
 420              	 * @page test_mtx_005 Mutex status
 421              	 *
 422              	 * <h2>Description</h2>
 423              	 * Various tests on the mutex structure status after performing some lock and
 424              	 * unlock operations.<br>
 425              	 * The test expects that the internal mutex status is consistent after each
 426              	 * operation.
 427              	 */
 428              	
 429              	static void mtx5_setup(void) {
 430              	
 431              	  chMtxInit(&m1);
 432              	}
 433              	
GAS LISTING /tmp/ccnl8CWE.s 			page 38


 434              	static void mtx5_execute(void) {
 435              	  bool_t b;
 436              	  tprio_t prio;
 437              	
 438              	  prio = chThdGetPriority();
 439              	
 440              	  b = chMtxTryLock(&m1);
 441              	  test_assert(1, b, "already locked");
 442              	
 443              	  b = chMtxTryLock(&m1);
 444              	  test_assert(2, !b, "not locked");
 445              	
 446 0b1e 90       	  chSysLock();
 447              	  chMtxUnlockS();
 1321              		nop
 1322              	# 0 "" 2
 1323              		.loc 1 447 0
 1324              	#NO_APP
 1325 0b1f E8FCFFFF 		call	chMtxUnlockS	#
 1325      FF
 1326              	.LVL155:
 1327              		.loc 1 448 0
 1328              	#APP
 1329              	# 448 "../../../test/testmtx.c" 1
 448 0b24 90       	  chSysUnlock();
 449              	
 1330              		nop
 1331              	# 0 "" 2
 1332              		.loc 1 450 0
 1333              	#NO_APP
 1334 0b25 31C0     		xorl	%eax, %eax	# D.2548
 1335 0b27 813D1800 		cmpl	$m1, m1	#, m1.m_queue.p_next
 1335      00001800 
 1335      0000
 1336 0b31 C7042403 		movl	$3, (%esp)	#,
 1336      000000
 1337 0b38 0F94C0   		sete	%al	#, D.2548
 1338 0b3b 89442404 		movl	%eax, 4(%esp)	# D.2548,
 1339 0b3f E8FCFFFF 		call	_test_assert	#
 1339      FF
 1340              	.LVL156:
 1341 0b44 84C0     		testb	%al, %al	# D.2548
 1342 0b46 75A7     		jne	.L51	#,
 1343              		.loc 1 451 0
 1344 0b48 8B0D2000 		movl	m1+8, %ecx	# m1.m_owner,
 1344      0000
 1345 0b4e 31C0     		xorl	%eax, %eax	# D.2548
 1346 0b50 C7042404 		movl	$4, (%esp)	#,
 1346      000000
 1347 0b57 85C9     		testl	%ecx, %ecx	#
 1348 0b59 0F94C0   		sete	%al	#, D.2548
 1349 0b5c 89442404 		movl	%eax, 4(%esp)	# D.2548,
 1350 0b60 E8FCFFFF 		call	_test_assert	#
 1350      FF
 1351              	.LVL157:
 1352 0b65 84C0     		testb	%al, %al	# D.2548
 1353 0b67 7586     		jne	.L51	#,
GAS LISTING /tmp/ccnl8CWE.s 			page 39


 1354              		.loc 1 452 0
 1355 0b69 A1180000 		movl	rlist+24, %eax	# rlist.r_current, rlist.r_current
 1355      00
 1356 0b6e 395808   		cmpl	%ebx, 8(%eax)	# prio, _27->p_prio
 1357 0b71 C7042405 		movl	$5, (%esp)	#,
 1357      000000
 1358 0b78 0F94C0   		sete	%al	#, D.2548
 1359 0b7b 0FB6C0   		movzbl	%al, %eax	# D.2548, D.2548
 1360 0b7e 89442404 		movl	%eax, 4(%esp)	# D.2548,
 1361 0b82 E8FCFFFF 		call	_test_assert	#
 1361      FF
 1362              	.LVL158:
 1363 0b87 84C0     		testb	%al, %al	# D.2548
 1364 0b89 0F8560FF 		jne	.L51	#,
 1364      FFFF
 1365              		.loc 1 454 0
 1366 0b8f C7042418 		movl	$m1, (%esp)	#,
 1366      000000
 1367 0b96 E8FCFFFF 		call	chMtxLock	#
 1367      FF
 1368              	.LVL159:
 1369              		.loc 1 455 0
 1370 0b9b E8FCFFFF 		call	chMtxUnlockAll	#
 1370      FF
 1371              	.LVL160:
 1372              		.loc 1 456 0
 1373 0ba0 31C0     		xorl	%eax, %eax	# D.2548
 1374 0ba2 813D1800 		cmpl	$m1, m1	#, m1.m_queue.p_next
 1374      00001800 
 1374      0000
 1375 0bac C7042406 		movl	$6, (%esp)	#,
 1375      000000
 1376 0bb3 0F94C0   		sete	%al	#, D.2548
 1377 0bb6 89442404 		movl	%eax, 4(%esp)	# D.2548,
 1378 0bba E8FCFFFF 		call	_test_assert	#
 1378      FF
 1379              	.LVL161:
 1380 0bbf 84C0     		testb	%al, %al	# D.2548
 1381 0bc1 0F8528FF 		jne	.L51	#,
 1381      FFFF
 1382              		.loc 1 457 0
 1383 0bc7 8B152000 		movl	m1+8, %edx	# m1.m_owner,
 1383      0000
 1384 0bcd 31C0     		xorl	%eax, %eax	# D.2548
 1385 0bcf C7042407 		movl	$7, (%esp)	#,
 1385      000000
 1386 0bd6 85D2     		testl	%edx, %edx	#
 1387 0bd8 0F94C0   		sete	%al	#, D.2548
 1388 0bdb 89442404 		movl	%eax, 4(%esp)	# D.2548,
 1389 0bdf E8FCFFFF 		call	_test_assert	#
 1389      FF
 1390              	.LVL162:
 1391 0be4 E906FFFF 		jmp	.L51	#
 1391      FF
 1392              		.cfi_endproc
 1393              	.LFE27:
 1394              		.size	mtx5_execute, .-mtx5_execute
GAS LISTING /tmp/ccnl8CWE.s 			page 40


 1395 0be9 8DB42600 		.p2align 4,,15
 1395      000000
 1396              		.type	mtx6_execute, @function
 1397              	mtx6_execute:
 1398              	.LFB30:
 1399              		.loc 1 494 0
 1400              		.cfi_startproc
 1401 0bf0 53       		pushl	%ebx	#
 1402              		.cfi_def_cfa_offset 8
 1403              		.cfi_offset 3, -8
 1404 0bf1 83EC28   		subl	$40, %esp	#,
 1405              		.cfi_def_cfa_offset 48
 1406              		.loc 1 496 0
 1407 0bf4 A1180000 		movl	rlist+24, %eax	# rlist.r_current, rlist.r_current
 1407      00
 1408 0bf9 8B5808   		movl	8(%eax), %ebx	# _2->p_prio, prio
 1409              	.LVL163:
 1410              		.loc 1 497 0
 1411 0bfc C7442410 		movl	$.LC0, 16(%esp)	#,
 1411      00000000 
 1412 0c04 C744240C 		movl	$thread10, 12(%esp)	#,
 1412      600D0000 
 1413 0c0c C7442404 		movl	$17008, 4(%esp)	#,
 1413      70420000 
 1414 0c14 8D4301   		leal	1(%ebx), %eax	#, D.2553
 1415 0c17 89442408 		movl	%eax, 8(%esp)	# D.2553,
 1416 0c1b A1000000 		movl	wa, %eax	# wa, wa
 1416      00
 1417 0c20 890424   		movl	%eax, (%esp)	# wa,
 1418 0c23 E8FCFFFF 		call	chThdCreateStatic	#
 1418      FF
 1419              	.LVL164:
 1420              		.loc 1 498 0
 1421 0c28 C7442410 		movl	$.LC1, 16(%esp)	#,
 1421      02000000 
 1422 0c30 C744240C 		movl	$thread10, 12(%esp)	#,
 1422      600D0000 
 1423 0c38 C7442404 		movl	$17008, 4(%esp)	#,
 1423      70420000 
 1424              		.loc 1 497 0
 1425 0c40 A3000000 		movl	%eax, threads	# D.2552, threads
 1425      00
 1426              		.loc 1 498 0
 1427 0c45 8D4302   		leal	2(%ebx), %eax	#, D.2553
 1428 0c48 89442408 		movl	%eax, 8(%esp)	# D.2553,
 1429 0c4c A1040000 		movl	wa+4, %eax	# wa, wa
 1429      00
 1430 0c51 890424   		movl	%eax, (%esp)	# wa,
 1431 0c54 E8FCFFFF 		call	chThdCreateStatic	#
 1431      FF
 1432              	.LVL165:
 1433              		.loc 1 499 0
 1434 0c59 C7442410 		movl	$.LC2, 16(%esp)	#,
 1434      04000000 
 1435 0c61 C744240C 		movl	$thread10, 12(%esp)	#,
 1435      600D0000 
 1436 0c69 C7442404 		movl	$17008, 4(%esp)	#,
GAS LISTING /tmp/ccnl8CWE.s 			page 41


 1436      70420000 
 1437              		.loc 1 498 0
 1438 0c71 A3040000 		movl	%eax, threads+4	# D.2552, threads
 1438      00
 1439              		.loc 1 499 0
 1440 0c76 8D4303   		leal	3(%ebx), %eax	#, D.2553
 1441 0c79 89442408 		movl	%eax, 8(%esp)	# D.2553,
 1442 0c7d A1080000 		movl	wa+8, %eax	# wa, wa
 1442      00
 1443 0c82 890424   		movl	%eax, (%esp)	# wa,
 1444 0c85 E8FCFFFF 		call	chThdCreateStatic	#
 1444      FF
 1445              	.LVL166:
 1446              		.loc 1 500 0
 1447 0c8a C7442410 		movl	$.LC3, 16(%esp)	#,
 1447      06000000 
 1448 0c92 C744240C 		movl	$thread10, 12(%esp)	#,
 1448      600D0000 
 1449 0c9a C7442404 		movl	$17008, 4(%esp)	#,
 1449      70420000 
 1450              		.loc 1 499 0
 1451 0ca2 A3080000 		movl	%eax, threads+8	# D.2552, threads
 1451      00
 1452              		.loc 1 500 0
 1453 0ca7 8D4304   		leal	4(%ebx), %eax	#, D.2553
 1454              		.loc 1 501 0
 1455 0caa 83C305   		addl	$5, %ebx	#, D.2553
 1456              	.LVL167:
 1457              		.loc 1 500 0
 1458 0cad 89442408 		movl	%eax, 8(%esp)	# D.2553,
 1459 0cb1 A10C0000 		movl	wa+12, %eax	# wa, wa
 1459      00
 1460 0cb6 890424   		movl	%eax, (%esp)	# wa,
 1461 0cb9 E8FCFFFF 		call	chThdCreateStatic	#
 1461      FF
 1462              	.LVL168:
 1463              		.loc 1 501 0
 1464 0cbe C7442410 		movl	$.LC4, 16(%esp)	#,
 1464      08000000 
 1465 0cc6 C744240C 		movl	$thread10, 12(%esp)	#,
 1465      600D0000 
 1466 0cce 895C2408 		movl	%ebx, 8(%esp)	# D.2553,
 1467 0cd2 C7442404 		movl	$17008, 4(%esp)	#,
 1467      70420000 
 1468              		.loc 1 500 0
 1469 0cda A30C0000 		movl	%eax, threads+12	# D.2552, threads
 1469      00
 1470              		.loc 1 501 0
 1471 0cdf A1100000 		movl	wa+16, %eax	# wa, wa
 1471      00
 1472 0ce4 890424   		movl	%eax, (%esp)	# wa,
 1473 0ce7 E8FCFFFF 		call	chThdCreateStatic	#
 1473      FF
 1474              	.LVL169:
 1475 0cec A3100000 		movl	%eax, threads+16	# D.2552, threads
 1475      00
 1476              		.loc 1 502 0
GAS LISTING /tmp/ccnl8CWE.s 			page 42


 1477              	#APP
 1478              	# 502 "../../../test/testmtx.c" 1
 450              	  test_assert(3, isempty(&m1.m_queue), "queue not empty");
 451              	  test_assert(4, m1.m_owner == NULL, "still owned");
 452              	  test_assert(5, chThdGetPriority() == prio, "wrong priority level");
 453              	  
 454              	  chMtxLock(&m1);
 455              	  chMtxUnlockAll();
 456              	  test_assert(6, isempty(&m1.m_queue), "queue not empty");
 457              	  test_assert(7, m1.m_owner == NULL, "still owned");
 458              	}
 459              	
 460              	ROMCONST struct testcase testmtx5 = {
 461              	  "Mutexes, status",
 462              	  mtx5_setup,
 463              	  NULL,
 464              	  mtx5_execute
 465              	};
 466              	
 467              	#if CH_USE_CONDVARS || defined(__DOXYGEN__)
 468              	/**
 469              	 * @page test_mtx_006 Condition Variable signal test
 470              	 *
 471              	 * <h2>Description</h2>
 472              	 * Five threads take a mutex and then enter a conditional variable queue, the
 473              	 * tester thread then proceeds to signal the conditional variable five times
 474              	 * atomically.<br>
 475              	 * The test expects the threads to reach their goal in increasing priority
 476              	 * order regardless of the initial order.
 477              	 */
 478              	
 479              	static void mtx6_setup(void) {
 480              	
 481              	  chCondInit(&c1);
 482              	  chMtxInit(&m1);
 483              	}
 484              	
 485              	static msg_t thread10(void *p) {
 486              	
 487              	  chMtxLock(&m1);
 488              	  chCondWait(&c1);
 489              	  test_emit_token(*(char *)p);
 490              	  chMtxUnlock();
 491              	  return 0;
 492              	}
 493              	
 494              	static void mtx6_execute(void) {
 495              	
 496              	  tprio_t prio = chThdGetPriority();
 497              	  threads[0] = chThdCreateStatic(wa[0], WA_SIZE, prio+1, thread10, "E");
 498              	  threads[1] = chThdCreateStatic(wa[1], WA_SIZE, prio+2, thread10, "D");
 499              	  threads[2] = chThdCreateStatic(wa[2], WA_SIZE, prio+3, thread10, "C");
 500              	  threads[3] = chThdCreateStatic(wa[3], WA_SIZE, prio+4, thread10, "B");
 501              	  threads[4] = chThdCreateStatic(wa[4], WA_SIZE, prio+5, thread10, "A");
 502 0cf1 90       	  chSysLock();
 503              	  chCondSignalI(&c1);
 1479              		nop
GAS LISTING /tmp/ccnl8CWE.s 			page 43


 1480              	# 0 "" 2
 1481              		.loc 1 503 0
 1482              	#NO_APP
 1483 0cf2 C7042400 		movl	$c1, (%esp)	#,
 1483      000000
 1484 0cf9 E8FCFFFF 		call	chCondSignalI	#
 1484      FF
 1485              	.LVL170:
 1486              		.loc 1 504 0
 1487 0cfe C7042400 		movl	$c1, (%esp)	#,
 1487      000000
 1488 0d05 E8FCFFFF 		call	chCondSignalI	#
 1488      FF
 1489              	.LVL171:
 1490              		.loc 1 505 0
 1491 0d0a C7042400 		movl	$c1, (%esp)	#,
 1491      000000
 1492 0d11 E8FCFFFF 		call	chCondSignalI	#
 1492      FF
 1493              	.LVL172:
 1494              		.loc 1 506 0
 1495 0d16 C7042400 		movl	$c1, (%esp)	#,
 1495      000000
 1496 0d1d E8FCFFFF 		call	chCondSignalI	#
 1496      FF
 1497              	.LVL173:
 1498              		.loc 1 507 0
 1499 0d22 C7042400 		movl	$c1, (%esp)	#,
 1499      000000
 1500 0d29 E8FCFFFF 		call	chCondSignalI	#
 1500      FF
 1501              	.LVL174:
 1502              		.loc 1 508 0
 1503 0d2e E8FCFFFF 		call	chSchRescheduleS	#
 1503      FF
 1504              	.LVL175:
 1505              		.loc 1 509 0
 1506              	#APP
 1507              	# 509 "../../../test/testmtx.c" 1
 504              	  chCondSignalI(&c1);
 505              	  chCondSignalI(&c1);
 506              	  chCondSignalI(&c1);
 507              	  chCondSignalI(&c1);
 508              	  chSchRescheduleS();
 509 0d33 90       	  chSysUnlock();
 510              	  test_wait_threads();
 1508              		nop
 1509              	# 0 "" 2
 1510              		.loc 1 510 0
 1511              	#NO_APP
 1512 0d34 E8FCFFFF 		call	test_wait_threads	#
 1512      FF
 1513              	.LVL176:
 1514              		.loc 1 511 0
 1515 0d39 C7442404 		movl	$.LC5, 4(%esp)	#,
 1515      0A000000 
 1516 0d41 C7042401 		movl	$1, (%esp)	#,
GAS LISTING /tmp/ccnl8CWE.s 			page 44


 1516      000000
 1517 0d48 E8FCFFFF 		call	_test_assert_sequence	#
 1517      FF
 1518              	.LVL177:
 1519              		.loc 1 512 0
 1520 0d4d 83C428   		addl	$40, %esp	#,
 1521              		.cfi_def_cfa_offset 8
 1522 0d50 5B       		popl	%ebx	#
 1523              		.cfi_restore 3
 1524              		.cfi_def_cfa_offset 4
 1525              	.LVL178:
 1526 0d51 C3       		ret
 1527              		.cfi_endproc
 1528              	.LFE30:
 1529              		.size	mtx6_execute, .-mtx6_execute
 1530 0d52 8DB42600 		.p2align 4,,15
 1530      0000008D 
 1530      BC270000 
 1530      0000
 1531              		.type	thread10, @function
 1532              	thread10:
 1533              	.LFB29:
 1534              		.loc 1 485 0
 1535              		.cfi_startproc
 1536              	.LVL179:
 1537 0d60 83EC1C   		subl	$28, %esp	#,
 1538              		.cfi_def_cfa_offset 32
 1539              		.loc 1 487 0
 1540 0d63 C7042418 		movl	$m1, (%esp)	#,
 1540      000000
 1541 0d6a E8FCFFFF 		call	chMtxLock	#
 1541      FF
 1542              	.LVL180:
 1543              		.loc 1 488 0
 1544 0d6f C7042400 		movl	$c1, (%esp)	#,
 1544      000000
 1545 0d76 E8FCFFFF 		call	chCondWait	#
 1545      FF
 1546              	.LVL181:
 1547              		.loc 1 489 0
 1548 0d7b 8B442420 		movl	32(%esp), %eax	# p, p
 1549 0d7f 0FBE00   		movsbl	(%eax), %eax	# MEM[(char *)p_4(D)], MEM[(char *)p_4(D)]
 1550 0d82 890424   		movl	%eax, (%esp)	# MEM[(char *)p_4(D)],
 1551 0d85 E8FCFFFF 		call	test_emit_token	#
 1551      FF
 1552              	.LVL182:
 1553              		.loc 1 490 0
 1554 0d8a E8FCFFFF 		call	chMtxUnlock	#
 1554      FF
 1555              	.LVL183:
 1556              		.loc 1 492 0
 1557 0d8f 31C0     		xorl	%eax, %eax	#
 1558 0d91 83C41C   		addl	$28, %esp	#,
 1559              		.cfi_def_cfa_offset 4
 1560 0d94 C3       		ret
 1561              		.cfi_endproc
 1562              	.LFE29:
GAS LISTING /tmp/ccnl8CWE.s 			page 45


 1563              		.size	thread10, .-thread10
 1564 0d95 8D742600 		.p2align 4,,15
 1564      8DBC2700 
 1564      000000
 1565              		.type	mtx6_setup, @function
 1566              	mtx6_setup:
 1567              	.LFB28:
 1568              		.loc 1 479 0
 1569              		.cfi_startproc
 1570 0da0 83EC1C   		subl	$28, %esp	#,
 1571              		.cfi_def_cfa_offset 32
 1572              		.loc 1 481 0
 1573 0da3 C7042400 		movl	$c1, (%esp)	#,
 1573      000000
 1574 0daa E8FCFFFF 		call	chCondInit	#
 1574      FF
 1575              	.LVL184:
 1576              		.loc 1 482 0
 1577 0daf C7042418 		movl	$m1, (%esp)	#,
 1577      000000
 1578 0db6 E8FCFFFF 		call	chMtxInit	#
 1578      FF
 1579              	.LVL185:
 1580              		.loc 1 483 0
 1581 0dbb 83C41C   		addl	$28, %esp	#,
 1582              		.cfi_def_cfa_offset 4
 1583 0dbe C3       		ret
 1584              		.cfi_endproc
 1585              	.LFE28:
 1586              		.size	mtx6_setup, .-mtx6_setup
 1587 0dbf 90       		.p2align 4,,15
 1588              		.type	mtx7_setup, @function
 1589              	mtx7_setup:
 1590              	.LFB31:
 1591              		.loc 1 531 0
 1592              		.cfi_startproc
 1593 0dc0 83EC1C   		subl	$28, %esp	#,
 1594              		.cfi_def_cfa_offset 32
 1595              		.loc 1 533 0
 1596 0dc3 C7042400 		movl	$c1, (%esp)	#,
 1596      000000
 1597 0dca E8FCFFFF 		call	chCondInit	#
 1597      FF
 1598              	.LVL186:
 1599              		.loc 1 534 0
 1600 0dcf C7042418 		movl	$m1, (%esp)	#,
 1600      000000
 1601 0dd6 E8FCFFFF 		call	chMtxInit	#
 1601      FF
 1602              	.LVL187:
 1603              		.loc 1 535 0
 1604 0ddb 83C41C   		addl	$28, %esp	#,
 1605              		.cfi_def_cfa_offset 4
 1606 0dde C3       		ret
 1607              		.cfi_endproc
 1608              	.LFE31:
 1609              		.size	mtx7_setup, .-mtx7_setup
GAS LISTING /tmp/ccnl8CWE.s 			page 46


 1610 0ddf 90       		.p2align 4,,15
 1611              		.type	mtx8_setup, @function
 1612              	mtx8_setup:
 1613              	.LFB33:
 1614              		.loc 1 566 0
 1615              		.cfi_startproc
 1616 0de0 83EC1C   		subl	$28, %esp	#,
 1617              		.cfi_def_cfa_offset 32
 1618              		.loc 1 568 0
 1619 0de3 C7042400 		movl	$c1, (%esp)	#,
 1619      000000
 1620 0dea E8FCFFFF 		call	chCondInit	#
 1620      FF
 1621              	.LVL188:
 1622              		.loc 1 569 0
 1623 0def C7042418 		movl	$m1, (%esp)	#,
 1623      000000
 1624 0df6 E8FCFFFF 		call	chMtxInit	#
 1624      FF
 1625              	.LVL189:
 1626              		.loc 1 570 0
 1627 0dfb C7042408 		movl	$m2, (%esp)	#,
 1627      000000
 1628 0e02 E8FCFFFF 		call	chMtxInit	#
 1628      FF
 1629              	.LVL190:
 1630              		.loc 1 571 0
 1631 0e07 83C41C   		addl	$28, %esp	#,
 1632              		.cfi_def_cfa_offset 4
 1633 0e0a C3       		ret
 1634              		.cfi_endproc
 1635              	.LFE33:
 1636              		.size	mtx8_setup, .-mtx8_setup
 1637 0e0b 908D7426 		.p2align 4,,15
 1637      00
 1638              		.type	mtx7_execute, @function
 1639              	mtx7_execute:
 1640              	.LFB32:
 1641              		.loc 1 537 0
 1642              		.cfi_startproc
 1643 0e10 53       		pushl	%ebx	#
 1644              		.cfi_def_cfa_offset 8
 1645              		.cfi_offset 3, -8
 1646 0e11 83EC28   		subl	$40, %esp	#,
 1647              		.cfi_def_cfa_offset 48
 1648              		.loc 1 539 0
 1649 0e14 A1180000 		movl	rlist+24, %eax	# rlist.r_current, rlist.r_current
 1649      00
 1650 0e19 8B5808   		movl	8(%eax), %ebx	# _2->p_prio, prio
 1651              	.LVL191:
 1652              		.loc 1 540 0
 1653 0e1c C7442410 		movl	$.LC0, 16(%esp)	#,
 1653      00000000 
 1654 0e24 C744240C 		movl	$thread10, 12(%esp)	#,
 1654      600D0000 
 1655 0e2c C7442404 		movl	$17008, 4(%esp)	#,
 1655      70420000 
GAS LISTING /tmp/ccnl8CWE.s 			page 47


 1656 0e34 8D4301   		leal	1(%ebx), %eax	#, D.2568
 1657 0e37 89442408 		movl	%eax, 8(%esp)	# D.2568,
 1658 0e3b A1000000 		movl	wa, %eax	# wa, wa
 1658      00
 1659 0e40 890424   		movl	%eax, (%esp)	# wa,
 1660 0e43 E8FCFFFF 		call	chThdCreateStatic	#
 1660      FF
 1661              	.LVL192:
 1662              		.loc 1 541 0
 1663 0e48 C7442410 		movl	$.LC1, 16(%esp)	#,
 1663      02000000 
 1664 0e50 C744240C 		movl	$thread10, 12(%esp)	#,
 1664      600D0000 
 1665 0e58 C7442404 		movl	$17008, 4(%esp)	#,
 1665      70420000 
 1666              		.loc 1 540 0
 1667 0e60 A3000000 		movl	%eax, threads	# D.2567, threads
 1667      00
 1668              		.loc 1 541 0
 1669 0e65 8D4302   		leal	2(%ebx), %eax	#, D.2568
 1670 0e68 89442408 		movl	%eax, 8(%esp)	# D.2568,
 1671 0e6c A1040000 		movl	wa+4, %eax	# wa, wa
 1671      00
 1672 0e71 890424   		movl	%eax, (%esp)	# wa,
 1673 0e74 E8FCFFFF 		call	chThdCreateStatic	#
 1673      FF
 1674              	.LVL193:
 1675              		.loc 1 542 0
 1676 0e79 C7442410 		movl	$.LC2, 16(%esp)	#,
 1676      04000000 
 1677 0e81 C744240C 		movl	$thread10, 12(%esp)	#,
 1677      600D0000 
 1678 0e89 C7442404 		movl	$17008, 4(%esp)	#,
 1678      70420000 
 1679              		.loc 1 541 0
 1680 0e91 A3040000 		movl	%eax, threads+4	# D.2567, threads
 1680      00
 1681              		.loc 1 542 0
 1682 0e96 8D4303   		leal	3(%ebx), %eax	#, D.2568
 1683 0e99 89442408 		movl	%eax, 8(%esp)	# D.2568,
 1684 0e9d A1080000 		movl	wa+8, %eax	# wa, wa
 1684      00
 1685 0ea2 890424   		movl	%eax, (%esp)	# wa,
 1686 0ea5 E8FCFFFF 		call	chThdCreateStatic	#
 1686      FF
 1687              	.LVL194:
 1688              		.loc 1 543 0
 1689 0eaa C7442410 		movl	$.LC3, 16(%esp)	#,
 1689      06000000 
 1690 0eb2 C744240C 		movl	$thread10, 12(%esp)	#,
 1690      600D0000 
 1691 0eba C7442404 		movl	$17008, 4(%esp)	#,
 1691      70420000 
 1692              		.loc 1 542 0
 1693 0ec2 A3080000 		movl	%eax, threads+8	# D.2567, threads
 1693      00
 1694              		.loc 1 543 0
GAS LISTING /tmp/ccnl8CWE.s 			page 48


 1695 0ec7 8D4304   		leal	4(%ebx), %eax	#, D.2568
 1696              		.loc 1 544 0
 1697 0eca 83C305   		addl	$5, %ebx	#, D.2568
 1698              	.LVL195:
 1699              		.loc 1 543 0
 1700 0ecd 89442408 		movl	%eax, 8(%esp)	# D.2568,
 1701 0ed1 A10C0000 		movl	wa+12, %eax	# wa, wa
 1701      00
 1702 0ed6 890424   		movl	%eax, (%esp)	# wa,
 1703 0ed9 E8FCFFFF 		call	chThdCreateStatic	#
 1703      FF
 1704              	.LVL196:
 1705              		.loc 1 544 0
 1706 0ede 895C2408 		movl	%ebx, 8(%esp)	# D.2568,
 1707 0ee2 C7442410 		movl	$.LC4, 16(%esp)	#,
 1707      08000000 
 1708 0eea C744240C 		movl	$thread10, 12(%esp)	#,
 1708      600D0000 
 1709 0ef2 C7442404 		movl	$17008, 4(%esp)	#,
 1709      70420000 
 1710              		.loc 1 543 0
 1711 0efa A30C0000 		movl	%eax, threads+12	# D.2567, threads
 1711      00
 1712              		.loc 1 544 0
 1713 0eff A1100000 		movl	wa+16, %eax	# wa, wa
 1713      00
 1714 0f04 890424   		movl	%eax, (%esp)	# wa,
 1715 0f07 E8FCFFFF 		call	chThdCreateStatic	#
 1715      FF
 1716              	.LVL197:
 1717              		.loc 1 545 0
 1718 0f0c C7042400 		movl	$c1, (%esp)	#,
 1718      000000
 1719              		.loc 1 544 0
 1720 0f13 A3100000 		movl	%eax, threads+16	# D.2567, threads
 1720      00
 1721              		.loc 1 545 0
 1722 0f18 E8FCFFFF 		call	chCondBroadcast	#
 1722      FF
 1723              	.LVL198:
 1724              		.loc 1 546 0
 1725 0f1d E8FCFFFF 		call	test_wait_threads	#
 1725      FF
 1726              	.LVL199:
 1727              		.loc 1 547 0
 1728 0f22 C7442404 		movl	$.LC5, 4(%esp)	#,
 1728      0A000000 
 1729 0f2a C7042401 		movl	$1, (%esp)	#,
 1729      000000
 1730 0f31 E8FCFFFF 		call	_test_assert_sequence	#
 1730      FF
 1731              	.LVL200:
 1732              		.loc 1 548 0
 1733 0f36 83C428   		addl	$40, %esp	#,
 1734              		.cfi_def_cfa_offset 8
 1735 0f39 5B       		popl	%ebx	#
 1736              		.cfi_restore 3
GAS LISTING /tmp/ccnl8CWE.s 			page 49


 1737              		.cfi_def_cfa_offset 4
 1738              	.LVL201:
 1739 0f3a C3       		ret
 1740              		.cfi_endproc
 1741              	.LFE32:
 1742              		.size	mtx7_execute, .-mtx7_execute
 1743 0f3b 908D7426 		.p2align 4,,15
 1743      00
 1744              		.type	mtx8_execute, @function
 1745              	mtx8_execute:
 1746              	.LFB36:
 1747              		.loc 1 596 0
 1748              		.cfi_startproc
 1749 0f40 53       		pushl	%ebx	#
 1750              		.cfi_def_cfa_offset 8
 1751              		.cfi_offset 3, -8
 1752 0f41 83EC28   		subl	$40, %esp	#,
 1753              		.cfi_def_cfa_offset 48
 1754              		.loc 1 598 0
 1755 0f44 A1180000 		movl	rlist+24, %eax	# rlist.r_current, rlist.r_current
 1755      00
 1756 0f49 8B5808   		movl	8(%eax), %ebx	# _2->p_prio, prio
 1757              	.LVL202:
 1758              		.loc 1 599 0
 1759 0f4c C7442410 		movl	$.LC4, 16(%esp)	#,
 1759      08000000 
 1760 0f54 C744240C 		movl	$thread11, 12(%esp)	#,
 1760      20100000 
 1761 0f5c C7442404 		movl	$17008, 4(%esp)	#,
 1761      70420000 
 1762 0f64 8D4301   		leal	1(%ebx), %eax	#, D.2573
 1763 0f67 89442408 		movl	%eax, 8(%esp)	# D.2573,
 1764 0f6b A1000000 		movl	wa, %eax	# wa, wa
 1764      00
 1765 0f70 890424   		movl	%eax, (%esp)	# wa,
 1766 0f73 E8FCFFFF 		call	chThdCreateStatic	#
 1766      FF
 1767              	.LVL203:
 1768              		.loc 1 600 0
 1769 0f78 C7442410 		movl	$.LC2, 16(%esp)	#,
 1769      04000000 
 1770 0f80 C744240C 		movl	$thread10, 12(%esp)	#,
 1770      600D0000 
 1771 0f88 C7442404 		movl	$17008, 4(%esp)	#,
 1771      70420000 
 1772              		.loc 1 599 0
 1773 0f90 A3000000 		movl	%eax, threads	# D.2572, threads
 1773      00
 1774              		.loc 1 600 0
 1775 0f95 8D4302   		leal	2(%ebx), %eax	#, D.2573
 1776              		.loc 1 601 0
 1777 0f98 83C303   		addl	$3, %ebx	#, D.2573
 1778              	.LVL204:
 1779              		.loc 1 600 0
 1780 0f9b 89442408 		movl	%eax, 8(%esp)	# D.2573,
 1781 0f9f A1040000 		movl	wa+4, %eax	# wa, wa
 1781      00
GAS LISTING /tmp/ccnl8CWE.s 			page 50


 1782 0fa4 890424   		movl	%eax, (%esp)	# wa,
 1783 0fa7 E8FCFFFF 		call	chThdCreateStatic	#
 1783      FF
 1784              	.LVL205:
 1785              		.loc 1 601 0
 1786 0fac 895C2408 		movl	%ebx, 8(%esp)	# D.2573,
 1787 0fb0 C7442410 		movl	$.LC3, 16(%esp)	#,
 1787      06000000 
 1788 0fb8 C744240C 		movl	$thread12, 12(%esp)	#,
 1788      90010000 
 1789 0fc0 C7442404 		movl	$17008, 4(%esp)	#,
 1789      70420000 
 1790              		.loc 1 600 0
 1791 0fc8 A3040000 		movl	%eax, threads+4	# D.2572, threads
 1791      00
 1792              		.loc 1 601 0
 1793 0fcd A1080000 		movl	wa+8, %eax	# wa, wa
 1793      00
 1794 0fd2 890424   		movl	%eax, (%esp)	# wa,
 1795 0fd5 E8FCFFFF 		call	chThdCreateStatic	#
 1795      FF
 1796              	.LVL206:
 1797              		.loc 1 602 0
 1798 0fda C7042400 		movl	$c1, (%esp)	#,
 1798      000000
 1799              		.loc 1 601 0
 1800 0fe1 A3080000 		movl	%eax, threads+8	# D.2572, threads
 1800      00
 1801              		.loc 1 602 0
 1802 0fe6 E8FCFFFF 		call	chCondSignal	#
 1802      FF
 1803              	.LVL207:
 1804              		.loc 1 603 0
 1805 0feb C7042400 		movl	$c1, (%esp)	#,
 1805      000000
 1806 0ff2 E8FCFFFF 		call	chCondSignal	#
 1806      FF
 1807              	.LVL208:
 1808              		.loc 1 604 0
 1809 0ff7 E8FCFFFF 		call	test_wait_threads	#
 1809      FF
 1810              	.LVL209:
 1811              		.loc 1 605 0
 1812 0ffc C7442404 		movl	$.LC6, 4(%esp)	#,
 1812      10000000 
 1813 1004 C7042401 		movl	$1, (%esp)	#,
 1813      000000
 1814 100b E8FCFFFF 		call	_test_assert_sequence	#
 1814      FF
 1815              	.LVL210:
 1816              		.loc 1 606 0
 1817 1010 83C428   		addl	$40, %esp	#,
 1818              		.cfi_def_cfa_offset 8
 1819 1013 5B       		popl	%ebx	#
 1820              		.cfi_restore 3
 1821              		.cfi_def_cfa_offset 4
 1822              	.LVL211:
GAS LISTING /tmp/ccnl8CWE.s 			page 51


 1823 1014 C3       		ret
 1824              		.cfi_endproc
 1825              	.LFE36:
 1826              		.size	mtx8_execute, .-mtx8_execute
 1827 1015 8D742600 		.p2align 4,,15
 1827      8DBC2700 
 1827      000000
 1828              		.type	thread11, @function
 1829              	thread11:
 1830              	.LFB34:
 1831              		.loc 1 573 0
 1832              		.cfi_startproc
 1833              	.LVL212:
 1834 1020 83EC1C   		subl	$28, %esp	#,
 1835              		.cfi_def_cfa_offset 32
 1836              		.loc 1 575 0
 1837 1023 C7042408 		movl	$m2, (%esp)	#,
 1837      000000
 1838 102a E8FCFFFF 		call	chMtxLock	#
 1838      FF
 1839              	.LVL213:
 1840              		.loc 1 576 0
 1841 102f C7042418 		movl	$m1, (%esp)	#,
 1841      000000
 1842 1036 E8FCFFFF 		call	chMtxLock	#
 1842      FF
 1843              	.LVL214:
 1844              		.loc 1 578 0
 1845 103b C7442404 		movl	$-1, 4(%esp)	#,
 1845      FFFFFFFF 
 1846 1043 C7042400 		movl	$c1, (%esp)	#,
 1846      000000
 1847 104a E8FCFFFF 		call	chCondWaitTimeout	#
 1847      FF
 1848              	.LVL215:
 1849              		.loc 1 582 0
 1850 104f 8B442420 		movl	32(%esp), %eax	# p, p
 1851 1053 0FBE00   		movsbl	(%eax), %eax	# MEM[(char *)p_5(D)], MEM[(char *)p_5(D)]
 1852 1056 890424   		movl	%eax, (%esp)	# MEM[(char *)p_5(D)],
 1853 1059 E8FCFFFF 		call	test_emit_token	#
 1853      FF
 1854              	.LVL216:
 1855              		.loc 1 583 0
 1856 105e E8FCFFFF 		call	chMtxUnlock	#
 1856      FF
 1857              	.LVL217:
 1858              		.loc 1 584 0
 1859 1063 E8FCFFFF 		call	chMtxUnlock	#
 1859      FF
 1860              	.LVL218:
 1861              		.loc 1 586 0
 1862 1068 31C0     		xorl	%eax, %eax	#
 1863 106a 83C41C   		addl	$28, %esp	#,
 1864              		.cfi_def_cfa_offset 4
 1865 106d C3       		ret
 1866              		.cfi_endproc
 1867              	.LFE34:
GAS LISTING /tmp/ccnl8CWE.s 			page 52


 1868              		.size	thread11, .-thread11
 1869              		.globl	patternmtx
 1870              		.section	.rodata
 1871              		.align 32
 1872              		.type	patternmtx, @object
 1873              		.size	patternmtx, 36
 1874              	patternmtx:
 1875 0000 00000000 		.long	testmtx1
 1876 0004 00000000 		.long	testmtx2
 1877 0008 00000000 		.long	testmtx3
 1878 000c 00000000 		.long	testmtx4
 1879 0010 00000000 		.long	testmtx5
 1880 0014 00000000 		.long	testmtx6
 1881 0018 00000000 		.long	testmtx7
 1882 001c 00000000 		.long	testmtx8
 1883 0020 00000000 		.long	0
 1884              		.globl	testmtx8
 1885              		.section	.rodata.str1.1
 1886              	.LC7:
 1887 0014 436F6E64 		.string	"CondVar, boost test"
 1887      5661722C 
 1887      20626F6F 
 1887      73742074 
 1887      65737400 
 1888              		.section	.rodata
 1889              		.align 4
 1890              		.type	testmtx8, @object
 1891              		.size	testmtx8, 16
 1892              	testmtx8:
 1893              	# name:
 1894 0024 14000000 		.long	.LC7
 1895              	# setup:
 1896 0028 E00D0000 		.long	mtx8_setup
 1897              	# teardown:
 1898 002c 00000000 		.long	0
 1899              	# execute:
 1900 0030 400F0000 		.long	mtx8_execute
 1901              		.globl	testmtx7
 1902              		.section	.rodata.str1.1
 1903              	.LC8:
 1904 0028 436F6E64 		.string	"CondVar, broadcast test"
 1904      5661722C 
 1904      2062726F 
 1904      61646361 
 1904      73742074 
 1905              		.section	.rodata
 1906              		.align 4
 1907              		.type	testmtx7, @object
 1908              		.size	testmtx7, 16
 1909              	testmtx7:
 1910              	# name:
 1911 0034 28000000 		.long	.LC8
 1912              	# setup:
 1913 0038 C00D0000 		.long	mtx7_setup
 1914              	# teardown:
 1915 003c 00000000 		.long	0
 1916              	# execute:
GAS LISTING /tmp/ccnl8CWE.s 			page 53


 1917 0040 100E0000 		.long	mtx7_execute
 1918              		.globl	testmtx6
 1919              		.section	.rodata.str1.1
 1920              	.LC9:
 1921 0040 436F6E64 		.string	"CondVar, signal test"
 1921      5661722C 
 1921      20736967 
 1921      6E616C20 
 1921      74657374 
 1922              		.section	.rodata
 1923              		.align 4
 1924              		.type	testmtx6, @object
 1925              		.size	testmtx6, 16
 1926              	testmtx6:
 1927              	# name:
 1928 0044 40000000 		.long	.LC9
 1929              	# setup:
 1930 0048 A00D0000 		.long	mtx6_setup
 1931              	# teardown:
 1932 004c 00000000 		.long	0
 1933              	# execute:
 1934 0050 F00B0000 		.long	mtx6_execute
 1935              		.globl	testmtx5
 1936              		.section	.rodata.str1.1
 1937              	.LC10:
 1938 0055 4D757465 		.string	"Mutexes, status"
 1938      7865732C 
 1938      20737461 
 1938      74757300 
 1939              		.section	.rodata
 1940              		.align 4
 1941              		.type	testmtx5, @object
 1942              		.size	testmtx5, 16
 1943              	testmtx5:
 1944              	# name:
 1945 0054 55000000 		.long	.LC10
 1946              	# setup:
 1947 0058 40020000 		.long	mtx5_setup
 1948              	# teardown:
 1949 005c 00000000 		.long	0
 1950              	# execute:
 1951 0060 C00A0000 		.long	mtx5_execute
 1952              		.globl	testmtx4
 1953              		.section	.rodata.str1.1
 1954              	.LC11:
 1955 0065 4D757465 		.string	"Mutexes, priority return"
 1955      7865732C 
 1955      20707269 
 1955      6F726974 
 1955      79207265 
 1956              		.section	.rodata
 1957              		.align 4
 1958              		.type	testmtx4, @object
 1959              		.size	testmtx4, 16
 1960              	testmtx4:
 1961              	# name:
 1962 0064 65000000 		.long	.LC11
GAS LISTING /tmp/ccnl8CWE.s 			page 54


 1963              	# setup:
 1964 0068 20020000 		.long	mtx4_setup
 1965              	# teardown:
 1966 006c 00000000 		.long	0
 1967              	# execute:
 1968 0070 40070000 		.long	mtx4_execute
 1969              		.globl	testmtx3
 1970              		.section	.rodata.str1.4,"aMS",@progbits,1
 1971              		.align 4
 1972              	.LC12:
 1973 0000 4D757465 		.string	"Mutexes, priority inheritance, complex case"
 1973      7865732C 
 1973      20707269 
 1973      6F726974 
 1973      7920696E 
 1974              		.section	.rodata
 1975              		.align 4
 1976              		.type	testmtx3, @object
 1977              		.size	testmtx3, 16
 1978              	testmtx3:
 1979              	# name:
 1980 0074 00000000 		.long	.LC12
 1981              	# setup:
 1982 0078 00020000 		.long	mtx3_setup
 1983              	# teardown:
 1984 007c 00000000 		.long	0
 1985              	# execute:
 1986 0080 60030000 		.long	mtx3_execute
 1987              		.globl	testmtx2
 1988              		.section	.rodata.str1.4
 1989              		.align 4
 1990              	.LC13:
 1991 002c 4D757465 		.string	"Mutexes, priority inheritance, simple case"
 1991      7865732C 
 1991      20707269 
 1991      6F726974 
 1991      7920696E 
 1992              		.section	.rodata
 1993              		.align 4
 1994              		.type	testmtx2, @object
 1995              		.size	testmtx2, 16
 1996              	testmtx2:
 1997              	# name:
 1998 0084 2C000000 		.long	.LC13
 1999              	# setup:
 2000 0088 E0010000 		.long	mtx2_setup
 2001              	# teardown:
 2002 008c 00000000 		.long	0
 2003              	# execute:
 2004 0090 60020000 		.long	mtx2_execute
 2005              		.globl	testmtx1
 2006              		.section	.rodata.str1.4
 2007 0057 00       		.align 4
 2008              	.LC14:
 2009 0058 4D757465 		.string	"Mutexes, priority enqueuing test"
 2009      7865732C 
 2009      20707269 
GAS LISTING /tmp/ccnl8CWE.s 			page 55


 2009      6F726974 
 2009      7920656E 
 2010              		.section	.rodata
 2011              		.align 4
 2012              		.type	testmtx1, @object
 2013              		.size	testmtx1, 16
 2014              	testmtx1:
 2015              	# name:
 2016 0094 58000000 		.long	.LC14
 2017              	# setup:
 2018 0098 C0010000 		.long	mtx1_setup
 2019              	# teardown:
 2020 009c 00000000 		.long	0
 2021              	# execute:
 2022 00a0 00000000 		.long	mtx1_execute
 2023              		.data
 2024              		.align 4
 2025              		.type	c1, @object
 2026              		.size	c1, 8
 2027              	c1:
 2028              	# c_queue:
 2029              	# p_next:
 2030 0000 00000000 		.long	c1
 2031              	# p_prev:
 2032 0004 00000000 		.long	c1
 2033              		.align 4
 2034              		.type	m2, @object
 2035              		.size	m2, 16
 2036              	m2:
 2037              	# m_queue:
 2038              	# p_next:
 2039 0008 08000000 		.long	m2
 2040              	# p_prev:
 2041 000c 08000000 		.long	m2
 2042              	# m_owner:
 2043 0010 00000000 		.long	0
 2044              	# m_next:
 2045 0014 00000000 		.long	0
 2046              		.align 4
 2047              		.type	m1, @object
 2048              		.size	m1, 16
 2049              	m1:
 2050              	# m_queue:
 2051              	# p_next:
 2052 0018 18000000 		.long	m1
 2053              	# p_prev:
 2054 001c 18000000 		.long	m1
 2055              	# m_owner:
 2056 0020 00000000 		.long	0
 2057              	# m_next:
 2058 0024 00000000 		.long	0
 2059              		.text
 2060              	.Letext0:
 2061              		.file 2 "/usr/lib/gcc/x86_64-linux-gnu/4.8/include/stddef.h"
 2062              		.file 3 "/usr/include/stdint.h"
 2063              		.file 4 "../../../os/ports/GCC/SIMIA32/chtypes.h"
 2064              		.file 5 "../../../os/kernel/include/chlists.h"
GAS LISTING /tmp/ccnl8CWE.s 			page 56


 2065              		.file 6 "../../../os/kernel/include/chthreads.h"
 2066              		.file 7 "../../../os/ports/GCC/SIMIA32/chcore.h"
 2067              		.file 8 "../../../os/kernel/include/chvt.h"
 2068              		.file 9 "../../../os/kernel/include/chschd.h"
 2069              		.file 10 "../../../os/kernel/include/chmtx.h"
 2070              		.file 11 "../../../os/kernel/include/chcond.h"
 2071              		.file 12 "../../../test/test.h"
 7040              		.section	.note.GNU-stack,"",@progbits
GAS LISTING /tmp/ccnl8CWE.s 			page 149

