GAS LISTING /tmp/cceTiR48.s 			page 1


   1              		.file	"main.c"
   2              	# GNU C (Ubuntu 4.8.2-19ubuntu1) version 4.8.2 (x86_64-linux-gnu)
   3              	#	compiled by GNU C version 4.8.2, GMP version 5.1.3, MPFR version 3.1.2-p3, MPC version 1.0.1
   4              	# GGC heuristics: --param ggc-min-expand=97 --param ggc-min-heapsize=126309
   5              	# options passed:  -I . -I ../../../os/ports/GCC/SIMIA32
   6              	# -I ../../../os/kernel/include -I ../../../test -I ../../../os/hal/include
   7              	# -I ../../../os/hal/platforms/Posix -I ../../../boards/simulator
   8              	# -I ../../../os/various -imultilib 32 -imultiarch i386-linux-gnu
   9              	# -MD main.d -MF .dep/main.o.d -MP -MQ main.o -D SIMULATOR
  10              	# -D SHELL_USE_IPRINTF=FALSE main.c -m32 -mtune=generic -march=i686
  11              	# -auxbase-strip main.o -ggdb -O2 -Wall -Wextra -Wstrict-prototypes
  12              	# -fomit-frame-pointer -fverbose-asm -fstack-protector -Wformat
  13              	# -Wformat-security
  14              	# options enabled:  -faggressive-loop-optimizations
  15              	# -fasynchronous-unwind-tables -fauto-inc-dec -fbranch-count-reg
  16              	# -fcaller-saves -fcombine-stack-adjustments -fcommon -fcompare-elim
  17              	# -fcprop-registers -fcrossjumping -fcse-follow-jumps -fdefer-pop
  18              	# -fdelete-null-pointer-checks -fdevirtualize -fdwarf2-cfi-asm
  19              	# -fearly-inlining -feliminate-unused-debug-types -fexpensive-optimizations
  20              	# -fforward-propagate -ffunction-cse -fgcse -fgcse-lm -fgnu-runtime
  21              	# -fguess-branch-probability -fhoist-adjacent-loads -fident -fif-conversion
  22              	# -fif-conversion2 -findirect-inlining -finline -finline-atomics
  23              	# -finline-functions-called-once -finline-small-functions -fipa-cp
  24              	# -fipa-profile -fipa-pure-const -fipa-reference -fipa-sra
  25              	# -fira-hoist-pressure -fira-share-save-slots -fira-share-spill-slots
  26              	# -fivopts -fkeep-static-consts -fleading-underscore -fmath-errno
  27              	# -fmerge-constants -fmerge-debug-strings -fmove-loop-invariants
  28              	# -fomit-frame-pointer -foptimize-register-move -foptimize-sibling-calls
  29              	# -foptimize-strlen -fpartial-inlining -fpcc-struct-return -fpeephole
  30              	# -fpeephole2 -fprefetch-loop-arrays -free -fregmove -freorder-blocks
  31              	# -freorder-functions -frerun-cse-after-loop
  32              	# -fsched-critical-path-heuristic -fsched-dep-count-heuristic
  33              	# -fsched-group-heuristic -fsched-interblock -fsched-last-insn-heuristic
  34              	# -fsched-rank-heuristic -fsched-spec -fsched-spec-insn-heuristic
  35              	# -fsched-stalled-insns-dep -fschedule-insns2 -fshow-column -fshrink-wrap
  36              	# -fsigned-zeros -fsplit-ivs-in-unroller -fsplit-wide-types
  37              	# -fstack-protector -fstrict-aliasing -fstrict-overflow
  38              	# -fstrict-volatile-bitfields -fsync-libcalls -fthread-jumps
  39              	# -ftoplevel-reorder -ftrapping-math -ftree-bit-ccp -ftree-builtin-call-dce
  40              	# -ftree-ccp -ftree-ch -ftree-coalesce-vars -ftree-copy-prop
  41              	# -ftree-copyrename -ftree-cselim -ftree-dce -ftree-dominator-opts
  42              	# -ftree-dse -ftree-forwprop -ftree-fre -ftree-loop-if-convert
  43              	# -ftree-loop-im -ftree-loop-ivcanon -ftree-loop-optimize
  44              	# -ftree-parallelize-loops= -ftree-phiprop -ftree-pre -ftree-pta
  45              	# -ftree-reassoc -ftree-scev-cprop -ftree-sink -ftree-slp-vectorize
  46              	# -ftree-slsr -ftree-sra -ftree-switch-conversion -ftree-tail-merge
  47              	# -ftree-ter -ftree-vect-loop-version -ftree-vrp -funit-at-a-time
  48              	# -funwind-tables -fvar-tracking -fvar-tracking-assignments -fverbose-asm
  49              	# -fzero-initialized-in-bss -m32 -m80387 -m96bit-long-double
  50              	# -maccumulate-outgoing-args -malign-stringops -mfancy-math-387
  51              	# -mfp-ret-in-387 -mglibc -mieee-fp -mlong-double-80 -mno-red-zone
  52              	# -mno-sse4 -mpush-args -msahf -mtls-direct-seg-refs
  53              	
  54              		.text
  55              	.Ltext0:
  56              		.section	.rodata.str1.1,"aMS",@progbits,1
  57              	.LC0:
GAS LISTING /tmp/cceTiR48.s 			page 2


  58 0000 6C656434 		.string	"led4 OFF"
  58      204F4646 
  58      00
  59              		.text
  60              		.p2align 4,,15
  61              		.type	led4off, @function
  62              	led4off:
  63              	.LFB39:
  64              		.file 1 "main.c"
  65              		.loc 1 21 0
  66              		.cfi_startproc
  67              	.LVL0:
  68              	.LBB6:
  69              	.LBB7:
  70              		.file 2 "/usr/include/bits/stdio2.h"
  71              		.loc 2 104 0
  72 0000 C7442404 		movl	$.LC0, 4(%esp)	#,
  72      00000000 
  73              	.LVL1:
  74 0008 E9FCFFFF 		jmp	puts	#
  74      FF
  75              	.LVL2:
  76              	.LBE7:
  77              	.LBE6:
  78              		.cfi_endproc
  79              	.LFE39:
  80              		.size	led4off, .-led4off
  81              		.section	.rodata.str1.1
  82              	.LC1:
  83 0009 6C656434 		.string	"led4 ON"
  83      204F4E00 
  84              		.text
  85 000d 8D7600   		.p2align 4,,15
  86              		.type	extcb1, @function
  87              	extcb1:
  88              	.LFB40:
  89              		.loc 1 31 0
  90              		.cfi_startproc
  91              	.LVL3:
  92 0010 83EC1C   		subl	$28, %esp	#,
  93              		.cfi_def_cfa_offset 32
  94              	.LBB8:
  95              	.LBB9:
  96              		.loc 2 104 0
  97 0013 C7042409 		movl	$.LC1, (%esp)	#,
  97      000000
  98 001a E8FCFFFF 		call	puts	#
  98      FF
  99              	.LVL4:
 100              	.LBE9:
 101              	.LBE8:
 102              		.loc 1 41 0
 103 001f A10C0000 		movl	vt4.3770+12, %eax	# vt4.vt_func,
 103      00
 104 0024 85C0     		testl	%eax, %eax	#
 105 0026 740C     		je	.L3	#,
 106              		.loc 1 42 0
GAS LISTING /tmp/cceTiR48.s 			page 3


 107 0028 C7042400 		movl	$vt4.3770, (%esp)	#,
 107      000000
 108 002f E8FCFFFF 		call	chVTResetI	#
 108      FF
 109              	.LVL5:
 110              	.L3:
 111              		.loc 1 44 0
 112 0034 C744240C 		movl	$0, 12(%esp)	#,
 112      00000000 
 113 003c C7442408 		movl	$led4off, 8(%esp)	#,
 113      00000000 
 114 0044 C7442404 		movl	$200, 4(%esp)	#,
 114      C8000000 
 115 004c C7042400 		movl	$vt4.3770, (%esp)	#,
 115      000000
 116 0053 E8FCFFFF 		call	chVTSetI	#
 116      FF
 117              	.LVL6:
 118              		.loc 1 46 0
 119 0058 83C41C   		addl	$28, %esp	#,
 120              		.cfi_def_cfa_offset 4
 121 005b C3       		ret
 122              		.cfi_endproc
 123              	.LFE40:
 124              		.size	extcb1, .-extcb1
 125              		.section	.text.startup,"ax",@progbits
 126              		.p2align 4,,15
 127              		.globl	main
 128              		.type	main, @function
 129              	main:
 130              	.LFB41:
 131              		.loc 1 79 0
 132              		.cfi_startproc
 133 0000 55       		pushl	%ebp	#
 134              		.cfi_def_cfa_offset 8
 135              		.cfi_offset 5, -8
 136 0001 89E5     		movl	%esp, %ebp	#,
 137              		.cfi_def_cfa_register 5
 138 0003 83E4F0   		andl	$-16, %esp	#,
 139 0006 83EC10   		subl	$16, %esp	#,
 140              		.loc 1 88 0
 141 0009 E8FCFFFF 		call	halInit	#
 141      FF
 142              	.LVL7:
 143              		.loc 1 89 0
 144 000e E8FCFFFF 		call	chSysInit	#
 144      FF
 145              	.LVL8:
 146              		.loc 1 94 0
 147 0013 C7442404 		movl	$extcfg, 4(%esp)	#,
 147      00000000 
 148 001b C7042400 		movl	$EXTD1, (%esp)	#,
 148      000000
 149 0022 E8FCFFFF 		call	extStart	#
 149      FF
 150              	.LVL9:
 151              		.p2align 4,,7
GAS LISTING /tmp/cceTiR48.s 			page 4


 152 0027 90       		.p2align 3
 153              	.L7:
 154              		.loc 1 101 0 discriminator 1
 155 0028 C7042488 		movl	$5000, (%esp)	#,
 155      130000
 156 002f E8FCFFFF 		call	chThdSleep	#
 156      FF
 157              	.LVL10:
 158              		.loc 1 102 0 discriminator 1
 159 0034 C7442404 		movl	$0, 4(%esp)	#,
 159      00000000 
 160 003c C7042400 		movl	$EXTD1, (%esp)	#,
 160      000000
 161 0043 E8FCFFFF 		call	extChannelDisable	#
 161      FF
 162              	.LVL11:
 163              		.loc 1 103 0 discriminator 1
 164 0048 C7042488 		movl	$5000, (%esp)	#,
 164      130000
 165 004f E8FCFFFF 		call	chThdSleep	#
 165      FF
 166              	.LVL12:
 167              		.loc 1 104 0 discriminator 1
 168 0054 C7442404 		movl	$0, 4(%esp)	#,
 168      00000000 
 169 005c C7042400 		movl	$EXTD1, (%esp)	#,
 169      000000
 170 0063 E8FCFFFF 		call	extChannelEnable	#
 170      FF
 171              	.LVL13:
 172 0068 EBBE     		jmp	.L7	#
 173              		.cfi_endproc
 174              	.LFE41:
 175              		.size	main, .-main
 176              		.local	vt4.3770
 177              		.comm	vt4.3770,20,4
 178              		.section	.rodata
 179              		.align 32
 180              		.type	extcfg, @object
 181              		.size	extcfg, 160
 182              	extcfg:
 183              	# channels:
 184              	# mode:
 185 0000 07000000 		.long	7
 186              	# cb:
 187 0004 10000000 		.long	extcb1
 188              	# mode:
 189 0008 00000000 		.long	0
 190              	# cb:
 191 000c 00000000 		.long	0
 192              	# mode:
 193 0010 00000000 		.long	0
 194              	# cb:
 195 0014 00000000 		.long	0
 196              	# mode:
 197 0018 00000000 		.long	0
 198              	# cb:
GAS LISTING /tmp/cceTiR48.s 			page 5


 199 001c 00000000 		.long	0
 200              	# mode:
 201 0020 00000000 		.long	0
 202              	# cb:
 203 0024 00000000 		.long	0
 204              	# mode:
 205 0028 00000000 		.long	0
 206              	# cb:
 207 002c 00000000 		.long	0
 208              	# mode:
 209 0030 00000000 		.long	0
 210              	# cb:
 211 0034 00000000 		.long	0
 212              	# mode:
 213 0038 00000000 		.long	0
 214              	# cb:
 215 003c 00000000 		.long	0
 216              	# mode:
 217 0040 00000000 		.long	0
 218              	# cb:
 219 0044 00000000 		.long	0
 220              	# mode:
 221 0048 00000000 		.long	0
 222              	# cb:
 223 004c 00000000 		.long	0
 224              	# mode:
 225 0050 00000000 		.long	0
 226              	# cb:
 227 0054 00000000 		.long	0
 228              	# mode:
 229 0058 00000000 		.long	0
 230              	# cb:
 231 005c 00000000 		.long	0
 232              	# mode:
 233 0060 00000000 		.long	0
 234              	# cb:
 235 0064 00000000 		.long	0
 236              	# mode:
 237 0068 00000000 		.long	0
 238              	# cb:
 239 006c 00000000 		.long	0
 240              	# mode:
 241 0070 00000000 		.long	0
 242              	# cb:
 243 0074 00000000 		.long	0
 244              	# mode:
 245 0078 00000000 		.long	0
 246              	# cb:
 247 007c 00000000 		.long	0
 248              	# mode:
 249 0080 00000000 		.long	0
 250              	# cb:
 251 0084 00000000 		.long	0
 252              	# mode:
 253 0088 00000000 		.long	0
 254              	# cb:
 255 008c 00000000 		.long	0
GAS LISTING /tmp/cceTiR48.s 			page 6


 256              	# mode:
 257 0090 00000000 		.long	0
 258              	# cb:
 259 0094 00000000 		.long	0
 260              	# mode:
 261 0098 00000000 		.long	0
 262              	# cb:
 263 009c 00000000 		.long	0
 264              		.text
 265              	.Letext0:
 266              		.file 3 "/usr/lib/gcc/x86_64-linux-gnu/4.8/include/stddef.h"
 267              		.file 4 "/usr/include/bits/types.h"
 268              		.file 5 "/usr/include/libio.h"
 269              		.file 6 "/usr/include/stdint.h"
 270              		.file 7 "../../../os/ports/GCC/SIMIA32/chtypes.h"
 271              		.file 8 "../../../os/kernel/include/chvt.h"
 272              		.file 9 "../../../os/hal/include/ext.h"
 273              		.file 10 "../../../os/hal/platforms/Posix/ext_lld.h"
 274              		.file 11 "/usr/include/stdio.h"
 275              		.file 12 "<built-in>"
 276              		.file 13 "../../../os/hal/include/hal.h"
 277              		.file 14 "../../../os/kernel/include/chsys.h"
 278              		.file 15 "../../../os/kernel/include/chthreads.h"
 1919              		.section	.note.GNU-stack,"",@progbits
GAS LISTING /tmp/cceTiR48.s 			page 39

