GAS LISTING /tmp/ccTVMtAn.s 			page 1


   1              		.file	"hal_lld.c"
   2              	# GNU C (Ubuntu 4.8.2-19ubuntu1) version 4.8.2 (x86_64-linux-gnu)
   3              	#	compiled by GNU C version 4.8.2, GMP version 5.1.3, MPFR version 3.1.2-p3, MPC version 1.0.1
   4              	# GGC heuristics: --param ggc-min-expand=97 --param ggc-min-heapsize=126309
   5              	# options passed:  -I . -I ../../../os/ports/GCC/SIMIA32
   6              	# -I ../../../os/kernel/include -I ../../../test -I ../../../os/hal/include
   7              	# -I ../../../os/hal/platforms/Posix -I ../../../boards/simulator
   8              	# -I ../../../os/various -imultilib 32 -imultiarch i386-linux-gnu
   9              	# -MD ../../../os/hal/platforms/Posix/hal_lld.d -MF .dep/hal_lld.o.d -MP
  10              	# -MQ ../../../os/hal/platforms/Posix/hal_lld.o -D SIMULATOR
  11              	# -D SHELL_USE_IPRINTF=FALSE ../../../os/hal/platforms/Posix/hal_lld.c -m32
  12              	# -mtune=generic -march=i686
  13              	# -auxbase-strip ../../../os/hal/platforms/Posix/hal_lld.o -ggdb -O2 -Wall
  14              	# -Wextra -Wstrict-prototypes -fomit-frame-pointer -fverbose-asm
  15              	# -fstack-protector -Wformat -Wformat-security
  16              	# options enabled:  -faggressive-loop-optimizations
  17              	# -fasynchronous-unwind-tables -fauto-inc-dec -fbranch-count-reg
  18              	# -fcaller-saves -fcombine-stack-adjustments -fcommon -fcompare-elim
  19              	# -fcprop-registers -fcrossjumping -fcse-follow-jumps -fdefer-pop
  20              	# -fdelete-null-pointer-checks -fdevirtualize -fdwarf2-cfi-asm
  21              	# -fearly-inlining -feliminate-unused-debug-types -fexpensive-optimizations
  22              	# -fforward-propagate -ffunction-cse -fgcse -fgcse-lm -fgnu-runtime
  23              	# -fguess-branch-probability -fhoist-adjacent-loads -fident -fif-conversion
  24              	# -fif-conversion2 -findirect-inlining -finline -finline-atomics
  25              	# -finline-functions-called-once -finline-small-functions -fipa-cp
  26              	# -fipa-profile -fipa-pure-const -fipa-reference -fipa-sra
  27              	# -fira-hoist-pressure -fira-share-save-slots -fira-share-spill-slots
  28              	# -fivopts -fkeep-static-consts -fleading-underscore -fmath-errno
  29              	# -fmerge-constants -fmerge-debug-strings -fmove-loop-invariants
  30              	# -fomit-frame-pointer -foptimize-register-move -foptimize-sibling-calls
  31              	# -foptimize-strlen -fpartial-inlining -fpcc-struct-return -fpeephole
  32              	# -fpeephole2 -fprefetch-loop-arrays -free -fregmove -freorder-blocks
  33              	# -freorder-functions -frerun-cse-after-loop
  34              	# -fsched-critical-path-heuristic -fsched-dep-count-heuristic
  35              	# -fsched-group-heuristic -fsched-interblock -fsched-last-insn-heuristic
  36              	# -fsched-rank-heuristic -fsched-spec -fsched-spec-insn-heuristic
  37              	# -fsched-stalled-insns-dep -fschedule-insns2 -fshow-column -fshrink-wrap
  38              	# -fsigned-zeros -fsplit-ivs-in-unroller -fsplit-wide-types
  39              	# -fstack-protector -fstrict-aliasing -fstrict-overflow
  40              	# -fstrict-volatile-bitfields -fsync-libcalls -fthread-jumps
  41              	# -ftoplevel-reorder -ftrapping-math -ftree-bit-ccp -ftree-builtin-call-dce
  42              	# -ftree-ccp -ftree-ch -ftree-coalesce-vars -ftree-copy-prop
  43              	# -ftree-copyrename -ftree-cselim -ftree-dce -ftree-dominator-opts
  44              	# -ftree-dse -ftree-forwprop -ftree-fre -ftree-loop-if-convert
  45              	# -ftree-loop-im -ftree-loop-ivcanon -ftree-loop-optimize
  46              	# -ftree-parallelize-loops= -ftree-phiprop -ftree-pre -ftree-pta
  47              	# -ftree-reassoc -ftree-scev-cprop -ftree-sink -ftree-slp-vectorize
  48              	# -ftree-slsr -ftree-sra -ftree-switch-conversion -ftree-tail-merge
  49              	# -ftree-ter -ftree-vect-loop-version -ftree-vrp -funit-at-a-time
  50              	# -funwind-tables -fvar-tracking -fvar-tracking-assignments -fverbose-asm
  51              	# -fzero-initialized-in-bss -m32 -m80387 -m96bit-long-double
  52              	# -maccumulate-outgoing-args -malign-stringops -mfancy-math-387
  53              	# -mfp-ret-in-387 -mglibc -mieee-fp -mlong-double-80 -mno-red-zone
  54              	# -mno-sse4 -mpush-args -msahf -mtls-direct-seg-refs
  55              	
  56              		.text
  57              	.Ltext0:
GAS LISTING /tmp/ccTVMtAn.s 			page 2


  58              		.section	.rodata.str1.1,"aMS",@progbits,1
  59              	.LC0:
  60 0000 43686962 		.string	"ChibiOS/RT simulator (Linux)\n"
  60      694F532F 
  60      52542073 
  60      696D756C 
  60      61746F72 
  61              		.text
  62              		.p2align 4,,15
  63              		.globl	hal_lld_init
  64              		.type	hal_lld_init, @function
  65              	hal_lld_init:
  66              	.LFB49:
  67              		.file 1 "../../../os/hal/platforms/Posix/hal_lld.c"
  68              		.loc 1 58 0
  69              		.cfi_startproc
  70 0000 83EC1C   		subl	$28, %esp	#,
  71              		.cfi_def_cfa_offset 32
  72              		.loc 1 63 0
  73 0003 C7042400 		movl	$.LC0, (%esp)	#,
  73      000000
  74 000a E8FCFFFF 		call	puts	#
  74      FF
  75              	.LVL0:
  76              		.loc 1 65 0
  77 000f C7442404 		movl	$0, 4(%esp)	#,
  77      00000000 
  78 0017 C7042400 		movl	$nextcnt, (%esp)	#,
  78      000000
  79 001e E8FCFFFF 		call	gettimeofday	#
  79      FF
  80              	.LVL1:
  81              		.loc 1 66 0
  82 0023 8B150400 		movl	nextcnt+4, %edx	# nextcnt.tv_usec, D.4316
  82      0000
  83 0029 8B0D0000 		movl	nextcnt, %ecx	# nextcnt.tv_sec, D.4316
  83      0000
  84 002f 8D82E803 		leal	1000(%edx), %eax	#, D.4316
  84      0000
  85 0035 3D3F420F 		cmpl	$999999, %eax	#, D.4316
  85      00
  86 003a A3040000 		movl	%eax, nextcnt+4	# D.4316, nextcnt.tv_usec
  86      00
  87 003f 7E15     		jle	.L1	#,
  88              		.loc 1 66 0 is_stmt 0 discriminator 1
  89 0041 83C101   		addl	$1, %ecx	#, tmp68
  90 0044 81EA583E 		subl	$999000, %edx	#, tmp70
  90      0F00
  91 004a 890D0000 		movl	%ecx, nextcnt	# tmp68, nextcnt.tv_sec
  91      0000
  92 0050 89150400 		movl	%edx, nextcnt+4	# tmp70, nextcnt.tv_usec
  92      0000
  93              	.L1:
  94              		.loc 1 67 0 is_stmt 1
  95 0056 83C41C   		addl	$28, %esp	#,
  96              		.cfi_def_cfa_offset 4
  97 0059 C3       		ret
GAS LISTING /tmp/ccTVMtAn.s 			page 3


  98              		.cfi_endproc
  99              	.LFE49:
 100              		.size	hal_lld_init, .-hal_lld_init
 101 005a 8DB60000 		.p2align 4,,15
 101      0000
 102              		.globl	ChkIntSources
 103              		.type	ChkIntSources, @function
 104              	ChkIntSources:
 105              	.LFB50:
 106              		.loc 1 72 0
 107              		.cfi_startproc
 108 0060 83EC2C   		subl	$44, %esp	#,
 109              		.cfi_def_cfa_offset 48
 110              		.loc 1 76 0
 111 0063 E8FCFFFF 		call	sd_lld_interrupt_pending	#
 111      FF
 112              	.LVL2:
 113 0068 84C0     		testb	%al, %al	# D.4320
 114 006a 755D     		jne	.L24	#,
 115              		.loc 1 85 0
 116 006c 8D442418 		leal	24(%esp), %eax	#, tmp71
 117 0070 C7442404 		movl	$0, 4(%esp)	#,
 117      00000000 
 118 0078 890424   		movl	%eax, (%esp)	# tmp71,
 119 007b E8FCFFFF 		call	gettimeofday	#
 119      FF
 120              	.LVL3:
 121              		.loc 1 86 0
 122 0080 8B542418 		movl	24(%esp), %edx	# tv.tv_sec, D.4321
 123 0084 A1000000 		movl	nextcnt, %eax	# nextcnt.tv_sec, D.4321
 123      00
 124 0089 39C2     		cmpl	%eax, %edx	# D.4321, D.4321
 125 008b 0F9DC1   		setge	%cl	#, iftmp.0
 126 008e 39C2     		cmpl	%eax, %edx	# D.4321, D.4321
 127 0090 7456     		je	.L25	#,
 128              		.loc 1 86 0 is_stmt 0 discriminator 3
 129 0092 84C9     		testb	%cl, %cl	# iftmp.0
 130 0094 743C     		je	.L5	#,
 131              	.L27:
 132              		.loc 1 87 0 is_stmt 1
 133 0096 8B0D0400 		movl	nextcnt+4, %ecx	# nextcnt.tv_usec, D.4321
 133      0000
 134 009c 8D91E803 		leal	1000(%ecx), %edx	#, D.4321
 134      0000
 135 00a2 81FA3F42 		cmpl	$999999, %edx	#, D.4321
 135      0F00
 136 00a8 89150400 		movl	%edx, nextcnt+4	# D.4321, nextcnt.tv_usec
 136      0000
 137 00ae 7E14     		jle	.L12	#,
 138              		.loc 1 87 0 is_stmt 0 discriminator 1
 139 00b0 83C001   		addl	$1, %eax	#, tmp80
 140 00b3 81E9583E 		subl	$999000, %ecx	#, tmp82
 140      0F00
 141 00b9 A3000000 		movl	%eax, nextcnt	# tmp80, nextcnt.tv_sec
 141      00
 142 00be 890D0400 		movl	%ecx, nextcnt+4	# tmp82, nextcnt.tv_usec
 142      0000
GAS LISTING /tmp/ccTVMtAn.s 			page 4


 143              	.L12:
 144              		.loc 1 92 0 is_stmt 1
 145 00c4 E8FCFFFF 		call	chSysTimerHandlerI	#
 145      FF
 146              	.LVL4:
 147              	.L24:
 148              		.loc 1 98 0
 149 00c9 E8FCFFFF 		call	chSchIsPreemptionRequired	#
 149      FF
 150              	.LVL5:
 151 00ce 84C0     		testb	%al, %al	# D.4320
 152 00d0 7506     		jne	.L26	#,
 153              	.L5:
 154              		.loc 1 102 0
 155 00d2 83C42C   		addl	$44, %esp	#,
 156              		.cfi_remember_state
 157              		.cfi_def_cfa_offset 4
 158              		.p2align 4,,3
 159 00d5 C3       		ret
 160              		.p2align 4,,7
 161 00d6 6690     		.p2align 3
 162              	.L26:
 163              		.cfi_restore_state
 164              		.loc 1 99 0
 165              		.p2align 4,,7
 166 00d8 E8FCFFFF 		call	chSchDoReschedule	#
 166      FF
 167              	.LVL6:
 168              		.loc 1 102 0
 169 00dd 83C42C   		addl	$44, %esp	#,
 170              		.cfi_remember_state
 171              		.cfi_def_cfa_offset 4
 172              		.p2align 4,,3
 173 00e0 C3       		ret
 174              		.p2align 4,,7
 175 00e1 8DB42600 		.p2align 3
 175      000000
 176              	.L25:
 177              		.cfi_restore_state
 178              		.loc 1 86 0 discriminator 1
 179 00e8 8B0D0400 		movl	nextcnt+4, %ecx	# nextcnt.tv_usec, tmp83
 179      0000
 180 00ee 394C241C 		cmpl	%ecx, 28(%esp)	# tmp83, tv.tv_usec
 181 00f2 0F9DC1   		setge	%cl	#, iftmp.0
 182 00f5 84C9     		testb	%cl, %cl	# iftmp.0
 183 00f7 759D     		jne	.L27	#,
 184 00f9 EBD7     		jmp	.L5	#
 185              		.cfi_endproc
 186              	.LFE50:
 187              		.size	ChkIntSources, .-ChkIntSources
 188              		.local	nextcnt
 189              		.comm	nextcnt,8,4
 190              	.Letext0:
 191              		.file 2 "/usr/lib/gcc/x86_64-linux-gnu/4.8/include/stddef.h"
 192              		.file 3 "/usr/include/bits/types.h"
 193              		.file 4 "/usr/include/libio.h"
 194              		.file 5 "/usr/include/bits/time.h"
GAS LISTING /tmp/ccTVMtAn.s 			page 5


 195              		.file 6 "/usr/include/sys/time.h"
 196              		.file 7 "../../../os/ports/GCC/SIMIA32/chtypes.h"
 197              		.file 8 "/usr/include/stdio.h"
 198              		.file 9 "../../../os/hal/platforms/Posix/serial_lld.h"
 199              		.file 10 "../../../os/kernel/include/chschd.h"
 200              		.file 11 "../../../os/kernel/include/chsys.h"
 201              		.section	.debug_info,"",@progbits
 202              	.Ldebug_info0:
 203 0000 52040000 		.long	0x452
 204 0004 0400     		.value	0x4
 205 0006 00000000 		.long	.Ldebug_abbrev0
 206 000a 04       		.byte	0x4
 207 000b 01       		.uleb128 0x1
 208 000c E1010000 		.long	.LASF70
 209 0010 01       		.byte	0x1
 210 0011 A2000000 		.long	.LASF71
 211 0015 5C030000 		.long	.LASF72
 212 0019 00000000 		.long	.Ltext0
 213 001d FB000000 		.long	.Letext0-.Ltext0
 214 0021 00000000 		.long	.Ldebug_line0
 215 0025 02       		.uleb128 0x2
 216 0026 49000000 		.long	.LASF8
 217 002a 02       		.byte	0x2
 218 002b D4       		.byte	0xd4
 219 002c 30000000 		.long	0x30
 220 0030 03       		.uleb128 0x3
 221 0031 04       		.byte	0x4
 222 0032 07       		.byte	0x7
 223 0033 7F010000 		.long	.LASF0
 224 0037 03       		.uleb128 0x3
 225 0038 01       		.byte	0x1
 226 0039 08       		.byte	0x8
 227 003a 32010000 		.long	.LASF1
 228 003e 03       		.uleb128 0x3
 229 003f 02       		.byte	0x2
 230 0040 07       		.byte	0x7
 231 0041 A8020000 		.long	.LASF2
 232 0045 03       		.uleb128 0x3
 233 0046 04       		.byte	0x4
 234 0047 07       		.byte	0x7
 235 0048 BB020000 		.long	.LASF3
 236 004c 03       		.uleb128 0x3
 237 004d 01       		.byte	0x1
 238 004e 06       		.byte	0x6
 239 004f 5C010000 		.long	.LASF4
 240 0053 03       		.uleb128 0x3
 241 0054 02       		.byte	0x2
 242 0055 05       		.byte	0x5
 243 0056 3F000000 		.long	.LASF5
 244 005a 04       		.uleb128 0x4
 245 005b 04       		.byte	0x4
 246 005c 05       		.byte	0x5
 247 005d 696E7400 		.string	"int"
 248 0061 03       		.uleb128 0x3
 249 0062 08       		.byte	0x8
 250 0063 05       		.byte	0x5
 251 0064 CC000000 		.long	.LASF6
GAS LISTING /tmp/ccTVMtAn.s 			page 6


 252 0068 03       		.uleb128 0x3
 253 0069 08       		.byte	0x8
 254 006a 07       		.byte	0x7
 255 006b 68010000 		.long	.LASF7
 256 006f 02       		.uleb128 0x2
 257 0070 00000000 		.long	.LASF9
 258 0074 03       		.byte	0x3
 259 0075 37       		.byte	0x37
 260 0076 61000000 		.long	0x61
 261 007a 02       		.uleb128 0x2
 262 007b F1020000 		.long	.LASF10
 263 007f 03       		.byte	0x3
 264 0080 83       		.byte	0x83
 265 0081 85000000 		.long	0x85
 266 0085 03       		.uleb128 0x3
 267 0086 04       		.byte	0x4
 268 0087 05       		.byte	0x5
 269 0088 FA000000 		.long	.LASF11
 270 008c 02       		.uleb128 0x2
 271 008d A1010000 		.long	.LASF12
 272 0091 03       		.byte	0x3
 273 0092 84       		.byte	0x84
 274 0093 6F000000 		.long	0x6f
 275 0097 03       		.uleb128 0x3
 276 0098 04       		.byte	0x4
 277 0099 07       		.byte	0x7
 278 009a 50000000 		.long	.LASF13
 279 009e 02       		.uleb128 0x2
 280 009f E8020000 		.long	.LASF14
 281 00a3 03       		.byte	0x3
 282 00a4 8B       		.byte	0x8b
 283 00a5 85000000 		.long	0x85
 284 00a9 02       		.uleb128 0x2
 285 00aa 9A030000 		.long	.LASF15
 286 00ae 03       		.byte	0x3
 287 00af 8D       		.byte	0x8d
 288 00b0 85000000 		.long	0x85
 289 00b4 05       		.uleb128 0x5
 290 00b5 04       		.byte	0x4
 291 00b6 06       		.uleb128 0x6
 292 00b7 04       		.byte	0x4
 293 00b8 BC000000 		.long	0xbc
 294 00bc 03       		.uleb128 0x3
 295 00bd 01       		.byte	0x1
 296 00be 06       		.byte	0x6
 297 00bf 3E020000 		.long	.LASF16
 298 00c3 07       		.uleb128 0x7
 299 00c4 15000000 		.long	.LASF46
 300 00c8 94       		.byte	0x94
 301 00c9 04       		.byte	0x4
 302 00ca F5       		.byte	0xf5
 303 00cb 43020000 		.long	0x243
 304 00cf 08       		.uleb128 0x8
 305 00d0 6F000000 		.long	.LASF17
 306 00d4 04       		.byte	0x4
 307 00d5 F6       		.byte	0xf6
 308 00d6 5A000000 		.long	0x5a
GAS LISTING /tmp/ccTVMtAn.s 			page 7


 309 00da 00       		.byte	0
 310 00db 08       		.uleb128 0x8
 311 00dc C8010000 		.long	.LASF18
 312 00e0 04       		.byte	0x4
 313 00e1 FB       		.byte	0xfb
 314 00e2 B6000000 		.long	0xb6
 315 00e6 04       		.byte	0x4
 316 00e7 08       		.uleb128 0x8
 317 00e8 8C000000 		.long	.LASF19
 318 00ec 04       		.byte	0x4
 319 00ed FC       		.byte	0xfc
 320 00ee B6000000 		.long	0xb6
 321 00f2 08       		.byte	0x8
 322 00f3 08       		.uleb128 0x8
 323 00f4 3F030000 		.long	.LASF20
 324 00f8 04       		.byte	0x4
 325 00f9 FD       		.byte	0xfd
 326 00fa B6000000 		.long	0xb6
 327 00fe 0C       		.byte	0xc
 328 00ff 08       		.uleb128 0x8
 329 0100 B0010000 		.long	.LASF21
 330 0104 04       		.byte	0x4
 331 0105 FE       		.byte	0xfe
 332 0106 B6000000 		.long	0xb6
 333 010a 10       		.byte	0x10
 334 010b 08       		.uleb128 0x8
 335 010c 61000000 		.long	.LASF22
 336 0110 04       		.byte	0x4
 337 0111 FF       		.byte	0xff
 338 0112 B6000000 		.long	0xb6
 339 0116 14       		.byte	0x14
 340 0117 09       		.uleb128 0x9
 341 0118 DA020000 		.long	.LASF23
 342 011c 04       		.byte	0x4
 343 011d 0001     		.value	0x100
 344 011f B6000000 		.long	0xb6
 345 0123 18       		.byte	0x18
 346 0124 09       		.uleb128 0x9
 347 0125 76000000 		.long	.LASF24
 348 0129 04       		.byte	0x4
 349 012a 0101     		.value	0x101
 350 012c B6000000 		.long	0xb6
 351 0130 1C       		.byte	0x1c
 352 0131 09       		.uleb128 0x9
 353 0132 D5010000 		.long	.LASF25
 354 0136 04       		.byte	0x4
 355 0137 0201     		.value	0x102
 356 0139 B6000000 		.long	0xb6
 357 013d 20       		.byte	0x20
 358 013e 09       		.uleb128 0x9
 359 013f 84030000 		.long	.LASF26
 360 0143 04       		.byte	0x4
 361 0144 0401     		.value	0x104
 362 0146 B6000000 		.long	0xb6
 363 014a 24       		.byte	0x24
 364 014b 09       		.uleb128 0x9
 365 014c 08030000 		.long	.LASF27
GAS LISTING /tmp/ccTVMtAn.s 			page 8


 366 0150 04       		.byte	0x4
 367 0151 0501     		.value	0x105
 368 0153 B6000000 		.long	0xb6
 369 0157 28       		.byte	0x28
 370 0158 09       		.uleb128 0x9
 371 0159 CD020000 		.long	.LASF28
 372 015d 04       		.byte	0x4
 373 015e 0601     		.value	0x106
 374 0160 B6000000 		.long	0xb6
 375 0164 2C       		.byte	0x2c
 376 0165 09       		.uleb128 0x9
 377 0166 83000000 		.long	.LASF29
 378 016a 04       		.byte	0x4
 379 016b 0801     		.value	0x108
 380 016d 7B020000 		.long	0x27b
 381 0171 30       		.byte	0x30
 382 0172 09       		.uleb128 0x9
 383 0173 F9020000 		.long	.LASF30
 384 0177 04       		.byte	0x4
 385 0178 0A01     		.value	0x10a
 386 017a 81020000 		.long	0x281
 387 017e 34       		.byte	0x34
 388 017f 09       		.uleb128 0x9
 389 0180 92030000 		.long	.LASF31
 390 0184 04       		.byte	0x4
 391 0185 0C01     		.value	0x10c
 392 0187 5A000000 		.long	0x5a
 393 018b 38       		.byte	0x38
 394 018c 09       		.uleb128 0x9
 395 018d 31030000 		.long	.LASF32
 396 0191 04       		.byte	0x4
 397 0192 1001     		.value	0x110
 398 0194 5A000000 		.long	0x5a
 399 0198 3C       		.byte	0x3c
 400 0199 09       		.uleb128 0x9
 401 019a 09000000 		.long	.LASF33
 402 019e 04       		.byte	0x4
 403 019f 1201     		.value	0x112
 404 01a1 7A000000 		.long	0x7a
 405 01a5 40       		.byte	0x40
 406 01a6 09       		.uleb128 0x9
 407 01a7 03010000 		.long	.LASF34
 408 01ab 04       		.byte	0x4
 409 01ac 1601     		.value	0x116
 410 01ae 3E000000 		.long	0x3e
 411 01b2 44       		.byte	0x44
 412 01b3 09       		.uleb128 0x9
 413 01b4 4D030000 		.long	.LASF35
 414 01b8 04       		.byte	0x4
 415 01b9 1701     		.value	0x117
 416 01bb 4C000000 		.long	0x4c
 417 01bf 46       		.byte	0x46
 418 01c0 09       		.uleb128 0x9
 419 01c1 97010000 		.long	.LASF36
 420 01c5 04       		.byte	0x4
 421 01c6 1801     		.value	0x118
 422 01c8 87020000 		.long	0x287
GAS LISTING /tmp/ccTVMtAn.s 			page 9


 423 01cc 47       		.byte	0x47
 424 01cd 09       		.uleb128 0x9
 425 01ce DA000000 		.long	.LASF37
 426 01d2 04       		.byte	0x4
 427 01d3 1C01     		.value	0x11c
 428 01d5 97020000 		.long	0x297
 429 01d9 48       		.byte	0x48
 430 01da 09       		.uleb128 0x9
 431 01db 59000000 		.long	.LASF38
 432 01df 04       		.byte	0x4
 433 01e0 2501     		.value	0x125
 434 01e2 8C000000 		.long	0x8c
 435 01e6 4C       		.byte	0x4c
 436 01e7 09       		.uleb128 0x9
 437 01e8 6F020000 		.long	.LASF39
 438 01ec 04       		.byte	0x4
 439 01ed 2E01     		.value	0x12e
 440 01ef B4000000 		.long	0xb4
 441 01f3 54       		.byte	0x54
 442 01f4 09       		.uleb128 0x9
 443 01f5 76020000 		.long	.LASF40
 444 01f9 04       		.byte	0x4
 445 01fa 2F01     		.value	0x12f
 446 01fc B4000000 		.long	0xb4
 447 0200 58       		.byte	0x58
 448 0201 09       		.uleb128 0x9
 449 0202 7D020000 		.long	.LASF41
 450 0206 04       		.byte	0x4
 451 0207 3001     		.value	0x130
 452 0209 B4000000 		.long	0xb4
 453 020d 5C       		.byte	0x5c
 454 020e 09       		.uleb128 0x9
 455 020f 40010000 		.long	.LASF42
 456 0213 04       		.byte	0x4
 457 0214 3101     		.value	0x131
 458 0216 B4000000 		.long	0xb4
 459 021a 60       		.byte	0x60
 460 021b 09       		.uleb128 0x9
 461 021c 93020000 		.long	.LASF43
 462 0220 04       		.byte	0x4
 463 0221 3201     		.value	0x132
 464 0223 25000000 		.long	0x25
 465 0227 64       		.byte	0x64
 466 0228 09       		.uleb128 0x9
 467 0229 39030000 		.long	.LASF44
 468 022d 04       		.byte	0x4
 469 022e 3401     		.value	0x134
 470 0230 5A000000 		.long	0x5a
 471 0234 68       		.byte	0x68
 472 0235 09       		.uleb128 0x9
 473 0236 BF010000 		.long	.LASF45
 474 023a 04       		.byte	0x4
 475 023b 3601     		.value	0x136
 476 023d 9D020000 		.long	0x29d
 477 0241 6C       		.byte	0x6c
 478 0242 00       		.byte	0
 479 0243 0A       		.uleb128 0xa
GAS LISTING /tmp/ccTVMtAn.s 			page 10


 480 0244 B4030000 		.long	.LASF73
 481 0248 04       		.byte	0x4
 482 0249 9A       		.byte	0x9a
 483 024a 07       		.uleb128 0x7
 484 024b 8C010000 		.long	.LASF47
 485 024f 0C       		.byte	0xc
 486 0250 04       		.byte	0x4
 487 0251 A0       		.byte	0xa0
 488 0252 7B020000 		.long	0x27b
 489 0256 08       		.uleb128 0x8
 490 0257 69020000 		.long	.LASF48
 491 025b 04       		.byte	0x4
 492 025c A1       		.byte	0xa1
 493 025d 7B020000 		.long	0x27b
 494 0261 00       		.byte	0
 495 0262 08       		.uleb128 0x8
 496 0263 1F010000 		.long	.LASF49
 497 0267 04       		.byte	0x4
 498 0268 A2       		.byte	0xa2
 499 0269 81020000 		.long	0x281
 500 026d 04       		.byte	0x4
 501 026e 08       		.uleb128 0x8
 502 026f 1A010000 		.long	.LASF50
 503 0273 04       		.byte	0x4
 504 0274 A6       		.byte	0xa6
 505 0275 5A000000 		.long	0x5a
 506 0279 08       		.byte	0x8
 507 027a 00       		.byte	0
 508 027b 06       		.uleb128 0x6
 509 027c 04       		.byte	0x4
 510 027d 4A020000 		.long	0x24a
 511 0281 06       		.uleb128 0x6
 512 0282 04       		.byte	0x4
 513 0283 C3000000 		.long	0xc3
 514 0287 0B       		.uleb128 0xb
 515 0288 BC000000 		.long	0xbc
 516 028c 97020000 		.long	0x297
 517 0290 0C       		.uleb128 0xc
 518 0291 97000000 		.long	0x97
 519 0295 00       		.byte	0
 520 0296 00       		.byte	0
 521 0297 06       		.uleb128 0x6
 522 0298 04       		.byte	0x4
 523 0299 43020000 		.long	0x243
 524 029d 0B       		.uleb128 0xb
 525 029e BC000000 		.long	0xbc
 526 02a2 AD020000 		.long	0x2ad
 527 02a6 0C       		.uleb128 0xc
 528 02a7 97000000 		.long	0x97
 529 02ab 27       		.byte	0x27
 530 02ac 00       		.byte	0
 531 02ad 06       		.uleb128 0x6
 532 02ae 04       		.byte	0x4
 533 02af B3020000 		.long	0x2b3
 534 02b3 0D       		.uleb128 0xd
 535 02b4 BC000000 		.long	0xbc
 536 02b8 07       		.uleb128 0x7
GAS LISTING /tmp/ccTVMtAn.s 			page 11


 537 02b9 00030000 		.long	.LASF51
 538 02bd 08       		.byte	0x8
 539 02be 05       		.byte	0x5
 540 02bf 1E       		.byte	0x1e
 541 02c0 DD020000 		.long	0x2dd
 542 02c4 08       		.uleb128 0x8
 543 02c5 26000000 		.long	.LASF52
 544 02c9 05       		.byte	0x5
 545 02ca 20       		.byte	0x20
 546 02cb 9E000000 		.long	0x9e
 547 02cf 00       		.byte	0
 548 02d0 08       		.uleb128 0x8
 549 02d1 54010000 		.long	.LASF53
 550 02d5 05       		.byte	0x5
 551 02d6 21       		.byte	0x21
 552 02d7 A9000000 		.long	0xa9
 553 02db 04       		.byte	0x4
 554 02dc 00       		.byte	0
 555 02dd 07       		.uleb128 0x7
 556 02de 99000000 		.long	.LASF54
 557 02e2 08       		.byte	0x8
 558 02e3 06       		.byte	0x6
 559 02e4 37       		.byte	0x37
 560 02e5 02030000 		.long	0x302
 561 02e9 08       		.uleb128 0x8
 562 02ea 84020000 		.long	.LASF55
 563 02ee 06       		.byte	0x6
 564 02ef 39       		.byte	0x39
 565 02f0 5A000000 		.long	0x5a
 566 02f4 00       		.byte	0
 567 02f5 08       		.uleb128 0x8
 568 02f6 0F010000 		.long	.LASF56
 569 02fa 06       		.byte	0x6
 570 02fb 3A       		.byte	0x3a
 571 02fc 5A000000 		.long	0x5a
 572 0300 04       		.byte	0x4
 573 0301 00       		.byte	0
 574 0302 02       		.uleb128 0x2
 575 0303 62020000 		.long	.LASF57
 576 0307 07       		.byte	0x7
 577 0308 23       		.byte	0x23
 578 0309 0D030000 		.long	0x30d
 579 030d 03       		.uleb128 0x3
 580 030e 01       		.byte	0x1
 581 030f 02       		.byte	0x2
 582 0310 43020000 		.long	.LASF58
 583 0314 0E       		.uleb128 0xe
 584 0315 25010000 		.long	.LASF59
 585 0319 01       		.byte	0x1
 586 031a 3A       		.byte	0x3a
 587 031b 00000000 		.long	.LFB49
 588 031f 5A000000 		.long	.LFE49-.LFB49
 589 0323 01       		.uleb128 0x1
 590 0324 9C       		.byte	0x9c
 591 0325 5C030000 		.long	0x35c
 592 0329 0F       		.uleb128 0xf
 593 032a 0F000000 		.long	.LVL0
GAS LISTING /tmp/ccTVMtAn.s 			page 12


 594 032e F5030000 		.long	0x3f5
 595 0332 41030000 		.long	0x341
 596 0336 10       		.uleb128 0x10
 597 0337 02       		.uleb128 0x2
 598 0338 74       		.byte	0x74
 599 0339 00       		.sleb128 0
 600 033a 05       		.uleb128 0x5
 601 033b 03       		.byte	0x3
 602 033c 00000000 		.long	.LC0
 603 0340 00       		.byte	0
 604 0341 11       		.uleb128 0x11
 605 0342 23000000 		.long	.LVL1
 606 0346 0B040000 		.long	0x40b
 607 034a 10       		.uleb128 0x10
 608 034b 02       		.uleb128 0x2
 609 034c 74       		.byte	0x74
 610 034d 00       		.sleb128 0
 611 034e 05       		.uleb128 0x5
 612 034f 03       		.byte	0x3
 613 0350 00000000 		.long	nextcnt
 614 0354 10       		.uleb128 0x10
 615 0355 02       		.uleb128 0x2
 616 0356 74       		.byte	0x74
 617 0357 04       		.sleb128 4
 618 0358 01       		.uleb128 0x1
 619 0359 30       		.byte	0x30
 620 035a 00       		.byte	0
 621 035b 00       		.byte	0
 622 035c 0E       		.uleb128 0xe
 623 035d 9A020000 		.long	.LASF60
 624 0361 01       		.byte	0x1
 625 0362 48       		.byte	0x48
 626 0363 60000000 		.long	.LFB50
 627 0367 9B000000 		.long	.LFE50-.LFB50
 628 036b 01       		.uleb128 0x1
 629 036c 9C       		.byte	0x9c
 630 036d BE030000 		.long	0x3be
 631 0371 12       		.uleb128 0x12
 632 0372 747600   		.string	"tv"
 633 0375 01       		.byte	0x1
 634 0376 49       		.byte	0x49
 635 0377 B8020000 		.long	0x2b8
 636 037b 02       		.uleb128 0x2
 637 037c 91       		.byte	0x91
 638 037d 68       		.sleb128 -24
 639 037e 13       		.uleb128 0x13
 640 037f 68000000 		.long	.LVL2
 641 0383 31040000 		.long	0x431
 642 0387 0F       		.uleb128 0xf
 643 0388 80000000 		.long	.LVL3
 644 038c 0B040000 		.long	0x40b
 645 0390 A2030000 		.long	0x3a2
 646 0394 10       		.uleb128 0x10
 647 0395 02       		.uleb128 0x2
 648 0396 74       		.byte	0x74
 649 0397 00       		.sleb128 0
 650 0398 02       		.uleb128 0x2
GAS LISTING /tmp/ccTVMtAn.s 			page 13


 651 0399 91       		.byte	0x91
 652 039a 68       		.sleb128 -24
 653 039b 10       		.uleb128 0x10
 654 039c 02       		.uleb128 0x2
 655 039d 74       		.byte	0x74
 656 039e 04       		.sleb128 4
 657 039f 01       		.uleb128 0x1
 658 03a0 30       		.byte	0x30
 659 03a1 00       		.byte	0
 660 03a2 13       		.uleb128 0x13
 661 03a3 C9000000 		.long	.LVL4
 662 03a7 3C040000 		.long	0x43c
 663 03ab 13       		.uleb128 0x13
 664 03ac CE000000 		.long	.LVL5
 665 03b0 43040000 		.long	0x443
 666 03b4 13       		.uleb128 0x13
 667 03b5 DD000000 		.long	.LVL6
 668 03b9 4E040000 		.long	0x44e
 669 03bd 00       		.byte	0
 670 03be 14       		.uleb128 0x14
 671 03bf 1E000000 		.long	.LASF61
 672 03c3 01       		.byte	0x1
 673 03c4 28       		.byte	0x28
 674 03c5 B8020000 		.long	0x2b8
 675 03c9 05       		.uleb128 0x5
 676 03ca 03       		.byte	0x3
 677 03cb 00000000 		.long	nextcnt
 678 03cf 15       		.uleb128 0x15
 679 03d0 A8030000 		.long	.LASF74
 680 03d4 01       		.byte	0x1
 681 03d5 29       		.byte	0x29
 682 03d6 DA030000 		.long	0x3da
 683 03da 0D       		.uleb128 0xd
 684 03db B8020000 		.long	0x2b8
 685 03df 16       		.uleb128 0x16
 686 03e0 18030000 		.long	.LASF62
 687 03e4 08       		.byte	0x8
 688 03e5 A8       		.byte	0xa8
 689 03e6 81020000 		.long	0x281
 690 03ea 16       		.uleb128 0x16
 691 03eb AD030000 		.long	.LASF63
 692 03ef 08       		.byte	0x8
 693 03f0 A9       		.byte	0xa9
 694 03f1 81020000 		.long	0x281
 695 03f5 17       		.uleb128 0x17
 696 03f6 AB010000 		.long	.LASF64
 697 03fa 08       		.byte	0x8
 698 03fb B702     		.value	0x2b7
 699 03fd 5A000000 		.long	0x5a
 700 0401 0B040000 		.long	0x40b
 701 0405 18       		.uleb128 0x18
 702 0406 AD020000 		.long	0x2ad
 703 040a 00       		.byte	0
 704 040b 19       		.uleb128 0x19
 705 040c 47010000 		.long	.LASF65
 706 0410 06       		.byte	0x6
 707 0411 47       		.byte	0x47
GAS LISTING /tmp/ccTVMtAn.s 			page 14


 708 0412 5A000000 		.long	0x5a
 709 0416 25040000 		.long	0x425
 710 041a 18       		.uleb128 0x18
 711 041b 25040000 		.long	0x425
 712 041f 18       		.uleb128 0x18
 713 0420 2B040000 		.long	0x42b
 714 0424 00       		.byte	0
 715 0425 06       		.uleb128 0x6
 716 0426 04       		.byte	0x4
 717 0427 B8020000 		.long	0x2b8
 718 042b 06       		.uleb128 0x6
 719 042c 04       		.byte	0x4
 720 042d DD020000 		.long	0x2dd
 721 0431 1A       		.uleb128 0x1a
 722 0432 49020000 		.long	.LASF66
 723 0436 09       		.byte	0x9
 724 0437 8E       		.byte	0x8e
 725 0438 02030000 		.long	0x302
 726 043c 1B       		.uleb128 0x1b
 727 043d 1E030000 		.long	.LASF68
 728 0441 0B       		.byte	0xb
 729 0442 F7       		.byte	0xf7
 730 0443 1A       		.uleb128 0x1a
 731 0444 E0000000 		.long	.LASF67
 732 0448 0A       		.byte	0xa
 733 0449 9F       		.byte	0x9f
 734 044a 02030000 		.long	0x302
 735 044e 1B       		.uleb128 0x1b
 736 044f 2D000000 		.long	.LASF69
 737 0453 0A       		.byte	0xa
 738 0454 A8       		.byte	0xa8
 739 0455 00       		.byte	0
 740              		.section	.debug_abbrev,"",@progbits
 741              	.Ldebug_abbrev0:
 742 0000 01       		.uleb128 0x1
 743 0001 11       		.uleb128 0x11
 744 0002 01       		.byte	0x1
 745 0003 25       		.uleb128 0x25
 746 0004 0E       		.uleb128 0xe
 747 0005 13       		.uleb128 0x13
 748 0006 0B       		.uleb128 0xb
 749 0007 03       		.uleb128 0x3
 750 0008 0E       		.uleb128 0xe
 751 0009 1B       		.uleb128 0x1b
 752 000a 0E       		.uleb128 0xe
 753 000b 11       		.uleb128 0x11
 754 000c 01       		.uleb128 0x1
 755 000d 12       		.uleb128 0x12
 756 000e 06       		.uleb128 0x6
 757 000f 10       		.uleb128 0x10
 758 0010 17       		.uleb128 0x17
 759 0011 00       		.byte	0
 760 0012 00       		.byte	0
 761 0013 02       		.uleb128 0x2
 762 0014 16       		.uleb128 0x16
 763 0015 00       		.byte	0
 764 0016 03       		.uleb128 0x3
GAS LISTING /tmp/ccTVMtAn.s 			page 15


 765 0017 0E       		.uleb128 0xe
 766 0018 3A       		.uleb128 0x3a
 767 0019 0B       		.uleb128 0xb
 768 001a 3B       		.uleb128 0x3b
 769 001b 0B       		.uleb128 0xb
 770 001c 49       		.uleb128 0x49
 771 001d 13       		.uleb128 0x13
 772 001e 00       		.byte	0
 773 001f 00       		.byte	0
 774 0020 03       		.uleb128 0x3
 775 0021 24       		.uleb128 0x24
 776 0022 00       		.byte	0
 777 0023 0B       		.uleb128 0xb
 778 0024 0B       		.uleb128 0xb
 779 0025 3E       		.uleb128 0x3e
 780 0026 0B       		.uleb128 0xb
 781 0027 03       		.uleb128 0x3
 782 0028 0E       		.uleb128 0xe
 783 0029 00       		.byte	0
 784 002a 00       		.byte	0
 785 002b 04       		.uleb128 0x4
 786 002c 24       		.uleb128 0x24
 787 002d 00       		.byte	0
 788 002e 0B       		.uleb128 0xb
 789 002f 0B       		.uleb128 0xb
 790 0030 3E       		.uleb128 0x3e
 791 0031 0B       		.uleb128 0xb
 792 0032 03       		.uleb128 0x3
 793 0033 08       		.uleb128 0x8
 794 0034 00       		.byte	0
 795 0035 00       		.byte	0
 796 0036 05       		.uleb128 0x5
 797 0037 0F       		.uleb128 0xf
 798 0038 00       		.byte	0
 799 0039 0B       		.uleb128 0xb
 800 003a 0B       		.uleb128 0xb
 801 003b 00       		.byte	0
 802 003c 00       		.byte	0
 803 003d 06       		.uleb128 0x6
 804 003e 0F       		.uleb128 0xf
 805 003f 00       		.byte	0
 806 0040 0B       		.uleb128 0xb
 807 0041 0B       		.uleb128 0xb
 808 0042 49       		.uleb128 0x49
 809 0043 13       		.uleb128 0x13
 810 0044 00       		.byte	0
 811 0045 00       		.byte	0
 812 0046 07       		.uleb128 0x7
 813 0047 13       		.uleb128 0x13
 814 0048 01       		.byte	0x1
 815 0049 03       		.uleb128 0x3
 816 004a 0E       		.uleb128 0xe
 817 004b 0B       		.uleb128 0xb
 818 004c 0B       		.uleb128 0xb
 819 004d 3A       		.uleb128 0x3a
 820 004e 0B       		.uleb128 0xb
 821 004f 3B       		.uleb128 0x3b
GAS LISTING /tmp/ccTVMtAn.s 			page 16


 822 0050 0B       		.uleb128 0xb
 823 0051 01       		.uleb128 0x1
 824 0052 13       		.uleb128 0x13
 825 0053 00       		.byte	0
 826 0054 00       		.byte	0
 827 0055 08       		.uleb128 0x8
 828 0056 0D       		.uleb128 0xd
 829 0057 00       		.byte	0
 830 0058 03       		.uleb128 0x3
 831 0059 0E       		.uleb128 0xe
 832 005a 3A       		.uleb128 0x3a
 833 005b 0B       		.uleb128 0xb
 834 005c 3B       		.uleb128 0x3b
 835 005d 0B       		.uleb128 0xb
 836 005e 49       		.uleb128 0x49
 837 005f 13       		.uleb128 0x13
 838 0060 38       		.uleb128 0x38
 839 0061 0B       		.uleb128 0xb
 840 0062 00       		.byte	0
 841 0063 00       		.byte	0
 842 0064 09       		.uleb128 0x9
 843 0065 0D       		.uleb128 0xd
 844 0066 00       		.byte	0
 845 0067 03       		.uleb128 0x3
 846 0068 0E       		.uleb128 0xe
 847 0069 3A       		.uleb128 0x3a
 848 006a 0B       		.uleb128 0xb
 849 006b 3B       		.uleb128 0x3b
 850 006c 05       		.uleb128 0x5
 851 006d 49       		.uleb128 0x49
 852 006e 13       		.uleb128 0x13
 853 006f 38       		.uleb128 0x38
 854 0070 0B       		.uleb128 0xb
 855 0071 00       		.byte	0
 856 0072 00       		.byte	0
 857 0073 0A       		.uleb128 0xa
 858 0074 16       		.uleb128 0x16
 859 0075 00       		.byte	0
 860 0076 03       		.uleb128 0x3
 861 0077 0E       		.uleb128 0xe
 862 0078 3A       		.uleb128 0x3a
 863 0079 0B       		.uleb128 0xb
 864 007a 3B       		.uleb128 0x3b
 865 007b 0B       		.uleb128 0xb
 866 007c 00       		.byte	0
 867 007d 00       		.byte	0
 868 007e 0B       		.uleb128 0xb
 869 007f 01       		.uleb128 0x1
 870 0080 01       		.byte	0x1
 871 0081 49       		.uleb128 0x49
 872 0082 13       		.uleb128 0x13
 873 0083 01       		.uleb128 0x1
 874 0084 13       		.uleb128 0x13
 875 0085 00       		.byte	0
 876 0086 00       		.byte	0
 877 0087 0C       		.uleb128 0xc
 878 0088 21       		.uleb128 0x21
GAS LISTING /tmp/ccTVMtAn.s 			page 17


 879 0089 00       		.byte	0
 880 008a 49       		.uleb128 0x49
 881 008b 13       		.uleb128 0x13
 882 008c 2F       		.uleb128 0x2f
 883 008d 0B       		.uleb128 0xb
 884 008e 00       		.byte	0
 885 008f 00       		.byte	0
 886 0090 0D       		.uleb128 0xd
 887 0091 26       		.uleb128 0x26
 888 0092 00       		.byte	0
 889 0093 49       		.uleb128 0x49
 890 0094 13       		.uleb128 0x13
 891 0095 00       		.byte	0
 892 0096 00       		.byte	0
 893 0097 0E       		.uleb128 0xe
 894 0098 2E       		.uleb128 0x2e
 895 0099 01       		.byte	0x1
 896 009a 3F       		.uleb128 0x3f
 897 009b 19       		.uleb128 0x19
 898 009c 03       		.uleb128 0x3
 899 009d 0E       		.uleb128 0xe
 900 009e 3A       		.uleb128 0x3a
 901 009f 0B       		.uleb128 0xb
 902 00a0 3B       		.uleb128 0x3b
 903 00a1 0B       		.uleb128 0xb
 904 00a2 27       		.uleb128 0x27
 905 00a3 19       		.uleb128 0x19
 906 00a4 11       		.uleb128 0x11
 907 00a5 01       		.uleb128 0x1
 908 00a6 12       		.uleb128 0x12
 909 00a7 06       		.uleb128 0x6
 910 00a8 40       		.uleb128 0x40
 911 00a9 18       		.uleb128 0x18
 912 00aa 9742     		.uleb128 0x2117
 913 00ac 19       		.uleb128 0x19
 914 00ad 01       		.uleb128 0x1
 915 00ae 13       		.uleb128 0x13
 916 00af 00       		.byte	0
 917 00b0 00       		.byte	0
 918 00b1 0F       		.uleb128 0xf
 919 00b2 898201   		.uleb128 0x4109
 920 00b5 01       		.byte	0x1
 921 00b6 11       		.uleb128 0x11
 922 00b7 01       		.uleb128 0x1
 923 00b8 31       		.uleb128 0x31
 924 00b9 13       		.uleb128 0x13
 925 00ba 01       		.uleb128 0x1
 926 00bb 13       		.uleb128 0x13
 927 00bc 00       		.byte	0
 928 00bd 00       		.byte	0
 929 00be 10       		.uleb128 0x10
 930 00bf 8A8201   		.uleb128 0x410a
 931 00c2 00       		.byte	0
 932 00c3 02       		.uleb128 0x2
 933 00c4 18       		.uleb128 0x18
 934 00c5 9142     		.uleb128 0x2111
 935 00c7 18       		.uleb128 0x18
GAS LISTING /tmp/ccTVMtAn.s 			page 18


 936 00c8 00       		.byte	0
 937 00c9 00       		.byte	0
 938 00ca 11       		.uleb128 0x11
 939 00cb 898201   		.uleb128 0x4109
 940 00ce 01       		.byte	0x1
 941 00cf 11       		.uleb128 0x11
 942 00d0 01       		.uleb128 0x1
 943 00d1 31       		.uleb128 0x31
 944 00d2 13       		.uleb128 0x13
 945 00d3 00       		.byte	0
 946 00d4 00       		.byte	0
 947 00d5 12       		.uleb128 0x12
 948 00d6 34       		.uleb128 0x34
 949 00d7 00       		.byte	0
 950 00d8 03       		.uleb128 0x3
 951 00d9 08       		.uleb128 0x8
 952 00da 3A       		.uleb128 0x3a
 953 00db 0B       		.uleb128 0xb
 954 00dc 3B       		.uleb128 0x3b
 955 00dd 0B       		.uleb128 0xb
 956 00de 49       		.uleb128 0x49
 957 00df 13       		.uleb128 0x13
 958 00e0 02       		.uleb128 0x2
 959 00e1 18       		.uleb128 0x18
 960 00e2 00       		.byte	0
 961 00e3 00       		.byte	0
 962 00e4 13       		.uleb128 0x13
 963 00e5 898201   		.uleb128 0x4109
 964 00e8 00       		.byte	0
 965 00e9 11       		.uleb128 0x11
 966 00ea 01       		.uleb128 0x1
 967 00eb 31       		.uleb128 0x31
 968 00ec 13       		.uleb128 0x13
 969 00ed 00       		.byte	0
 970 00ee 00       		.byte	0
 971 00ef 14       		.uleb128 0x14
 972 00f0 34       		.uleb128 0x34
 973 00f1 00       		.byte	0
 974 00f2 03       		.uleb128 0x3
 975 00f3 0E       		.uleb128 0xe
 976 00f4 3A       		.uleb128 0x3a
 977 00f5 0B       		.uleb128 0xb
 978 00f6 3B       		.uleb128 0x3b
 979 00f7 0B       		.uleb128 0xb
 980 00f8 49       		.uleb128 0x49
 981 00f9 13       		.uleb128 0x13
 982 00fa 02       		.uleb128 0x2
 983 00fb 18       		.uleb128 0x18
 984 00fc 00       		.byte	0
 985 00fd 00       		.byte	0
 986 00fe 15       		.uleb128 0x15
 987 00ff 34       		.uleb128 0x34
 988 0100 00       		.byte	0
 989 0101 03       		.uleb128 0x3
 990 0102 0E       		.uleb128 0xe
 991 0103 3A       		.uleb128 0x3a
 992 0104 0B       		.uleb128 0xb
GAS LISTING /tmp/ccTVMtAn.s 			page 19


 993 0105 3B       		.uleb128 0x3b
 994 0106 0B       		.uleb128 0xb
 995 0107 49       		.uleb128 0x49
 996 0108 13       		.uleb128 0x13
 997 0109 00       		.byte	0
 998 010a 00       		.byte	0
 999 010b 16       		.uleb128 0x16
 1000 010c 34       		.uleb128 0x34
 1001 010d 00       		.byte	0
 1002 010e 03       		.uleb128 0x3
 1003 010f 0E       		.uleb128 0xe
 1004 0110 3A       		.uleb128 0x3a
 1005 0111 0B       		.uleb128 0xb
 1006 0112 3B       		.uleb128 0x3b
 1007 0113 0B       		.uleb128 0xb
 1008 0114 49       		.uleb128 0x49
 1009 0115 13       		.uleb128 0x13
 1010 0116 3F       		.uleb128 0x3f
 1011 0117 19       		.uleb128 0x19
 1012 0118 3C       		.uleb128 0x3c
 1013 0119 19       		.uleb128 0x19
 1014 011a 00       		.byte	0
 1015 011b 00       		.byte	0
 1016 011c 17       		.uleb128 0x17
 1017 011d 2E       		.uleb128 0x2e
 1018 011e 01       		.byte	0x1
 1019 011f 3F       		.uleb128 0x3f
 1020 0120 19       		.uleb128 0x19
 1021 0121 03       		.uleb128 0x3
 1022 0122 0E       		.uleb128 0xe
 1023 0123 3A       		.uleb128 0x3a
 1024 0124 0B       		.uleb128 0xb
 1025 0125 3B       		.uleb128 0x3b
 1026 0126 05       		.uleb128 0x5
 1027 0127 27       		.uleb128 0x27
 1028 0128 19       		.uleb128 0x19
 1029 0129 49       		.uleb128 0x49
 1030 012a 13       		.uleb128 0x13
 1031 012b 3C       		.uleb128 0x3c
 1032 012c 19       		.uleb128 0x19
 1033 012d 01       		.uleb128 0x1
 1034 012e 13       		.uleb128 0x13
 1035 012f 00       		.byte	0
 1036 0130 00       		.byte	0
 1037 0131 18       		.uleb128 0x18
 1038 0132 05       		.uleb128 0x5
 1039 0133 00       		.byte	0
 1040 0134 49       		.uleb128 0x49
 1041 0135 13       		.uleb128 0x13
 1042 0136 00       		.byte	0
 1043 0137 00       		.byte	0
 1044 0138 19       		.uleb128 0x19
 1045 0139 2E       		.uleb128 0x2e
 1046 013a 01       		.byte	0x1
 1047 013b 3F       		.uleb128 0x3f
 1048 013c 19       		.uleb128 0x19
 1049 013d 03       		.uleb128 0x3
GAS LISTING /tmp/ccTVMtAn.s 			page 20


 1050 013e 0E       		.uleb128 0xe
 1051 013f 3A       		.uleb128 0x3a
 1052 0140 0B       		.uleb128 0xb
 1053 0141 3B       		.uleb128 0x3b
 1054 0142 0B       		.uleb128 0xb
 1055 0143 27       		.uleb128 0x27
 1056 0144 19       		.uleb128 0x19
 1057 0145 49       		.uleb128 0x49
 1058 0146 13       		.uleb128 0x13
 1059 0147 3C       		.uleb128 0x3c
 1060 0148 19       		.uleb128 0x19
 1061 0149 01       		.uleb128 0x1
 1062 014a 13       		.uleb128 0x13
 1063 014b 00       		.byte	0
 1064 014c 00       		.byte	0
 1065 014d 1A       		.uleb128 0x1a
 1066 014e 2E       		.uleb128 0x2e
 1067 014f 00       		.byte	0
 1068 0150 3F       		.uleb128 0x3f
 1069 0151 19       		.uleb128 0x19
 1070 0152 03       		.uleb128 0x3
 1071 0153 0E       		.uleb128 0xe
 1072 0154 3A       		.uleb128 0x3a
 1073 0155 0B       		.uleb128 0xb
 1074 0156 3B       		.uleb128 0x3b
 1075 0157 0B       		.uleb128 0xb
 1076 0158 27       		.uleb128 0x27
 1077 0159 19       		.uleb128 0x19
 1078 015a 49       		.uleb128 0x49
 1079 015b 13       		.uleb128 0x13
 1080 015c 3C       		.uleb128 0x3c
 1081 015d 19       		.uleb128 0x19
 1082 015e 00       		.byte	0
 1083 015f 00       		.byte	0
 1084 0160 1B       		.uleb128 0x1b
 1085 0161 2E       		.uleb128 0x2e
 1086 0162 00       		.byte	0
 1087 0163 3F       		.uleb128 0x3f
 1088 0164 19       		.uleb128 0x19
 1089 0165 03       		.uleb128 0x3
 1090 0166 0E       		.uleb128 0xe
 1091 0167 3A       		.uleb128 0x3a
 1092 0168 0B       		.uleb128 0xb
 1093 0169 3B       		.uleb128 0x3b
 1094 016a 0B       		.uleb128 0xb
 1095 016b 27       		.uleb128 0x27
 1096 016c 19       		.uleb128 0x19
 1097 016d 3C       		.uleb128 0x3c
 1098 016e 19       		.uleb128 0x19
 1099 016f 00       		.byte	0
 1100 0170 00       		.byte	0
 1101 0171 00       		.byte	0
 1102              		.section	.debug_aranges,"",@progbits
 1103 0000 1C000000 		.long	0x1c
 1104 0004 0200     		.value	0x2
 1105 0006 00000000 		.long	.Ldebug_info0
 1106 000a 04       		.byte	0x4
GAS LISTING /tmp/ccTVMtAn.s 			page 21


 1107 000b 00       		.byte	0
 1108 000c 0000     		.value	0
 1109 000e 0000     		.value	0
 1110 0010 00000000 		.long	.Ltext0
 1111 0014 FB000000 		.long	.Letext0-.Ltext0
 1112 0018 00000000 		.long	0
 1113 001c 00000000 		.long	0
 1114              		.section	.debug_line,"",@progbits
 1115              	.Ldebug_line0:
 1116 0000 90010000 		.section	.debug_str,"MS",@progbits,1
 1116      02004801 
 1116      00000101 
 1116      FB0E0D00 
 1116      01010101 
 1117              	.LASF9:
 1118 0000 5F5F7175 		.string	"__quad_t"
 1118      61645F74 
 1118      00
 1119              	.LASF33:
 1120 0009 5F6F6C64 		.string	"_old_offset"
 1120      5F6F6666 
 1120      73657400 
 1121              	.LASF46:
 1122 0015 5F494F5F 		.string	"_IO_FILE"
 1122      46494C45 
 1122      00
 1123              	.LASF61:
 1124 001e 6E657874 		.string	"nextcnt"
 1124      636E7400 
 1125              	.LASF52:
 1126 0026 74765F73 		.string	"tv_sec"
 1126      656300
 1127              	.LASF69:
 1128 002d 63685363 		.string	"chSchDoReschedule"
 1128      68446F52 
 1128      65736368 
 1128      6564756C 
 1128      6500
 1129              	.LASF5:
 1130 003f 73686F72 		.string	"short int"
 1130      7420696E 
 1130      7400
 1131              	.LASF8:
 1132 0049 73697A65 		.string	"size_t"
 1132      5F7400
 1133              	.LASF13:
 1134 0050 73697A65 		.string	"sizetype"
 1134      74797065 
 1134      00
 1135              	.LASF38:
 1136 0059 5F6F6666 		.string	"_offset"
 1136      73657400 
 1137              	.LASF22:
 1138 0061 5F494F5F 		.string	"_IO_write_ptr"
 1138      77726974 
 1138      655F7074 
 1138      7200
GAS LISTING /tmp/ccTVMtAn.s 			page 22


 1139              	.LASF17:
 1140 006f 5F666C61 		.string	"_flags"
 1140      677300
 1141              	.LASF24:
 1142 0076 5F494F5F 		.string	"_IO_buf_base"
 1142      6275665F 
 1142      62617365 
 1142      00
 1143              	.LASF29:
 1144 0083 5F6D6172 		.string	"_markers"
 1144      6B657273 
 1144      00
 1145              	.LASF19:
 1146 008c 5F494F5F 		.string	"_IO_read_end"
 1146      72656164 
 1146      5F656E64 
 1146      00
 1147              	.LASF54:
 1148 0099 74696D65 		.string	"timezone"
 1148      7A6F6E65 
 1148      00
 1149              	.LASF71:
 1150 00a2 2E2E2F2E 		.string	"../../../os/hal/platforms/Posix/hal_lld.c"
 1150      2E2F2E2E 
 1150      2F6F732F 
 1150      68616C2F 
 1150      706C6174 
 1151              	.LASF6:
 1152 00cc 6C6F6E67 		.string	"long long int"
 1152      206C6F6E 
 1152      6720696E 
 1152      7400
 1153              	.LASF37:
 1154 00da 5F6C6F63 		.string	"_lock"
 1154      6B00
 1155              	.LASF67:
 1156 00e0 63685363 		.string	"chSchIsPreemptionRequired"
 1156      68497350 
 1156      7265656D 
 1156      7074696F 
 1156      6E526571 
 1157              	.LASF11:
 1158 00fa 6C6F6E67 		.string	"long int"
 1158      20696E74 
 1158      00
 1159              	.LASF34:
 1160 0103 5F637572 		.string	"_cur_column"
 1160      5F636F6C 
 1160      756D6E00 
 1161              	.LASF56:
 1162 010f 747A5F64 		.string	"tz_dsttime"
 1162      73747469 
 1162      6D6500
 1163              	.LASF50:
 1164 011a 5F706F73 		.string	"_pos"
 1164      00
 1165              	.LASF49:
GAS LISTING /tmp/ccTVMtAn.s 			page 23


 1166 011f 5F736275 		.string	"_sbuf"
 1166      6600
 1167              	.LASF59:
 1168 0125 68616C5F 		.string	"hal_lld_init"
 1168      6C6C645F 
 1168      696E6974 
 1168      00
 1169              	.LASF1:
 1170 0132 756E7369 		.string	"unsigned char"
 1170      676E6564 
 1170      20636861 
 1170      7200
 1171              	.LASF42:
 1172 0140 5F5F7061 		.string	"__pad4"
 1172      643400
 1173              	.LASF65:
 1174 0147 67657474 		.string	"gettimeofday"
 1174      696D656F 
 1174      66646179 
 1174      00
 1175              	.LASF53:
 1176 0154 74765F75 		.string	"tv_usec"
 1176      73656300 
 1177              	.LASF4:
 1178 015c 7369676E 		.string	"signed char"
 1178      65642063 
 1178      68617200 
 1179              	.LASF7:
 1180 0168 6C6F6E67 		.string	"long long unsigned int"
 1180      206C6F6E 
 1180      6720756E 
 1180      7369676E 
 1180      65642069 
 1181              	.LASF0:
 1182 017f 756E7369 		.string	"unsigned int"
 1182      676E6564 
 1182      20696E74 
 1182      00
 1183              	.LASF47:
 1184 018c 5F494F5F 		.string	"_IO_marker"
 1184      6D61726B 
 1184      657200
 1185              	.LASF36:
 1186 0197 5F73686F 		.string	"_shortbuf"
 1186      72746275 
 1186      6600
 1187              	.LASF12:
 1188 01a1 5F5F6F66 		.string	"__off64_t"
 1188      6636345F 
 1188      7400
 1189              	.LASF64:
 1190 01ab 70757473 		.string	"puts"
 1190      00
 1191              	.LASF21:
 1192 01b0 5F494F5F 		.string	"_IO_write_base"
 1192      77726974 
 1192      655F6261 
GAS LISTING /tmp/ccTVMtAn.s 			page 24


 1192      736500
 1193              	.LASF45:
 1194 01bf 5F756E75 		.string	"_unused2"
 1194      73656432 
 1194      00
 1195              	.LASF18:
 1196 01c8 5F494F5F 		.string	"_IO_read_ptr"
 1196      72656164 
 1196      5F707472 
 1196      00
 1197              	.LASF25:
 1198 01d5 5F494F5F 		.string	"_IO_buf_end"
 1198      6275665F 
 1198      656E6400 
 1199              	.LASF70:
 1200 01e1 474E5520 		.string	"GNU C 4.8.2 -m32 -mtune=generic -march=i686 -ggdb -O2 -fomit-frame-pointer -fstack-protec
 1200      4320342E 
 1200      382E3220 
 1200      2D6D3332 
 1200      202D6D74 
 1201              	.LASF16:
 1202 023e 63686172 		.string	"char"
 1202      00
 1203              	.LASF58:
 1204 0243 5F426F6F 		.string	"_Bool"
 1204      6C00
 1205              	.LASF66:
 1206 0249 73645F6C 		.string	"sd_lld_interrupt_pending"
 1206      6C645F69 
 1206      6E746572 
 1206      72757074 
 1206      5F70656E 
 1207              	.LASF57:
 1208 0262 626F6F6C 		.string	"bool_t"
 1208      5F7400
 1209              	.LASF48:
 1210 0269 5F6E6578 		.string	"_next"
 1210      7400
 1211              	.LASF39:
 1212 026f 5F5F7061 		.string	"__pad1"
 1212      643100
 1213              	.LASF40:
 1214 0276 5F5F7061 		.string	"__pad2"
 1214      643200
 1215              	.LASF41:
 1216 027d 5F5F7061 		.string	"__pad3"
 1216      643300
 1217              	.LASF55:
 1218 0284 747A5F6D 		.string	"tz_minuteswest"
 1218      696E7574 
 1218      65737765 
 1218      737400
 1219              	.LASF43:
 1220 0293 5F5F7061 		.string	"__pad5"
 1220      643500
 1221              	.LASF60:
 1222 029a 43686B49 		.string	"ChkIntSources"
GAS LISTING /tmp/ccTVMtAn.s 			page 25


 1222      6E74536F 
 1222      75726365 
 1222      7300
 1223              	.LASF2:
 1224 02a8 73686F72 		.string	"short unsigned int"
 1224      7420756E 
 1224      7369676E 
 1224      65642069 
 1224      6E7400
 1225              	.LASF3:
 1226 02bb 6C6F6E67 		.string	"long unsigned int"
 1226      20756E73 
 1226      69676E65 
 1226      6420696E 
 1226      7400
 1227              	.LASF28:
 1228 02cd 5F494F5F 		.string	"_IO_save_end"
 1228      73617665 
 1228      5F656E64 
 1228      00
 1229              	.LASF23:
 1230 02da 5F494F5F 		.string	"_IO_write_end"
 1230      77726974 
 1230      655F656E 
 1230      6400
 1231              	.LASF14:
 1232 02e8 5F5F7469 		.string	"__time_t"
 1232      6D655F74 
 1232      00
 1233              	.LASF10:
 1234 02f1 5F5F6F66 		.string	"__off_t"
 1234      665F7400 
 1235              	.LASF30:
 1236 02f9 5F636861 		.string	"_chain"
 1236      696E00
 1237              	.LASF51:
 1238 0300 74696D65 		.string	"timeval"
 1238      76616C00 
 1239              	.LASF27:
 1240 0308 5F494F5F 		.string	"_IO_backup_base"
 1240      6261636B 
 1240      75705F62 
 1240      61736500 
 1241              	.LASF62:
 1242 0318 73746469 		.string	"stdin"
 1242      6E00
 1243              	.LASF68:
 1244 031e 63685379 		.string	"chSysTimerHandlerI"
 1244      7354696D 
 1244      65724861 
 1244      6E646C65 
 1244      724900
 1245              	.LASF32:
 1246 0331 5F666C61 		.string	"_flags2"
 1246      67733200 
 1247              	.LASF44:
 1248 0339 5F6D6F64 		.string	"_mode"
GAS LISTING /tmp/ccTVMtAn.s 			page 26


 1248      6500
 1249              	.LASF20:
 1250 033f 5F494F5F 		.string	"_IO_read_base"
 1250      72656164 
 1250      5F626173 
 1250      6500
 1251              	.LASF35:
 1252 034d 5F767461 		.string	"_vtable_offset"
 1252      626C655F 
 1252      6F666673 
 1252      657400
 1253              	.LASF72:
 1254 035c 2F686F6D 		.string	"/home/tony/ChibiOS-RT/testhal/Posix/EXT"
 1254      652F746F 
 1254      6E792F43 
 1254      68696269 
 1254      4F532D52 
 1255              	.LASF26:
 1256 0384 5F494F5F 		.string	"_IO_save_base"
 1256      73617665 
 1256      5F626173 
 1256      6500
 1257              	.LASF31:
 1258 0392 5F66696C 		.string	"_fileno"
 1258      656E6F00 
 1259              	.LASF15:
 1260 039a 5F5F7375 		.string	"__suseconds_t"
 1260      7365636F 
 1260      6E64735F 
 1260      7400
 1261              	.LASF74:
 1262 03a8 7469636B 		.string	"tick"
 1262      00
 1263              	.LASF63:
 1264 03ad 7374646F 		.string	"stdout"
 1264      757400
 1265              	.LASF73:
 1266 03b4 5F494F5F 		.string	"_IO_lock_t"
 1266      6C6F636B 
 1266      5F7400
 1267              		.ident	"GCC: (Ubuntu 4.8.2-19ubuntu1) 4.8.2"
 1268              		.section	.note.GNU-stack,"",@progbits
GAS LISTING /tmp/ccTVMtAn.s 			page 27


DEFINED SYMBOLS
                            *ABS*:0000000000000000 hal_lld.c
     /tmp/ccTVMtAn.s:65     .text:0000000000000000 hal_lld_init
     /tmp/ccTVMtAn.s:189    .bss:0000000000000000 nextcnt
     /tmp/ccTVMtAn.s:104    .text:0000000000000060 ChkIntSources

UNDEFINED SYMBOLS
puts
gettimeofday
sd_lld_interrupt_pending
chSysTimerHandlerI
chSchIsPreemptionRequired
chSchDoReschedule
