GAS LISTING /tmp/ccTVMtAn.s 			page 1


   1              		.file	"hal_lld.c"
   2              	# GNU C (Ubuntu 4.8.2-19ubuntu1) version 4.8.2 (x86_64-linux-gnu)
   3              	#	compiled by GNU C version 4.8.2, GMP version 5.1.3, MPFR version 3.1.2-p3, MPC version 1.0.1
   4              	# GGC heuristics: --param ggc-min-expand=97 --param ggc-min-heapsize=126309
   5              	# options passed:  -I . -I ../../../os/ports/GCC/SIMIA32
   6              	# -I ../../../os/kernel/include -I ../../../test -I ../../../os/hal/include
   7              	# -I ../../../os/hal/platforms/Posix -I ../../../boards/simulator
   8              	# -I ../../../os/various -imultilib 32 -imultiarch i386-linux-gnu
   9              	# -MD ../../../os/hal/platforms/Posix/hal_lld.d -MF .dep/hal_lld.o.d -MP
  10              	# -MQ ../../../os/hal/platforms/Posix/hal_lld.o -D SIMULATOR
  11              	# -D SHELL_USE_IPRINTF=FALSE ../../../os/hal/platforms/Posix/hal_lld.c -m32
  12              	# -mtune=generic -march=i686
  13              	# -auxbase-strip ../../../os/hal/platforms/Posix/hal_lld.o -ggdb -O2 -Wall
  14              	# -Wextra -Wstrict-prototypes -fomit-frame-pointer -fverbose-asm
  15              	# -fstack-protector -Wformat -Wformat-security
  16              	# options enabled:  -faggressive-loop-optimizations
  17              	# -fasynchronous-unwind-tables -fauto-inc-dec -fbranch-count-reg
  18              	# -fcaller-saves -fcombine-stack-adjustments -fcommon -fcompare-elim
  19              	# -fcprop-registers -fcrossjumping -fcse-follow-jumps -fdefer-pop
  20              	# -fdelete-null-pointer-checks -fdevirtualize -fdwarf2-cfi-asm
  21              	# -fearly-inlining -feliminate-unused-debug-types -fexpensive-optimizations
  22              	# -fforward-propagate -ffunction-cse -fgcse -fgcse-lm -fgnu-runtime
  23              	# -fguess-branch-probability -fhoist-adjacent-loads -fident -fif-conversion
  24              	# -fif-conversion2 -findirect-inlining -finline -finline-atomics
  25              	# -finline-functions-called-once -finline-small-functions -fipa-cp
  26              	# -fipa-profile -fipa-pure-const -fipa-reference -fipa-sra
  27              	# -fira-hoist-pressure -fira-share-save-slots -fira-share-spill-slots
  28              	# -fivopts -fkeep-static-consts -fleading-underscore -fmath-errno
  29              	# -fmerge-constants -fmerge-debug-strings -fmove-loop-invariants
  30              	# -fomit-frame-pointer -foptimize-register-move -foptimize-sibling-calls
  31              	# -foptimize-strlen -fpartial-inlining -fpcc-struct-return -fpeephole
  32              	# -fpeephole2 -fprefetch-loop-arrays -free -fregmove -freorder-blocks
  33              	# -freorder-functions -frerun-cse-after-loop
  34              	# -fsched-critical-path-heuristic -fsched-dep-count-heuristic
  35              	# -fsched-group-heuristic -fsched-interblock -fsched-last-insn-heuristic
  36              	# -fsched-rank-heuristic -fsched-spec -fsched-spec-insn-heuristic
  37              	# -fsched-stalled-insns-dep -fschedule-insns2 -fshow-column -fshrink-wrap
  38              	# -fsigned-zeros -fsplit-ivs-in-unroller -fsplit-wide-types
  39              	# -fstack-protector -fstrict-aliasing -fstrict-overflow
  40              	# -fstrict-volatile-bitfields -fsync-libcalls -fthread-jumps
  41              	# -ftoplevel-reorder -ftrapping-math -ftree-bit-ccp -ftree-builtin-call-dce
  42              	# -ftree-ccp -ftree-ch -ftree-coalesce-vars -ftree-copy-prop
  43              	# -ftree-copyrename -ftree-cselim -ftree-dce -ftree-dominator-opts
  44              	# -ftree-dse -ftree-forwprop -ftree-fre -ftree-loop-if-convert
  45              	# -ftree-loop-im -ftree-loop-ivcanon -ftree-loop-optimize
  46              	# -ftree-parallelize-loops= -ftree-phiprop -ftree-pre -ftree-pta
  47              	# -ftree-reassoc -ftree-scev-cprop -ftree-sink -ftree-slp-vectorize
  48              	# -ftree-slsr -ftree-sra -ftree-switch-conversion -ftree-tail-merge
  49              	# -ftree-ter -ftree-vect-loop-version -ftree-vrp -funit-at-a-time
  50              	# -funwind-tables -fvar-tracking -fvar-tracking-assignments -fverbose-asm
  51              	# -fzero-initialized-in-bss -m32 -m80387 -m96bit-long-double
  52              	# -maccumulate-outgoing-args -malign-stringops -mfancy-math-387
  53              	# -mfp-ret-in-387 -mglibc -mieee-fp -mlong-double-80 -mno-red-zone
  54              	# -mno-sse4 -mpush-args -msahf -mtls-direct-seg-refs
  55              	
  56              		.text
  57              	.Ltext0:
GAS LISTING /tmp/ccTVMtAn.s 			page 2


  58              		.section	.rodata.str1.1,"aMS",@progbits,1
  59              	.LC0:
  60 0000 43686962 		.string	"ChibiOS/RT simulator (Linux)\n"
  60      694F532F 
  60      52542073 
  60      696D756C 
  60      61746F72 
  61              		.text
  62              		.p2align 4,,15
  63              		.globl	hal_lld_init
  64              		.type	hal_lld_init, @function
  65              	hal_lld_init:
  66              	.LFB49:
  67              		.file 1 "../../../os/hal/platforms/Posix/hal_lld.c"
  68              		.loc 1 58 0
  69              		.cfi_startproc
  70 0000 83EC1C   		subl	$28, %esp	#,
  71              		.cfi_def_cfa_offset 32
  72              		.loc 1 63 0
  73 0003 C7042400 		movl	$.LC0, (%esp)	#,
  73      000000
  74 000a E8FCFFFF 		call	puts	#
  74      FF
  75              	.LVL0:
  76              		.loc 1 65 0
  77 000f C7442404 		movl	$0, 4(%esp)	#,
  77      00000000 
  78 0017 C7042400 		movl	$nextcnt, (%esp)	#,
  78      000000
  79 001e E8FCFFFF 		call	gettimeofday	#
  79      FF
  80              	.LVL1:
  81              		.loc 1 66 0
  82 0023 8B150400 		movl	nextcnt+4, %edx	# nextcnt.tv_usec, D.4316
  82      0000
  83 0029 8B0D0000 		movl	nextcnt, %ecx	# nextcnt.tv_sec, D.4316
  83      0000
  84 002f 8D82E803 		leal	1000(%edx), %eax	#, D.4316
  84      0000
  85 0035 3D3F420F 		cmpl	$999999, %eax	#, D.4316
  85      00
  86 003a A3040000 		movl	%eax, nextcnt+4	# D.4316, nextcnt.tv_usec
  86      00
  87 003f 7E15     		jle	.L1	#,
  88              		.loc 1 66 0 is_stmt 0 discriminator 1
  89 0041 83C101   		addl	$1, %ecx	#, tmp68
  90 0044 81EA583E 		subl	$999000, %edx	#, tmp70
  90      0F00
  91 004a 890D0000 		movl	%ecx, nextcnt	# tmp68, nextcnt.tv_sec
  91      0000
  92 0050 89150400 		movl	%edx, nextcnt+4	# tmp70, nextcnt.tv_usec
  92      0000
  93              	.L1:
  94              		.loc 1 67 0 is_stmt 1
  95 0056 83C41C   		addl	$28, %esp	#,
  96              		.cfi_def_cfa_offset 4
  97 0059 C3       		ret
GAS LISTING /tmp/ccTVMtAn.s 			page 3


  98              		.cfi_endproc
  99              	.LFE49:
 100              		.size	hal_lld_init, .-hal_lld_init
 101 005a 8DB60000 		.p2align 4,,15
 101      0000
 102              		.globl	ChkIntSources
 103              		.type	ChkIntSources, @function
 104              	ChkIntSources:
 105              	.LFB50:
 106              		.loc 1 72 0
 107              		.cfi_startproc
 108 0060 83EC2C   		subl	$44, %esp	#,
 109              		.cfi_def_cfa_offset 48
 110              		.loc 1 76 0
 111 0063 E8FCFFFF 		call	sd_lld_interrupt_pending	#
 111      FF
 112              	.LVL2:
 113 0068 84C0     		testb	%al, %al	# D.4320
 114 006a 755D     		jne	.L24	#,
 115              		.loc 1 85 0
 116 006c 8D442418 		leal	24(%esp), %eax	#, tmp71
 117 0070 C7442404 		movl	$0, 4(%esp)	#,
 117      00000000 
 118 0078 890424   		movl	%eax, (%esp)	# tmp71,
 119 007b E8FCFFFF 		call	gettimeofday	#
 119      FF
 120              	.LVL3:
 121              		.loc 1 86 0
 122 0080 8B542418 		movl	24(%esp), %edx	# tv.tv_sec, D.4321
 123 0084 A1000000 		movl	nextcnt, %eax	# nextcnt.tv_sec, D.4321
 123      00
 124 0089 39C2     		cmpl	%eax, %edx	# D.4321, D.4321
 125 008b 0F9DC1   		setge	%cl	#, iftmp.0
 126 008e 39C2     		cmpl	%eax, %edx	# D.4321, D.4321
 127 0090 7456     		je	.L25	#,
 128              		.loc 1 86 0 is_stmt 0 discriminator 3
 129 0092 84C9     		testb	%cl, %cl	# iftmp.0
 130 0094 743C     		je	.L5	#,
 131              	.L27:
 132              		.loc 1 87 0 is_stmt 1
 133 0096 8B0D0400 		movl	nextcnt+4, %ecx	# nextcnt.tv_usec, D.4321
 133      0000
 134 009c 8D91E803 		leal	1000(%ecx), %edx	#, D.4321
 134      0000
 135 00a2 81FA3F42 		cmpl	$999999, %edx	#, D.4321
 135      0F00
 136 00a8 89150400 		movl	%edx, nextcnt+4	# D.4321, nextcnt.tv_usec
 136      0000
 137 00ae 7E14     		jle	.L12	#,
 138              		.loc 1 87 0 is_stmt 0 discriminator 1
 139 00b0 83C001   		addl	$1, %eax	#, tmp80
 140 00b3 81E9583E 		subl	$999000, %ecx	#, tmp82
 140      0F00
 141 00b9 A3000000 		movl	%eax, nextcnt	# tmp80, nextcnt.tv_sec
 141      00
 142 00be 890D0400 		movl	%ecx, nextcnt+4	# tmp82, nextcnt.tv_usec
 142      0000
GAS LISTING /tmp/ccTVMtAn.s 			page 4


 143              	.L12:
 144              		.loc 1 92 0 is_stmt 1
 145 00c4 E8FCFFFF 		call	chSysTimerHandlerI	#
 145      FF
 146              	.LVL4:
 147              	.L24:
 148              		.loc 1 98 0
 149 00c9 E8FCFFFF 		call	chSchIsPreemptionRequired	#
 149      FF
 150              	.LVL5:
 151 00ce 84C0     		testb	%al, %al	# D.4320
 152 00d0 7506     		jne	.L26	#,
 153              	.L5:
 154              		.loc 1 102 0
 155 00d2 83C42C   		addl	$44, %esp	#,
 156              		.cfi_remember_state
 157              		.cfi_def_cfa_offset 4
 158              		.p2align 4,,3
 159 00d5 C3       		ret
 160              		.p2align 4,,7
 161 00d6 6690     		.p2align 3
 162              	.L26:
 163              		.cfi_restore_state
 164              		.loc 1 99 0
 165              		.p2align 4,,7
 166 00d8 E8FCFFFF 		call	chSchDoReschedule	#
 166      FF
 167              	.LVL6:
 168              		.loc 1 102 0
 169 00dd 83C42C   		addl	$44, %esp	#,
 170              		.cfi_remember_state
 171              		.cfi_def_cfa_offset 4
 172              		.p2align 4,,3
 173 00e0 C3       		ret
 174              		.p2align 4,,7
 175 00e1 8DB42600 		.p2align 3
 175      000000
 176              	.L25:
 177              		.cfi_restore_state
 178              		.loc 1 86 0 discriminator 1
 179 00e8 8B0D0400 		movl	nextcnt+4, %ecx	# nextcnt.tv_usec, tmp83
 179      0000
 180 00ee 394C241C 		cmpl	%ecx, 28(%esp)	# tmp83, tv.tv_usec
 181 00f2 0F9DC1   		setge	%cl	#, iftmp.0
 182 00f5 84C9     		testb	%cl, %cl	# iftmp.0
 183 00f7 759D     		jne	.L27	#,
 184 00f9 EBD7     		jmp	.L5	#
 185              		.cfi_endproc
 186              	.LFE50:
 187              		.size	ChkIntSources, .-ChkIntSources
 188              		.local	nextcnt
 189              		.comm	nextcnt,8,4
 190              	.Letext0:
 191              		.file 2 "/usr/lib/gcc/x86_64-linux-gnu/4.8/include/stddef.h"
 192              		.file 3 "/usr/include/bits/types.h"
 193              		.file 4 "/usr/include/libio.h"
 194              		.file 5 "/usr/include/bits/time.h"
GAS LISTING /tmp/ccTVMtAn.s 			page 5


 195              		.file 6 "/usr/include/sys/time.h"
 196              		.file 7 "../../../os/ports/GCC/SIMIA32/chtypes.h"
 197              		.file 8 "/usr/include/stdio.h"
 198              		.file 9 "../../../os/hal/platforms/Posix/serial_lld.h"
 199              		.file 10 "../../../os/kernel/include/chschd.h"
 200              		.file 11 "../../../os/kernel/include/chsys.h"
 1268              		.section	.note.GNU-stack,"",@progbits
GAS LISTING /tmp/ccTVMtAn.s 			page 27

