GAS LISTING /tmp/ccL1wVks.s 			page 1


   1              		.file	"pal_lld.c"
   2              	# GNU C (Ubuntu 4.8.2-19ubuntu1) version 4.8.2 (x86_64-linux-gnu)
   3              	#	compiled by GNU C version 4.8.2, GMP version 5.1.3, MPFR version 3.1.2-p3, MPC version 1.0.1
   4              	# GGC heuristics: --param ggc-min-expand=97 --param ggc-min-heapsize=126309
   5              	# options passed:  -I . -I ../../../os/ports/GCC/SIMIA32
   6              	# -I ../../../os/kernel/include -I ../../../test -I ../../../os/hal/include
   7              	# -I ../../../os/hal/platforms/Posix -I ../../../boards/simulator
   8              	# -I ../../../os/various -imultilib 32 -imultiarch i386-linux-gnu
   9              	# -MD ../../../os/hal/platforms/Posix/pal_lld.d -MF .dep/pal_lld.o.d -MP
  10              	# -MQ ../../../os/hal/platforms/Posix/pal_lld.o -D SIMULATOR
  11              	# -D SHELL_USE_IPRINTF=FALSE ../../../os/hal/platforms/Posix/pal_lld.c -m32
  12              	# -mtune=generic -march=i686
  13              	# -auxbase-strip ../../../os/hal/platforms/Posix/pal_lld.o -ggdb -O2 -Wall
  14              	# -Wextra -Wstrict-prototypes -fomit-frame-pointer -fverbose-asm
  15              	# -fstack-protector -Wformat -Wformat-security
  16              	# options enabled:  -faggressive-loop-optimizations
  17              	# -fasynchronous-unwind-tables -fauto-inc-dec -fbranch-count-reg
  18              	# -fcaller-saves -fcombine-stack-adjustments -fcommon -fcompare-elim
  19              	# -fcprop-registers -fcrossjumping -fcse-follow-jumps -fdefer-pop
  20              	# -fdelete-null-pointer-checks -fdevirtualize -fdwarf2-cfi-asm
  21              	# -fearly-inlining -feliminate-unused-debug-types -fexpensive-optimizations
  22              	# -fforward-propagate -ffunction-cse -fgcse -fgcse-lm -fgnu-runtime
  23              	# -fguess-branch-probability -fhoist-adjacent-loads -fident -fif-conversion
  24              	# -fif-conversion2 -findirect-inlining -finline -finline-atomics
  25              	# -finline-functions-called-once -finline-small-functions -fipa-cp
  26              	# -fipa-profile -fipa-pure-const -fipa-reference -fipa-sra
  27              	# -fira-hoist-pressure -fira-share-save-slots -fira-share-spill-slots
  28              	# -fivopts -fkeep-static-consts -fleading-underscore -fmath-errno
  29              	# -fmerge-constants -fmerge-debug-strings -fmove-loop-invariants
  30              	# -fomit-frame-pointer -foptimize-register-move -foptimize-sibling-calls
  31              	# -foptimize-strlen -fpartial-inlining -fpcc-struct-return -fpeephole
  32              	# -fpeephole2 -fprefetch-loop-arrays -free -fregmove -freorder-blocks
  33              	# -freorder-functions -frerun-cse-after-loop
  34              	# -fsched-critical-path-heuristic -fsched-dep-count-heuristic
  35              	# -fsched-group-heuristic -fsched-interblock -fsched-last-insn-heuristic
  36              	# -fsched-rank-heuristic -fsched-spec -fsched-spec-insn-heuristic
  37              	# -fsched-stalled-insns-dep -fschedule-insns2 -fshow-column -fshrink-wrap
  38              	# -fsigned-zeros -fsplit-ivs-in-unroller -fsplit-wide-types
  39              	# -fstack-protector -fstrict-aliasing -fstrict-overflow
  40              	# -fstrict-volatile-bitfields -fsync-libcalls -fthread-jumps
  41              	# -ftoplevel-reorder -ftrapping-math -ftree-bit-ccp -ftree-builtin-call-dce
  42              	# -ftree-ccp -ftree-ch -ftree-coalesce-vars -ftree-copy-prop
  43              	# -ftree-copyrename -ftree-cselim -ftree-dce -ftree-dominator-opts
  44              	# -ftree-dse -ftree-forwprop -ftree-fre -ftree-loop-if-convert
  45              	# -ftree-loop-im -ftree-loop-ivcanon -ftree-loop-optimize
  46              	# -ftree-parallelize-loops= -ftree-phiprop -ftree-pre -ftree-pta
  47              	# -ftree-reassoc -ftree-scev-cprop -ftree-sink -ftree-slp-vectorize
  48              	# -ftree-slsr -ftree-sra -ftree-switch-conversion -ftree-tail-merge
  49              	# -ftree-ter -ftree-vect-loop-version -ftree-vrp -funit-at-a-time
  50              	# -funwind-tables -fvar-tracking -fvar-tracking-assignments -fverbose-asm
  51              	# -fzero-initialized-in-bss -m32 -m80387 -m96bit-long-double
  52              	# -maccumulate-outgoing-args -malign-stringops -mfancy-math-387
  53              	# -mfp-ret-in-387 -mglibc -mieee-fp -mlong-double-80 -mno-red-zone
  54              	# -mno-sse4 -mpush-args -msahf -mtls-direct-seg-refs
  55              	
  56              		.text
  57              	.Ltext0:
GAS LISTING /tmp/ccL1wVks.s 			page 2


  58              		.p2align 4,,15
  59              		.globl	_pal_lld_setgroupmode
  60              		.type	_pal_lld_setgroupmode, @function
  61              	_pal_lld_setgroupmode:
  62              	.LFB15:
  63              		.file 1 "../../../os/hal/platforms/Posix/pal_lld.c"
  64              		.loc 1 78 0
  65              		.cfi_startproc
  66              	.LVL0:
  67              		.loc 1 78 0
  68 0000 8B44240C 		movl	12(%esp), %eax	# mode, mode
  69 0004 8B542404 		movl	4(%esp), %edx	# port, port
  70              		.loc 1 80 0
  71 0008 83F801   		cmpl	$1, %eax	#, mode
  72 000b 7433     		je	.L3	#,
  73 000d 7221     		jb	.L4	#,
  74 000f 83F802   		cmpl	$2, %eax	#, mode
  75 0012 741C     		je	.L4	#,
  76 0014 83F806   		cmpl	$6, %eax	#, mode
  77              		.p2align 4,,5
  78 0017 750F     		jne	.L13	#,
  79              		.loc 1 88 0
  80 0019 8B442408 		movl	8(%esp), %eax	# mask, tmp72
  81 001d 094208   		orl	%eax, 8(%edx)	# tmp72, port_5(D)->dir
  82 0020 C3       		ret
  83              	.LVL1:
  84              		.p2align 4,,7
  85 0021 8DB42600 		.p2align 3
  85      000000
  86              	.L13:
  87 0028 F3C3     		rep ret
  88 002a 8DB60000 		.p2align 4,,7
  88      0000
  89              		.p2align 3
  90              	.L4:
  91              		.loc 1 83 0
  92 0030 8B442408 		movl	8(%esp), %eax	# mask, D.3186
  93              	.LVL2:
  94 0034 F7D0     		notl	%eax	# D.3186
  95 0036 214208   		andl	%eax, 8(%edx)	# D.3186, port_5(D)->dir
  96              		.loc 1 84 0
  97 0039 C3       		ret
  98              	.LVL3:
  99 003a 8DB60000 		.p2align 4,,7
  99      0000
 100              		.p2align 3
 101              	.L3:
 102              		.loc 1 86 0
 103 0040 8B442408 		movl	8(%esp), %eax	# mask, tmp71
 104              	.LVL4:
 105 0044 0902     		orl	%eax, (%edx)	# tmp71, port_5(D)->latch
 106              		.loc 1 88 0
 107 0046 8B442408 		movl	8(%esp), %eax	# mask, tmp72
 108 004a 094208   		orl	%eax, 8(%edx)	# tmp72, port_5(D)->dir
 109 004d C3       		ret
 110              		.cfi_endproc
 111              	.LFE15:
GAS LISTING /tmp/ccL1wVks.s 			page 3


 112              		.size	_pal_lld_setgroupmode, .-_pal_lld_setgroupmode
 113              		.comm	vio_port_2,12,4
 114              		.comm	vio_port_1,12,4
 115              	.Letext0:
 116              		.file 2 "../../../os/hal/platforms/Posix/pal_lld.h"
 117              		.file 3 "/usr/include/stdint.h"
 118              		.section	.debug_info,"",@progbits
 119              	.Ldebug_info0:
 120 0000 4B010000 		.long	0x14b
 121 0004 0400     		.value	0x4
 122 0006 00000000 		.long	.Ldebug_abbrev0
 123 000a 04       		.byte	0x4
 124 000b 01       		.uleb128 0x1
 125 000c 33000000 		.long	.LASF23
 126 0010 01       		.byte	0x1
 127 0011 90000000 		.long	.LASF24
 128 0015 83010000 		.long	.LASF25
 129 0019 00000000 		.long	.Ltext0
 130 001d 4E000000 		.long	.Letext0-.Ltext0
 131 0021 00000000 		.long	.Ldebug_line0
 132 0025 02       		.uleb128 0x2
 133 0026 04       		.byte	0x4
 134 0027 05       		.byte	0x5
 135 0028 696E7400 		.string	"int"
 136 002c 03       		.uleb128 0x3
 137 002d 04       		.byte	0x4
 138 002e 07       		.byte	0x7
 139 002f 21000000 		.long	.LASF0
 140 0033 03       		.uleb128 0x3
 141 0034 04       		.byte	0x4
 142 0035 05       		.byte	0x5
 143 0036 2B010000 		.long	.LASF1
 144 003a 03       		.uleb128 0x3
 145 003b 01       		.byte	0x1
 146 003c 06       		.byte	0x6
 147 003d 5C010000 		.long	.LASF2
 148 0041 03       		.uleb128 0x3
 149 0042 02       		.byte	0x2
 150 0043 05       		.byte	0x5
 151 0044 34010000 		.long	.LASF3
 152 0048 03       		.uleb128 0x3
 153 0049 08       		.byte	0x8
 154 004a 05       		.byte	0x5
 155 004b 00000000 		.long	.LASF4
 156 004f 03       		.uleb128 0x3
 157 0050 01       		.byte	0x1
 158 0051 08       		.byte	0x8
 159 0052 F9000000 		.long	.LASF5
 160 0056 03       		.uleb128 0x3
 161 0057 02       		.byte	0x2
 162 0058 07       		.byte	0x7
 163 0059 0E000000 		.long	.LASF6
 164 005d 04       		.uleb128 0x4
 165 005e 22010000 		.long	.LASF13
 166 0062 03       		.byte	0x3
 167 0063 33       		.byte	0x33
 168 0064 2C000000 		.long	0x2c
GAS LISTING /tmp/ccL1wVks.s 			page 4


 169 0068 03       		.uleb128 0x3
 170 0069 08       		.byte	0x8
 171 006a 07       		.byte	0x7
 172 006b CC000000 		.long	.LASF7
 173 006f 03       		.uleb128 0x3
 174 0070 01       		.byte	0x1
 175 0071 02       		.byte	0x2
 176 0072 3E010000 		.long	.LASF8
 177 0076 03       		.uleb128 0x3
 178 0077 04       		.byte	0x4
 179 0078 07       		.byte	0x7
 180 0079 B8010000 		.long	.LASF9
 181 007d 03       		.uleb128 0x3
 182 007e 01       		.byte	0x1
 183 007f 06       		.byte	0x6
 184 0080 1D010000 		.long	.LASF10
 185 0084 03       		.uleb128 0x3
 186 0085 04       		.byte	0x4
 187 0086 07       		.byte	0x7
 188 0087 BA000000 		.long	.LASF11
 189 008b 05       		.uleb128 0x5
 190 008c 0C       		.byte	0xc
 191 008d 02       		.byte	0x2
 192 008e 2E       		.byte	0x2e
 193 008f B8000000 		.long	0xb8
 194 0093 06       		.uleb128 0x6
 195 0094 EE000000 		.long	.LASF12
 196 0098 02       		.byte	0x2
 197 0099 33       		.byte	0x33
 198 009a 5D000000 		.long	0x5d
 199 009e 00       		.byte	0
 200 009f 07       		.uleb128 0x7
 201 00a0 70696E00 		.string	"pin"
 202 00a4 02       		.byte	0x2
 203 00a5 39       		.byte	0x39
 204 00a6 5D000000 		.long	0x5d
 205 00aa 04       		.byte	0x4
 206 00ab 07       		.uleb128 0x7
 207 00ac 64697200 		.string	"dir"
 208 00b0 02       		.byte	0x2
 209 00b1 3E       		.byte	0x3e
 210 00b2 5D000000 		.long	0x5d
 211 00b6 08       		.byte	0x8
 212 00b7 00       		.byte	0
 213 00b8 04       		.uleb128 0x4
 214 00b9 44010000 		.long	.LASF14
 215 00bd 02       		.byte	0x2
 216 00be 3F       		.byte	0x3f
 217 00bf 8B000000 		.long	0x8b
 218 00c3 04       		.uleb128 0x4
 219 00c4 AB010000 		.long	.LASF15
 220 00c8 02       		.byte	0x2
 221 00c9 61       		.byte	0x61
 222 00ca 5D000000 		.long	0x5d
 223 00ce 04       		.uleb128 0x4
 224 00cf 53010000 		.long	.LASF16
 225 00d3 02       		.byte	0x2
GAS LISTING /tmp/ccL1wVks.s 			page 5


 226 00d4 66       		.byte	0x66
 227 00d5 5D000000 		.long	0x5d
 228 00d9 04       		.uleb128 0x4
 229 00da E3000000 		.long	.LASF17
 230 00de 02       		.byte	0x2
 231 00df 6B       		.byte	0x6b
 232 00e0 E4000000 		.long	0xe4
 233 00e4 08       		.uleb128 0x8
 234 00e5 04       		.byte	0x4
 235 00e6 B8000000 		.long	0xb8
 236 00ea 09       		.uleb128 0x9
 237 00eb 07010000 		.long	.LASF26
 238 00ef 01       		.byte	0x1
 239 00f0 4C       		.byte	0x4c
 240 00f1 00000000 		.long	.LFB15
 241 00f5 4E000000 		.long	.LFE15-.LFB15
 242 00f9 01       		.uleb128 0x1
 243 00fa 9C       		.byte	0x9c
 244 00fb 2C010000 		.long	0x12c
 245 00ff 0A       		.uleb128 0xa
 246 0100 68010000 		.long	.LASF18
 247 0104 01       		.byte	0x1
 248 0105 4C       		.byte	0x4c
 249 0106 D9000000 		.long	0xd9
 250 010a 00000000 		.long	.LLST0
 251 010e 0B       		.uleb128 0xb
 252 010f F4000000 		.long	.LASF19
 253 0113 01       		.byte	0x1
 254 0114 4D       		.byte	0x4d
 255 0115 C3000000 		.long	0xc3
 256 0119 02       		.uleb128 0x2
 257 011a 91       		.byte	0x91
 258 011b 04       		.sleb128 4
 259 011c 0A       		.uleb128 0xa
 260 011d 2E000000 		.long	.LASF20
 261 0121 01       		.byte	0x1
 262 0122 4E       		.byte	0x4e
 263 0123 CE000000 		.long	0xce
 264 0127 1F000000 		.long	.LLST1
 265 012b 00       		.byte	0
 266 012c 0C       		.uleb128 0xc
 267 012d 6D010000 		.long	.LASF21
 268 0131 01       		.byte	0x1
 269 0132 25       		.byte	0x25
 270 0133 B8000000 		.long	0xb8
 271 0137 05       		.uleb128 0x5
 272 0138 03       		.byte	0x3
 273 0139 00000000 		.long	vio_port_1
 274 013d 0C       		.uleb128 0xc
 275 013e 78010000 		.long	.LASF22
 276 0142 01       		.byte	0x1
 277 0143 2A       		.byte	0x2a
 278 0144 B8000000 		.long	0xb8
 279 0148 05       		.uleb128 0x5
 280 0149 03       		.byte	0x3
 281 014a 00000000 		.long	vio_port_2
 282 014e 00       		.byte	0
GAS LISTING /tmp/ccL1wVks.s 			page 6


 283              		.section	.debug_abbrev,"",@progbits
 284              	.Ldebug_abbrev0:
 285 0000 01       		.uleb128 0x1
 286 0001 11       		.uleb128 0x11
 287 0002 01       		.byte	0x1
 288 0003 25       		.uleb128 0x25
 289 0004 0E       		.uleb128 0xe
 290 0005 13       		.uleb128 0x13
 291 0006 0B       		.uleb128 0xb
 292 0007 03       		.uleb128 0x3
 293 0008 0E       		.uleb128 0xe
 294 0009 1B       		.uleb128 0x1b
 295 000a 0E       		.uleb128 0xe
 296 000b 11       		.uleb128 0x11
 297 000c 01       		.uleb128 0x1
 298 000d 12       		.uleb128 0x12
 299 000e 06       		.uleb128 0x6
 300 000f 10       		.uleb128 0x10
 301 0010 17       		.uleb128 0x17
 302 0011 00       		.byte	0
 303 0012 00       		.byte	0
 304 0013 02       		.uleb128 0x2
 305 0014 24       		.uleb128 0x24
 306 0015 00       		.byte	0
 307 0016 0B       		.uleb128 0xb
 308 0017 0B       		.uleb128 0xb
 309 0018 3E       		.uleb128 0x3e
 310 0019 0B       		.uleb128 0xb
 311 001a 03       		.uleb128 0x3
 312 001b 08       		.uleb128 0x8
 313 001c 00       		.byte	0
 314 001d 00       		.byte	0
 315 001e 03       		.uleb128 0x3
 316 001f 24       		.uleb128 0x24
 317 0020 00       		.byte	0
 318 0021 0B       		.uleb128 0xb
 319 0022 0B       		.uleb128 0xb
 320 0023 3E       		.uleb128 0x3e
 321 0024 0B       		.uleb128 0xb
 322 0025 03       		.uleb128 0x3
 323 0026 0E       		.uleb128 0xe
 324 0027 00       		.byte	0
 325 0028 00       		.byte	0
 326 0029 04       		.uleb128 0x4
 327 002a 16       		.uleb128 0x16
 328 002b 00       		.byte	0
 329 002c 03       		.uleb128 0x3
 330 002d 0E       		.uleb128 0xe
 331 002e 3A       		.uleb128 0x3a
 332 002f 0B       		.uleb128 0xb
 333 0030 3B       		.uleb128 0x3b
 334 0031 0B       		.uleb128 0xb
 335 0032 49       		.uleb128 0x49
 336 0033 13       		.uleb128 0x13
 337 0034 00       		.byte	0
 338 0035 00       		.byte	0
 339 0036 05       		.uleb128 0x5
GAS LISTING /tmp/ccL1wVks.s 			page 7


 340 0037 13       		.uleb128 0x13
 341 0038 01       		.byte	0x1
 342 0039 0B       		.uleb128 0xb
 343 003a 0B       		.uleb128 0xb
 344 003b 3A       		.uleb128 0x3a
 345 003c 0B       		.uleb128 0xb
 346 003d 3B       		.uleb128 0x3b
 347 003e 0B       		.uleb128 0xb
 348 003f 01       		.uleb128 0x1
 349 0040 13       		.uleb128 0x13
 350 0041 00       		.byte	0
 351 0042 00       		.byte	0
 352 0043 06       		.uleb128 0x6
 353 0044 0D       		.uleb128 0xd
 354 0045 00       		.byte	0
 355 0046 03       		.uleb128 0x3
 356 0047 0E       		.uleb128 0xe
 357 0048 3A       		.uleb128 0x3a
 358 0049 0B       		.uleb128 0xb
 359 004a 3B       		.uleb128 0x3b
 360 004b 0B       		.uleb128 0xb
 361 004c 49       		.uleb128 0x49
 362 004d 13       		.uleb128 0x13
 363 004e 38       		.uleb128 0x38
 364 004f 0B       		.uleb128 0xb
 365 0050 00       		.byte	0
 366 0051 00       		.byte	0
 367 0052 07       		.uleb128 0x7
 368 0053 0D       		.uleb128 0xd
 369 0054 00       		.byte	0
 370 0055 03       		.uleb128 0x3
 371 0056 08       		.uleb128 0x8
 372 0057 3A       		.uleb128 0x3a
 373 0058 0B       		.uleb128 0xb
 374 0059 3B       		.uleb128 0x3b
 375 005a 0B       		.uleb128 0xb
 376 005b 49       		.uleb128 0x49
 377 005c 13       		.uleb128 0x13
 378 005d 38       		.uleb128 0x38
 379 005e 0B       		.uleb128 0xb
 380 005f 00       		.byte	0
 381 0060 00       		.byte	0
 382 0061 08       		.uleb128 0x8
 383 0062 0F       		.uleb128 0xf
 384 0063 00       		.byte	0
 385 0064 0B       		.uleb128 0xb
 386 0065 0B       		.uleb128 0xb
 387 0066 49       		.uleb128 0x49
 388 0067 13       		.uleb128 0x13
 389 0068 00       		.byte	0
 390 0069 00       		.byte	0
 391 006a 09       		.uleb128 0x9
 392 006b 2E       		.uleb128 0x2e
 393 006c 01       		.byte	0x1
 394 006d 3F       		.uleb128 0x3f
 395 006e 19       		.uleb128 0x19
 396 006f 03       		.uleb128 0x3
GAS LISTING /tmp/ccL1wVks.s 			page 8


 397 0070 0E       		.uleb128 0xe
 398 0071 3A       		.uleb128 0x3a
 399 0072 0B       		.uleb128 0xb
 400 0073 3B       		.uleb128 0x3b
 401 0074 0B       		.uleb128 0xb
 402 0075 27       		.uleb128 0x27
 403 0076 19       		.uleb128 0x19
 404 0077 11       		.uleb128 0x11
 405 0078 01       		.uleb128 0x1
 406 0079 12       		.uleb128 0x12
 407 007a 06       		.uleb128 0x6
 408 007b 40       		.uleb128 0x40
 409 007c 18       		.uleb128 0x18
 410 007d 9742     		.uleb128 0x2117
 411 007f 19       		.uleb128 0x19
 412 0080 01       		.uleb128 0x1
 413 0081 13       		.uleb128 0x13
 414 0082 00       		.byte	0
 415 0083 00       		.byte	0
 416 0084 0A       		.uleb128 0xa
 417 0085 05       		.uleb128 0x5
 418 0086 00       		.byte	0
 419 0087 03       		.uleb128 0x3
 420 0088 0E       		.uleb128 0xe
 421 0089 3A       		.uleb128 0x3a
 422 008a 0B       		.uleb128 0xb
 423 008b 3B       		.uleb128 0x3b
 424 008c 0B       		.uleb128 0xb
 425 008d 49       		.uleb128 0x49
 426 008e 13       		.uleb128 0x13
 427 008f 02       		.uleb128 0x2
 428 0090 17       		.uleb128 0x17
 429 0091 00       		.byte	0
 430 0092 00       		.byte	0
 431 0093 0B       		.uleb128 0xb
 432 0094 05       		.uleb128 0x5
 433 0095 00       		.byte	0
 434 0096 03       		.uleb128 0x3
 435 0097 0E       		.uleb128 0xe
 436 0098 3A       		.uleb128 0x3a
 437 0099 0B       		.uleb128 0xb
 438 009a 3B       		.uleb128 0x3b
 439 009b 0B       		.uleb128 0xb
 440 009c 49       		.uleb128 0x49
 441 009d 13       		.uleb128 0x13
 442 009e 02       		.uleb128 0x2
 443 009f 18       		.uleb128 0x18
 444 00a0 00       		.byte	0
 445 00a1 00       		.byte	0
 446 00a2 0C       		.uleb128 0xc
 447 00a3 34       		.uleb128 0x34
 448 00a4 00       		.byte	0
 449 00a5 03       		.uleb128 0x3
 450 00a6 0E       		.uleb128 0xe
 451 00a7 3A       		.uleb128 0x3a
 452 00a8 0B       		.uleb128 0xb
 453 00a9 3B       		.uleb128 0x3b
GAS LISTING /tmp/ccL1wVks.s 			page 9


 454 00aa 0B       		.uleb128 0xb
 455 00ab 49       		.uleb128 0x49
 456 00ac 13       		.uleb128 0x13
 457 00ad 3F       		.uleb128 0x3f
 458 00ae 19       		.uleb128 0x19
 459 00af 02       		.uleb128 0x2
 460 00b0 18       		.uleb128 0x18
 461 00b1 00       		.byte	0
 462 00b2 00       		.byte	0
 463 00b3 00       		.byte	0
 464              		.section	.debug_loc,"",@progbits
 465              	.Ldebug_loc0:
 466              	.LLST0:
 467 0000 00000000 		.long	.LVL0-.Ltext0
 468 0004 3A000000 		.long	.LVL3-.Ltext0
 469 0008 0200     		.value	0x2
 470 000a 91       		.byte	0x91
 471 000b 00       		.sleb128 0
 472 000c 3A000000 		.long	.LVL3-.Ltext0
 473 0010 4E000000 		.long	.LFE15-.Ltext0
 474 0014 0100     		.value	0x1
 475 0016 52       		.byte	0x52
 476 0017 00000000 		.long	0
 477 001b 00000000 		.long	0
 478              	.LLST1:
 479 001f 00000000 		.long	.LVL0-.Ltext0
 480 0023 21000000 		.long	.LVL1-.Ltext0
 481 0027 0200     		.value	0x2
 482 0029 91       		.byte	0x91
 483 002a 08       		.sleb128 8
 484 002b 21000000 		.long	.LVL1-.Ltext0
 485 002f 34000000 		.long	.LVL2-.Ltext0
 486 0033 0100     		.value	0x1
 487 0035 50       		.byte	0x50
 488 0036 34000000 		.long	.LVL2-.Ltext0
 489 003a 3A000000 		.long	.LVL3-.Ltext0
 490 003e 0200     		.value	0x2
 491 0040 91       		.byte	0x91
 492 0041 08       		.sleb128 8
 493 0042 3A000000 		.long	.LVL3-.Ltext0
 494 0046 44000000 		.long	.LVL4-.Ltext0
 495 004a 0100     		.value	0x1
 496 004c 50       		.byte	0x50
 497 004d 44000000 		.long	.LVL4-.Ltext0
 498 0051 4E000000 		.long	.LFE15-.Ltext0
 499 0055 0200     		.value	0x2
 500 0057 91       		.byte	0x91
 501 0058 08       		.sleb128 8
 502 0059 00000000 		.long	0
 503 005d 00000000 		.long	0
 504              		.section	.debug_aranges,"",@progbits
 505 0000 1C000000 		.long	0x1c
 506 0004 0200     		.value	0x2
 507 0006 00000000 		.long	.Ldebug_info0
 508 000a 04       		.byte	0x4
 509 000b 00       		.byte	0
 510 000c 0000     		.value	0
GAS LISTING /tmp/ccL1wVks.s 			page 10


 511 000e 0000     		.value	0
 512 0010 00000000 		.long	.Ltext0
 513 0014 4E000000 		.long	.Letext0-.Ltext0
 514 0018 00000000 		.long	0
 515 001c 00000000 		.long	0
 516              		.section	.debug_line,"",@progbits
 517              	.Ldebug_line0:
 518 0000 85000000 		.section	.debug_str,"MS",@progbits,1
 518      02006600 
 518      00000101 
 518      FB0E0D00 
 518      01010101 
 519              	.LASF4:
 520 0000 6C6F6E67 		.string	"long long int"
 520      206C6F6E 
 520      6720696E 
 520      7400
 521              	.LASF6:
 522 000e 73686F72 		.string	"short unsigned int"
 522      7420756E 
 522      7369676E 
 522      65642069 
 522      6E7400
 523              	.LASF0:
 524 0021 756E7369 		.string	"unsigned int"
 524      676E6564 
 524      20696E74 
 524      00
 525              	.LASF20:
 526 002e 6D6F6465 		.string	"mode"
 526      00
 527              	.LASF23:
 528 0033 474E5520 		.string	"GNU C 4.8.2 -m32 -mtune=generic -march=i686 -ggdb -O2 -fomit-frame-pointer -fstack-protec
 528      4320342E 
 528      382E3220 
 528      2D6D3332 
 528      202D6D74 
 529              	.LASF24:
 530 0090 2E2E2F2E 		.string	"../../../os/hal/platforms/Posix/pal_lld.c"
 530      2E2F2E2E 
 530      2F6F732F 
 530      68616C2F 
 530      706C6174 
 531              	.LASF11:
 532 00ba 6C6F6E67 		.string	"long unsigned int"
 532      20756E73 
 532      69676E65 
 532      6420696E 
 532      7400
 533              	.LASF7:
 534 00cc 6C6F6E67 		.string	"long long unsigned int"
 534      206C6F6E 
 534      6720756E 
 534      7369676E 
 534      65642069 
 535              	.LASF17:
 536 00e3 696F706F 		.string	"ioportid_t"
GAS LISTING /tmp/ccL1wVks.s 			page 11


 536      72746964 
 536      5F7400
 537              	.LASF12:
 538 00ee 6C617463 		.string	"latch"
 538      6800
 539              	.LASF19:
 540 00f4 6D61736B 		.string	"mask"
 540      00
 541              	.LASF5:
 542 00f9 756E7369 		.string	"unsigned char"
 542      676E6564 
 542      20636861 
 542      7200
 543              	.LASF26:
 544 0107 5F70616C 		.string	"_pal_lld_setgroupmode"
 544      5F6C6C64 
 544      5F736574 
 544      67726F75 
 544      706D6F64 
 545              	.LASF10:
 546 011d 63686172 		.string	"char"
 546      00
 547              	.LASF13:
 548 0122 75696E74 		.string	"uint32_t"
 548      33325F74 
 548      00
 549              	.LASF1:
 550 012b 6C6F6E67 		.string	"long int"
 550      20696E74 
 550      00
 551              	.LASF3:
 552 0134 73686F72 		.string	"short int"
 552      7420696E 
 552      7400
 553              	.LASF8:
 554 013e 5F426F6F 		.string	"_Bool"
 554      6C00
 555              	.LASF14:
 556 0144 73696D5F 		.string	"sim_vio_port_t"
 556      76696F5F 
 556      706F7274 
 556      5F7400
 557              	.LASF16:
 558 0153 696F6D6F 		.string	"iomode_t"
 558      64655F74 
 558      00
 559              	.LASF2:
 560 015c 7369676E 		.string	"signed char"
 560      65642063 
 560      68617200 
 561              	.LASF18:
 562 0168 706F7274 		.string	"port"
 562      00
 563              	.LASF21:
 564 016d 76696F5F 		.string	"vio_port_1"
 564      706F7274 
 564      5F3100
GAS LISTING /tmp/ccL1wVks.s 			page 12


 565              	.LASF22:
 566 0178 76696F5F 		.string	"vio_port_2"
 566      706F7274 
 566      5F3200
 567              	.LASF25:
 568 0183 2F686F6D 		.string	"/home/tony/ChibiOS-RT/testhal/Posix/EXT"
 568      652F746F 
 568      6E792F43 
 568      68696269 
 568      4F532D52 
 569              	.LASF15:
 570 01ab 696F706F 		.string	"ioportmask_t"
 570      72746D61 
 570      736B5F74 
 570      00
 571              	.LASF9:
 572 01b8 73697A65 		.string	"sizetype"
 572      74797065 
 572      00
 573              		.ident	"GCC: (Ubuntu 4.8.2-19ubuntu1) 4.8.2"
 574              		.section	.note.GNU-stack,"",@progbits
GAS LISTING /tmp/ccL1wVks.s 			page 13


DEFINED SYMBOLS
                            *ABS*:0000000000000000 pal_lld.c
     /tmp/ccL1wVks.s:61     .text:0000000000000000 _pal_lld_setgroupmode
                            *COM*:000000000000000c vio_port_2
                            *COM*:000000000000000c vio_port_1

NO UNDEFINED SYMBOLS
