GAS LISTING /tmp/cccL9HEy.s 			page 1


   1              		.file	"serial_lld.c"
   2              	# GNU C (Ubuntu 4.8.2-19ubuntu1) version 4.8.2 (x86_64-linux-gnu)
   3              	#	compiled by GNU C version 4.8.2, GMP version 5.1.3, MPFR version 3.1.2-p3, MPC version 1.0.1
   4              	# GGC heuristics: --param ggc-min-expand=97 --param ggc-min-heapsize=126309
   5              	# options passed:  -I . -I ../../../os/ports/GCC/SIMIA32
   6              	# -I ../../../os/kernel/include -I ../../../test -I ../../../os/hal/include
   7              	# -I ../../../os/hal/platforms/Posix -I ../../../boards/simulator
   8              	# -I ../../../os/various -imultilib 32 -imultiarch i386-linux-gnu
   9              	# -MD ../../../os/hal/platforms/Posix/serial_lld.d -MF .dep/serial_lld.o.d
  10              	# -MP -MQ ../../../os/hal/platforms/Posix/serial_lld.o -D SIMULATOR
  11              	# -D SHELL_USE_IPRINTF=FALSE ../../../os/hal/platforms/Posix/serial_lld.c
  12              	# -m32 -mtune=generic -march=i686
  13              	# -auxbase-strip ../../../os/hal/platforms/Posix/serial_lld.o -ggdb -O2
  14              	# -Wall -Wextra -Wstrict-prototypes -fomit-frame-pointer -fverbose-asm
  15              	# -fstack-protector -Wformat -Wformat-security
  16              	# options enabled:  -faggressive-loop-optimizations
  17              	# -fasynchronous-unwind-tables -fauto-inc-dec -fbranch-count-reg
  18              	# -fcaller-saves -fcombine-stack-adjustments -fcommon -fcompare-elim
  19              	# -fcprop-registers -fcrossjumping -fcse-follow-jumps -fdefer-pop
  20              	# -fdelete-null-pointer-checks -fdevirtualize -fdwarf2-cfi-asm
  21              	# -fearly-inlining -feliminate-unused-debug-types -fexpensive-optimizations
  22              	# -fforward-propagate -ffunction-cse -fgcse -fgcse-lm -fgnu-runtime
  23              	# -fguess-branch-probability -fhoist-adjacent-loads -fident -fif-conversion
  24              	# -fif-conversion2 -findirect-inlining -finline -finline-atomics
  25              	# -finline-functions-called-once -finline-small-functions -fipa-cp
  26              	# -fipa-profile -fipa-pure-const -fipa-reference -fipa-sra
  27              	# -fira-hoist-pressure -fira-share-save-slots -fira-share-spill-slots
  28              	# -fivopts -fkeep-static-consts -fleading-underscore -fmath-errno
  29              	# -fmerge-constants -fmerge-debug-strings -fmove-loop-invariants
  30              	# -fomit-frame-pointer -foptimize-register-move -foptimize-sibling-calls
  31              	# -foptimize-strlen -fpartial-inlining -fpcc-struct-return -fpeephole
  32              	# -fpeephole2 -fprefetch-loop-arrays -free -fregmove -freorder-blocks
  33              	# -freorder-functions -frerun-cse-after-loop
  34              	# -fsched-critical-path-heuristic -fsched-dep-count-heuristic
  35              	# -fsched-group-heuristic -fsched-interblock -fsched-last-insn-heuristic
  36              	# -fsched-rank-heuristic -fsched-spec -fsched-spec-insn-heuristic
  37              	# -fsched-stalled-insns-dep -fschedule-insns2 -fshow-column -fshrink-wrap
  38              	# -fsigned-zeros -fsplit-ivs-in-unroller -fsplit-wide-types
  39              	# -fstack-protector -fstrict-aliasing -fstrict-overflow
  40              	# -fstrict-volatile-bitfields -fsync-libcalls -fthread-jumps
  41              	# -ftoplevel-reorder -ftrapping-math -ftree-bit-ccp -ftree-builtin-call-dce
  42              	# -ftree-ccp -ftree-ch -ftree-coalesce-vars -ftree-copy-prop
  43              	# -ftree-copyrename -ftree-cselim -ftree-dce -ftree-dominator-opts
  44              	# -ftree-dse -ftree-forwprop -ftree-fre -ftree-loop-if-convert
  45              	# -ftree-loop-im -ftree-loop-ivcanon -ftree-loop-optimize
  46              	# -ftree-parallelize-loops= -ftree-phiprop -ftree-pre -ftree-pta
  47              	# -ftree-reassoc -ftree-scev-cprop -ftree-sink -ftree-slp-vectorize
  48              	# -ftree-slsr -ftree-sra -ftree-switch-conversion -ftree-tail-merge
  49              	# -ftree-ter -ftree-vect-loop-version -ftree-vrp -funit-at-a-time
  50              	# -funwind-tables -fvar-tracking -fvar-tracking-assignments -fverbose-asm
  51              	# -fzero-initialized-in-bss -m32 -m80387 -m96bit-long-double
  52              	# -maccumulate-outgoing-args -malign-stringops -mfancy-math-387
  53              	# -mfp-ret-in-387 -mglibc -mieee-fp -mlong-double-80 -mno-red-zone
  54              	# -mno-sse4 -mpush-args -msahf -mtls-direct-seg-refs
  55              	
  56              		.text
  57              	.Ltext0:
GAS LISTING /tmp/cccL9HEy.s 			page 2


  58              		.p2align 4,,15
  59              		.type	inint, @function
  60              	inint:
  61              	.LFB84:
  62              		.file 1 "../../../os/hal/platforms/Posix/serial_lld.c"
  63              		.loc 1 139 0
  64              		.cfi_startproc
  65              	.LVL0:
  66 0000 57       		pushl	%edi	#
  67              		.cfi_def_cfa_offset 8
  68              		.cfi_offset 7, -8
  69              		.loc 1 171 0
  70 0001 31FF     		xorl	%edi, %edi	# D.5710
  71              		.loc 1 139 0
  72 0003 56       		pushl	%esi	#
  73              		.cfi_def_cfa_offset 12
  74              		.cfi_offset 6, -12
  75 0004 89C6     		movl	%eax, %esi	# sdp, sdp
  76 0006 53       		pushl	%ebx	#
  77              		.cfi_def_cfa_offset 16
  78              		.cfi_offset 3, -16
  79 0007 83EC40   		subl	$64, %esp	#,
  80              		.cfi_def_cfa_offset 80
  81              		.loc 1 141 0
  82 000a 8B969800 		movl	152(%esi), %edx	# sdp_8(D)->com_data, D.5711
  82      0000
  83              		.loc 1 139 0
  84 0010 65A11400 		movl	%gs:20, %eax	#, tmp83
  84      0000
  85 0016 8944243C 		movl	%eax, 60(%esp)	# tmp83, D.5717
  86 001a 31C0     		xorl	%eax, %eax	# tmp83
  87              	.LVL1:
  88              		.loc 1 141 0
  89 001c 83FAFF   		cmpl	$-1, %edx	#, D.5711
  90 001f 7452     		je	.L2	#,
  91              	.LVL2:
  92              	.LBB46:
  93              	.LBB47:
  94              	.LBB48:
  95              		.file 2 "/usr/include/bits/socket2.h"
  96              		.loc 2 44 0
  97 0021 8D5C241C 		leal	28(%esp), %ebx	#, tmp76
  98              	.LVL3:
  99 0025 C744240C 		movl	$0, 12(%esp)	#,
  99      00000000 
 100 002d C7442408 		movl	$32, 8(%esp)	#,
 100      20000000 
 101 0035 895C2404 		movl	%ebx, 4(%esp)	# tmp76,
 102 0039 891424   		movl	%edx, (%esp)	# D.5711,
 103 003c E8FCFFFF 		call	recv	#
 103      FF
 104              	.LVL4:
 105              	.LBE48:
 106              	.LBE47:
 107              		.loc 1 149 0
 108 0041 83F8FF   		cmpl	$-1, %eax	#, D.5715
 109 0044 744A     		je	.L4	#,
GAS LISTING /tmp/cccL9HEy.s 			page 3


 110 0046 85C0     		testl	%eax, %eax	# D.5715
 111 0048 746E     		je	.L5	#,
 112              	.LVL5:
 113              		.loc 1 164 0
 114 004a 85C0     		testl	%eax, %eax	# D.5715
 115 004c 8D3C03   		leal	(%ebx,%eax), %edi	#, D.5716
 116 004f 7E1D     		jle	.L8	#,
 117              	.LVL6:
 118              		.p2align 4,,7
 119 0051 8DB42600 		.p2align 3
 119      000000
 120              	.L13:
 121              		.loc 1 166 0 discriminator 2
 122 0058 0FB613   		movzbl	(%ebx), %edx	# MEM[base: _1, offset: 0B], MEM[base: _1, offset: 0B]
 123 005b 83C301   		addl	$1, %ebx	#, ivtmp.18
 124              	.LVL7:
 125 005e 893424   		movl	%esi, (%esp)	# sdp,
 126 0061 89542404 		movl	%edx, 4(%esp)	# MEM[base: _1, offset: 0B],
 127 0065 E8FCFFFF 		call	sdIncomingDataI	#
 127      FF
 128              	.LVL8:
 129              		.loc 1 164 0 discriminator 2
 130 006a 39FB     		cmpl	%edi, %ebx	# D.5716, ivtmp.18
 131 006c 75EA     		jne	.L13	#,
 132              	.L8:
 133              		.loc 1 169 0
 134 006e BF010000 		movl	$1, %edi	#, D.5710
 134      00
 135              	.LVL9:
 136              	.L2:
 137              	.LBE46:
 138              		.loc 1 172 0
 139 0073 8B4C243C 		movl	60(%esp), %ecx	# D.5717, tmp84
 140 0077 65330D14 		xorl	%gs:20, %ecx	#, tmp84
 140      000000
 141 007e 89F8     		movl	%edi, %eax	# D.5710,
 142 0080 7563     		jne	.L17	#,
 143 0082 83C440   		addl	$64, %esp	#,
 144              		.cfi_remember_state
 145              		.cfi_def_cfa_offset 16
 146 0085 5B       		popl	%ebx	#
 147              		.cfi_restore 3
 148              		.cfi_def_cfa_offset 12
 149 0086 5E       		popl	%esi	#
 150              		.cfi_restore 6
 151              		.cfi_def_cfa_offset 8
 152 0087 5F       		popl	%edi	#
 153              		.cfi_restore 7
 154              		.cfi_def_cfa_offset 4
 155 0088 C3       		ret
 156              	.LVL10:
 157 0089 8DB42600 		.p2align 4,,7
 157      000000
 158              		.p2align 3
 159              	.L4:
 160              		.cfi_restore_state
 161              	.LBB49:
GAS LISTING /tmp/cccL9HEy.s 			page 4


 162              		.loc 1 158 0
 163 0090 E8FCFFFF 		call	__errno_location	#
 163      FF
 164              	.LVL11:
 165 0095 83380B   		cmpl	$11, (%eax)	#, *_16
 166 0098 74D9     		je	.L2	#,
 167              		.loc 1 160 0
 168 009a 8B869800 		movl	152(%esi), %eax	# sdp_8(D)->com_data, sdp_8(D)->com_data
 168      0000
 169 00a0 890424   		movl	%eax, (%esp)	# sdp_8(D)->com_data,
 170 00a3 E8FCFFFF 		call	close	#
 170      FF
 171              	.LVL12:
 172              		.loc 1 161 0
 173 00a8 C7869800 		movl	$-1, 152(%esi)	#, sdp_8(D)->com_data
 173      0000FFFF 
 173      FFFF
 174              		.loc 1 162 0
 175 00b2 EBBF     		jmp	.L2	#
 176              		.p2align 4,,7
 177 00b4 8D742600 		.p2align 3
 178              	.L5:
 179              		.loc 1 151 0
 180 00b8 8B869800 		movl	152(%esi), %eax	# sdp_8(D)->com_data, sdp_8(D)->com_data
 180      0000
 181              		.loc 1 154 0
 182 00be 83C604   		addl	$4, %esi	#, tmp78
 183              	.LVL13:
 184              		.loc 1 151 0
 185 00c1 890424   		movl	%eax, (%esp)	# sdp_8(D)->com_data,
 186 00c4 E8FCFFFF 		call	close	#
 186      FF
 187              	.LVL14:
 188              		.loc 1 152 0
 189 00c9 C7869400 		movl	$-1, 148(%esi)	#, sdp_8(D)->com_data
 189      0000FFFF 
 189      FFFF
 190              		.loc 1 154 0
 191 00d3 C7442404 		movl	$2, 4(%esp)	#,
 191      02000000 
 192 00db 893424   		movl	%esi, (%esp)	# tmp78,
 193 00de E8FCFFFF 		call	chEvtBroadcastFlagsI	#
 193      FF
 194              	.LVL15:
 195              		.loc 1 156 0
 196 00e3 EB8E     		jmp	.L2	#
 197              	.LVL16:
 198              	.L17:
 199              	.LBE49:
 200              		.loc 1 172 0
 201 00e5 E8FCFFFF 		call	__stack_chk_fail	#
 201      FF
 202              	.LVL17:
 203              		.cfi_endproc
 204              	.LFE84:
 205              		.size	inint, .-inint
 206              		.section	.rodata.str1.1,"aMS",@progbits,1
GAS LISTING /tmp/cccL9HEy.s 			page 5


 207              	.LC0:
 208 0000 74637000 		.string	"tcp"
 209              		.section	.rodata.str1.4,"aMS",@progbits,1
 210              		.align 4
 211              	.LC1:
 212 0000 25733A20 		.string	"%s: Error mapping protocol name to protocol number\n"
 212      4572726F 
 212      72206D61 
 212      7070696E 
 212      67207072 
 213              		.align 4
 214              	.LC2:
 215 0034 25733A20 		.string	"%s: Error creating simulator socket\n"
 215      4572726F 
 215      72206372 
 215      65617469 
 215      6E672073 
 216 0059 000000   		.align 4
 217              	.LC3:
 218 005c 25733A20 		.string	"%s: Unable to setup non blocking mode on socket\n"
 218      556E6162 
 218      6C652074 
 218      6F207365 
 218      74757020 
 219              		.section	.rodata.str1.1
 220              	.LC4:
 221 0004 25733A20 		.string	"%s: Error binding socket\n"
 221      4572726F 
 221      72206269 
 221      6E64696E 
 221      6720736F 
 222              	.LC5:
 223 001e 25733A20 		.string	"%s: Error listening socket\n"
 223      4572726F 
 223      72206C69 
 223      7374656E 
 223      696E6720 
 224              		.section	.rodata.str1.4
 225 008d 000000   		.align 4
 226              	.LC6:
 227 0090 46756C6C 		.string	"Full Duplex Channel %s listening on port %d\n"
 227      20447570 
 227      6C657820 
 227      4368616E 
 227      6E656C20 
 228              		.text
 229 00ea 8DB60000 		.p2align 4,,15
 229      0000
 230              		.type	init.isra.0, @function
 231              	init.isra.0:
 232              	.LFB90:
 233              		.loc 1 64 0
 234              		.cfi_startproc
 235              	.LVL18:
 236 00f0 55       		pushl	%ebp	#
 237              		.cfi_def_cfa_offset 8
 238              		.cfi_offset 5, -8
GAS LISTING /tmp/cccL9HEy.s 			page 6


 239 00f1 57       		pushl	%edi	#
 240              		.cfi_def_cfa_offset 12
 241              		.cfi_offset 7, -12
 242 00f2 89D7     		movl	%edx, %edi	# ISRA.6, ISRA.6
 243 00f4 56       		pushl	%esi	#
 244              		.cfi_def_cfa_offset 16
 245              		.cfi_offset 6, -16
 246 00f5 89CE     		movl	%ecx, %esi	# port, port
 247 00f7 53       		pushl	%ebx	#
 248              		.cfi_def_cfa_offset 20
 249              		.cfi_offset 3, -20
 250 00f8 89C3     		movl	%eax, %ebx	# ISRA.5, ISRA.5
 251 00fa 83EC4C   		subl	$76, %esp	#,
 252              		.cfi_def_cfa_offset 96
 253              		.loc 1 71 0
 254 00fd C7042400 		movl	$.LC0, (%esp)	#,
 254      000000
 255              		.loc 1 64 0
 256 0104 65A11400 		movl	%gs:20, %eax	#, tmp95
 256      0000
 257 010a 8944243C 		movl	%eax, 60(%esp)	# tmp95, D.5724
 258 010e 31C0     		xorl	%eax, %eax	# tmp95
 259              	.LVL19:
 260              		.loc 1 67 0
 261 0110 C7442428 		movl	$1, 40(%esp)	#, sockval
 261      01000000 
 262              	.LVL20:
 263              		.loc 1 71 0
 264 0118 E8FCFFFF 		call	getprotobyname	#
 264      FF
 265              	.LVL21:
 266 011d 85C0     		testl	%eax, %eax	# prtp
 267 011f 0F840901 		je	.L32	#,
 267      0000
 268              		.loc 1 76 0
 269 0125 8B4008   		movl	8(%eax), %eax	# prtp_1->p_proto, prtp_1->p_proto
 270              	.LVL22:
 271 0128 C7442404 		movl	$1, 4(%esp)	#,
 271      01000000 
 272 0130 C7042402 		movl	$2, (%esp)	#,
 272      000000
 273 0137 89442408 		movl	%eax, 8(%esp)	# prtp_1->p_proto,
 274 013b E8FCFFFF 		call	socket	#
 274      FF
 275              	.LVL23:
 276              		.loc 1 77 0
 277 0140 83F8FF   		cmpl	$-1, %eax	#, D.5723
 278              		.loc 1 76 0
 279 0143 8903     		movl	%eax, (%ebx)	# D.5723, *ISRA.5_53(D)
 280              		.loc 1 77 0
 281 0145 0F847101 		je	.L33	#,
 281      0000
 282              		.loc 1 83 0
 283 014b 8D542428 		leal	40(%esp), %edx	#, tmp84
 284 014f 8954240C 		movl	%edx, 12(%esp)	# tmp84,
 285 0153 C7442410 		movl	$4, 16(%esp)	#,
 285      04000000 
GAS LISTING /tmp/cccL9HEy.s 			page 7


 286 015b C7442408 		movl	$2, 8(%esp)	#,
 286      02000000 
 287 0163 C7442404 		movl	$1, 4(%esp)	#,
 287      01000000 
 288 016b 890424   		movl	%eax, (%esp)	# D.5723,
 289 016e E8FCFFFF 		call	setsockopt	#
 289      FF
 290              	.LVL24:
 291              		.loc 1 85 0
 292 0173 8B03     		movl	(%ebx), %eax	# *ISRA.5_53(D), *ISRA.5_53(D)
 293 0175 C7442408 		movl	$nb, 8(%esp)	#,
 293      00000000 
 294 017d C7442404 		movl	$21537, 4(%esp)	#,
 294      21540000 
 295 0185 890424   		movl	%eax, (%esp)	# *ISRA.5_53(D),
 296 0188 E8FCFFFF 		call	ioctl	#
 296      FF
 297              	.LVL25:
 298 018d 85C0     		testl	%eax, %eax	# D.5723
 299 018f 0F850B01 		jne	.L34	#,
 299      0000
 300              	.LVL26:
 301              	.LBB50:
 302              	.LBB51:
 303              		.file 3 "/usr/include/bits/string3.h"
 304              		.loc 3 84 0
 305 0195 8D44242C 		leal	44(%esp), %eax	#, tmp87
 306              	.LVL27:
 307              	.LBE51:
 308              	.LBE50:
 309              		.loc 1 91 0
 310 0199 BA020000 		movl	$2, %edx	#,
 310      00
 311              		.loc 1 94 0
 312 019e 89442404 		movl	%eax, 4(%esp)	# tmp87,
 313 01a2 8B03     		movl	(%ebx), %eax	# *ISRA.5_53(D), *ISRA.5_53(D)
 314              	.LVL28:
 315              	.LBB54:
 316              		.loc 1 93 0
 317 01a4 0FB7EE   		movzwl	%si, %ebp	# port, D.5723
 318              	.LBE54:
 319              		.loc 1 94 0
 320 01a7 C7442408 		movl	$16, 8(%esp)	#,
 320      10000000 
 321              	.LBB55:
 322              		.loc 1 93 0
 323              	#APP
 324              	# 93 "../../../os/hal/platforms/Posix/serial_lld.c" 1
   1              	/*
   2              	    ChibiOS/RT - Copyright (C) 2006-2013 Giovanni Di Sirio
   3              	
   4              	    Licensed under the Apache License, Version 2.0 (the "License");
   5              	    you may not use this file except in compliance with the License.
   6              	    You may obtain a copy of the License at
   7              	
   8              	        http://www.apache.org/licenses/LICENSE-2.0
   9              	
GAS LISTING /tmp/cccL9HEy.s 			page 8


  10              	    Unless required by applicable law or agreed to in writing, software
  11              	    distributed under the License is distributed on an "AS IS" BASIS,
  12              	    WITHOUT WARRANTIES OR CONDITIONS OF ANY KIND, either express or implied.
  13              	    See the License for the specific language governing permissions and
  14              	    limitations under the License.
  15              	*/
  16              	
  17              	/**
  18              	 * @file    Posix/serial_lld.c
  19              	 * @brief   Posix low level simulated serial driver code.
  20              	 *
  21              	 * @addtogroup POSIX_SERIAL
  22              	 * @{
  23              	 */
  24              	
  25              	#include <stdio.h>
  26              	#include <stdlib.h>
  27              	#include <string.h>
  28              	#include <unistd.h>
  29              	#include <errno.h>
  30              	#include <sys/ioctl.h>
  31              	
  32              	#include "ch.h"
  33              	#include "hal.h"
  34              	
  35              	#if HAL_USE_SERIAL || defined(__DOXYGEN__)
  36              	
  37              	/*===========================================================================*/
  38              	/* Driver exported variables.                                                */
  39              	/*===========================================================================*/
  40              	
  41              	/** @brief Serial driver 1 identifier.*/
  42              	#if USE_SIM_SERIAL1 || defined(__DOXYGEN__)
  43              	SerialDriver SD1;
  44              	#endif
  45              	/** @brief Serial driver 2 identifier.*/
  46              	#if USE_SIM_SERIAL2 || defined(__DOXYGEN__)
  47              	SerialDriver SD2;
  48              	#endif
  49              	
  50              	/*===========================================================================*/
  51              	/* Driver local variables and types.                                         */
  52              	/*===========================================================================*/
  53              	
  54              	/** @brief Driver default configuration.*/
  55              	static const SerialConfig default_config = {
  56              	};
  57              	
  58              	static u_long nb = 1;
  59              	
  60              	/*===========================================================================*/
  61              	/* Driver local functions.                                                   */
  62              	/*===========================================================================*/
  63              	
  64              	static void init(SerialDriver *sdp, uint16_t port) {
  65              	  struct sockaddr_in sad;
  66              	  struct protoent *prtp;
GAS LISTING /tmp/cccL9HEy.s 			page 9


  67              	  int sockval = 1;
  68              	  socklen_t socklen = sizeof(sockval);
  69              	
  70              	
  71              	  if ((prtp = getprotobyname("tcp")) == NULL) {
  72              	    printf("%s: Error mapping protocol name to protocol number\n", sdp->com_name);
  73              	    goto abort;
  74              	  }
  75              	
  76              	  sdp->com_listen = socket(PF_INET, SOCK_STREAM, prtp->p_proto);
  77              	  if (sdp->com_listen == INVALID_SOCKET) {
  78              	    printf("%s: Error creating simulator socket\n", sdp->com_name);
  79              	    goto abort;
  80              	  }
  81              	
  82              	
  83              	  setsockopt(sdp->com_listen, SOL_SOCKET, SO_REUSEADDR, &sockval, socklen);
  84              	
  85              	  if (ioctl(sdp->com_listen, FIONBIO, &nb) != 0) {
  86              	    printf("%s: Unable to setup non blocking mode on socket\n", sdp->com_name);
  87              	    goto abort;
  88              	  }
  89              	
  90              	  memset(&sad, 0, sizeof(sad));
  91              	  sad.sin_family = AF_INET;
  92              	  sad.sin_addr.s_addr = INADDR_ANY;
  93 01af 66C1CE08 	  sad.sin_port = htons(port);
  94              	  if (bind(sdp->com_listen, (struct sockaddr *)&sad, sizeof(sad))) {
 325              		rorw $8, %si	# __v
 326              	# 0 "" 2
 327              	#NO_APP
 328              	.LBE55:
 329              	.LBB56:
 330              	.LBB52:
 331              		.loc 3 84 0
 332 01b3 C7442430 		movl	$0, 48(%esp)	#, MEM[(void *)&sad]
 332      00000000 
 333              	.LBE52:
 334              	.LBE56:
 335              		.loc 1 94 0
 336 01bb 890424   		movl	%eax, (%esp)	# *ISRA.5_53(D),
 337              	.LBB57:
 338              	.LBB53:
 339              		.loc 3 84 0
 340 01be C7442434 		movl	$0, 52(%esp)	#, MEM[(void *)&sad]
 340      00000000 
 341 01c6 C7442438 		movl	$0, 56(%esp)	#, MEM[(void *)&sad]
 341      00000000 
 342              	.LBE53:
 343              	.LBE57:
 344              		.loc 1 91 0
 345 01ce 66895424 		movw	%dx, 44(%esp)	#, sad.sin_family
 345      2C
 346              	.LVL29:
 347              		.loc 1 93 0
 348 01d3 66897424 		movw	%si, 46(%esp)	# __v, sad.sin_port
 348      2E
GAS LISTING /tmp/cccL9HEy.s 			page 10


 349              		.loc 1 94 0
 350 01d8 E8FCFFFF 		call	bind	#
 350      FF
 351              	.LVL30:
 352 01dd 85C0     		testl	%eax, %eax	# D.5723
 353 01df 0F859F00 		jne	.L35	#,
 353      0000
 354              		.loc 1 99 0
 355 01e5 8B03     		movl	(%ebx), %eax	# *ISRA.5_53(D), *ISRA.5_53(D)
 356 01e7 C7442404 		movl	$1, 4(%esp)	#,
 356      01000000 
 357 01ef 890424   		movl	%eax, (%esp)	# *ISRA.5_53(D),
 358 01f2 E8FCFFFF 		call	listen	#
 358      FF
 359              	.LVL31:
 360 01f7 85C0     		testl	%eax, %eax	# D.5723
 361 01f9 756D     		jne	.L36	#,
 362              	.LVL32:
 363              	.LBB58:
 364              	.LBB59:
 365              		.file 4 "/usr/include/bits/stdio2.h"
 366              		.loc 4 104 0
 367 01fb 8B07     		movl	(%edi), %eax	# *ISRA.6_52(D), *ISRA.6_52(D)
 368 01fd 896C240C 		movl	%ebp, 12(%esp)	# D.5723,
 369 0201 C7442404 		movl	$.LC6, 4(%esp)	#,
 369      90000000 
 370 0209 C7042401 		movl	$1, (%esp)	#,
 370      000000
 371 0210 89442408 		movl	%eax, 8(%esp)	# *ISRA.6_52(D),
 372 0214 E8FCFFFF 		call	__printf_chk	#
 372      FF
 373              	.LVL33:
 374              	.LBE59:
 375              	.LBE58:
 376              		.loc 1 110 0
 377 0219 8B44243C 		movl	60(%esp), %eax	# D.5724, tmp96
 378 021d 65330514 		xorl	%gs:20, %eax	#, tmp96
 378      000000
 379 0224 753D     		jne	.L37	#,
 380 0226 83C44C   		addl	$76, %esp	#,
 381              		.cfi_remember_state
 382              		.cfi_def_cfa_offset 20
 383 0229 5B       		popl	%ebx	#
 384              		.cfi_restore 3
 385              		.cfi_def_cfa_offset 16
 386 022a 5E       		popl	%esi	#
 387              		.cfi_restore 6
 388              		.cfi_def_cfa_offset 12
 389              	.LVL34:
 390 022b 5F       		popl	%edi	#
 391              		.cfi_restore 7
 392              		.cfi_def_cfa_offset 8
 393 022c 5D       		popl	%ebp	#
 394              		.cfi_restore 5
 395              		.cfi_def_cfa_offset 4
 396 022d C3       		ret
 397              	.LVL35:
GAS LISTING /tmp/cccL9HEy.s 			page 11


 398              	.L32:
 399              		.cfi_restore_state
 400              	.LBB60:
 401              	.LBB61:
 402              		.loc 4 104 0
 403 022e 8B07     		movl	(%edi), %eax	# *ISRA.6_52(D), *ISRA.6_52(D)
 404              	.LVL36:
 405 0230 C7442404 		movl	$.LC1, 4(%esp)	#,
 405      00000000 
 406 0238 C7042401 		movl	$1, (%esp)	#,
 406      000000
 407 023f 89442408 		movl	%eax, 8(%esp)	# *ISRA.6_52(D),
 408 0243 E8FCFFFF 		call	__printf_chk	#
 408      FF
 409              	.LVL37:
 410              	.L20:
 411              	.LBE61:
 412              	.LBE60:
 413              		.loc 1 107 0
 414 0248 8B03     		movl	(%ebx), %eax	# *ISRA.5_53(D), D.5723
 415 024a 83F8FF   		cmpl	$-1, %eax	#, D.5723
 416 024d 7408     		je	.L25	#,
 417              		.loc 1 108 0
 418 024f 890424   		movl	%eax, (%esp)	# D.5723,
 419 0252 E8FCFFFF 		call	close	#
 419      FF
 420              	.LVL38:
 421              	.L25:
 422              		.loc 1 109 0
 423 0257 C7042401 		movl	$1, (%esp)	#,
 423      000000
 424 025e E8FCFFFF 		call	exit	#
 424      FF
 425              	.LVL39:
 426              	.L37:
 427              		.loc 1 110 0
 428 0263 E8FCFFFF 		call	__stack_chk_fail	#
 428      FF
 429              	.LVL40:
 430              	.L36:
 431              	.LBB62:
 432              	.LBB63:
 433              		.loc 4 104 0
 434 0268 8B07     		movl	(%edi), %eax	# *ISRA.6_52(D), *ISRA.6_52(D)
 435 026a C7442404 		movl	$.LC5, 4(%esp)	#,
 435      1E000000 
 436 0272 C7042401 		movl	$1, (%esp)	#,
 436      000000
 437 0279 89442408 		movl	%eax, 8(%esp)	# *ISRA.6_52(D),
 438 027d E8FCFFFF 		call	__printf_chk	#
 438      FF
 439              	.LVL41:
 440 0282 EBC4     		jmp	.L20	#
 441              	.LVL42:
 442              	.L35:
 443              	.LBE63:
 444              	.LBE62:
GAS LISTING /tmp/cccL9HEy.s 			page 12


 445              	.LBB64:
 446              	.LBB65:
 447 0284 8B07     		movl	(%edi), %eax	# *ISRA.6_52(D), *ISRA.6_52(D)
 448 0286 C7442404 		movl	$.LC4, 4(%esp)	#,
 448      04000000 
 449 028e C7042401 		movl	$1, (%esp)	#,
 449      000000
 450 0295 89442408 		movl	%eax, 8(%esp)	# *ISRA.6_52(D),
 451 0299 E8FCFFFF 		call	__printf_chk	#
 451      FF
 452              	.LVL43:
 453 029e EBA8     		jmp	.L20	#
 454              	.LVL44:
 455              	.L34:
 456              	.LBE65:
 457              	.LBE64:
 458              	.LBB66:
 459              	.LBB67:
 460 02a0 8B07     		movl	(%edi), %eax	# *ISRA.6_52(D), *ISRA.6_52(D)
 461 02a2 C7442404 		movl	$.LC3, 4(%esp)	#,
 461      5C000000 
 462 02aa C7042401 		movl	$1, (%esp)	#,
 462      000000
 463 02b1 89442408 		movl	%eax, 8(%esp)	# *ISRA.6_52(D),
 464 02b5 E8FCFFFF 		call	__printf_chk	#
 464      FF
 465              	.LVL45:
 466 02ba EB8C     		jmp	.L20	#
 467              	.LVL46:
 468              	.L33:
 469              	.LBE67:
 470              	.LBE66:
 471              	.LBB68:
 472              	.LBB69:
 473 02bc 8B07     		movl	(%edi), %eax	# *ISRA.6_52(D), *ISRA.6_52(D)
 474 02be C7442404 		movl	$.LC2, 4(%esp)	#,
 474      34000000 
 475 02c6 C7042401 		movl	$1, (%esp)	#,
 475      000000
 476 02cd 89442408 		movl	%eax, 8(%esp)	# *ISRA.6_52(D),
 477 02d1 E8FCFFFF 		call	__printf_chk	#
 477      FF
 478              	.LVL47:
 479 02d6 E96DFFFF 		jmp	.L20	#
 479      FF
 480              	.LBE69:
 481              	.LBE68:
 482              		.cfi_endproc
 483              	.LFE90:
 484              		.size	init.isra.0, .-init.isra.0
 485              		.section	.rodata.str1.4
 486 00bd 000000   		.align 4
 487              	.LC7:
 488 00c0 25733A20 		.string	"%s: Unable to setup non blocking mode on data socket\n"
 488      556E6162 
 488      6C652074 
 488      6F207365 
GAS LISTING /tmp/cccL9HEy.s 			page 13


 488      74757020 
 489              		.text
 490 02db 908D7426 		.p2align 4,,15
 490      00
 491              		.type	connint, @function
 492              	connint:
 493              	.LFB83:
 494              		.loc 1 112 0
 495              		.cfi_startproc
 496              	.LVL48:
 497 02e0 56       		pushl	%esi	#
 498              		.cfi_def_cfa_offset 8
 499              		.cfi_offset 6, -8
 500              		.loc 1 130 0
 501 02e1 31F6     		xorl	%esi, %esi	# D.5742
 502              		.loc 1 112 0
 503 02e3 53       		pushl	%ebx	#
 504              		.cfi_def_cfa_offset 12
 505              		.cfi_offset 3, -12
 506 02e4 89C3     		movl	%eax, %ebx	# sdp, sdp
 507 02e6 83EC34   		subl	$52, %esp	#,
 508              		.cfi_def_cfa_offset 64
 509              		.loc 1 112 0
 510 02e9 65A11400 		movl	%gs:20, %eax	#, tmp76
 510      0000
 511 02ef 8944242C 		movl	%eax, 44(%esp)	# tmp76, D.5746
 512 02f3 31C0     		xorl	%eax, %eax	# tmp76
 513              	.LVL49:
 514              		.loc 1 114 0
 515 02f5 83BB9800 		cmpl	$-1, 152(%ebx)	#, sdp_5(D)->com_data
 515      0000FF
 516 02fc 741A     		je	.L54	#,
 517              	.LVL50:
 518              	.L39:
 519              		.loc 1 137 0
 520 02fe 8B54242C 		movl	44(%esp), %edx	# D.5746, tmp77
 521 0302 65331514 		xorl	%gs:20, %edx	#, tmp77
 521      000000
 522 0309 89F0     		movl	%esi, %eax	# D.5742,
 523 030b 7575     		jne	.L55	#,
 524 030d 83C434   		addl	$52, %esp	#,
 525              		.cfi_remember_state
 526              		.cfi_def_cfa_offset 12
 527 0310 5B       		popl	%ebx	#
 528              		.cfi_restore 3
 529              		.cfi_def_cfa_offset 8
 530 0311 5E       		popl	%esi	#
 531              		.cfi_restore 6
 532              		.cfi_def_cfa_offset 4
 533 0312 C3       		ret
 534              	.LVL51:
 535              		.p2align 4,,7
 536 0313 908D7426 		.p2align 3
 536      00
 537              	.L54:
 538              		.cfi_restore_state
 539              	.LBB76:
GAS LISTING /tmp/cccL9HEy.s 			page 14


 540              		.loc 1 118 0
 541 0318 8D442418 		leal	24(%esp), %eax	#, tmp70
 542 031c 89442408 		movl	%eax, 8(%esp)	# tmp70,
 543 0320 8D44241C 		leal	28(%esp), %eax	#, tmp71
 544 0324 89442404 		movl	%eax, 4(%esp)	# tmp71,
 545 0328 8B839400 		movl	148(%ebx), %eax	# sdp_5(D)->com_listen, sdp_5(D)->com_listen
 545      0000
 546              		.loc 1 116 0
 547 032e C7442418 		movl	$16, 24(%esp)	#, addrlen
 547      10000000 
 548              		.loc 1 118 0
 549 0336 890424   		movl	%eax, (%esp)	# sdp_5(D)->com_listen,
 550 0339 E8FCFFFF 		call	accept	#
 550      FF
 551              	.LVL52:
 552 033e 83F8FF   		cmpl	$-1, %eax	#, D.5743
 553 0341 89839800 		movl	%eax, 152(%ebx)	# D.5743, sdp_5(D)->com_data
 553      0000
 554 0347 74B5     		je	.L39	#,
 555              		.loc 1 121 0
 556 0349 C7442408 		movl	$nb, 8(%esp)	#,
 556      00000000 
 557 0351 C7442404 		movl	$21537, 4(%esp)	#,
 557      21540000 
 558 0359 890424   		movl	%eax, (%esp)	# D.5743,
 559 035c E8FCFFFF 		call	ioctl	#
 559      FF
 560              	.LVL53:
 561 0361 85C0     		testl	%eax, %eax	# D.5743
 562 0363 7522     		jne	.L56	#,
 563              		.loc 1 126 0
 564 0365 83C304   		addl	$4, %ebx	#, tmp74
 565              	.LVL54:
 566              		.loc 1 128 0
 567 0368 BE010000 		movl	$1, %esi	#, D.5742
 567      00
 568              		.loc 1 126 0
 569 036d C7442404 		movl	$1, 4(%esp)	#,
 569      01000000 
 570 0375 891C24   		movl	%ebx, (%esp)	# tmp74,
 571 0378 E8FCFFFF 		call	chEvtBroadcastFlagsI	#
 571      FF
 572              	.LVL55:
 573              		.loc 1 128 0
 574 037d E97CFFFF 		jmp	.L39	#
 574      FF
 575              	.LVL56:
 576              	.L55:
 577              	.LBE76:
 578              		.loc 1 137 0
 579 0382 E8FCFFFF 		call	__stack_chk_fail	#
 579      FF
 580              	.LVL57:
 581              	.L56:
 582              	.LBB77:
 583              	.LBB78:
 584              	.LBB79:
GAS LISTING /tmp/cccL9HEy.s 			page 15


 585              	.LBB80:
 586              	.LBB81:
 587              		.loc 4 104 0
 588 0387 8B839C00 		movl	156(%ebx), %eax	# sdp_5(D)->com_name, sdp_5(D)->com_name
 588      0000
 589 038d C7442404 		movl	$.LC7, 4(%esp)	#,
 589      C0000000 
 590 0395 C7042401 		movl	$1, (%esp)	#,
 590      000000
 591 039c 89442408 		movl	%eax, 8(%esp)	# sdp_5(D)->com_name,
 592 03a0 E8FCFFFF 		call	__printf_chk	#
 592      FF
 593              	.LVL58:
 594              	.LDL1:
 595              	.LBE81:
 596              	.LBE80:
 597              	.LBE79:
 598              		.loc 1 132 0
 599 03a5 8B839400 		movl	148(%ebx), %eax	# sdp_5(D)->com_listen, D.5743
 599      0000
 600 03ab 83F8FF   		cmpl	$-1, %eax	#, D.5743
 601 03ae 7408     		je	.L42	#,
 602              		.loc 1 133 0
 603 03b0 890424   		movl	%eax, (%esp)	# D.5743,
 604 03b3 E8FCFFFF 		call	close	#
 604      FF
 605              	.LVL59:
 606              	.L42:
 607              		.loc 1 134 0
 608 03b8 8B839800 		movl	152(%ebx), %eax	# sdp_5(D)->com_data, D.5743
 608      0000
 609 03be 83F8FF   		cmpl	$-1, %eax	#, D.5743
 610 03c1 7408     		je	.L43	#,
 611              		.loc 1 135 0
 612 03c3 890424   		movl	%eax, (%esp)	# D.5743,
 613 03c6 E8FCFFFF 		call	close	#
 613      FF
 614              	.LVL60:
 615              	.L43:
 616              		.loc 1 136 0
 617 03cb C7042401 		movl	$1, (%esp)	#,
 617      000000
 618 03d2 E8FCFFFF 		call	exit	#
 618      FF
 619              	.LVL61:
 620              	.LBE78:
 621              	.LBE77:
 622              		.cfi_endproc
 623              	.LFE83:
 624              		.size	connint, .-connint
 625 03d7 89F68DBC 		.p2align 4,,15
 625      27000000 
 625      00
 626              		.type	outint.part.2, @function
 627              	outint.part.2:
 628              	.LFB92:
 629              		.loc 1 174 0
GAS LISTING /tmp/cccL9HEy.s 			page 16


 630              		.cfi_startproc
 631              	.LVL62:
 632 03e0 53       		pushl	%ebx	#
 633              		.cfi_def_cfa_offset 8
 634              		.cfi_offset 3, -8
 635 03e1 89C3     		movl	%eax, %ebx	# sdp, sdp
 636 03e3 83EC28   		subl	$40, %esp	#,
 637              		.cfi_def_cfa_offset 48
 638              	.LBB82:
 639              		.loc 1 184 0
 640 03e6 890424   		movl	%eax, (%esp)	# sdp,
 641 03e9 E8FCFFFF 		call	sdRequestDataI	#
 641      FF
 642              	.LVL63:
 643              		.loc 1 186 0
 644 03ee 85C0     		testl	%eax, %eax	# n
 645 03f0 785E     		js	.L66	#,
 646              		.loc 1 188 0
 647 03f2 8844241F 		movb	%al, 31(%esp)	# n, data
 648              		.loc 1 189 0
 649 03f6 8D44241F 		leal	31(%esp), %eax	#, tmp71
 650              	.LVL64:
 651 03fa C744240C 		movl	$0, 12(%esp)	#,
 651      00000000 
 652 0402 C7442408 		movl	$1, 8(%esp)	#,
 652      01000000 
 653 040a 89442404 		movl	%eax, 4(%esp)	# tmp71,
 654 040e 8B839800 		movl	152(%ebx), %eax	# sdp_1(D)->com_data, sdp_1(D)->com_data
 654      0000
 655 0414 890424   		movl	%eax, (%esp)	# sdp_1(D)->com_data,
 656 0417 E8FCFFFF 		call	send	#
 656      FF
 657              	.LVL65:
 658              		.loc 1 190 0
 659 041c 83F8FF   		cmpl	$-1, %eax	#, n
 660 041f 7447     		je	.L60	#,
 661 0421 85C0     		testl	%eax, %eax	# n
 662 0423 7533     		jne	.L64	#,
 663              		.loc 1 192 0
 664 0425 8B839800 		movl	152(%ebx), %eax	# sdp_1(D)->com_data, sdp_1(D)->com_data
 664      0000
 665              	.LVL66:
 666              		.loc 1 195 0
 667 042b 83C304   		addl	$4, %ebx	#, tmp74
 668              	.LVL67:
 669              		.loc 1 192 0
 670 042e 890424   		movl	%eax, (%esp)	# sdp_1(D)->com_data,
 671 0431 E8FCFFFF 		call	close	#
 671      FF
 672              	.LVL68:
 673              		.loc 1 193 0
 674 0436 C7839400 		movl	$-1, 148(%ebx)	#, sdp_1(D)->com_data
 674      0000FFFF 
 674      FFFF
 675              		.loc 1 195 0
 676 0440 C7442404 		movl	$2, 4(%esp)	#,
 676      02000000 
GAS LISTING /tmp/cccL9HEy.s 			page 17


 677 0448 891C24   		movl	%ebx, (%esp)	# tmp74,
 678 044b E8FCFFFF 		call	chEvtBroadcastFlagsI	#
 678      FF
 679              	.LVL69:
 680              	.L66:
 681              		.loc 1 197 0
 682 0450 31C0     		xorl	%eax, %eax	# D.5755
 683              	.L59:
 684              	.LBE82:
 685              		.loc 1 208 0
 686 0452 83C428   		addl	$40, %esp	#,
 687              		.cfi_remember_state
 688              		.cfi_def_cfa_offset 8
 689 0455 5B       		popl	%ebx	#
 690              		.cfi_restore 3
 691              		.cfi_def_cfa_offset 4
 692 0456 C3       		ret
 693              	.LVL70:
 694              		.p2align 4,,7
 695 0457 90       		.p2align 3
 696              	.L64:
 697              		.cfi_restore_state
 698 0458 83C428   		addl	$40, %esp	#,
 699              		.cfi_remember_state
 700              		.cfi_def_cfa_offset 8
 701              	.LBB83:
 702              		.loc 1 205 0
 703 045b B8010000 		movl	$1, %eax	#, D.5755
 703      00
 704              	.LVL71:
 705              	.LBE83:
 706              		.loc 1 208 0
 707 0460 5B       		popl	%ebx	#
 708              		.cfi_restore 3
 709              		.cfi_def_cfa_offset 4
 710              	.LVL72:
 711 0461 C3       		ret
 712              	.LVL73:
 713              		.p2align 4,,7
 714 0462 8DB60000 		.p2align 3
 714      0000
 715              	.L60:
 716              		.cfi_restore_state
 717              	.LBB84:
 718              		.loc 1 199 0
 719 0468 E8FCFFFF 		call	__errno_location	#
 719      FF
 720              	.LVL74:
 721 046d 83380B   		cmpl	$11, (%eax)	#, *_8
 722 0470 74DE     		je	.L66	#,
 723              		.loc 1 201 0
 724 0472 8B839800 		movl	152(%ebx), %eax	# sdp_1(D)->com_data, sdp_1(D)->com_data
 724      0000
 725 0478 890424   		movl	%eax, (%esp)	# sdp_1(D)->com_data,
 726 047b E8FCFFFF 		call	close	#
 726      FF
 727              	.LVL75:
GAS LISTING /tmp/cccL9HEy.s 			page 18


 728              		.loc 1 203 0
 729 0480 31C0     		xorl	%eax, %eax	# D.5755
 730              		.loc 1 202 0
 731 0482 C7839800 		movl	$-1, 152(%ebx)	#, sdp_1(D)->com_data
 731      0000FFFF 
 731      FFFF
 732 048c EBC4     		jmp	.L59	#
 733              	.LBE84:
 734              		.cfi_endproc
 735              	.LFE92:
 736              		.size	outint.part.2, .-outint.part.2
 737              		.section	.rodata.str1.1
 738              	.LC8:
 739 003a 53443100 		.string	"SD1"
 740              	.LC9:
 741 003e 53443200 		.string	"SD2"
 742              		.text
 743 048e 6690     		.p2align 4,,15
 744              		.globl	sd_lld_init
 745              		.type	sd_lld_init, @function
 746              	sd_lld_init:
 747              	.LFB86:
 748              		.loc 1 221 0
 749              		.cfi_startproc
 750 0490 83EC1C   		subl	$28, %esp	#,
 751              		.cfi_def_cfa_offset 32
 752              		.loc 1 224 0
 753 0493 C7442408 		movl	$0, 8(%esp)	#,
 753      00000000 
 754 049b C7442404 		movl	$0, 4(%esp)	#,
 754      00000000 
 755 04a3 C7042400 		movl	$SD1, (%esp)	#,
 755      000000
 756 04aa E8FCFFFF 		call	sdObjectInit	#
 756      FF
 757              	.LVL76:
 758              		.loc 1 231 0
 759 04af C7442408 		movl	$0, 8(%esp)	#,
 759      00000000 
 760 04b7 C7442404 		movl	$0, 4(%esp)	#,
 760      00000000 
 761 04bf C7042400 		movl	$SD2, (%esp)	#,
 761      000000
 762              		.loc 1 225 0
 763 04c6 C7059400 		movl	$-1, SD1+148	#, SD1.com_listen
 763      0000FFFF 
 763      FFFF
 764              		.loc 1 226 0
 765 04d0 C7059800 		movl	$-1, SD1+152	#, SD1.com_data
 765      0000FFFF 
 765      FFFF
 766              		.loc 1 227 0
 767 04da C7059C00 		movl	$.LC8, SD1+156	#, SD1.com_name
 767      00003A00 
 767      0000
 768              		.loc 1 231 0
 769 04e4 E8FCFFFF 		call	sdObjectInit	#
GAS LISTING /tmp/cccL9HEy.s 			page 19


 769      FF
 770              	.LVL77:
 771              		.loc 1 232 0
 772 04e9 C7059400 		movl	$-1, SD2+148	#, SD2.com_listen
 772      0000FFFF 
 772      FFFF
 773              		.loc 1 233 0
 774 04f3 C7059800 		movl	$-1, SD2+152	#, SD2.com_data
 774      0000FFFF 
 774      FFFF
 775              		.loc 1 234 0
 776 04fd C7059C00 		movl	$.LC9, SD2+156	#, SD2.com_name
 776      00003E00 
 776      0000
 777              		.loc 1 236 0
 778 0507 83C41C   		addl	$28, %esp	#,
 779              		.cfi_def_cfa_offset 4
 780 050a C3       		ret
 781              		.cfi_endproc
 782              	.LFE86:
 783              		.size	sd_lld_init, .-sd_lld_init
 784 050b 908D7426 		.p2align 4,,15
 784      00
 785              		.globl	sd_lld_start
 786              		.type	sd_lld_start, @function
 787              	sd_lld_start:
 788              	.LFB87:
 789              		.loc 1 243 0
 790              		.cfi_startproc
 791              	.LVL78:
 792              		.loc 1 243 0
 793 0510 8B442404 		movl	4(%esp), %eax	# sdp, sdp
 794              		.loc 1 249 0
 795 0514 3D000000 		cmpl	$SD1, %eax	#, sdp
 795      00
 796 0519 7425     		je	.L72	#,
 797              		.loc 1 254 0
 798 051b 3D000000 		cmpl	$SD2, %eax	#, sdp
 798      00
 799 0520 7406     		je	.L73	#,
 800 0522 F3C3     		rep ret
 801              		.p2align 4,,7
 802 0524 8D742600 		.p2align 3
 803              	.L73:
 804              		.loc 1 255 0
 805 0528 B94A7100 		movl	$29002, %ecx	#,
 805      00
 806 052d BA9C0000 		movl	$SD2+156, %edx	#,
 806      00
 807 0532 B8940000 		movl	$SD2+148, %eax	#,
 807      00
 808 0537 E9B4FBFF 		jmp	init.isra.0	#
 808      FF
 809              	.LVL79:
 810 053c 8D742600 		.p2align 4,,7
 811              		.p2align 3
 812              	.L72:
GAS LISTING /tmp/cccL9HEy.s 			page 20


 813              		.loc 1 250 0
 814 0540 B9497100 		movl	$29001, %ecx	#,
 814      00
 815 0545 BA9C0000 		movl	$SD1+156, %edx	#,
 815      00
 816 054a B8940000 		movl	$SD1+148, %eax	#,
 816      00
 817              	.LVL80:
 818 054f E99CFBFF 		jmp	init.isra.0	#
 818      FF
 819              	.LVL81:
 820              		.cfi_endproc
 821              	.LFE87:
 822              		.size	sd_lld_start, .-sd_lld_start
 823 0554 8DB60000 		.p2align 4,,15
 823      00008DBF 
 823      00000000 
 824              		.globl	sd_lld_stop
 825              		.type	sd_lld_stop, @function
 826              	sd_lld_stop:
 827              	.LFB88:
 828              		.loc 1 266 0
 829              		.cfi_startproc
 830              	.LVL82:
 831 0560 F3C3     		rep ret
 832              		.cfi_endproc
 833              	.LFE88:
 834              		.size	sd_lld_stop, .-sd_lld_stop
 835 0562 8DB42600 		.p2align 4,,15
 835      0000008D 
 835      BC270000 
 835      0000
 836              		.globl	sd_lld_interrupt_pending
 837              		.type	sd_lld_interrupt_pending, @function
 838              	sd_lld_interrupt_pending:
 839              	.LFB89:
 840              		.loc 1 271 0
 841              		.cfi_startproc
 842              		.loc 1 271 0
 843 0570 83EC0C   		subl	$12, %esp	#,
 844              		.cfi_def_cfa_offset 16
 845              		.loc 1 276 0
 846 0573 B8000000 		movl	$SD1, %eax	#,
 846      00
 847 0578 E863FDFF 		call	connint	#
 847      FF
 848              	.LVL83:
 849              		.loc 1 278 0
 850 057d 84C0     		testb	%al, %al	# D.5766
 851 057f 740F     		je	.L76	#,
 852              	.L78:
 853              	.LBB85:
 854              	.LBB86:
 855              		.loc 1 176 0
 856 0581 B8010000 		movl	$1, %eax	#, D.5768
 856      00
 857              	.L77:
GAS LISTING /tmp/cccL9HEy.s 			page 21


 858              	.LVL84:
 859              	.LBE86:
 860              	.LBE85:
 861              		.loc 1 283 0
 862 0586 83C40C   		addl	$12, %esp	#,
 863              		.cfi_remember_state
 864              		.cfi_def_cfa_offset 4
 865 0589 C3       		ret
 866              	.LVL85:
 867 058a 8DB60000 		.p2align 4,,7
 867      0000
 868              		.p2align 3
 869              	.L76:
 870              		.cfi_restore_state
 871              		.loc 1 276 0
 872 0590 B8000000 		movl	$SD2, %eax	#,
 872      00
 873 0595 E846FDFF 		call	connint	#
 873      FF
 874              	.LVL86:
 875 059a 84C0     		testb	%al, %al	# D.5766
 876 059c 75E3     		jne	.L78	#,
 877              		.loc 1 277 0 discriminator 1
 878 059e B8000000 		movl	$SD1, %eax	#,
 878      00
 879 05a3 E858FAFF 		call	inint	#
 879      FF
 880              	.LVL87:
 881              		.loc 1 276 0 discriminator 1
 882 05a8 84C0     		testb	%al, %al	# D.5766
 883 05aa 75D5     		jne	.L78	#,
 884              		.loc 1 277 0
 885 05ac B8000000 		movl	$SD2, %eax	#,
 885      00
 886 05b1 E84AFAFF 		call	inint	#
 886      FF
 887              	.LVL88:
 888 05b6 84C0     		testb	%al, %al	# D.5766
 889 05b8 75C7     		jne	.L78	#,
 890              	.LVL89:
 891              	.LBB89:
 892              	.LBB90:
 893              		.loc 1 176 0
 894 05ba 833D9800 		cmpl	$-1, SD1+152	#, SD1.com_data
 894      0000FF
 895 05c1 740E     		je	.L81	#,
 896 05c3 B8000000 		movl	$SD1, %eax	#,
 896      00
 897 05c8 E813FEFF 		call	outint.part.2	#
 897      FF
 898              	.LVL90:
 899              	.LBE90:
 900              	.LBE89:
 901              		.loc 1 277 0
 902 05cd 84C0     		testb	%al, %al	# D.5768
 903 05cf 75B0     		jne	.L78	#,
 904              	.L81:
GAS LISTING /tmp/cccL9HEy.s 			page 22


 905              	.LVL91:
 906              	.LBB91:
 907              	.LBB87:
 908              		.loc 1 176 0
 909 05d1 31C0     		xorl	%eax, %eax	# D.5768
 910 05d3 833D9800 		cmpl	$-1, SD2+152	#, SD2.com_data
 910      0000FF
 911 05da 74AA     		je	.L77	#,
 912 05dc B8000000 		movl	$SD2, %eax	#,
 912      00
 913              	.LBE87:
 914              	.LBE91:
 915              		.loc 1 283 0
 916 05e1 83C40C   		addl	$12, %esp	#,
 917              		.cfi_def_cfa_offset 4
 918              	.LBB92:
 919              	.LBB88:
 920 05e4 E9F7FDFF 		jmp	outint.part.2	#
 920      FF
 921              	.LVL92:
 922              	.LBE88:
 923              	.LBE92:
 924              		.cfi_endproc
 925              	.LFE89:
 926              		.size	sd_lld_interrupt_pending, .-sd_lld_interrupt_pending
 927              		.data
 928              		.align 4
 929              		.type	nb, @object
 930              		.size	nb, 4
 931              	nb:
 932 0000 01000000 		.long	1
 933              		.comm	SD2,160,32
 934              		.comm	SD1,160,32
 935              		.text
 936              	.Letext0:
 937              		.file 5 "/usr/lib/gcc/x86_64-linux-gnu/4.8/include/stddef.h"
 938              		.file 6 "/usr/include/bits/types.h"
 939              		.file 7 "/usr/include/libio.h"
 940              		.file 8 "/usr/include/stdio.h"
 941              		.file 9 "/usr/include/sys/types.h"
 942              		.file 10 "/usr/include/unistd.h"
 943              		.file 11 "/usr/include/stdint.h"
 944              		.file 12 "../../../os/ports/GCC/SIMIA32/chtypes.h"
 945              		.file 13 "../../../os/kernel/include/chlists.h"
 946              		.file 14 "../../../os/kernel/include/chthreads.h"
 947              		.file 15 "../../../os/ports/GCC/SIMIA32/chcore.h"
 948              		.file 16 "../../../os/kernel/include/chmtx.h"
 949              		.file 17 "../../../os/kernel/include/chevents.h"
 950              		.file 18 "../../../os/kernel/include/chqueues.h"
 951              		.file 19 "/usr/include/bits/sockaddr.h"
 952              		.file 20 "/usr/include/bits/socket.h"
 953              		.file 21 "/usr/include/netinet/in.h"
 954              		.file 22 "/usr/include/netdb.h"
 955              		.file 23 "../../../os/hal/include/serial.h"
 956              		.file 24 "../../../os/hal/platforms/Posix/serial_lld.h"
 957              		.file 25 "/usr/include/sys/socket.h"
 958              		.file 26 "/usr/include/sys/ioctl.h"
GAS LISTING /tmp/cccL9HEy.s 			page 23


 959              		.file 27 "/usr/include/stdlib.h"
 960              		.file 28 "/usr/include/bits/socket_type.h"
 961              		.file 29 "/usr/include/bits/errno.h"
 5717              		.section	.note.GNU-stack,"",@progbits
GAS LISTING /tmp/cccL9HEy.s 			page 114

