GAS LISTING /tmp/ccksRrvw.s 			page 1


   1              		.file	"chdynamic.c"
   2              	# GNU C (Ubuntu 4.8.2-19ubuntu1) version 4.8.2 (x86_64-linux-gnu)
   3              	#	compiled by GNU C version 4.8.2, GMP version 5.1.3, MPFR version 3.1.2-p3, MPC version 1.0.1
   4              	# GGC heuristics: --param ggc-min-expand=97 --param ggc-min-heapsize=126309
   5              	# options passed:  -I . -I ../../../os/ports/GCC/SIMIA32
   6              	# -I ../../../os/kernel/include -I ../../../test -I ../../../os/hal/include
   7              	# -I ../../../os/hal/platforms/Posix -I ../../../boards/simulator
   8              	# -I ../../../os/various -imultilib 32 -imultiarch i386-linux-gnu
   9              	# -MD ../../../os/kernel/src/chdynamic.d -MF .dep/chdynamic.o.d -MP
  10              	# -MQ ../../../os/kernel/src/chdynamic.o -D SIMULATOR
  11              	# -D SHELL_USE_IPRINTF=FALSE ../../../os/kernel/src/chdynamic.c -m32
  12              	# -mtune=generic -march=i686
  13              	# -auxbase-strip ../../../os/kernel/src/chdynamic.o -ggdb -O2 -Wall -Wextra
  14              	# -Wstrict-prototypes -fomit-frame-pointer -fverbose-asm -fstack-protector
  15              	# -Wformat -Wformat-security
  16              	# options enabled:  -faggressive-loop-optimizations
  17              	# -fasynchronous-unwind-tables -fauto-inc-dec -fbranch-count-reg
  18              	# -fcaller-saves -fcombine-stack-adjustments -fcommon -fcompare-elim
  19              	# -fcprop-registers -fcrossjumping -fcse-follow-jumps -fdefer-pop
  20              	# -fdelete-null-pointer-checks -fdevirtualize -fdwarf2-cfi-asm
  21              	# -fearly-inlining -feliminate-unused-debug-types -fexpensive-optimizations
  22              	# -fforward-propagate -ffunction-cse -fgcse -fgcse-lm -fgnu-runtime
  23              	# -fguess-branch-probability -fhoist-adjacent-loads -fident -fif-conversion
  24              	# -fif-conversion2 -findirect-inlining -finline -finline-atomics
  25              	# -finline-functions-called-once -finline-small-functions -fipa-cp
  26              	# -fipa-profile -fipa-pure-const -fipa-reference -fipa-sra
  27              	# -fira-hoist-pressure -fira-share-save-slots -fira-share-spill-slots
  28              	# -fivopts -fkeep-static-consts -fleading-underscore -fmath-errno
  29              	# -fmerge-constants -fmerge-debug-strings -fmove-loop-invariants
  30              	# -fomit-frame-pointer -foptimize-register-move -foptimize-sibling-calls
  31              	# -foptimize-strlen -fpartial-inlining -fpcc-struct-return -fpeephole
  32              	# -fpeephole2 -fprefetch-loop-arrays -free -fregmove -freorder-blocks
  33              	# -freorder-functions -frerun-cse-after-loop
  34              	# -fsched-critical-path-heuristic -fsched-dep-count-heuristic
  35              	# -fsched-group-heuristic -fsched-interblock -fsched-last-insn-heuristic
  36              	# -fsched-rank-heuristic -fsched-spec -fsched-spec-insn-heuristic
  37              	# -fsched-stalled-insns-dep -fschedule-insns2 -fshow-column -fshrink-wrap
  38              	# -fsigned-zeros -fsplit-ivs-in-unroller -fsplit-wide-types
  39              	# -fstack-protector -fstrict-aliasing -fstrict-overflow
  40              	# -fstrict-volatile-bitfields -fsync-libcalls -fthread-jumps
  41              	# -ftoplevel-reorder -ftrapping-math -ftree-bit-ccp -ftree-builtin-call-dce
  42              	# -ftree-ccp -ftree-ch -ftree-coalesce-vars -ftree-copy-prop
  43              	# -ftree-copyrename -ftree-cselim -ftree-dce -ftree-dominator-opts
  44              	# -ftree-dse -ftree-forwprop -ftree-fre -ftree-loop-if-convert
  45              	# -ftree-loop-im -ftree-loop-ivcanon -ftree-loop-optimize
  46              	# -ftree-parallelize-loops= -ftree-phiprop -ftree-pre -ftree-pta
  47              	# -ftree-reassoc -ftree-scev-cprop -ftree-sink -ftree-slp-vectorize
  48              	# -ftree-slsr -ftree-sra -ftree-switch-conversion -ftree-tail-merge
  49              	# -ftree-ter -ftree-vect-loop-version -ftree-vrp -funit-at-a-time
  50              	# -funwind-tables -fvar-tracking -fvar-tracking-assignments -fverbose-asm
  51              	# -fzero-initialized-in-bss -m32 -m80387 -m96bit-long-double
  52              	# -maccumulate-outgoing-args -malign-stringops -mfancy-math-387
  53              	# -mfp-ret-in-387 -mglibc -mieee-fp -mlong-double-80 -mno-red-zone
  54              	# -mno-sse4 -mpush-args -msahf -mtls-direct-seg-refs
  55              	
  56              		.text
  57              	.Ltext0:
GAS LISTING /tmp/ccksRrvw.s 			page 2


  58              		.p2align 4,,15
  59              		.globl	chThdAddRef
  60              		.type	chThdAddRef, @function
  61              	chThdAddRef:
  62              	.LFB7:
  63              		.file 1 "../../../os/kernel/src/chdynamic.c"
  64              		.loc 1 52 0
  65              		.cfi_startproc
  66              	.LVL0:
  67              		.loc 1 52 0
  68 0000 8B442404 		movl	4(%esp), %eax	# tp, tp
  69              		.loc 1 54 0
  70              	#APP
  71              	# 54 "../../../os/kernel/src/chdynamic.c" 1
   1              	/*
   2              	    ChibiOS/RT - Copyright (C) 2006,2007,2008,2009,2010,
   3              	                 2011,2012,2013 Giovanni Di Sirio.
   4              	
   5              	    This file is part of ChibiOS/RT.
   6              	
   7              	    ChibiOS/RT is free software; you can redistribute it and/or modify
   8              	    it under the terms of the GNU General Public License as published by
   9              	    the Free Software Foundation; either version 3 of the License, or
  10              	    (at your option) any later version.
  11              	
  12              	    ChibiOS/RT is distributed in the hope that it will be useful,
  13              	    but WITHOUT ANY WARRANTY; without even the implied warranty of
  14              	    MERCHANTABILITY or FITNESS FOR A PARTICULAR PURPOSE.  See the
  15              	    GNU General Public License for more details.
  16              	
  17              	    You should have received a copy of the GNU General Public License
  18              	    along with this program.  If not, see <http://www.gnu.org/licenses/>.
  19              	
  20              	                                      ---
  21              	
  22              	    A special exception to the GPL can be applied should you wish to distribute
  23              	    a combined work that includes ChibiOS/RT, without being obliged to provide
  24              	    the source code for any proprietary components. See the file exception.txt
  25              	    for full details of how and when the exception can be applied.
  26              	*/
  27              	
  28              	/**
  29              	 * @file    chdynamic.c
  30              	 * @brief   Dynamic threads code.
  31              	 *
  32              	 * @addtogroup dynamic_threads
  33              	 * @details Dynamic threads related APIs and services.
  34              	 * @{
  35              	 */
  36              	
  37              	#include "ch.h"
  38              	
  39              	#if CH_USE_DYNAMIC || defined(__DOXYGEN__)
  40              	
  41              	/**
  42              	 * @brief   Adds a reference to a thread object.
  43              	 * @pre     The configuration option @p CH_USE_DYNAMIC must be enabled in order
GAS LISTING /tmp/ccksRrvw.s 			page 3


  44              	 *          to use this function.
  45              	 *
  46              	 * @param[in] tp        pointer to the thread
  47              	 * @return              The same thread pointer passed as parameter
  48              	 *                      representing the new reference.
  49              	 *
  50              	 * @api
  51              	 */
  52              	Thread *chThdAddRef(Thread *tp) {
  53              	
  54 0004 90       	  chSysLock();
  55              	  chDbgAssert(tp->p_refs < 255, "chThdAddRef(), #1", "too many references");
  72              		nop
  73              	# 0 "" 2
  74              		.loc 1 56 0
  75              	#NO_APP
  76 0005 80401E01 		addb	$1, 30(%eax)	#, tp_2(D)->p_refs
  77              		.loc 1 57 0
  78              	#APP
  79              	# 57 "../../../os/kernel/src/chdynamic.c" 1
  56              	  tp->p_refs++;
  57 0009 90       	  chSysUnlock();
  58              	  return tp;
  80              		nop
  81              	# 0 "" 2
  82              		.loc 1 59 0
  83              	#NO_APP
  84 000a C3       		ret
  85              		.cfi_endproc
  86              	.LFE7:
  87              		.size	chThdAddRef, .-chThdAddRef
  88 000b 908D7426 		.p2align 4,,15
  88      00
  89              		.globl	chThdRelease
  90              		.type	chThdRelease, @function
  91              	chThdRelease:
  92              	.LFB8:
  93              		.loc 1 74 0
  94              		.cfi_startproc
  95              	.LVL1:
  96 0010 83EC1C   		subl	$28, %esp	#,
  97              		.cfi_def_cfa_offset 32
  98              		.loc 1 74 0
  99 0013 8B442420 		movl	32(%esp), %eax	# tp, tp
 100              		.loc 1 77 0
 101              	#APP
 102              	# 77 "../../../os/kernel/src/chdynamic.c" 1
  59              	}
  60              	
  61              	/**
  62              	 * @brief   Releases a reference to a thread object.
  63              	 * @details If the references counter reaches zero <b>and</b> the thread
  64              	 *          is in the @p THD_STATE_FINAL state then the thread's memory is
  65              	 *          returned to the proper allocator.
  66              	 * @pre     The configuration option @p CH_USE_DYNAMIC must be enabled in order
  67              	 *          to use this function.
  68              	 * @note    Static threads are not affected.
GAS LISTING /tmp/ccksRrvw.s 			page 4


  69              	 *
  70              	 * @param[in] tp        pointer to the thread
  71              	 *
  72              	 * @api
  73              	 */
  74              	void chThdRelease(Thread *tp) {
  75              	  trefs_t refs;
  76              	
  77 0017 90       	  chSysLock();
  78              	  chDbgAssert(tp->p_refs > 0, "chThdRelease(), #1", "not referenced");
 103              		nop
 104              	# 0 "" 2
 105              		.loc 1 79 0
 106              	#NO_APP
 107 0018 0FB6481E 		movzbl	30(%eax), %ecx	# tp_3(D)->p_refs, tmp78
 108 001c 8D51FF   		leal	-1(%ecx), %edx	#, D.2059
 109 001f 88501E   		movb	%dl, 30(%eax)	# D.2059, tp_3(D)->p_refs
 110              	.LVL2:
 111              		.loc 1 80 0
 112              	#APP
 113              	# 80 "../../../os/kernel/src/chdynamic.c" 1
  79              	  refs = --tp->p_refs;
  80 0022 90       	  chSysUnlock();
  81              	
 114              		nop
 115              	# 0 "" 2
 116              		.loc 1 85 0
 117              	#NO_APP
 118 0023 84D2     		testb	%dl, %dl	# D.2059
 119 0025 7506     		jne	.L2	#,
 120              		.loc 1 85 0 is_stmt 0 discriminator 1
 121 0027 80781C0E 		cmpb	$14, 28(%eax)	#, tp_3(D)->p_state
 122 002b 740B     		je	.L8	#,
 123              	.LVL3:
 124              	.L2:
 125              		.loc 1 105 0 is_stmt 1
 126 002d 83C41C   		addl	$28, %esp	#,
 127              		.cfi_remember_state
 128              		.cfi_def_cfa_offset 4
 129 0030 C3       		ret
 130              	.LVL4:
 131              		.p2align 4,,7
 132 0031 8DB42600 		.p2align 3
 132      000000
 133              	.L8:
 134              		.cfi_restore_state
 135              		.loc 1 86 0
 136 0038 0FB6501D 		movzbl	29(%eax), %edx	# tp_3(D)->p_flags, D.2059
 137              	.LVL5:
 138 003c 83E203   		andl	$3, %edx	#, D.2059
 139 003f 80FA01   		cmpb	$1, %dl	#, D.2059
 140 0042 742C     		je	.L4	#,
 141 0044 80FA02   		cmpb	$2, %dl	#, D.2059
 142 0047 75E4     		jne	.L2	#,
 143              		.loc 1 98 0
 144 0049 8B5014   		movl	20(%eax), %edx	# tp_3(D)->p_older, D.2060
 145 004c 8B4810   		movl	16(%eax), %ecx	# tp_3(D)->p_newer, D.2060
GAS LISTING /tmp/ccksRrvw.s 			page 5


 146 004f 894A10   		movl	%ecx, 16(%edx)	# D.2060, _16->p_newer
 147 0052 8B4810   		movl	16(%eax), %ecx	# tp_3(D)->p_newer, tp_3(D)->p_newer
 148 0055 895114   		movl	%edx, 20(%ecx)	# D.2060, _19->p_older
 149              		.loc 1 100 0
 150 0058 89442404 		movl	%eax, 4(%esp)	# tp,
 151              	.LVL6:
 152 005c 8B4044   		movl	68(%eax), %eax	# tp_3(D)->p_mpool, tp_3(D)->p_mpool
 153 005f 890424   		movl	%eax, (%esp)	# tp_3(D)->p_mpool,
 154 0062 E8FCFFFF 		call	chPoolFree	#
 154      FF
 155              	.LVL7:
 156              		.loc 1 101 0
 157 0067 EBC4     		jmp	.L2	#
 158              	.LVL8:
 159 0069 8DB42600 		.p2align 4,,7
 159      000000
 160              		.p2align 3
 161              	.L4:
 162              		.loc 1 90 0
 163 0070 8B4810   		movl	16(%eax), %ecx	# tp_3(D)->p_newer, D.2060
 164 0073 8B5014   		movl	20(%eax), %edx	# tp_3(D)->p_older, D.2060
 165 0076 894A10   		movl	%ecx, 16(%edx)	# D.2060, _10->p_newer
 166 0079 8B4810   		movl	16(%eax), %ecx	# tp_3(D)->p_newer, tp_3(D)->p_newer
 167 007c 895114   		movl	%edx, 20(%ecx)	# D.2060, _13->p_older
 168              		.loc 1 92 0
 169 007f 89442420 		movl	%eax, 32(%esp)	# tp,
 170              	.LVL9:
 171              		.loc 1 105 0
 172 0083 83C41C   		addl	$28, %esp	#,
 173              		.cfi_def_cfa_offset 4
 174              		.loc 1 92 0
 175 0086 E9FCFFFF 		jmp	chHeapFree	#
 175      FF
 176              	.LVL10:
 177              		.cfi_endproc
 178              	.LFE8:
 179              		.size	chThdRelease, .-chThdRelease
 180 008b 908D7426 		.p2align 4,,15
 180      00
 181              		.globl	chThdCreateFromHeap
 182              		.type	chThdCreateFromHeap, @function
 183              	chThdCreateFromHeap:
 184              	.LFB9:
 185              		.loc 1 131 0
 186              		.cfi_startproc
 187              	.LVL11:
 188 0090 53       		pushl	%ebx	#
 189              		.cfi_def_cfa_offset 8
 190              		.cfi_offset 3, -8
 191 0091 83EC28   		subl	$40, %esp	#,
 192              		.cfi_def_cfa_offset 48
 193              		.loc 1 131 0
 194 0094 8B5C2434 		movl	52(%esp), %ebx	# size, size
 195              		.loc 1 135 0
 196 0098 8B442430 		movl	48(%esp), %eax	# heapp, heapp
 197 009c 895C2404 		movl	%ebx, 4(%esp)	# size,
 198 00a0 890424   		movl	%eax, (%esp)	# heapp,
GAS LISTING /tmp/ccksRrvw.s 			page 6


 199 00a3 E8FCFFFF 		call	chHeapAlloc	#
 199      FF
 200              	.LVL12:
 201              		.loc 1 136 0
 202 00a8 85C0     		testl	%eax, %eax	# wsp
 203 00aa 7444     		je	.L11	#,
 204              		.loc 1 148 0
 205              	#APP
 206              	# 148 "../../../os/kernel/src/chdynamic.c" 1
  82              	  /* If the references counter reaches zero and the thread is in its
  83              	     terminated state then the memory can be returned to the proper
  84              	     allocator. Of course static threads are not affected.*/
  85              	  if ((refs == 0) && (tp->p_state == THD_STATE_FINAL)) {
  86              	    switch (tp->p_flags & THD_MEM_MODE_MASK) {
  87              	#if CH_USE_HEAP
  88              	    case THD_MEM_MODE_HEAP:
  89              	#if CH_USE_REGISTRY
  90              	      REG_REMOVE(tp);
  91              	#endif
  92              	      chHeapFree(tp);
  93              	      break;
  94              	#endif
  95              	#if CH_USE_MEMPOOLS
  96              	    case THD_MEM_MODE_MEMPOOL:
  97              	#if CH_USE_REGISTRY
  98              	      REG_REMOVE(tp);
  99              	#endif
 100              	      chPoolFree(tp->p_mpool, tp);
 101              	      break;
 102              	#endif
 103              	    }
 104              	  }
 105              	}
 106              	
 107              	#if CH_USE_HEAP || defined(__DOXYGEN__)
 108              	/**
 109              	 * @brief   Creates a new thread allocating the memory from the heap.
 110              	 * @pre     The configuration options @p CH_USE_DYNAMIC and @p CH_USE_HEAP
 111              	 *          must be enabled in order to use this function.
 112              	 * @note    A thread can terminate by calling @p chThdExit() or by simply
 113              	 *          returning from its main function.
 114              	 * @note    The memory allocated for the thread is not released when the thread
 115              	 *          terminates but when a @p chThdWait() is performed.
 116              	 *
 117              	 * @param[in] heapp     heap from which allocate the memory or @p NULL for the
 118              	 *                      default heap
 119              	 * @param[in] size      size of the working area to be allocated
 120              	 * @param[in] prio      the priority level for the new thread
 121              	 * @param[in] pf        the thread function
 122              	 * @param[in] arg       an argument passed to the thread function. It can be
 123              	 *                      @p NULL.
 124              	 * @return              The pointer to the @p Thread structure allocated for
 125              	 *                      the thread into the working space area.
 126              	 * @retval NULL         if the memory cannot be allocated.
 127              	 *
 128              	 * @api
 129              	 */
GAS LISTING /tmp/ccksRrvw.s 			page 7


 130              	Thread *chThdCreateFromHeap(MemoryHeap *heapp, size_t size,
 131              	                            tprio_t prio, tfunc_t pf, void *arg) {
 132              	  void *wsp;
 133              	  Thread *tp;
 134              	
 135              	  wsp = chHeapAlloc(heapp, size);
 136              	  if (wsp == NULL)
 137              	    return NULL;
 138              	  
 139              	#if CH_DBG_FILL_THREADS
 140              	  _thread_memfill((uint8_t *)wsp,
 141              	                  (uint8_t *)wsp + sizeof(Thread),
 142              	                  CH_THREAD_FILL_VALUE);
 143              	  _thread_memfill((uint8_t *)wsp + sizeof(Thread),
 144              	                  (uint8_t *)wsp + size,
 145              	                  CH_STACK_FILL_VALUE);
 146              	#endif
 147              	  
 148 00ac 90       	  chSysLock();
 149              	  tp = chThdCreateI(wsp, size, prio, pf, arg);
 207              		nop
 208              	# 0 "" 2
 209              		.loc 1 149 0
 210              	#NO_APP
 211 00ad 8B542440 		movl	64(%esp), %edx	# arg, arg
 212 00b1 895C2404 		movl	%ebx, 4(%esp)	# size,
 213 00b5 890424   		movl	%eax, (%esp)	# wsp,
 214 00b8 89542410 		movl	%edx, 16(%esp)	# arg,
 215 00bc 8B54243C 		movl	60(%esp), %edx	# pf, pf
 216 00c0 8954240C 		movl	%edx, 12(%esp)	# pf,
 217 00c4 8B542438 		movl	56(%esp), %edx	# prio, prio
 218 00c8 89542408 		movl	%edx, 8(%esp)	# prio,
 219 00cc E8FCFFFF 		call	chThdCreateI	#
 219      FF
 220              	.LVL13:
 221              		.loc 1 150 0
 222 00d1 C6401D01 		movb	$1, 29(%eax)	#, tp_12->p_flags
 223              		.loc 1 149 0
 224 00d5 89C3     		movl	%eax, %ebx	#, tp
 225              	.LVL14:
 226              		.loc 1 151 0
 227 00d7 C7442404 		movl	$0, 4(%esp)	#,
 227      00000000 
 228 00df 890424   		movl	%eax, (%esp)	# tp,
 229 00e2 E8FCFFFF 		call	chSchWakeupS	#
 229      FF
 230              	.LVL15:
 231              		.loc 1 152 0
 232              	#APP
 233              	# 152 "../../../os/kernel/src/chdynamic.c" 1
 150              	  tp->p_flags = THD_MEM_MODE_HEAP;
 151              	  chSchWakeupS(tp, RDY_OK);
 152 00e7 90       	  chSysUnlock();
 153              	  return tp;
 234              		nop
 235              	# 0 "" 2
 236              		.loc 1 153 0
GAS LISTING /tmp/ccksRrvw.s 			page 8


 237              	#NO_APP
 238 00e8 89D8     		movl	%ebx, %eax	# tp, D.2064
 239              	.LVL16:
 240              	.L10:
 241              		.loc 1 154 0
 242 00ea 83C428   		addl	$40, %esp	#,
 243              		.cfi_remember_state
 244              		.cfi_def_cfa_offset 8
 245 00ed 5B       		popl	%ebx	#
 246              		.cfi_restore 3
 247              		.cfi_def_cfa_offset 4
 248 00ee C3       		ret
 249              	.LVL17:
 250 00ef 90       		.p2align 4,,7
 251              		.p2align 3
 252              	.L11:
 253              		.cfi_restore_state
 254              		.loc 1 137 0
 255 00f0 31C0     		xorl	%eax, %eax	# D.2064
 256              	.LVL18:
 257 00f2 EBF6     		jmp	.L10	#
 258              		.cfi_endproc
 259              	.LFE9:
 260              		.size	chThdCreateFromHeap, .-chThdCreateFromHeap
 261 00f4 8DB60000 		.p2align 4,,15
 261      00008DBF 
 261      00000000 
 262              		.globl	chThdCreateFromMemoryPool
 263              		.type	chThdCreateFromMemoryPool, @function
 264              	chThdCreateFromMemoryPool:
 265              	.LFB10:
 266              		.loc 1 180 0
 267              		.cfi_startproc
 268              	.LVL19:
 269 0100 56       		pushl	%esi	#
 270              		.cfi_def_cfa_offset 8
 271              		.cfi_offset 6, -8
 272 0101 53       		pushl	%ebx	#
 273              		.cfi_def_cfa_offset 12
 274              		.cfi_offset 3, -12
 275 0102 83EC24   		subl	$36, %esp	#,
 276              		.cfi_def_cfa_offset 48
 277              		.loc 1 180 0
 278 0105 8B742430 		movl	48(%esp), %esi	# mp, mp
 279              		.loc 1 186 0
 280 0109 893424   		movl	%esi, (%esp)	# mp,
 281 010c E8FCFFFF 		call	chPoolAlloc	#
 281      FF
 282              	.LVL20:
 283              		.loc 1 187 0
 284 0111 85C0     		testl	%eax, %eax	# wsp
 285 0113 744B     		je	.L15	#,
 286              		.loc 1 199 0
 287              	#APP
 288              	# 199 "../../../os/kernel/src/chdynamic.c" 1
 154              	}
 155              	#endif /* CH_USE_HEAP */
GAS LISTING /tmp/ccksRrvw.s 			page 9


 156              	
 157              	#if CH_USE_MEMPOOLS || defined(__DOXYGEN__)
 158              	/**
 159              	 * @brief   Creates a new thread allocating the memory from the specified
 160              	 *          memory pool.
 161              	 * @pre     The configuration options @p CH_USE_DYNAMIC and @p CH_USE_MEMPOOLS
 162              	 *          must be enabled in order to use this function.
 163              	 * @note    A thread can terminate by calling @p chThdExit() or by simply
 164              	 *          returning from its main function.
 165              	 * @note    The memory allocated for the thread is not released when the thread
 166              	 *          terminates but when a @p chThdWait() is performed.
 167              	 *
 168              	 * @param[in] mp        pointer to the memory pool object
 169              	 * @param[in] prio      the priority level for the new thread
 170              	 * @param[in] pf        the thread function
 171              	 * @param[in] arg       an argument passed to the thread function. It can be
 172              	 *                      @p NULL.
 173              	 * @return              The pointer to the @p Thread structure allocated for
 174              	 *                      the thread into the working space area.
 175              	 * @retval  NULL        if the memory pool is empty.
 176              	 *
 177              	 * @api
 178              	 */
 179              	Thread *chThdCreateFromMemoryPool(MemoryPool *mp, tprio_t prio,
 180              	                                  tfunc_t pf, void *arg) {
 181              	  void *wsp;
 182              	  Thread *tp;
 183              	
 184              	  chDbgCheck(mp != NULL, "chThdCreateFromMemoryPool");
 185              	
 186              	  wsp = chPoolAlloc(mp);
 187              	  if (wsp == NULL)
 188              	    return NULL;
 189              	  
 190              	#if CH_DBG_FILL_THREADS
 191              	  _thread_memfill((uint8_t *)wsp,
 192              	                  (uint8_t *)wsp + sizeof(Thread),
 193              	                  CH_THREAD_FILL_VALUE);
 194              	  _thread_memfill((uint8_t *)wsp + sizeof(Thread),
 195              	                  (uint8_t *)wsp + mp->mp_object_size,
 196              	                  CH_STACK_FILL_VALUE);
 197              	#endif
 198              	
 199 0115 90       	  chSysLock();
 200              	  tp = chThdCreateI(wsp, mp->mp_object_size, prio, pf, arg);
 289              		nop
 290              	# 0 "" 2
 291              		.loc 1 200 0
 292              	#NO_APP
 293 0116 8B54243C 		movl	60(%esp), %edx	# arg, arg
 294 011a 89542410 		movl	%edx, 16(%esp)	# arg,
 295 011e 8B542438 		movl	56(%esp), %edx	# pf, pf
 296 0122 8954240C 		movl	%edx, 12(%esp)	# pf,
 297 0126 8B542434 		movl	52(%esp), %edx	# prio, prio
 298 012a 89542408 		movl	%edx, 8(%esp)	# prio,
 299 012e 8B5604   		movl	4(%esi), %edx	# mp_4(D)->mp_object_size, mp_4(D)->mp_object_size
 300 0131 890424   		movl	%eax, (%esp)	# wsp,
GAS LISTING /tmp/ccksRrvw.s 			page 10


 301 0134 89542404 		movl	%edx, 4(%esp)	# mp_4(D)->mp_object_size,
 302 0138 E8FCFFFF 		call	chThdCreateI	#
 302      FF
 303              	.LVL21:
 304              		.loc 1 201 0
 305 013d C6401D02 		movb	$2, 29(%eax)	#, tp_12->p_flags
 306              		.loc 1 200 0
 307 0141 89C3     		movl	%eax, %ebx	#, tp
 308              	.LVL22:
 309              		.loc 1 202 0
 310 0143 897044   		movl	%esi, 68(%eax)	# mp, tp_12->p_mpool
 311              		.loc 1 203 0
 312 0146 C7442404 		movl	$0, 4(%esp)	#,
 312      00000000 
 313 014e 890424   		movl	%eax, (%esp)	# tp,
 314 0151 E8FCFFFF 		call	chSchWakeupS	#
 314      FF
 315              	.LVL23:
 316              		.loc 1 204 0
 317              	#APP
 318              	# 204 "../../../os/kernel/src/chdynamic.c" 1
 201              	  tp->p_flags = THD_MEM_MODE_MEMPOOL;
 202              	  tp->p_mpool = mp;
 203              	  chSchWakeupS(tp, RDY_OK);
 204 0156 90       	  chSysUnlock();
 205              	  return tp;
 319              		nop
 320              	# 0 "" 2
 321              		.loc 1 205 0
 322              	#NO_APP
 323 0157 89D8     		movl	%ebx, %eax	# tp, D.2067
 324              	.LVL24:
 325              	.L14:
 326              		.loc 1 206 0
 327 0159 83C424   		addl	$36, %esp	#,
 328              		.cfi_remember_state
 329              		.cfi_def_cfa_offset 12
 330 015c 5B       		popl	%ebx	#
 331              		.cfi_restore 3
 332              		.cfi_def_cfa_offset 8
 333 015d 5E       		popl	%esi	#
 334              		.cfi_restore 6
 335              		.cfi_def_cfa_offset 4
 336 015e C3       		ret
 337              	.LVL25:
 338 015f 90       		.p2align 4,,7
 339              		.p2align 3
 340              	.L15:
 341              		.cfi_restore_state
 342              		.loc 1 188 0
 343 0160 31C0     		xorl	%eax, %eax	# D.2067
 344              	.LVL26:
 345 0162 EBF5     		jmp	.L14	#
 346              		.cfi_endproc
 347              	.LFE10:
 348              		.size	chThdCreateFromMemoryPool, .-chThdCreateFromMemoryPool
 349              	.Letext0:
GAS LISTING /tmp/ccksRrvw.s 			page 11


 350              		.file 2 "/usr/lib/gcc/x86_64-linux-gnu/4.8/include/stddef.h"
 351              		.file 3 "/usr/include/stdint.h"
 352              		.file 4 "../../../os/ports/GCC/SIMIA32/chtypes.h"
 353              		.file 5 "../../../os/kernel/include/chlists.h"
 354              		.file 6 "../../../os/kernel/include/chthreads.h"
 355              		.file 7 "../../../os/ports/GCC/SIMIA32/chcore.h"
 356              		.file 8 "../../../os/kernel/include/chmtx.h"
 357              		.file 9 "../../../os/kernel/include/chmemcore.h"
 358              		.file 10 "../../../os/kernel/include/chheap.h"
 359              		.file 11 "../../../os/kernel/include/chmempools.h"
 360              		.file 12 "../../../os/kernel/include/chschd.h"
 2102              		.section	.note.GNU-stack,"",@progbits
GAS LISTING /tmp/ccksRrvw.s 			page 45

