GAS LISTING /tmp/ccumqqZj.s 			page 1


   1              		.file	"chheap.c"
   2              	# GNU C (Ubuntu 4.8.2-19ubuntu1) version 4.8.2 (x86_64-linux-gnu)
   3              	#	compiled by GNU C version 4.8.2, GMP version 5.1.3, MPFR version 3.1.2-p3, MPC version 1.0.1
   4              	# GGC heuristics: --param ggc-min-expand=97 --param ggc-min-heapsize=126309
   5              	# options passed:  -I . -I ../../../os/ports/GCC/SIMIA32
   6              	# -I ../../../os/kernel/include -I ../../../test -I ../../../os/hal/include
   7              	# -I ../../../os/hal/platforms/Posix -I ../../../boards/simulator
   8              	# -I ../../../os/various -imultilib 32 -imultiarch i386-linux-gnu
   9              	# -MD ../../../os/kernel/src/chheap.d -MF .dep/chheap.o.d -MP
  10              	# -MQ ../../../os/kernel/src/chheap.o -D SIMULATOR
  11              	# -D SHELL_USE_IPRINTF=FALSE ../../../os/kernel/src/chheap.c -m32
  12              	# -mtune=generic -march=i686 -auxbase-strip ../../../os/kernel/src/chheap.o
  13              	# -ggdb -O2 -Wall -Wextra -Wstrict-prototypes -fomit-frame-pointer
  14              	# -fverbose-asm -fstack-protector -Wformat -Wformat-security
  15              	# options enabled:  -faggressive-loop-optimizations
  16              	# -fasynchronous-unwind-tables -fauto-inc-dec -fbranch-count-reg
  17              	# -fcaller-saves -fcombine-stack-adjustments -fcommon -fcompare-elim
  18              	# -fcprop-registers -fcrossjumping -fcse-follow-jumps -fdefer-pop
  19              	# -fdelete-null-pointer-checks -fdevirtualize -fdwarf2-cfi-asm
  20              	# -fearly-inlining -feliminate-unused-debug-types -fexpensive-optimizations
  21              	# -fforward-propagate -ffunction-cse -fgcse -fgcse-lm -fgnu-runtime
  22              	# -fguess-branch-probability -fhoist-adjacent-loads -fident -fif-conversion
  23              	# -fif-conversion2 -findirect-inlining -finline -finline-atomics
  24              	# -finline-functions-called-once -finline-small-functions -fipa-cp
  25              	# -fipa-profile -fipa-pure-const -fipa-reference -fipa-sra
  26              	# -fira-hoist-pressure -fira-share-save-slots -fira-share-spill-slots
  27              	# -fivopts -fkeep-static-consts -fleading-underscore -fmath-errno
  28              	# -fmerge-constants -fmerge-debug-strings -fmove-loop-invariants
  29              	# -fomit-frame-pointer -foptimize-register-move -foptimize-sibling-calls
  30              	# -foptimize-strlen -fpartial-inlining -fpcc-struct-return -fpeephole
  31              	# -fpeephole2 -fprefetch-loop-arrays -free -fregmove -freorder-blocks
  32              	# -freorder-functions -frerun-cse-after-loop
  33              	# -fsched-critical-path-heuristic -fsched-dep-count-heuristic
  34              	# -fsched-group-heuristic -fsched-interblock -fsched-last-insn-heuristic
  35              	# -fsched-rank-heuristic -fsched-spec -fsched-spec-insn-heuristic
  36              	# -fsched-stalled-insns-dep -fschedule-insns2 -fshow-column -fshrink-wrap
  37              	# -fsigned-zeros -fsplit-ivs-in-unroller -fsplit-wide-types
  38              	# -fstack-protector -fstrict-aliasing -fstrict-overflow
  39              	# -fstrict-volatile-bitfields -fsync-libcalls -fthread-jumps
  40              	# -ftoplevel-reorder -ftrapping-math -ftree-bit-ccp -ftree-builtin-call-dce
  41              	# -ftree-ccp -ftree-ch -ftree-coalesce-vars -ftree-copy-prop
  42              	# -ftree-copyrename -ftree-cselim -ftree-dce -ftree-dominator-opts
  43              	# -ftree-dse -ftree-forwprop -ftree-fre -ftree-loop-if-convert
  44              	# -ftree-loop-im -ftree-loop-ivcanon -ftree-loop-optimize
  45              	# -ftree-parallelize-loops= -ftree-phiprop -ftree-pre -ftree-pta
  46              	# -ftree-reassoc -ftree-scev-cprop -ftree-sink -ftree-slp-vectorize
  47              	# -ftree-slsr -ftree-sra -ftree-switch-conversion -ftree-tail-merge
  48              	# -ftree-ter -ftree-vect-loop-version -ftree-vrp -funit-at-a-time
  49              	# -funwind-tables -fvar-tracking -fvar-tracking-assignments -fverbose-asm
  50              	# -fzero-initialized-in-bss -m32 -m80387 -m96bit-long-double
  51              	# -maccumulate-outgoing-args -malign-stringops -mfancy-math-387
  52              	# -mfp-ret-in-387 -mglibc -mieee-fp -mlong-double-80 -mno-red-zone
  53              	# -mno-sse4 -mpush-args -msahf -mtls-direct-seg-refs
  54              	
  55              		.text
  56              	.Ltext0:
  57              		.p2align 4,,15
GAS LISTING /tmp/ccumqqZj.s 			page 2


  58              		.globl	_heap_init
  59              		.type	_heap_init, @function
  60              	_heap_init:
  61              	.LFB7:
  62              		.file 1 "../../../os/kernel/src/chheap.c"
  63              		.loc 1 75 0
  64              		.cfi_startproc
  65 0000 83EC1C   		subl	$28, %esp	#,
  66              		.cfi_def_cfa_offset 32
  67              		.loc 1 80 0
  68 0003 C7042420 		movl	$default_heap+32, (%esp)	#,
  68      000000
  69              		.loc 1 76 0
  70 000a C7050000 		movl	$chCoreAlloc, default_heap	#, default_heap.h_provider
  70      00000000 
  70      0000
  71              		.loc 1 77 0
  72 0014 C7051000 		movl	$0, default_heap+16	#, default_heap.h_free.h.u.next
  72      00000000 
  72      0000
  73              		.loc 1 78 0
  74 001e C7051400 		movl	$0, default_heap+20	#, default_heap.h_free.h.size
  74      00000000 
  74      0000
  75              		.loc 1 80 0
  76 0028 E8FCFFFF 		call	chMtxInit	#
  76      FF
  77              	.LVL0:
  78              		.loc 1 84 0
  79 002d 83C41C   		addl	$28, %esp	#,
  80              		.cfi_def_cfa_offset 4
  81 0030 C3       		ret
  82              		.cfi_endproc
  83              	.LFE7:
  84              		.size	_heap_init, .-_heap_init
  85 0031 EB0D9090 		.p2align 4,,15
  85      90909090 
  85      90909090 
  85      909090
  86              		.globl	chHeapInit
  87              		.type	chHeapInit, @function
  88              	chHeapInit:
  89              	.LFB8:
  90              		.loc 1 99 0
  91              		.cfi_startproc
  92              	.LVL1:
  93              		.loc 1 108 0
  94 0040 8B4C240C 		movl	12(%esp), %ecx	# size, tmp66
  95              		.loc 1 99 0
  96 0044 8B442404 		movl	4(%esp), %eax	# heapp, heapp
  97 0048 8B542408 		movl	8(%esp), %edx	# buf, buf
  98              		.loc 1 108 0
  99 004c 83E910   		subl	$16, %ecx	#, tmp64
 100              		.loc 1 104 0
 101 004f C7000000 		movl	$0, (%eax)	#, heapp_4(D)->h_provider
 101      0000
 102              	.LVL2:
GAS LISTING /tmp/ccumqqZj.s 			page 3


 103              		.loc 1 110 0
 104 0055 83C020   		addl	$32, %eax	#, tmp65
 105              		.loc 1 105 0
 106 0058 8950F0   		movl	%edx, -16(%eax)	# buf, heapp_4(D)->h_free.h.u.next
 107              		.loc 1 106 0
 108 005b C740F400 		movl	$0, -12(%eax)	#, heapp_4(D)->h_free.h.size
 108      000000
 109              		.loc 1 107 0
 110 0062 C7020000 		movl	$0, (%edx)	#, MEM[(union heap_header *)buf_1(D)].h.u.next
 110      0000
 111              		.loc 1 108 0
 112 0068 894A04   		movl	%ecx, 4(%edx)	# tmp64, MEM[(union heap_header *)buf_1(D)].h.size
 113              		.loc 1 110 0
 114 006b 89442404 		movl	%eax, 4(%esp)	# tmp65,
 115              	.LVL3:
 116 006f E9FCFFFF 		jmp	chMtxInit	#
 116      FF
 117              	.LVL4:
 118              		.cfi_endproc
 119              	.LFE8:
 120              		.size	chHeapInit, .-chHeapInit
 121 0074 8DB60000 		.p2align 4,,15
 121      00008DBF 
 121      00000000 
 122              		.globl	chHeapAlloc
 123              		.type	chHeapAlloc, @function
 124              	chHeapAlloc:
 125              	.LFB9:
 126              		.loc 1 132 0
 127              		.cfi_startproc
 128              	.LVL5:
 129 0080 55       		pushl	%ebp	#
 130              		.cfi_def_cfa_offset 8
 131              		.cfi_offset 5, -8
 132              		.loc 1 136 0
 133 0081 B8000000 		movl	$default_heap, %eax	#, tmp85
 133      00
 134              		.loc 1 132 0
 135 0086 57       		pushl	%edi	#
 136              		.cfi_def_cfa_offset 12
 137              		.cfi_offset 7, -12
 138 0087 56       		pushl	%esi	#
 139              		.cfi_def_cfa_offset 16
 140              		.cfi_offset 6, -16
 141 0088 53       		pushl	%ebx	#
 142              		.cfi_def_cfa_offset 20
 143              		.cfi_offset 3, -20
 144 0089 83EC1C   		subl	$28, %esp	#,
 145              		.cfi_def_cfa_offset 48
 146              		.loc 1 132 0
 147 008c 8B6C2430 		movl	48(%esp), %ebp	# heapp, heapp
 148              		.loc 1 136 0
 149 0090 85ED     		testl	%ebp, %ebp	# heapp
 150 0092 0F44E8   		cmove	%eax, %ebp	# heapp,, tmp85, heapp
 151              	.LVL6:
 152              		.loc 1 138 0
 153 0095 8B442434 		movl	52(%esp), %eax	# size, tmp86
GAS LISTING /tmp/ccumqqZj.s 			page 4


 154              		.loc 1 139 0
 155 0099 8D7510   		leal	16(%ebp), %esi	#, qp
 156              		.loc 1 138 0
 157 009c 8D780F   		leal	15(%eax), %edi	#, size
 158              		.loc 1 140 0
 159 009f 8D4520   		leal	32(%ebp), %eax	#, tmp79
 160              		.loc 1 138 0
 161 00a2 83E7F0   		andl	$-16, %edi	#, size
 162              	.LVL7:
 163              		.loc 1 140 0
 164 00a5 890424   		movl	%eax, (%esp)	# tmp79,
 165 00a8 E8FCFFFF 		call	chMtxLock	#
 165      FF
 166              	.LVL8:
 167              		.loc 1 142 0
 168 00ad EB0A     		jmp	.L6	#
 169 00af 90       		.p2align 4,,7
 170              		.p2align 3
 171              	.L11:
 172              	.LVL9:
 173              		.loc 1 144 0
 174 00b0 8B4304   		movl	4(%ebx), %eax	# qp_14->h.size, D.2120
 175 00b3 39C7     		cmpl	%eax, %edi	# D.2120, size
 176 00b5 7631     		jbe	.L20	#,
 177 00b7 89DE     		movl	%ebx, %esi	# qp, qp
 178              	.LVL10:
 179              	.L6:
 180              		.loc 1 142 0 discriminator 1
 181 00b9 8B1E     		movl	(%esi), %ebx	# qp_2->h.u.next, qp
 182 00bb 85DB     		testl	%ebx, %ebx	# qp
 183 00bd 75F1     		jne	.L11	#,
 184              		.loc 1 167 0
 185 00bf E8FCFFFF 		call	chMtxUnlock	#
 185      FF
 186              	.LVL11:
 187              		.loc 1 171 0
 188 00c4 8B4500   		movl	0(%ebp), %eax	# heapp_1->h_provider, D.2123
 189 00c7 85C0     		testl	%eax, %eax	# D.2123
 190 00c9 7452     		je	.L13	#,
 191              		.loc 1 172 0
 192 00cb 8D5710   		leal	16(%edi), %edx	#, D.2120
 193 00ce 891424   		movl	%edx, (%esp)	# D.2120,
 194 00d1 FFD0     		call	*%eax	# D.2123
 195              	.LVL12:
 196              		.loc 1 173 0
 197 00d3 85C0     		testl	%eax, %eax	# hp
 198 00d5 7446     		je	.L13	#,
 199              		.loc 1 174 0
 200 00d7 8928     		movl	%ebp, (%eax)	# heapp, hp_34->h.u.heap
 201              		.loc 1 177 0
 202 00d9 83C010   		addl	$16, %eax	#, D.2119
 203              	.LVL13:
 204              		.loc 1 175 0
 205 00dc 8978F4   		movl	%edi, -12(%eax)	# size, hp_34->h.size
 206              	.LVL14:
 207              	.L10:
 208              		.loc 1 181 0
GAS LISTING /tmp/ccumqqZj.s 			page 5


 209 00df 83C41C   		addl	$28, %esp	#,
 210              		.cfi_remember_state
 211              		.cfi_def_cfa_offset 20
 212 00e2 5B       		popl	%ebx	#
 213              		.cfi_restore 3
 214              		.cfi_def_cfa_offset 16
 215 00e3 5E       		popl	%esi	#
 216              		.cfi_restore 6
 217              		.cfi_def_cfa_offset 12
 218              	.LVL15:
 219 00e4 5F       		popl	%edi	#
 220              		.cfi_restore 7
 221              		.cfi_def_cfa_offset 8
 222              	.LVL16:
 223 00e5 5D       		popl	%ebp	#
 224              		.cfi_restore 5
 225              		.cfi_def_cfa_offset 4
 226              	.LVL17:
 227 00e6 C3       		ret
 228              	.LVL18:
 229              		.p2align 4,,7
 230 00e7 90       		.p2align 3
 231              	.L20:
 232              		.cfi_restore_state
 233              		.loc 1 145 0
 234 00e8 8D5710   		leal	16(%edi), %edx	#, D.2120
 235 00eb 39C2     		cmpl	%eax, %edx	# D.2120, D.2120
 236 00ed 7619     		jbe	.L8	#,
 237              		.loc 1 149 0
 238 00ef 8B03     		movl	(%ebx), %eax	# qp_38->h.u.next, D.2122
 239 00f1 8906     		movl	%eax, (%esi)	# D.2122, qp_39->h.u.next
 240              	.L9:
 241              		.loc 1 159 0
 242 00f3 892B     		movl	%ebp, (%ebx)	# heapp, qp_38->h.u.heap
 243              		.loc 1 161 0
 244 00f5 E8FCFFFF 		call	chMtxUnlock	#
 244      FF
 245              	.LVL19:
 246              		.loc 1 181 0
 247 00fa 83C41C   		addl	$28, %esp	#,
 248              		.cfi_remember_state
 249              		.cfi_def_cfa_offset 20
 250              		.loc 1 162 0
 251 00fd 8D4310   		leal	16(%ebx), %eax	#, D.2119
 252              		.loc 1 181 0
 253 0100 5B       		popl	%ebx	#
 254              		.cfi_restore 3
 255              		.cfi_def_cfa_offset 16
 256              	.LVL20:
 257 0101 5E       		popl	%esi	#
 258              		.cfi_restore 6
 259              		.cfi_def_cfa_offset 12
 260              	.LVL21:
 261 0102 5F       		popl	%edi	#
 262              		.cfi_restore 7
 263              		.cfi_def_cfa_offset 8
 264              	.LVL22:
GAS LISTING /tmp/ccumqqZj.s 			page 6


 265 0103 5D       		popl	%ebp	#
 266              		.cfi_restore 5
 267              		.cfi_def_cfa_offset 4
 268              	.LVL23:
 269 0104 C3       		ret
 270              	.LVL24:
 271              		.p2align 4,,7
 272 0105 8D7600   		.p2align 3
 273              	.L8:
 274              		.cfi_restore_state
 275              		.loc 1 154 0
 276 0108 8B0B     		movl	(%ebx), %ecx	# qp_38->h.u.next, D.2122
 277              		.loc 1 155 0
 278 010a 29F8     		subl	%edi, %eax	# size, D.2120
 279              		.loc 1 153 0
 280 010c 01DA     		addl	%ebx, %edx	# qp, fp
 281              	.LVL25:
 282              		.loc 1 155 0
 283 010e 83E810   		subl	$16, %eax	#, tmp82
 284 0111 894204   		movl	%eax, 4(%edx)	# tmp82, fp_19->h.size
 285              		.loc 1 154 0
 286 0114 890A     		movl	%ecx, (%edx)	# D.2122, fp_19->h.u.next
 287              		.loc 1 156 0
 288 0116 8916     		movl	%edx, (%esi)	# fp, qp_39->h.u.next
 289              		.loc 1 157 0
 290 0118 897B04   		movl	%edi, 4(%ebx)	# size, qp_38->h.size
 291 011b EBD6     		jmp	.L9	#
 292              	.LVL26:
 293              	.L13:
 294              		.loc 1 180 0
 295 011d 31C0     		xorl	%eax, %eax	# D.2119
 296 011f EBBE     		jmp	.L10	#
 297              		.cfi_endproc
 298              	.LFE9:
 299              		.size	chHeapAlloc, .-chHeapAlloc
 300 0121 EB0D9090 		.p2align 4,,15
 300      90909090 
 300      90909090 
 300      909090
 301              		.globl	chHeapFree
 302              		.type	chHeapFree, @function
 303              	chHeapFree:
 304              	.LFB10:
 305              		.loc 1 194 0
 306              		.cfi_startproc
 307              	.LVL27:
 308 0130 57       		pushl	%edi	#
 309              		.cfi_def_cfa_offset 8
 310              		.cfi_offset 7, -8
 311 0131 56       		pushl	%esi	#
 312              		.cfi_def_cfa_offset 12
 313              		.cfi_offset 6, -12
 314 0132 53       		pushl	%ebx	#
 315              		.cfi_def_cfa_offset 16
 316              		.cfi_offset 3, -16
 317 0133 83EC10   		subl	$16, %esp	#,
 318              		.cfi_def_cfa_offset 32
GAS LISTING /tmp/ccumqqZj.s 			page 7


 319              		.loc 1 194 0
 320 0136 8B7C2420 		movl	32(%esp), %edi	# p, p
 321              		.loc 1 201 0
 322 013a 8B47F0   		movl	-16(%edi), %eax	# MEM[(union heap_header *)p_4(D) + 4294967280B].h.u.heap, heapp
 323              		.loc 1 200 0
 324 013d 8D5FF0   		leal	-16(%edi), %ebx	#, hp
 325              	.LVL28:
 326              		.loc 1 202 0
 327 0140 8D7010   		leal	16(%eax), %esi	#, qp
 328              	.LVL29:
 329              		.loc 1 203 0
 330 0143 83C020   		addl	$32, %eax	#, tmp82
 331              	.LVL30:
 332 0146 890424   		movl	%eax, (%esp)	# tmp82,
 333              	.LVL31:
 334 0149 E8FCFFFF 		call	chMtxLock	#
 334      FF
 335              	.LVL32:
 336              		.loc 1 202 0
 337 014e 89F0     		movl	%esi, %eax	# qp, qp
 338              	.LVL33:
 339              		.p2align 4,,7
 340              		.p2align 3
 341              	.L28:
 342              		.loc 1 210 0
 343 0150 39F0     		cmpl	%esi, %eax	# qp, qp
 344 0152 740C     		je	.L22	#,
 345              	.L34:
 346              		.loc 1 210 0 is_stmt 0 discriminator 2
 347 0154 39D8     		cmpl	%ebx, %eax	# hp, qp
 348 0156 7208     		jb	.L22	#,
 349 0158 8B00     		movl	(%eax), %eax	# qp_1->h.u.next, qp
 350              	.LVL34:
 351              		.loc 1 210 0
 352 015a 39F0     		cmpl	%esi, %eax	# qp, qp
 353 015c 75F6     		jne	.L34	#,
 354 015e 6690     		.p2align 4,,7
 355              		.p2align 3
 356              	.L22:
 357              		.loc 1 211 0 is_stmt 1 discriminator 1
 358 0160 8B10     		movl	(%eax), %edx	# qp_1->h.u.next, D.2127
 359              		.loc 1 210 0 discriminator 1
 360 0162 85D2     		testl	%edx, %edx	# D.2127
 361 0164 740A     		je	.L24	#,
 362              		.loc 1 211 0
 363 0166 39D3     		cmpl	%edx, %ebx	# D.2127, hp
 364 0168 7206     		jb	.L24	#,
 365 016a 89D0     		movl	%edx, %eax	# D.2127, qp
 366              	.LVL35:
 367              		.loc 1 229 0
 368              		.p2align 4,,3
 369 016c EBE2     		jmp	.L28	#
 370 016e 6690     		.p2align 4,,7
 371              		.p2align 3
 372              	.L24:
 373              		.loc 1 216 0
 374 0170 8B4FF4   		movl	-12(%edi), %ecx	# MEM[(union heap_header *)p_4(D) + 4294967280B].h.size, D.2128
GAS LISTING /tmp/ccumqqZj.s 			page 8


 375              		.loc 1 213 0
 376 0173 8957F0   		movl	%edx, -16(%edi)	# D.2127, MEM[(union heap_header *)p_4(D) + 4294967280B].h.u.next
 377              		.loc 1 214 0
 378 0176 8918     		movl	%ebx, (%eax)	# hp, qp_35->h.u.next
 379              		.loc 1 216 0
 380 0178 8D540B10 		leal	16(%ebx,%ecx), %edx	#, D.2127
 381 017c 3B57F0   		cmpl	-16(%edi), %edx	# MEM[(union heap_header *)p_4(D) + 4294967280B].h.u.next, D.2127
 382 017f 7416     		je	.L35	#,
 383              		.loc 1 221 0
 384 0181 8B5004   		movl	4(%eax), %edx	# qp_35->h.size, D.2128
 385 0184 8D4C1010 		leal	16(%eax,%edx), %ecx	#, D.2127
 386 0188 39CB     		cmpl	%ecx, %ebx	# D.2127, hp
 387 018a 7424     		je	.L36	#,
 388              	.L27:
 389              		.loc 1 233 0
 390 018c 83C410   		addl	$16, %esp	#,
 391              		.cfi_remember_state
 392              		.cfi_def_cfa_offset 16
 393 018f 5B       		popl	%ebx	#
 394              		.cfi_restore 3
 395              		.cfi_def_cfa_offset 12
 396              	.LVL36:
 397 0190 5E       		popl	%esi	#
 398              		.cfi_restore 6
 399              		.cfi_def_cfa_offset 8
 400              	.LVL37:
 401 0191 5F       		popl	%edi	#
 402              		.cfi_restore 7
 403              		.cfi_def_cfa_offset 4
 404              	.LVL38:
 405              		.loc 1 231 0
 406 0192 E9FCFFFF 		jmp	chMtxUnlock	#
 406      FF
 407              	.LVL39:
 408              	.L35:
 409              		.cfi_restore_state
 410              		.loc 1 218 0
 411 0197 034A04   		addl	4(%edx), %ecx	# _16->h.size, D.2128
 412              		.loc 1 219 0
 413 019a 8B12     		movl	(%edx), %edx	# _16->h.u.next, D.2127
 414              		.loc 1 218 0
 415 019c 83C110   		addl	$16, %ecx	#, tmp86
 416 019f 894FF4   		movl	%ecx, -12(%edi)	# tmp86, MEM[(union heap_header *)p_4(D) + 4294967280B].h.size
 417              		.loc 1 219 0
 418 01a2 8957F0   		movl	%edx, -16(%edi)	# D.2127, MEM[(union heap_header *)p_4(D) + 4294967280B].h.u.next
 419              		.loc 1 221 0
 420 01a5 8B5004   		movl	4(%eax), %edx	# qp_35->h.size, D.2128
 421 01a8 8D4C1010 		leal	16(%eax,%edx), %ecx	#, D.2127
 422 01ac 39CB     		cmpl	%ecx, %ebx	# D.2127, hp
 423 01ae 75DC     		jne	.L27	#,
 424              	.L36:
 425              		.loc 1 223 0
 426 01b0 0357F4   		addl	-12(%edi), %edx	# MEM[(union heap_header *)p_4(D) + 4294967280B].h.size, D.2128
 427 01b3 83C210   		addl	$16, %edx	#, tmp91
 428 01b6 895004   		movl	%edx, 4(%eax)	# tmp91, qp_35->h.size
 429              		.loc 1 224 0
 430 01b9 8B57F0   		movl	-16(%edi), %edx	# MEM[(union heap_header *)p_4(D) + 4294967280B].h.u.next, D.2127
GAS LISTING /tmp/ccumqqZj.s 			page 9


 431 01bc 8910     		movl	%edx, (%eax)	# D.2127, qp_35->h.u.next
 432              		.loc 1 233 0
 433 01be 83C410   		addl	$16, %esp	#,
 434              		.cfi_def_cfa_offset 16
 435 01c1 5B       		popl	%ebx	#
 436              		.cfi_restore 3
 437              		.cfi_def_cfa_offset 12
 438              	.LVL40:
 439 01c2 5E       		popl	%esi	#
 440              		.cfi_restore 6
 441              		.cfi_def_cfa_offset 8
 442              	.LVL41:
 443 01c3 5F       		popl	%edi	#
 444              		.cfi_restore 7
 445              		.cfi_def_cfa_offset 4
 446              	.LVL42:
 447              		.loc 1 231 0
 448 01c4 E9FCFFFF 		jmp	chMtxUnlock	#
 448      FF
 449              	.LVL43:
 450              		.cfi_endproc
 451              	.LFE10:
 452              		.size	chHeapFree, .-chHeapFree
 453 01c9 8DB42600 		.p2align 4,,15
 453      000000
 454              		.globl	chHeapStatus
 455              		.type	chHeapStatus, @function
 456              	chHeapStatus:
 457              	.LFB11:
 458              		.loc 1 250 0
 459              		.cfi_startproc
 460              	.LVL44:
 461 01d0 56       		pushl	%esi	#
 462              		.cfi_def_cfa_offset 8
 463              		.cfi_offset 6, -8
 464              		.loc 1 255 0
 465 01d1 B8000000 		movl	$default_heap, %eax	#, tmp72
 465      00
 466              		.loc 1 250 0
 467 01d6 53       		pushl	%ebx	#
 468              		.cfi_def_cfa_offset 12
 469              		.cfi_offset 3, -12
 470 01d7 83EC14   		subl	$20, %esp	#,
 471              		.cfi_def_cfa_offset 32
 472              		.loc 1 250 0
 473 01da 8B5C2420 		movl	32(%esp), %ebx	# heapp, heapp
 474 01de 8B742424 		movl	36(%esp), %esi	# sizep, sizep
 475              		.loc 1 255 0
 476 01e2 85DB     		testl	%ebx, %ebx	# heapp
 477 01e4 0F44D8   		cmove	%eax, %ebx	# heapp,, tmp72, heapp
 478              	.LVL45:
 479              		.loc 1 257 0
 480 01e7 8D4320   		leal	32(%ebx), %eax	#, tmp67
 481 01ea 890424   		movl	%eax, (%esp)	# tmp67,
 482 01ed E8FCFFFF 		call	chMtxLock	#
 482      FF
 483              	.LVL46:
GAS LISTING /tmp/ccumqqZj.s 			page 10


 484              		.loc 1 260 0
 485 01f2 8B5310   		movl	16(%ebx), %edx	# MEM[(union heap_header *)heapp_1 + 16B].h.u.next, qp
 486              		.loc 1 259 0
 487 01f5 31C0     		xorl	%eax, %eax	# sz
 488              		.loc 1 260 0
 489 01f7 31DB     		xorl	%ebx, %ebx	# n
 490              	.LVL47:
 491 01f9 85D2     		testl	%edx, %edx	# qp
 492 01fb 740F     		je	.L39	#,
 493              	.LVL48:
 494 01fd 8D7600   		.p2align 4,,7
 495              		.p2align 3
 496              	.L40:
 497              		.loc 1 261 0 discriminator 2
 498 0200 034204   		addl	4(%edx), %eax	# qp_26->h.size, sz
 499              	.LVL49:
 500              		.loc 1 260 0 discriminator 2
 501 0203 83C301   		addl	$1, %ebx	#, n
 502              	.LVL50:
 503 0206 8B12     		movl	(%edx), %edx	# qp_26->h.u.next, qp
 504              	.LVL51:
 505 0208 85D2     		testl	%edx, %edx	# qp
 506 020a 75F4     		jne	.L40	#,
 507              	.LVL52:
 508              	.L39:
 509              		.loc 1 262 0
 510 020c 85F6     		testl	%esi, %esi	# sizep
 511 020e 7402     		je	.L41	#,
 512              		.loc 1 263 0
 513 0210 8906     		movl	%eax, (%esi)	# sz, *sizep_15(D)
 514              	.L41:
 515              		.loc 1 265 0
 516 0212 E8FCFFFF 		call	chMtxUnlock	#
 516      FF
 517              	.LVL53:
 518              		.loc 1 267 0
 519 0217 83C414   		addl	$20, %esp	#,
 520              		.cfi_def_cfa_offset 12
 521 021a 89D8     		movl	%ebx, %eax	# n,
 522 021c 5B       		popl	%ebx	#
 523              		.cfi_restore 3
 524              		.cfi_def_cfa_offset 8
 525 021d 5E       		popl	%esi	#
 526              		.cfi_restore 6
 527              		.cfi_def_cfa_offset 4
 528 021e C3       		ret
 529              		.cfi_endproc
 530              	.LFE11:
 531              		.size	chHeapStatus, .-chHeapStatus
 532              		.local	default_heap
 533              		.comm	default_heap,48,32
 534              	.Letext0:
 535              		.file 2 "/usr/lib/gcc/x86_64-linux-gnu/4.8/include/stddef.h"
 536              		.file 3 "/usr/include/stdint.h"
 537              		.file 4 "../../../os/ports/GCC/SIMIA32/chtypes.h"
 538              		.file 5 "../../../os/kernel/include/chlists.h"
 539              		.file 6 "../../../os/kernel/include/chthreads.h"
GAS LISTING /tmp/ccumqqZj.s 			page 11


 540              		.file 7 "../../../os/ports/GCC/SIMIA32/chcore.h"
 541              		.file 8 "../../../os/kernel/include/chmtx.h"
 542              		.file 9 "../../../os/kernel/include/chmemcore.h"
 543              		.file 10 "../../../os/kernel/include/chheap.h"
 2386              		.section	.note.GNU-stack,"",@progbits
GAS LISTING /tmp/ccumqqZj.s 			page 46

