GAS LISTING /tmp/cc0kXkV4.s 			page 1


   1              		.file	"chmboxes.c"
   2              	# GNU C (Ubuntu 4.8.2-19ubuntu1) version 4.8.2 (x86_64-linux-gnu)
   3              	#	compiled by GNU C version 4.8.2, GMP version 5.1.3, MPFR version 3.1.2-p3, MPC version 1.0.1
   4              	# GGC heuristics: --param ggc-min-expand=97 --param ggc-min-heapsize=126309
   5              	# options passed:  -I . -I ../../../os/ports/GCC/SIMIA32
   6              	# -I ../../../os/kernel/include -I ../../../test -I ../../../os/hal/include
   7              	# -I ../../../os/hal/platforms/Posix -I ../../../boards/simulator
   8              	# -I ../../../os/various -imultilib 32 -imultiarch i386-linux-gnu
   9              	# -MD ../../../os/kernel/src/chmboxes.d -MF .dep/chmboxes.o.d -MP
  10              	# -MQ ../../../os/kernel/src/chmboxes.o -D SIMULATOR
  11              	# -D SHELL_USE_IPRINTF=FALSE ../../../os/kernel/src/chmboxes.c -m32
  12              	# -mtune=generic -march=i686
  13              	# -auxbase-strip ../../../os/kernel/src/chmboxes.o -ggdb -O2 -Wall -Wextra
  14              	# -Wstrict-prototypes -fomit-frame-pointer -fverbose-asm -fstack-protector
  15              	# -Wformat -Wformat-security
  16              	# options enabled:  -faggressive-loop-optimizations
  17              	# -fasynchronous-unwind-tables -fauto-inc-dec -fbranch-count-reg
  18              	# -fcaller-saves -fcombine-stack-adjustments -fcommon -fcompare-elim
  19              	# -fcprop-registers -fcrossjumping -fcse-follow-jumps -fdefer-pop
  20              	# -fdelete-null-pointer-checks -fdevirtualize -fdwarf2-cfi-asm
  21              	# -fearly-inlining -feliminate-unused-debug-types -fexpensive-optimizations
  22              	# -fforward-propagate -ffunction-cse -fgcse -fgcse-lm -fgnu-runtime
  23              	# -fguess-branch-probability -fhoist-adjacent-loads -fident -fif-conversion
  24              	# -fif-conversion2 -findirect-inlining -finline -finline-atomics
  25              	# -finline-functions-called-once -finline-small-functions -fipa-cp
  26              	# -fipa-profile -fipa-pure-const -fipa-reference -fipa-sra
  27              	# -fira-hoist-pressure -fira-share-save-slots -fira-share-spill-slots
  28              	# -fivopts -fkeep-static-consts -fleading-underscore -fmath-errno
  29              	# -fmerge-constants -fmerge-debug-strings -fmove-loop-invariants
  30              	# -fomit-frame-pointer -foptimize-register-move -foptimize-sibling-calls
  31              	# -foptimize-strlen -fpartial-inlining -fpcc-struct-return -fpeephole
  32              	# -fpeephole2 -fprefetch-loop-arrays -free -fregmove -freorder-blocks
  33              	# -freorder-functions -frerun-cse-after-loop
  34              	# -fsched-critical-path-heuristic -fsched-dep-count-heuristic
  35              	# -fsched-group-heuristic -fsched-interblock -fsched-last-insn-heuristic
  36              	# -fsched-rank-heuristic -fsched-spec -fsched-spec-insn-heuristic
  37              	# -fsched-stalled-insns-dep -fschedule-insns2 -fshow-column -fshrink-wrap
  38              	# -fsigned-zeros -fsplit-ivs-in-unroller -fsplit-wide-types
  39              	# -fstack-protector -fstrict-aliasing -fstrict-overflow
  40              	# -fstrict-volatile-bitfields -fsync-libcalls -fthread-jumps
  41              	# -ftoplevel-reorder -ftrapping-math -ftree-bit-ccp -ftree-builtin-call-dce
  42              	# -ftree-ccp -ftree-ch -ftree-coalesce-vars -ftree-copy-prop
  43              	# -ftree-copyrename -ftree-cselim -ftree-dce -ftree-dominator-opts
  44              	# -ftree-dse -ftree-forwprop -ftree-fre -ftree-loop-if-convert
  45              	# -ftree-loop-im -ftree-loop-ivcanon -ftree-loop-optimize
  46              	# -ftree-parallelize-loops= -ftree-phiprop -ftree-pre -ftree-pta
  47              	# -ftree-reassoc -ftree-scev-cprop -ftree-sink -ftree-slp-vectorize
  48              	# -ftree-slsr -ftree-sra -ftree-switch-conversion -ftree-tail-merge
  49              	# -ftree-ter -ftree-vect-loop-version -ftree-vrp -funit-at-a-time
  50              	# -funwind-tables -fvar-tracking -fvar-tracking-assignments -fverbose-asm
  51              	# -fzero-initialized-in-bss -m32 -m80387 -m96bit-long-double
  52              	# -maccumulate-outgoing-args -malign-stringops -mfancy-math-387
  53              	# -mfp-ret-in-387 -mglibc -mieee-fp -mlong-double-80 -mno-red-zone
  54              	# -mno-sse4 -mpush-args -msahf -mtls-direct-seg-refs
  55              	
  56              		.text
  57              	.Ltext0:
GAS LISTING /tmp/cc0kXkV4.s 			page 2


  58              		.p2align 4,,15
  59              		.globl	chMBInit
  60              		.type	chMBInit, @function
  61              	chMBInit:
  62              	.LFB7:
  63              		.file 1 "../../../os/kernel/src/chmboxes.c"
  64              		.loc 1 72 0
  65              		.cfi_startproc
  66              	.LVL0:
  67 0000 53       		pushl	%ebx	#
  68              		.cfi_def_cfa_offset 8
  69              		.cfi_offset 3, -8
  70 0001 83EC18   		subl	$24, %esp	#,
  71              		.cfi_def_cfa_offset 32
  72              		.loc 1 72 0
  73 0004 8B5C2420 		movl	32(%esp), %ebx	# mbp, mbp
  74 0008 8B442424 		movl	36(%esp), %eax	# buf, buf
  75 000c 8B542428 		movl	40(%esp), %edx	# n, n
  76              		.loc 1 76 0
  77 0010 89430C   		movl	%eax, 12(%ebx)	# buf, mbp_1(D)->mb_rdptr
  78 0013 894308   		movl	%eax, 8(%ebx)	# buf, mbp_1(D)->mb_wrptr
  79 0016 8903     		movl	%eax, (%ebx)	# buf, mbp_1(D)->mb_buffer
  80              		.loc 1 77 0
  81 0018 8D0490   		leal	(%eax,%edx,4), %eax	#, tmp68
  82 001b 894304   		movl	%eax, 4(%ebx)	# tmp68, mbp_1(D)->mb_top
  83              		.loc 1 78 0
  84 001e 8D431C   		leal	28(%ebx), %eax	#, tmp69
  85              		.loc 1 79 0
  86 0021 83C310   		addl	$16, %ebx	#, tmp70
  87              		.loc 1 78 0
  88 0024 89542404 		movl	%edx, 4(%esp)	# n,
  89 0028 890424   		movl	%eax, (%esp)	# tmp69,
  90 002b E8FCFFFF 		call	chSemInit	#
  90      FF
  91              	.LVL1:
  92              		.loc 1 79 0
  93 0030 895C2420 		movl	%ebx, 32(%esp)	# tmp70,
  94 0034 C7442424 		movl	$0, 36(%esp)	#,
  94      00000000 
  95              		.loc 1 80 0
  96 003c 83C418   		addl	$24, %esp	#,
  97              		.cfi_def_cfa_offset 8
  98 003f 5B       		popl	%ebx	#
  99              		.cfi_restore 3
 100              		.cfi_def_cfa_offset 4
 101              		.loc 1 79 0
 102 0040 E9FCFFFF 		jmp	chSemInit	#
 102      FF
 103              	.LVL2:
 104              		.cfi_endproc
 105              	.LFE7:
 106              		.size	chMBInit, .-chMBInit
 107 0045 8D742600 		.p2align 4,,15
 107      8DBC2700 
 107      000000
 108              		.globl	chMBReset
 109              		.type	chMBReset, @function
GAS LISTING /tmp/cc0kXkV4.s 			page 3


 110              	chMBReset:
 111              	.LFB8:
 112              		.loc 1 91 0
 113              		.cfi_startproc
 114              	.LVL3:
 115 0050 53       		pushl	%ebx	#
 116              		.cfi_def_cfa_offset 8
 117              		.cfi_offset 3, -8
 118 0051 83EC18   		subl	$24, %esp	#,
 119              		.cfi_def_cfa_offset 32
 120              		.loc 1 91 0
 121 0054 8B5C2420 		movl	32(%esp), %ebx	# mbp, mbp
 122              		.loc 1 95 0
 123              	#APP
 124              	# 95 "../../../os/kernel/src/chmboxes.c" 1
   1              	/*
   2              	    ChibiOS/RT - Copyright (C) 2006,2007,2008,2009,2010,
   3              	                 2011,2012,2013 Giovanni Di Sirio.
   4              	
   5              	    This file is part of ChibiOS/RT.
   6              	
   7              	    ChibiOS/RT is free software; you can redistribute it and/or modify
   8              	    it under the terms of the GNU General Public License as published by
   9              	    the Free Software Foundation; either version 3 of the License, or
  10              	    (at your option) any later version.
  11              	
  12              	    ChibiOS/RT is distributed in the hope that it will be useful,
  13              	    but WITHOUT ANY WARRANTY; without even the implied warranty of
  14              	    MERCHANTABILITY or FITNESS FOR A PARTICULAR PURPOSE.  See the
  15              	    GNU General Public License for more details.
  16              	
  17              	    You should have received a copy of the GNU General Public License
  18              	    along with this program.  If not, see <http://www.gnu.org/licenses/>.
  19              	
  20              	                                      ---
  21              	
  22              	    A special exception to the GPL can be applied should you wish to distribute
  23              	    a combined work that includes ChibiOS/RT, without being obliged to provide
  24              	    the source code for any proprietary components. See the file exception.txt
  25              	    for full details of how and when the exception can be applied.
  26              	*/
  27              	
  28              	/**
  29              	 * @file    chmboxes.c
  30              	 * @brief   Mailboxes code.
  31              	 *
  32              	 * @addtogroup mailboxes
  33              	 * @details Asynchronous messages.
  34              	 *          <h2>Operation mode</h2>
  35              	 *          A mailbox is an asynchronous communication mechanism.<br>
  36              	 *          Operations defined for mailboxes:
  37              	 *          - <b>Post</b>: Posts a message on the mailbox in FIFO order.
  38              	 *          - <b>Post Ahead</b>: Posts a message on the mailbox with urgent
  39              	 *            priority.
  40              	 *          - <b>Fetch</b>: A message is fetched from the mailbox and removed
  41              	 *            from the queue.
  42              	 *          - <b>Reset</b>: The mailbox is emptied and all the stored messages
GAS LISTING /tmp/cc0kXkV4.s 			page 4


  43              	 *            are lost.
  44              	 *          .
  45              	 *          A message is a variable of type msg_t that is guaranteed to have
  46              	 *          the same size of and be compatible with (data) pointers (anyway an
  47              	 *          explicit cast is needed).
  48              	 *          If larger messages need to be exchanged then a pointer to a
  49              	 *          structure can be posted in the mailbox but the posting side has
  50              	 *          no predefined way to know when the message has been processed. A
  51              	 *          possible approach is to allocate memory (from a memory pool for
  52              	 *          example) from the posting side and free it on the fetching side.
  53              	 *          Another approach is to set a "done" flag into the structure pointed
  54              	 *          by the message.
  55              	 * @pre     In order to use the mailboxes APIs the @p CH_USE_MAILBOXES option
  56              	 *          must be enabled in @p chconf.h.
  57              	 * @{
  58              	 */
  59              	
  60              	#include "ch.h"
  61              	
  62              	#if CH_USE_MAILBOXES || defined(__DOXYGEN__)
  63              	/**
  64              	 * @brief   Initializes a Mailbox object.
  65              	 *
  66              	 * @param[out] mbp      the pointer to the Mailbox structure to be initialized
  67              	 * @param[in] buf       pointer to the messages buffer as an array of @p msg_t
  68              	 * @param[in] n         number of elements in the buffer array
  69              	 *
  70              	 * @init
  71              	 */
  72              	void chMBInit(Mailbox *mbp, msg_t *buf, cnt_t n) {
  73              	
  74              	  chDbgCheck((mbp != NULL) && (buf != NULL) && (n > 0), "chMBInit");
  75              	
  76              	  mbp->mb_buffer = mbp->mb_wrptr = mbp->mb_rdptr = buf;
  77              	  mbp->mb_top = &buf[n];
  78              	  chSemInit(&mbp->mb_emptysem, n);
  79              	  chSemInit(&mbp->mb_fullsem, 0);
  80              	}
  81              	
  82              	/**
  83              	 * @brief   Resets a Mailbox object.
  84              	 * @details All the waiting threads are resumed with status @p RDY_RESET and
  85              	 *          the queued messages are lost.
  86              	 *
  87              	 * @param[in] mbp       the pointer to an initialized Mailbox object
  88              	 *
  89              	 * @api
  90              	 */
  91              	void chMBReset(Mailbox *mbp) {
  92              	
  93              	  chDbgCheck(mbp != NULL, "chMBReset");
  94              	
  95 0058 90       	  chSysLock();
  96              	  mbp->mb_wrptr = mbp->mb_rdptr = mbp->mb_buffer;
 125              		nop
 126              	# 0 "" 2
 127              		.loc 1 96 0
GAS LISTING /tmp/cc0kXkV4.s 			page 5


 128              	#NO_APP
 129 0059 8B13     		movl	(%ebx), %edx	# mbp_2(D)->mb_buffer, D.2192
 130              		.loc 1 97 0
 131 005b 8B4304   		movl	4(%ebx), %eax	# mbp_2(D)->mb_top, D.2193
 132              		.loc 1 96 0
 133 005e 89530C   		movl	%edx, 12(%ebx)	# D.2192, mbp_2(D)->mb_rdptr
 134              		.loc 1 97 0
 135 0061 29D0     		subl	%edx, %eax	# D.2192, D.2193
 136 0063 C1F802   		sarl	$2, %eax	#, D.2193
 137              		.loc 1 96 0
 138 0066 895308   		movl	%edx, 8(%ebx)	# D.2192, mbp_2(D)->mb_wrptr
 139              		.loc 1 97 0
 140 0069 89442404 		movl	%eax, 4(%esp)	# D.2193,
 141 006d 8D431C   		leal	28(%ebx), %eax	#, tmp72
 142              		.loc 1 98 0
 143 0070 83C310   		addl	$16, %ebx	#, tmp73
 144              		.loc 1 97 0
 145 0073 890424   		movl	%eax, (%esp)	# tmp72,
 146 0076 E8FCFFFF 		call	chSemResetI	#
 146      FF
 147              	.LVL4:
 148              		.loc 1 98 0
 149 007b C7442404 		movl	$0, 4(%esp)	#,
 149      00000000 
 150 0083 891C24   		movl	%ebx, (%esp)	# tmp73,
 151 0086 E8FCFFFF 		call	chSemResetI	#
 151      FF
 152              	.LVL5:
 153              		.loc 1 99 0
 154 008b E8FCFFFF 		call	chSchRescheduleS	#
 154      FF
 155              	.LVL6:
 156              		.loc 1 100 0
 157              	#APP
 158              	# 100 "../../../os/kernel/src/chmboxes.c" 1
  97              	  chSemResetI(&mbp->mb_emptysem, mbp->mb_top - mbp->mb_buffer);
  98              	  chSemResetI(&mbp->mb_fullsem, 0);
  99              	  chSchRescheduleS();
 100 0090 90       	  chSysUnlock();
 101              	}
 159              		nop
 160              	# 0 "" 2
 161              		.loc 1 101 0
 162              	#NO_APP
 163 0091 83C418   		addl	$24, %esp	#,
 164              		.cfi_def_cfa_offset 8
 165 0094 5B       		popl	%ebx	#
 166              		.cfi_restore 3
 167              		.cfi_def_cfa_offset 4
 168 0095 C3       		ret
 169              		.cfi_endproc
 170              	.LFE8:
 171              		.size	chMBReset, .-chMBReset
 172 0096 8D76008D 		.p2align 4,,15
 172      BC270000 
 172      0000
 173              		.globl	chMBPostS
GAS LISTING /tmp/cc0kXkV4.s 			page 6


 174              		.type	chMBPostS, @function
 175              	chMBPostS:
 176              	.LFB10:
 177              		.loc 1 150 0
 178              		.cfi_startproc
 179              	.LVL7:
 180 00a0 56       		pushl	%esi	#
 181              		.cfi_def_cfa_offset 8
 182              		.cfi_offset 6, -8
 183 00a1 53       		pushl	%ebx	#
 184              		.cfi_def_cfa_offset 12
 185              		.cfi_offset 3, -12
 186 00a2 83EC14   		subl	$20, %esp	#,
 187              		.cfi_def_cfa_offset 32
 188              		.loc 1 156 0
 189 00a5 8B442428 		movl	40(%esp), %eax	# time, time
 190              		.loc 1 150 0
 191 00a9 8B5C2420 		movl	32(%esp), %ebx	# mbp, mbp
 192              		.loc 1 156 0
 193 00ad 89442404 		movl	%eax, 4(%esp)	# time,
 194 00b1 8D431C   		leal	28(%ebx), %eax	#, tmp70
 195 00b4 890424   		movl	%eax, (%esp)	# tmp70,
 196 00b7 E8FCFFFF 		call	chSemWaitTimeoutS	#
 196      FF
 197              	.LVL8:
 198              		.loc 1 157 0
 199 00bc 85C0     		testl	%eax, %eax	# rdymsg
 200 00be 752C     		jne	.L6	#,
 201              		.loc 1 158 0
 202 00c0 8B4B08   		movl	8(%ebx), %ecx	# mbp_3(D)->mb_wrptr, D.2198
 203 00c3 8B742424 		movl	36(%esp), %esi	# msg, tmp74
 204 00c7 8D5104   		leal	4(%ecx), %edx	#, D.2198
 205              		.loc 1 159 0
 206 00ca 3B5304   		cmpl	4(%ebx), %edx	# mbp_3(D)->mb_top, D.2198
 207              		.loc 1 158 0
 208 00cd 895308   		movl	%edx, 8(%ebx)	# D.2198, mbp_3(D)->mb_wrptr
 209 00d0 8931     		movl	%esi, (%ecx)	# tmp74, *_9
 210              		.loc 1 159 0
 211 00d2 7324     		jae	.L10	#,
 212              	.L7:
 213              		.loc 1 161 0
 214 00d4 83C310   		addl	$16, %ebx	#, tmp72
 215 00d7 891C24   		movl	%ebx, (%esp)	# tmp72,
 216 00da 8944240C 		movl	%eax, 12(%esp)	# rdymsg, %sfp
 217 00de E8FCFFFF 		call	chSemSignalI	#
 217      FF
 218              	.LVL9:
 219              		.loc 1 162 0
 220 00e3 E8FCFFFF 		call	chSchRescheduleS	#
 220      FF
 221              	.LVL10:
 222 00e8 8B44240C 		movl	12(%esp), %eax	# %sfp, rdymsg
 223              	.LVL11:
 224              	.L6:
 225              		.loc 1 165 0
 226 00ec 83C414   		addl	$20, %esp	#,
 227              		.cfi_remember_state
GAS LISTING /tmp/cc0kXkV4.s 			page 7


 228              		.cfi_def_cfa_offset 12
 229 00ef 5B       		popl	%ebx	#
 230              		.cfi_restore 3
 231              		.cfi_def_cfa_offset 8
 232 00f0 5E       		popl	%esi	#
 233              		.cfi_restore 6
 234              		.cfi_def_cfa_offset 4
 235 00f1 C3       		ret
 236              	.LVL12:
 237              		.p2align 4,,7
 238 00f2 8DB60000 		.p2align 3
 238      0000
 239              	.L10:
 240              		.cfi_restore_state
 241              		.loc 1 160 0
 242 00f8 8B13     		movl	(%ebx), %edx	# mbp_3(D)->mb_buffer, mbp_3(D)->mb_buffer
 243 00fa 895308   		movl	%edx, 8(%ebx)	# mbp_3(D)->mb_buffer, mbp_3(D)->mb_wrptr
 244 00fd EBD5     		jmp	.L7	#
 245              		.cfi_endproc
 246              	.LFE10:
 247              		.size	chMBPostS, .-chMBPostS
 248 00ff 90       		.p2align 4,,15
 249              		.globl	chMBPost
 250              		.type	chMBPost, @function
 251              	chMBPost:
 252              	.LFB9:
 253              		.loc 1 122 0
 254              		.cfi_startproc
 255              	.LVL13:
 256 0100 83EC1C   		subl	$28, %esp	#,
 257              		.cfi_def_cfa_offset 32
 258              		.loc 1 125 0
 259              	#APP
 260              	# 125 "../../../os/kernel/src/chmboxes.c" 1
 102              	
 103              	/**
 104              	 * @brief   Posts a message into a mailbox.
 105              	 * @details The invoking thread waits until a empty slot in the mailbox becomes
 106              	 *          available or the specified time runs out.
 107              	 *
 108              	 * @param[in] mbp       the pointer to an initialized Mailbox object
 109              	 * @param[in] msg       the message to be posted on the mailbox
 110              	 * @param[in] time      the number of ticks before the operation timeouts,
 111              	 *                      the following special values are allowed:
 112              	 *                      - @a TIME_IMMEDIATE immediate timeout.
 113              	 *                      - @a TIME_INFINITE no timeout.
 114              	 *                      .
 115              	 * @return              The operation status.
 116              	 * @retval RDY_OK       if a message has been correctly posted.
 117              	 * @retval RDY_RESET    if the mailbox has been reset while waiting.
 118              	 * @retval RDY_TIMEOUT  if the operation has timed out.
 119              	 *
 120              	 * @api
 121              	 */
 122              	msg_t chMBPost(Mailbox *mbp, msg_t msg, systime_t time) {
 123              	  msg_t rdymsg;
 124              	
GAS LISTING /tmp/cc0kXkV4.s 			page 8


 125 0103 90       	  chSysLock();
 126              	  rdymsg = chMBPostS(mbp, msg, time);
 261              		nop
 262              	# 0 "" 2
 263              		.loc 1 126 0
 264              	#NO_APP
 265 0104 8B442428 		movl	40(%esp), %eax	# time, time
 266 0108 89442408 		movl	%eax, 8(%esp)	# time,
 267 010c 8B442424 		movl	36(%esp), %eax	# msg, msg
 268 0110 89442404 		movl	%eax, 4(%esp)	# msg,
 269 0114 8B442420 		movl	32(%esp), %eax	# mbp, mbp
 270 0118 890424   		movl	%eax, (%esp)	# mbp,
 271 011b E8FCFFFF 		call	chMBPostS	#
 271      FF
 272              	.LVL14:
 273              		.loc 1 127 0
 274              	#APP
 275              	# 127 "../../../os/kernel/src/chmboxes.c" 1
 127 0120 90       	  chSysUnlock();
 128              	  return rdymsg;
 276              		nop
 277              	# 0 "" 2
 278              		.loc 1 129 0
 279              	#NO_APP
 280 0121 83C41C   		addl	$28, %esp	#,
 281              		.cfi_def_cfa_offset 4
 282 0124 C3       		ret
 283              		.cfi_endproc
 284              	.LFE9:
 285              		.size	chMBPost, .-chMBPost
 286 0125 8D742600 		.p2align 4,,15
 286      8DBC2700 
 286      000000
 287              		.globl	chMBPostI
 288              		.type	chMBPostI, @function
 289              	chMBPostI:
 290              	.LFB11:
 291              		.loc 1 181 0
 292              		.cfi_startproc
 293              	.LVL15:
 294 0130 53       		pushl	%ebx	#
 295              		.cfi_def_cfa_offset 8
 296              		.cfi_offset 3, -8
 297 0131 83EC18   		subl	$24, %esp	#,
 298              		.cfi_def_cfa_offset 32
 299              		.loc 1 181 0
 300 0134 8B442420 		movl	32(%esp), %eax	# mbp, mbp
 301              		.loc 1 186 0
 302 0138 8B5024   		movl	36(%eax), %edx	# mbp_5(D)->mb_emptysem.s_cnt, D.2205
 303 013b 85D2     		testl	%edx, %edx	# D.2205
 304 013d 7E39     		jle	.L16	#,
 305              		.loc 1 189 0
 306 013f 8B4808   		movl	8(%eax), %ecx	# mbp_5(D)->mb_wrptr, D.2206
 307              		.loc 1 188 0
 308 0142 83EA01   		subl	$1, %edx	#, tmp70
 309              		.loc 1 189 0
 310 0145 8B5C2424 		movl	36(%esp), %ebx	# msg, tmp74
GAS LISTING /tmp/cc0kXkV4.s 			page 9


 311              		.loc 1 188 0
 312 0149 895024   		movl	%edx, 36(%eax)	# tmp70, mbp_5(D)->mb_emptysem.s_cnt
 313              		.loc 1 189 0
 314 014c 8D5104   		leal	4(%ecx), %edx	#, D.2206
 315              		.loc 1 190 0
 316 014f 3B5004   		cmpl	4(%eax), %edx	# mbp_5(D)->mb_top, D.2206
 317              		.loc 1 189 0
 318 0152 895008   		movl	%edx, 8(%eax)	# D.2206, mbp_5(D)->mb_wrptr
 319 0155 8919     		movl	%ebx, (%ecx)	# tmp74, *_9
 320              		.loc 1 190 0
 321 0157 7317     		jae	.L18	#,
 322              	.L15:
 323              		.loc 1 192 0
 324 0159 83C010   		addl	$16, %eax	#, tmp72
 325 015c 890424   		movl	%eax, (%esp)	# tmp72,
 326 015f E8FCFFFF 		call	chSemSignalI	#
 326      FF
 327              	.LVL16:
 328              		.loc 1 193 0
 329 0164 31C0     		xorl	%eax, %eax	# D.2204
 330              	.L14:
 331              		.loc 1 194 0
 332 0166 83C418   		addl	$24, %esp	#,
 333              		.cfi_remember_state
 334              		.cfi_def_cfa_offset 8
 335 0169 5B       		popl	%ebx	#
 336              		.cfi_restore 3
 337              		.cfi_def_cfa_offset 4
 338 016a C3       		ret
 339 016b 908D7426 		.p2align 4,,7
 339      00
 340              		.p2align 3
 341              	.L18:
 342              		.cfi_restore_state
 343              		.loc 1 191 0
 344 0170 8B10     		movl	(%eax), %edx	# mbp_5(D)->mb_buffer, mbp_5(D)->mb_buffer
 345 0172 895008   		movl	%edx, 8(%eax)	# mbp_5(D)->mb_buffer, mbp_5(D)->mb_wrptr
 346 0175 EBE2     		jmp	.L15	#
 347              		.p2align 4,,7
 348 0177 90       		.p2align 3
 349              	.L16:
 350              		.loc 1 187 0
 351 0178 B8FFFFFF 		movl	$-1, %eax	#, D.2204
 351      FF
 352 017d EBE7     		jmp	.L14	#
 353              		.cfi_endproc
 354              	.LFE11:
 355              		.size	chMBPostI, .-chMBPostI
 356 017f 90       		.p2align 4,,15
 357              		.globl	chMBPostAheadS
 358              		.type	chMBPostAheadS, @function
 359              	chMBPostAheadS:
 360              	.LFB13:
 361              		.loc 1 243 0
 362              		.cfi_startproc
 363              	.LVL17:
 364 0180 53       		pushl	%ebx	#
GAS LISTING /tmp/cc0kXkV4.s 			page 10


 365              		.cfi_def_cfa_offset 8
 366              		.cfi_offset 3, -8
 367 0181 83EC18   		subl	$24, %esp	#,
 368              		.cfi_def_cfa_offset 32
 369              		.loc 1 249 0
 370 0184 8B442428 		movl	40(%esp), %eax	# time, time
 371              		.loc 1 243 0
 372 0188 8B5C2420 		movl	32(%esp), %ebx	# mbp, mbp
 373              		.loc 1 249 0
 374 018c 89442404 		movl	%eax, 4(%esp)	# time,
 375 0190 8D431C   		leal	28(%ebx), %eax	#, tmp70
 376 0193 890424   		movl	%eax, (%esp)	# tmp70,
 377 0196 E8FCFFFF 		call	chSemWaitTimeoutS	#
 377      FF
 378              	.LVL18:
 379              		.loc 1 250 0
 380 019b 85C0     		testl	%eax, %eax	# rdymsg
 381 019d 752B     		jne	.L20	#,
 382              		.loc 1 251 0
 383 019f 8B4B0C   		movl	12(%ebx), %ecx	# mbp_3(D)->mb_rdptr, tmp75
 384 01a2 8D51FC   		leal	-4(%ecx), %edx	#, D.2211
 385 01a5 3B13     		cmpl	(%ebx), %edx	# mbp_3(D)->mb_buffer, D.2211
 386 01a7 89530C   		movl	%edx, 12(%ebx)	# D.2211, mbp_3(D)->mb_rdptr
 387 01aa 7224     		jb	.L23	#,
 388              	.L21:
 389              		.loc 1 253 0
 390 01ac 8B4C2424 		movl	36(%esp), %ecx	# msg, msg
 391              		.loc 1 254 0
 392 01b0 83C310   		addl	$16, %ebx	#, tmp73
 393 01b3 8944240C 		movl	%eax, 12(%esp)	# rdymsg, %sfp
 394              		.loc 1 253 0
 395 01b7 890A     		movl	%ecx, (%edx)	# msg, *_23
 396              		.loc 1 254 0
 397 01b9 891C24   		movl	%ebx, (%esp)	# tmp73,
 398 01bc E8FCFFFF 		call	chSemSignalI	#
 398      FF
 399              	.LVL19:
 400              		.loc 1 255 0
 401 01c1 E8FCFFFF 		call	chSchRescheduleS	#
 401      FF
 402              	.LVL20:
 403 01c6 8B44240C 		movl	12(%esp), %eax	# %sfp, rdymsg
 404              	.LVL21:
 405              	.L20:
 406              		.loc 1 258 0
 407 01ca 83C418   		addl	$24, %esp	#,
 408              		.cfi_remember_state
 409              		.cfi_def_cfa_offset 8
 410 01cd 5B       		popl	%ebx	#
 411              		.cfi_restore 3
 412              		.cfi_def_cfa_offset 4
 413 01ce C3       		ret
 414              	.LVL22:
 415 01cf 90       		.p2align 4,,7
 416              		.p2align 3
 417              	.L23:
 418              		.cfi_restore_state
GAS LISTING /tmp/cc0kXkV4.s 			page 11


 419              		.loc 1 252 0
 420 01d0 8B4B04   		movl	4(%ebx), %ecx	# mbp_3(D)->mb_top, tmp76
 421 01d3 8D51FC   		leal	-4(%ecx), %edx	#, D.2211
 422 01d6 89530C   		movl	%edx, 12(%ebx)	# D.2211, mbp_3(D)->mb_rdptr
 423 01d9 EBD1     		jmp	.L21	#
 424              		.cfi_endproc
 425              	.LFE13:
 426              		.size	chMBPostAheadS, .-chMBPostAheadS
 427 01db 908D7426 		.p2align 4,,15
 427      00
 428              		.globl	chMBPostAhead
 429              		.type	chMBPostAhead, @function
 430              	chMBPostAhead:
 431              	.LFB12:
 432              		.loc 1 215 0
 433              		.cfi_startproc
 434              	.LVL23:
 435 01e0 83EC1C   		subl	$28, %esp	#,
 436              		.cfi_def_cfa_offset 32
 437              		.loc 1 218 0
 438              	#APP
 439              	# 218 "../../../os/kernel/src/chmboxes.c" 1
 129              	}
 130              	
 131              	/**
 132              	 * @brief   Posts a message into a mailbox.
 133              	 * @details The invoking thread waits until a empty slot in the mailbox becomes
 134              	 *          available or the specified time runs out.
 135              	 *
 136              	 * @param[in] mbp       the pointer to an initialized Mailbox object
 137              	 * @param[in] msg       the message to be posted on the mailbox
 138              	 * @param[in] time      the number of ticks before the operation timeouts,
 139              	 *                      the following special values are allowed:
 140              	 *                      - @a TIME_IMMEDIATE immediate timeout.
 141              	 *                      - @a TIME_INFINITE no timeout.
 142              	 *                      .
 143              	 * @return              The operation status.
 144              	 * @retval RDY_OK       if a message has been correctly posted.
 145              	 * @retval RDY_RESET    if the mailbox has been reset while waiting.
 146              	 * @retval RDY_TIMEOUT  if the operation has timed out.
 147              	 *
 148              	 * @sclass
 149              	 */
 150              	msg_t chMBPostS(Mailbox *mbp, msg_t msg, systime_t time) {
 151              	  msg_t rdymsg;
 152              	
 153              	  chDbgCheckClassS();
 154              	  chDbgCheck(mbp != NULL, "chMBPostS");
 155              	
 156              	  rdymsg = chSemWaitTimeoutS(&mbp->mb_emptysem, time);
 157              	  if (rdymsg == RDY_OK) {
 158              	    *mbp->mb_wrptr++ = msg;
 159              	    if (mbp->mb_wrptr >= mbp->mb_top)
 160              	      mbp->mb_wrptr = mbp->mb_buffer;
 161              	    chSemSignalI(&mbp->mb_fullsem);
 162              	    chSchRescheduleS();
 163              	  }
GAS LISTING /tmp/cc0kXkV4.s 			page 12


 164              	  return rdymsg;
 165              	}
 166              	
 167              	/**
 168              	 * @brief   Posts a message into a mailbox.
 169              	 * @details This variant is non-blocking, the function returns a timeout
 170              	 *          condition if the queue is full.
 171              	 *
 172              	 * @param[in] mbp       the pointer to an initialized Mailbox object
 173              	 * @param[in] msg       the message to be posted on the mailbox
 174              	 * @return              The operation status.
 175              	 * @retval RDY_OK       if a message has been correctly posted.
 176              	 * @retval RDY_TIMEOUT  if the mailbox is full and the message cannot be
 177              	 *                      posted.
 178              	 *
 179              	 * @iclass
 180              	 */
 181              	msg_t chMBPostI(Mailbox *mbp, msg_t msg) {
 182              	
 183              	  chDbgCheckClassI();
 184              	  chDbgCheck(mbp != NULL, "chMBPostI");
 185              	
 186              	  if (chSemGetCounterI(&mbp->mb_emptysem) <= 0)
 187              	    return RDY_TIMEOUT;
 188              	  chSemFastWaitI(&mbp->mb_emptysem);
 189              	  *mbp->mb_wrptr++ = msg;
 190              	  if (mbp->mb_wrptr >= mbp->mb_top)
 191              	    mbp->mb_wrptr = mbp->mb_buffer;
 192              	  chSemSignalI(&mbp->mb_fullsem);
 193              	  return RDY_OK;
 194              	}
 195              	
 196              	/**
 197              	 * @brief   Posts an high priority message into a mailbox.
 198              	 * @details The invoking thread waits until a empty slot in the mailbox becomes
 199              	 *          available or the specified time runs out.
 200              	 *
 201              	 * @param[in] mbp       the pointer to an initialized Mailbox object
 202              	 * @param[in] msg       the message to be posted on the mailbox
 203              	 * @param[in] time      the number of ticks before the operation timeouts,
 204              	 *                      the following special values are allowed:
 205              	 *                      - @a TIME_IMMEDIATE immediate timeout.
 206              	 *                      - @a TIME_INFINITE no timeout.
 207              	 *                      .
 208              	 * @return              The operation status.
 209              	 * @retval RDY_OK       if a message has been correctly posted.
 210              	 * @retval RDY_RESET    if the mailbox has been reset while waiting.
 211              	 * @retval RDY_TIMEOUT  if the operation has timed out.
 212              	 *
 213              	 * @api
 214              	 */
 215              	msg_t chMBPostAhead(Mailbox *mbp, msg_t msg, systime_t time) {
 216              	  msg_t rdymsg;
 217              	
 218 01e3 90       	  chSysLock();
 219              	  rdymsg = chMBPostAheadS(mbp, msg, time);
 440              		nop
GAS LISTING /tmp/cc0kXkV4.s 			page 13


 441              	# 0 "" 2
 442              		.loc 1 219 0
 443              	#NO_APP
 444 01e4 8B442428 		movl	40(%esp), %eax	# time, time
 445 01e8 89442408 		movl	%eax, 8(%esp)	# time,
 446 01ec 8B442424 		movl	36(%esp), %eax	# msg, msg
 447 01f0 89442404 		movl	%eax, 4(%esp)	# msg,
 448 01f4 8B442420 		movl	32(%esp), %eax	# mbp, mbp
 449 01f8 890424   		movl	%eax, (%esp)	# mbp,
 450 01fb E8FCFFFF 		call	chMBPostAheadS	#
 450      FF
 451              	.LVL24:
 452              		.loc 1 220 0
 453              	#APP
 454              	# 220 "../../../os/kernel/src/chmboxes.c" 1
 220 0200 90       	  chSysUnlock();
 221              	  return rdymsg;
 455              		nop
 456              	# 0 "" 2
 457              		.loc 1 222 0
 458              	#NO_APP
 459 0201 83C41C   		addl	$28, %esp	#,
 460              		.cfi_def_cfa_offset 4
 461 0204 C3       		ret
 462              		.cfi_endproc
 463              	.LFE12:
 464              		.size	chMBPostAhead, .-chMBPostAhead
 465 0205 8D742600 		.p2align 4,,15
 465      8DBC2700 
 465      000000
 466              		.globl	chMBPostAheadI
 467              		.type	chMBPostAheadI, @function
 468              	chMBPostAheadI:
 469              	.LFB14:
 470              		.loc 1 274 0
 471              		.cfi_startproc
 472              	.LVL25:
 473 0210 83EC1C   		subl	$28, %esp	#,
 474              		.cfi_def_cfa_offset 32
 475              		.loc 1 274 0
 476 0213 8B442420 		movl	32(%esp), %eax	# mbp, mbp
 477              		.loc 1 279 0
 478 0217 8B5024   		movl	36(%eax), %edx	# mbp_5(D)->mb_emptysem.s_cnt, D.2217
 479 021a 85D2     		testl	%edx, %edx	# D.2217
 480 021c 7E3A     		jle	.L29	#,
 481              		.loc 1 282 0
 482 021e 8B480C   		movl	12(%eax), %ecx	# mbp_5(D)->mb_rdptr, tmp75
 483              		.loc 1 281 0
 484 0221 83EA01   		subl	$1, %edx	#, tmp70
 485 0224 895024   		movl	%edx, 36(%eax)	# tmp70, mbp_5(D)->mb_emptysem.s_cnt
 486              		.loc 1 282 0
 487 0227 8D51FC   		leal	-4(%ecx), %edx	#, D.2218
 488 022a 3B10     		cmpl	(%eax), %edx	# mbp_5(D)->mb_buffer, D.2218
 489 022c 89500C   		movl	%edx, 12(%eax)	# D.2218, mbp_5(D)->mb_rdptr
 490 022f 7217     		jb	.L31	#,
 491              	.L28:
 492              		.loc 1 284 0
GAS LISTING /tmp/cc0kXkV4.s 			page 14


 493 0231 8B4C2424 		movl	36(%esp), %ecx	# msg, msg
 494              		.loc 1 285 0
 495 0235 83C010   		addl	$16, %eax	#, tmp73
 496              		.loc 1 284 0
 497 0238 890A     		movl	%ecx, (%edx)	# msg, *_22
 498              		.loc 1 285 0
 499 023a 890424   		movl	%eax, (%esp)	# tmp73,
 500 023d E8FCFFFF 		call	chSemSignalI	#
 500      FF
 501              	.LVL26:
 502              		.loc 1 286 0
 503 0242 31C0     		xorl	%eax, %eax	# D.2216
 504              	.L27:
 505              		.loc 1 287 0
 506 0244 83C41C   		addl	$28, %esp	#,
 507              		.cfi_remember_state
 508              		.cfi_def_cfa_offset 4
 509 0247 C3       		ret
 510              		.p2align 4,,7
 511              		.p2align 3
 512              	.L31:
 513              		.cfi_restore_state
 514              		.loc 1 283 0
 515 0248 8B4804   		movl	4(%eax), %ecx	# mbp_5(D)->mb_top, tmp76
 516 024b 8D51FC   		leal	-4(%ecx), %edx	#, D.2218
 517 024e 89500C   		movl	%edx, 12(%eax)	# D.2218, mbp_5(D)->mb_rdptr
 518 0251 EBDE     		jmp	.L28	#
 519              		.p2align 4,,7
 520 0253 908D7426 		.p2align 3
 520      00
 521              	.L29:
 522              		.loc 1 280 0
 523 0258 B8FFFFFF 		movl	$-1, %eax	#, D.2216
 523      FF
 524 025d EBE5     		jmp	.L27	#
 525              		.cfi_endproc
 526              	.LFE14:
 527              		.size	chMBPostAheadI, .-chMBPostAheadI
 528 025f 90       		.p2align 4,,15
 529              		.globl	chMBFetchS
 530              		.type	chMBFetchS, @function
 531              	chMBFetchS:
 532              	.LFB16:
 533              		.loc 1 336 0
 534              		.cfi_startproc
 535              	.LVL27:
 536 0260 56       		pushl	%esi	#
 537              		.cfi_def_cfa_offset 8
 538              		.cfi_offset 6, -8
 539 0261 53       		pushl	%ebx	#
 540              		.cfi_def_cfa_offset 12
 541              		.cfi_offset 3, -12
 542 0262 83EC14   		subl	$20, %esp	#,
 543              		.cfi_def_cfa_offset 32
 544              		.loc 1 342 0
 545 0265 8B442428 		movl	40(%esp), %eax	# time, time
 546              		.loc 1 336 0
GAS LISTING /tmp/cc0kXkV4.s 			page 15


 547 0269 8B5C2420 		movl	32(%esp), %ebx	# mbp, mbp
 548              		.loc 1 342 0
 549 026d 89442404 		movl	%eax, 4(%esp)	# time,
 550 0271 8D4310   		leal	16(%ebx), %eax	#, tmp71
 551 0274 890424   		movl	%eax, (%esp)	# tmp71,
 552 0277 E8FCFFFF 		call	chSemWaitTimeoutS	#
 552      FF
 553              	.LVL28:
 554              		.loc 1 343 0
 555 027c 85C0     		testl	%eax, %eax	# rdymsg
 556 027e 752E     		jne	.L33	#,
 557              		.loc 1 344 0
 558 0280 8B4B0C   		movl	12(%ebx), %ecx	# mbp_3(D)->mb_rdptr, D.2223
 559 0283 8D5104   		leal	4(%ecx), %edx	#, D.2223
 560 0286 8B31     		movl	(%ecx), %esi	# *_10, D.2224
 561 0288 8B4C2424 		movl	36(%esp), %ecx	# msgp, msgp
 562              		.loc 1 345 0
 563 028c 3B5304   		cmpl	4(%ebx), %edx	# mbp_3(D)->mb_top, D.2223
 564              		.loc 1 344 0
 565 028f 89530C   		movl	%edx, 12(%ebx)	# D.2223, mbp_3(D)->mb_rdptr
 566 0292 8931     		movl	%esi, (%ecx)	# D.2224, *msgp_4(D)
 567              		.loc 1 345 0
 568 0294 7322     		jae	.L36	#,
 569              	.L34:
 570              		.loc 1 347 0
 571 0296 83C31C   		addl	$28, %ebx	#, tmp73
 572 0299 891C24   		movl	%ebx, (%esp)	# tmp73,
 573 029c 8944240C 		movl	%eax, 12(%esp)	# rdymsg, %sfp
 574 02a0 E8FCFFFF 		call	chSemSignalI	#
 574      FF
 575              	.LVL29:
 576              		.loc 1 348 0
 577 02a5 E8FCFFFF 		call	chSchRescheduleS	#
 577      FF
 578              	.LVL30:
 579 02aa 8B44240C 		movl	12(%esp), %eax	# %sfp, rdymsg
 580              	.LVL31:
 581              	.L33:
 582              		.loc 1 351 0
 583 02ae 83C414   		addl	$20, %esp	#,
 584              		.cfi_remember_state
 585              		.cfi_def_cfa_offset 12
 586 02b1 5B       		popl	%ebx	#
 587              		.cfi_restore 3
 588              		.cfi_def_cfa_offset 8
 589 02b2 5E       		popl	%esi	#
 590              		.cfi_restore 6
 591              		.cfi_def_cfa_offset 4
 592 02b3 C3       		ret
 593              	.LVL32:
 594              		.p2align 4,,7
 595 02b4 8D742600 		.p2align 3
 596              	.L36:
 597              		.cfi_restore_state
 598              		.loc 1 346 0
 599 02b8 8B13     		movl	(%ebx), %edx	# mbp_3(D)->mb_buffer, mbp_3(D)->mb_buffer
 600 02ba 89530C   		movl	%edx, 12(%ebx)	# mbp_3(D)->mb_buffer, mbp_3(D)->mb_rdptr
GAS LISTING /tmp/cc0kXkV4.s 			page 16


 601 02bd EBD7     		jmp	.L34	#
 602              		.cfi_endproc
 603              	.LFE16:
 604              		.size	chMBFetchS, .-chMBFetchS
 605 02bf 90       		.p2align 4,,15
 606              		.globl	chMBFetch
 607              		.type	chMBFetch, @function
 608              	chMBFetch:
 609              	.LFB15:
 610              		.loc 1 308 0
 611              		.cfi_startproc
 612              	.LVL33:
 613 02c0 83EC1C   		subl	$28, %esp	#,
 614              		.cfi_def_cfa_offset 32
 615              		.loc 1 311 0
 616              	#APP
 617              	# 311 "../../../os/kernel/src/chmboxes.c" 1
 222              	}
 223              	
 224              	/**
 225              	 * @brief   Posts an high priority message into a mailbox.
 226              	 * @details The invoking thread waits until a empty slot in the mailbox becomes
 227              	 *          available or the specified time runs out.
 228              	 *
 229              	 * @param[in] mbp       the pointer to an initialized Mailbox object
 230              	 * @param[in] msg       the message to be posted on the mailbox
 231              	 * @param[in] time      the number of ticks before the operation timeouts,
 232              	 *                      the following special values are allowed:
 233              	 *                      - @a TIME_IMMEDIATE immediate timeout.
 234              	 *                      - @a TIME_INFINITE no timeout.
 235              	 *                      .
 236              	 * @return              The operation status.
 237              	 * @retval RDY_OK       if a message has been correctly posted.
 238              	 * @retval RDY_RESET    if the mailbox has been reset while waiting.
 239              	 * @retval RDY_TIMEOUT  if the operation has timed out.
 240              	 *
 241              	 * @sclass
 242              	 */
 243              	msg_t chMBPostAheadS(Mailbox *mbp, msg_t msg, systime_t time) {
 244              	  msg_t rdymsg;
 245              	
 246              	  chDbgCheckClassS();
 247              	  chDbgCheck(mbp != NULL, "chMBPostAheadS");
 248              	
 249              	  rdymsg = chSemWaitTimeoutS(&mbp->mb_emptysem, time);
 250              	  if (rdymsg == RDY_OK) {
 251              	    if (--mbp->mb_rdptr < mbp->mb_buffer)
 252              	      mbp->mb_rdptr = mbp->mb_top - 1;
 253              	    *mbp->mb_rdptr = msg;
 254              	    chSemSignalI(&mbp->mb_fullsem);
 255              	    chSchRescheduleS();
 256              	  }
 257              	  return rdymsg;
 258              	}
 259              	
 260              	/**
 261              	 * @brief   Posts an high priority message into a mailbox.
GAS LISTING /tmp/cc0kXkV4.s 			page 17


 262              	 * @details This variant is non-blocking, the function returns a timeout
 263              	 *          condition if the queue is full.
 264              	 *
 265              	 * @param[in] mbp       the pointer to an initialized Mailbox object
 266              	 * @param[in] msg       the message to be posted on the mailbox
 267              	 * @return              The operation status.
 268              	 * @retval RDY_OK       if a message has been correctly posted.
 269              	 * @retval RDY_TIMEOUT  if the mailbox is full and the message cannot be
 270              	 *                      posted.
 271              	 *
 272              	 * @iclass
 273              	 */
 274              	msg_t chMBPostAheadI(Mailbox *mbp, msg_t msg) {
 275              	
 276              	  chDbgCheckClassI();
 277              	  chDbgCheck(mbp != NULL, "chMBPostAheadI");
 278              	
 279              	  if (chSemGetCounterI(&mbp->mb_emptysem) <= 0)
 280              	    return RDY_TIMEOUT;
 281              	  chSemFastWaitI(&mbp->mb_emptysem);
 282              	  if (--mbp->mb_rdptr < mbp->mb_buffer)
 283              	    mbp->mb_rdptr = mbp->mb_top - 1;
 284              	  *mbp->mb_rdptr = msg;
 285              	  chSemSignalI(&mbp->mb_fullsem);
 286              	  return RDY_OK;
 287              	}
 288              	
 289              	/**
 290              	 * @brief   Retrieves a message from a mailbox.
 291              	 * @details The invoking thread waits until a message is posted in the mailbox
 292              	 *          or the specified time runs out.
 293              	 *
 294              	 * @param[in] mbp       the pointer to an initialized Mailbox object
 295              	 * @param[out] msgp     pointer to a message variable for the received message
 296              	 * @param[in] time      the number of ticks before the operation timeouts,
 297              	 *                      the following special values are allowed:
 298              	 *                      - @a TIME_IMMEDIATE immediate timeout.
 299              	 *                      - @a TIME_INFINITE no timeout.
 300              	 *                      .
 301              	 * @return              The operation status.
 302              	 * @retval RDY_OK       if a message has been correctly fetched.
 303              	 * @retval RDY_RESET    if the mailbox has been reset while waiting.
 304              	 * @retval RDY_TIMEOUT  if the operation has timed out.
 305              	 *
 306              	 * @api
 307              	 */
 308              	msg_t chMBFetch(Mailbox *mbp, msg_t *msgp, systime_t time) {
 309              	  msg_t rdymsg;
 310              	
 311 02c3 90       	  chSysLock();
 312              	  rdymsg = chMBFetchS(mbp, msgp, time);
 618              		nop
 619              	# 0 "" 2
 620              		.loc 1 312 0
 621              	#NO_APP
 622 02c4 8B442428 		movl	40(%esp), %eax	# time, time
 623 02c8 89442408 		movl	%eax, 8(%esp)	# time,
GAS LISTING /tmp/cc0kXkV4.s 			page 18


 624 02cc 8B442424 		movl	36(%esp), %eax	# msgp, msgp
 625 02d0 89442404 		movl	%eax, 4(%esp)	# msgp,
 626 02d4 8B442420 		movl	32(%esp), %eax	# mbp, mbp
 627 02d8 890424   		movl	%eax, (%esp)	# mbp,
 628 02db E8FCFFFF 		call	chMBFetchS	#
 628      FF
 629              	.LVL34:
 630              		.loc 1 313 0
 631              	#APP
 632              	# 313 "../../../os/kernel/src/chmboxes.c" 1
 313 02e0 90       	  chSysUnlock();
 314              	  return rdymsg;
 633              		nop
 634              	# 0 "" 2
 635              		.loc 1 315 0
 636              	#NO_APP
 637 02e1 83C41C   		addl	$28, %esp	#,
 638              		.cfi_def_cfa_offset 4
 639 02e4 C3       		ret
 640              		.cfi_endproc
 641              	.LFE15:
 642              		.size	chMBFetch, .-chMBFetch
 643 02e5 8D742600 		.p2align 4,,15
 643      8DBC2700 
 643      000000
 644              		.globl	chMBFetchI
 645              		.type	chMBFetchI, @function
 646              	chMBFetchI:
 647              	.LFB17:
 648              		.loc 1 367 0
 649              		.cfi_startproc
 650              	.LVL35:
 651 02f0 53       		pushl	%ebx	#
 652              		.cfi_def_cfa_offset 8
 653              		.cfi_offset 3, -8
 654 02f1 83EC18   		subl	$24, %esp	#,
 655              		.cfi_def_cfa_offset 32
 656              		.loc 1 367 0
 657 02f4 8B442420 		movl	32(%esp), %eax	# mbp, mbp
 658              		.loc 1 372 0
 659 02f8 8B5018   		movl	24(%eax), %edx	# mbp_4(D)->mb_fullsem.s_cnt, D.2230
 660 02fb 85D2     		testl	%edx, %edx	# D.2230
 661 02fd 7E39     		jle	.L42	#,
 662              		.loc 1 375 0
 663 02ff 8B480C   		movl	12(%eax), %ecx	# mbp_4(D)->mb_rdptr, D.2231
 664              		.loc 1 374 0
 665 0302 83EA01   		subl	$1, %edx	#, tmp71
 666 0305 895018   		movl	%edx, 24(%eax)	# tmp71, mbp_4(D)->mb_fullsem.s_cnt
 667              		.loc 1 375 0
 668 0308 8D5104   		leal	4(%ecx), %edx	#, D.2231
 669 030b 8B19     		movl	(%ecx), %ebx	# *_10, D.2230
 670 030d 8B4C2424 		movl	36(%esp), %ecx	# msgp, msgp
 671              		.loc 1 376 0
 672 0311 3B5004   		cmpl	4(%eax), %edx	# mbp_4(D)->mb_top, D.2231
 673              		.loc 1 375 0
 674 0314 89500C   		movl	%edx, 12(%eax)	# D.2231, mbp_4(D)->mb_rdptr
 675 0317 8919     		movl	%ebx, (%ecx)	# D.2230, *msgp_5(D)
GAS LISTING /tmp/cc0kXkV4.s 			page 19


 676              		.loc 1 376 0
 677 0319 7315     		jae	.L44	#,
 678              	.L41:
 679              		.loc 1 378 0
 680 031b 83C01C   		addl	$28, %eax	#, tmp73
 681 031e 890424   		movl	%eax, (%esp)	# tmp73,
 682 0321 E8FCFFFF 		call	chSemSignalI	#
 682      FF
 683              	.LVL36:
 684              		.loc 1 379 0
 685 0326 31C0     		xorl	%eax, %eax	# D.2229
 686              	.L40:
 687              		.loc 1 380 0
 688 0328 83C418   		addl	$24, %esp	#,
 689              		.cfi_remember_state
 690              		.cfi_def_cfa_offset 8
 691 032b 5B       		popl	%ebx	#
 692              		.cfi_restore 3
 693              		.cfi_def_cfa_offset 4
 694 032c C3       		ret
 695 032d 8D7600   		.p2align 4,,7
 696              		.p2align 3
 697              	.L44:
 698              		.cfi_restore_state
 699              		.loc 1 377 0
 700 0330 8B10     		movl	(%eax), %edx	# mbp_4(D)->mb_buffer, mbp_4(D)->mb_buffer
 701 0332 89500C   		movl	%edx, 12(%eax)	# mbp_4(D)->mb_buffer, mbp_4(D)->mb_rdptr
 702 0335 EBE4     		jmp	.L41	#
 703              		.p2align 4,,7
 704 0337 90       		.p2align 3
 705              	.L42:
 706              		.loc 1 373 0
 707 0338 B8FFFFFF 		movl	$-1, %eax	#, D.2229
 707      FF
 708 033d EBE9     		jmp	.L40	#
 709              		.cfi_endproc
 710              	.LFE17:
 711              		.size	chMBFetchI, .-chMBFetchI
 712              	.Letext0:
 713              		.file 2 "/usr/include/stdint.h"
 714              		.file 3 "../../../os/ports/GCC/SIMIA32/chtypes.h"
 715              		.file 4 "../../../os/kernel/include/chlists.h"
 716              		.file 5 "../../../os/kernel/include/chthreads.h"
 717              		.file 6 "../../../os/ports/GCC/SIMIA32/chcore.h"
 718              		.file 7 "../../../os/kernel/include/chsem.h"
 719              		.file 8 "../../../os/kernel/include/chmtx.h"
 720              		.file 9 "../../../os/kernel/include/chmboxes.h"
 721              		.file 10 "../../../os/kernel/include/chschd.h"
 2688              		.section	.note.GNU-stack,"",@progbits
GAS LISTING /tmp/cc0kXkV4.s 			page 58

