GAS LISTING /tmp/ccvVcRyg.s 			page 1


   1              		.file	"chmemcore.c"
   2              	# GNU C (Ubuntu 4.8.2-19ubuntu1) version 4.8.2 (x86_64-linux-gnu)
   3              	#	compiled by GNU C version 4.8.2, GMP version 5.1.3, MPFR version 3.1.2-p3, MPC version 1.0.1
   4              	# GGC heuristics: --param ggc-min-expand=97 --param ggc-min-heapsize=126309
   5              	# options passed:  -I . -I ../../../os/ports/GCC/SIMIA32
   6              	# -I ../../../os/kernel/include -I ../../../test -I ../../../os/hal/include
   7              	# -I ../../../os/hal/platforms/Posix -I ../../../boards/simulator
   8              	# -I ../../../os/various -imultilib 32 -imultiarch i386-linux-gnu
   9              	# -MD ../../../os/kernel/src/chmemcore.d -MF .dep/chmemcore.o.d -MP
  10              	# -MQ ../../../os/kernel/src/chmemcore.o -D SIMULATOR
  11              	# -D SHELL_USE_IPRINTF=FALSE ../../../os/kernel/src/chmemcore.c -m32
  12              	# -mtune=generic -march=i686
  13              	# -auxbase-strip ../../../os/kernel/src/chmemcore.o -ggdb -O2 -Wall -Wextra
  14              	# -Wstrict-prototypes -fomit-frame-pointer -fverbose-asm -fstack-protector
  15              	# -Wformat -Wformat-security
  16              	# options enabled:  -faggressive-loop-optimizations
  17              	# -fasynchronous-unwind-tables -fauto-inc-dec -fbranch-count-reg
  18              	# -fcaller-saves -fcombine-stack-adjustments -fcommon -fcompare-elim
  19              	# -fcprop-registers -fcrossjumping -fcse-follow-jumps -fdefer-pop
  20              	# -fdelete-null-pointer-checks -fdevirtualize -fdwarf2-cfi-asm
  21              	# -fearly-inlining -feliminate-unused-debug-types -fexpensive-optimizations
  22              	# -fforward-propagate -ffunction-cse -fgcse -fgcse-lm -fgnu-runtime
  23              	# -fguess-branch-probability -fhoist-adjacent-loads -fident -fif-conversion
  24              	# -fif-conversion2 -findirect-inlining -finline -finline-atomics
  25              	# -finline-functions-called-once -finline-small-functions -fipa-cp
  26              	# -fipa-profile -fipa-pure-const -fipa-reference -fipa-sra
  27              	# -fira-hoist-pressure -fira-share-save-slots -fira-share-spill-slots
  28              	# -fivopts -fkeep-static-consts -fleading-underscore -fmath-errno
  29              	# -fmerge-constants -fmerge-debug-strings -fmove-loop-invariants
  30              	# -fomit-frame-pointer -foptimize-register-move -foptimize-sibling-calls
  31              	# -foptimize-strlen -fpartial-inlining -fpcc-struct-return -fpeephole
  32              	# -fpeephole2 -fprefetch-loop-arrays -free -fregmove -freorder-blocks
  33              	# -freorder-functions -frerun-cse-after-loop
  34              	# -fsched-critical-path-heuristic -fsched-dep-count-heuristic
  35              	# -fsched-group-heuristic -fsched-interblock -fsched-last-insn-heuristic
  36              	# -fsched-rank-heuristic -fsched-spec -fsched-spec-insn-heuristic
  37              	# -fsched-stalled-insns-dep -fschedule-insns2 -fshow-column -fshrink-wrap
  38              	# -fsigned-zeros -fsplit-ivs-in-unroller -fsplit-wide-types
  39              	# -fstack-protector -fstrict-aliasing -fstrict-overflow
  40              	# -fstrict-volatile-bitfields -fsync-libcalls -fthread-jumps
  41              	# -ftoplevel-reorder -ftrapping-math -ftree-bit-ccp -ftree-builtin-call-dce
  42              	# -ftree-ccp -ftree-ch -ftree-coalesce-vars -ftree-copy-prop
  43              	# -ftree-copyrename -ftree-cselim -ftree-dce -ftree-dominator-opts
  44              	# -ftree-dse -ftree-forwprop -ftree-fre -ftree-loop-if-convert
  45              	# -ftree-loop-im -ftree-loop-ivcanon -ftree-loop-optimize
  46              	# -ftree-parallelize-loops= -ftree-phiprop -ftree-pre -ftree-pta
  47              	# -ftree-reassoc -ftree-scev-cprop -ftree-sink -ftree-slp-vectorize
  48              	# -ftree-slsr -ftree-sra -ftree-switch-conversion -ftree-tail-merge
  49              	# -ftree-ter -ftree-vect-loop-version -ftree-vrp -funit-at-a-time
  50              	# -funwind-tables -fvar-tracking -fvar-tracking-assignments -fverbose-asm
  51              	# -fzero-initialized-in-bss -m32 -m80387 -m96bit-long-double
  52              	# -maccumulate-outgoing-args -malign-stringops -mfancy-math-387
  53              	# -mfp-ret-in-387 -mglibc -mieee-fp -mlong-double-80 -mno-red-zone
  54              	# -mno-sse4 -mpush-args -msahf -mtls-direct-seg-refs
  55              	
  56              		.text
  57              	.Ltext0:
GAS LISTING /tmp/ccvVcRyg.s 			page 2


  58              		.p2align 4,,15
  59              		.globl	_core_init
  60              		.type	_core_init, @function
  61              	_core_init:
  62              	.LFB7:
  63              		.file 1 "../../../os/kernel/src/chmemcore.c"
  64              		.loc 1 66 0
  65              		.cfi_startproc
  66              		.loc 1 74 0
  67 0000 C7050400 		movl	$buffer.1994, nextmem	#, nextmem
  67      02000000 
  67      0000
  68              		.loc 1 75 0
  69 000a C7050000 		movl	$buffer.1994+131072, endmem	#, endmem
  69      02000000 
  69      0200
  70 0014 C3       		ret
  71              		.cfi_endproc
  72              	.LFE7:
  73              		.size	_core_init, .-_core_init
  74 0015 8D742600 		.p2align 4,,15
  74      8DBC2700 
  74      000000
  75              		.globl	chCoreAlloc
  76              		.type	chCoreAlloc, @function
  77              	chCoreAlloc:
  78              	.LFB8:
  79              		.loc 1 91 0
  80              		.cfi_startproc
  81              	.LVL0:
  82              		.loc 1 94 0
  83              	#APP
  84              	# 94 "../../../os/kernel/src/chmemcore.c" 1
   1              	/*
   2              	    ChibiOS/RT - Copyright (C) 2006,2007,2008,2009,2010,
   3              	                 2011,2012,2013 Giovanni Di Sirio.
   4              	
   5              	    This file is part of ChibiOS/RT.
   6              	
   7              	    ChibiOS/RT is free software; you can redistribute it and/or modify
   8              	    it under the terms of the GNU General Public License as published by
   9              	    the Free Software Foundation; either version 3 of the License, or
  10              	    (at your option) any later version.
  11              	
  12              	    ChibiOS/RT is distributed in the hope that it will be useful,
  13              	    but WITHOUT ANY WARRANTY; without even the implied warranty of
  14              	    MERCHANTABILITY or FITNESS FOR A PARTICULAR PURPOSE.  See the
  15              	    GNU General Public License for more details.
  16              	
  17              	    You should have received a copy of the GNU General Public License
  18              	    along with this program.  If not, see <http://www.gnu.org/licenses/>.
  19              	
  20              	                                      ---
  21              	
  22              	    A special exception to the GPL can be applied should you wish to distribute
  23              	    a combined work that includes ChibiOS/RT, without being obliged to provide
  24              	    the source code for any proprietary components. See the file exception.txt
GAS LISTING /tmp/ccvVcRyg.s 			page 3


  25              	    for full details of how and when the exception can be applied.
  26              	*/
  27              	
  28              	/**
  29              	 * @file    chmemcore.c
  30              	 * @brief   Core memory manager code.
  31              	 *
  32              	 * @addtogroup memcore
  33              	 * @details Core Memory Manager related APIs and services.
  34              	 *          <h2>Operation mode</h2>
  35              	 *          The core memory manager is a simplified allocator that only
  36              	 *          allows to allocate memory blocks without the possibility to
  37              	 *          free them.<br>
  38              	 *          This allocator is meant as a memory blocks provider for the
  39              	 *          other allocators such as:
  40              	 *          - C-Runtime allocator (through a compiler specific adapter module).
  41              	 *          - Heap allocator (see @ref heaps).
  42              	 *          - Memory pools allocator (see @ref pools).
  43              	 *          .
  44              	 *          By having a centralized memory provider the various allocators
  45              	 *          can coexist and share the main memory.<br>
  46              	 *          This allocator, alone, is also useful for very simple
  47              	 *          applications that just require a simple way to get memory
  48              	 *          blocks.
  49              	 * @pre     In order to use the core memory manager APIs the @p CH_USE_MEMCORE
  50              	 *          option must be enabled in @p chconf.h.
  51              	 * @{
  52              	 */
  53              	
  54              	#include "ch.h"
  55              	
  56              	#if CH_USE_MEMCORE || defined(__DOXYGEN__)
  57              	
  58              	static uint8_t *nextmem;
  59              	static uint8_t *endmem;
  60              	
  61              	/**
  62              	 * @brief   Low level memory manager initialization.
  63              	 *
  64              	 * @notapi
  65              	 */
  66              	void _core_init(void) {
  67              	#if CH_MEMCORE_SIZE == 0
  68              	  extern uint8_t __heap_base__[];
  69              	  extern uint8_t __heap_end__[];
  70              	  nextmem = (uint8_t *)MEM_ALIGN_NEXT(__heap_base__);
  71              	  endmem = (uint8_t *)MEM_ALIGN_PREV(__heap_end__);
  72              	#else
  73              	  static stkalign_t buffer[MEM_ALIGN_NEXT(CH_MEMCORE_SIZE)/MEM_ALIGN_SIZE];
  74              	  nextmem = (uint8_t *)&buffer[0];
  75              	  endmem = (uint8_t *)&buffer[MEM_ALIGN_NEXT(CH_MEMCORE_SIZE)/MEM_ALIGN_SIZE];
  76              	#endif
  77              	}
  78              	
  79              	/**
  80              	 * @brief   Allocates a memory block.
  81              	 * @details The size of the returned block is aligned to the alignment
GAS LISTING /tmp/ccvVcRyg.s 			page 4


  82              	 *          type so it is not possible to allocate less
  83              	 *          than <code>MEM_ALIGN_SIZE</code>.
  84              	 *
  85              	 * @param[in] size      the size of the block to be allocated
  86              	 * @return              A pointer to the allocated memory block.
  87              	 * @retval NULL         allocation failed, core memory exhausted.
  88              	 *
  89              	 * @api
  90              	 */
  91              	void *chCoreAlloc(size_t size) {
  92              	  void *p;
  93              	
  94 0020 90       	  chSysLock();
  95              	  p = chCoreAllocI(size);
  85              		nop
  86              	# 0 "" 2
  87              	.LVL1:
  88              	#NO_APP
  89              	.LBB4:
  90              	.LBB5:
  91              		.loc 1 117 0
  92 0021 8B442404 		movl	4(%esp), %eax	# size, tmp76
  93              		.loc 1 118 0
  94 0025 8B0D0000 		movl	endmem, %ecx	# endmem, D.2049
  94      0200
  95              		.loc 1 117 0
  96 002b 8D500F   		leal	15(%eax), %edx	#, size
  97              		.loc 1 118 0
  98 002e A1040002 		movl	nextmem, %eax	# nextmem, nextmem.2
  98      00
  99              		.loc 1 117 0
 100 0033 83E2F0   		andl	$-16, %edx	#, size
 101              	.LVL2:
 102              		.loc 1 118 0
 103 0036 29C1     		subl	%eax, %ecx	# nextmem.2, D.2049
 104 0038 39CA     		cmpl	%ecx, %edx	# D.2049, size
 105 003a 770C     		ja	.L4	#,
 106              	.LVL3:
 107              		.loc 1 121 0
 108 003c 01C2     		addl	%eax, %edx	# nextmem.2, tmp74
 109              	.LVL4:
 110 003e 89150400 		movl	%edx, nextmem	# tmp74, nextmem
 110      0200
 111              	.LVL5:
 112              	.L3:
 113              	.LBE5:
 114              	.LBE4:
 115              		.loc 1 96 0
 116              	#APP
 117              	# 96 "../../../os/kernel/src/chmemcore.c" 1
  96 0044 90       	  chSysUnlock();
  97              	  return p;
 118              		nop
 119              	# 0 "" 2
 120              		.loc 1 98 0
 121              	#NO_APP
 122 0045 C3       		ret
GAS LISTING /tmp/ccvVcRyg.s 			page 5


 123              	.LVL6:
 124              		.p2align 4,,7
 125 0046 6690     		.p2align 3
 126              	.L4:
 127              	.LBB7:
 128              	.LBB6:
 129              		.loc 1 119 0
 130 0048 31C0     		xorl	%eax, %eax	# D.2050
 131 004a EBF8     		jmp	.L3	#
 132              	.LBE6:
 133              	.LBE7:
 134              		.cfi_endproc
 135              	.LFE8:
 136              		.size	chCoreAlloc, .-chCoreAlloc
 137 004c 8D742600 		.p2align 4,,15
 138              		.globl	chCoreAllocI
 139              		.type	chCoreAllocI, @function
 140              	chCoreAllocI:
 141              	.LFB9:
 142              		.loc 1 112 0
 143              		.cfi_startproc
 144              	.LVL7:
 145              		.loc 1 117 0
 146 0050 8B442404 		movl	4(%esp), %eax	# size, tmp75
 147              		.loc 1 118 0
 148 0054 8B0D0000 		movl	endmem, %ecx	# endmem, D.2055
 148      0200
 149              		.loc 1 117 0
 150 005a 8D500F   		leal	15(%eax), %edx	#, size
 151              		.loc 1 118 0
 152 005d A1040002 		movl	nextmem, %eax	# nextmem, nextmem.2
 152      00
 153              		.loc 1 117 0
 154 0062 83E2F0   		andl	$-16, %edx	#, size
 155              	.LVL8:
 156              		.loc 1 118 0
 157 0065 29C1     		subl	%eax, %ecx	# nextmem.2, D.2055
 158 0067 39CA     		cmpl	%ecx, %edx	# D.2055, size
 159 0069 770D     		ja	.L8	#,
 160              	.LVL9:
 161              		.loc 1 121 0
 162 006b 01C2     		addl	%eax, %edx	# nextmem.2, tmp73
 163              	.LVL10:
 164 006d 89150400 		movl	%edx, nextmem	# tmp73, nextmem
 164      0200
 165              		.loc 1 122 0
 166 0073 C3       		ret
 167              	.LVL11:
 168              		.p2align 4,,7
 169 0074 8D742600 		.p2align 3
 170              	.L8:
 171              		.loc 1 119 0
 172 0078 31C0     		xorl	%eax, %eax	# D.2053
 173              		.loc 1 123 0
 174 007a C3       		ret
 175              		.cfi_endproc
 176              	.LFE9:
GAS LISTING /tmp/ccvVcRyg.s 			page 6


 177              		.size	chCoreAllocI, .-chCoreAllocI
 178 007b 908D7426 		.p2align 4,,15
 178      00
 179              		.globl	chCoreStatus
 180              		.type	chCoreStatus, @function
 181              	chCoreStatus:
 182              	.LFB10:
 183              		.loc 1 132 0
 184              		.cfi_startproc
 185              		.loc 1 134 0
 186 0080 A1000002 		movl	endmem, %eax	# endmem, D.2058
 186      00
 187 0085 2B050400 		subl	nextmem, %eax	# nextmem, D.2058
 187      0200
 188              		.loc 1 135 0
 189 008b C3       		ret
 190              		.cfi_endproc
 191              	.LFE10:
 192              		.size	chCoreStatus, .-chCoreStatus
 193              		.local	buffer.1994
 194              		.comm	buffer.1994,131072,32
 195              		.local	endmem
 196              		.comm	endmem,4,4
 197              		.local	nextmem
 198              		.comm	nextmem,4,4
 199              	.Letext0:
 200              		.file 2 "/usr/lib/gcc/x86_64-linux-gnu/4.8/include/stddef.h"
 201              		.file 3 "/usr/include/stdint.h"
 202              		.file 4 "../../../os/ports/GCC/SIMIA32/chcore.h"
 203              		.section	.debug_info,"",@progbits
 204              	.Ldebug_info0:
 205 0000 D5010000 		.long	0x1d5
 206 0004 0400     		.value	0x4
 207 0006 00000000 		.long	.Ldebug_abbrev0
 208 000a 04       		.byte	0x4
 209 000b 01       		.uleb128 0x1
 210 000c 53000000 		.long	.LASF17
 211 0010 01       		.byte	0x1
 212 0011 30000000 		.long	.LASF18
 213 0015 B0000000 		.long	.LASF19
 214 0019 00000000 		.long	.Ltext0
 215 001d 8C000000 		.long	.Letext0-.Ltext0
 216 0021 00000000 		.long	.Ldebug_line0
 217 0025 02       		.uleb128 0x2
 218 0026 04       		.byte	0x4
 219 0027 05       		.byte	0x5
 220 0028 696E7400 		.string	"int"
 221 002c 03       		.uleb128 0x3
 222 002d 21000000 		.long	.LASF5
 223 0031 02       		.byte	0x2
 224 0032 D4       		.byte	0xd4
 225 0033 37000000 		.long	0x37
 226 0037 04       		.uleb128 0x4
 227 0038 04       		.byte	0x4
 228 0039 07       		.byte	0x7
 229 003a 71010000 		.long	.LASF0
 230 003e 04       		.uleb128 0x4
GAS LISTING /tmp/ccvVcRyg.s 			page 7


 231 003f 04       		.byte	0x4
 232 0040 05       		.byte	0x5
 233 0041 28010000 		.long	.LASF1
 234 0045 04       		.uleb128 0x4
 235 0046 01       		.byte	0x1
 236 0047 06       		.byte	0x6
 237 0048 4B010000 		.long	.LASF2
 238 004c 04       		.uleb128 0x4
 239 004d 02       		.byte	0x2
 240 004e 05       		.byte	0x5
 241 004f 67010000 		.long	.LASF3
 242 0053 04       		.uleb128 0x4
 243 0054 08       		.byte	0x8
 244 0055 05       		.byte	0x5
 245 0056 00000000 		.long	.LASF4
 246 005a 03       		.uleb128 0x3
 247 005b 01010000 		.long	.LASF6
 248 005f 03       		.byte	0x3
 249 0060 30       		.byte	0x30
 250 0061 65000000 		.long	0x65
 251 0065 04       		.uleb128 0x4
 252 0066 01       		.byte	0x1
 253 0067 08       		.byte	0x8
 254 0068 09010000 		.long	.LASF7
 255 006c 04       		.uleb128 0x4
 256 006d 02       		.byte	0x2
 257 006e 07       		.byte	0x7
 258 006f 0E000000 		.long	.LASF8
 259 0073 04       		.uleb128 0x4
 260 0074 08       		.byte	0x8
 261 0075 07       		.byte	0x7
 262 0076 DF000000 		.long	.LASF9
 263 007a 04       		.uleb128 0x4
 264 007b 01       		.byte	0x1
 265 007c 02       		.byte	0x2
 266 007d 31010000 		.long	.LASF10
 267 0081 05       		.uleb128 0x5
 268 0082 10       		.byte	0x10
 269 0083 04       		.byte	0x4
 270 0084 44       		.byte	0x44
 271 0085 94000000 		.long	0x94
 272 0089 06       		.uleb128 0x6
 273 008a 6100     		.string	"a"
 274 008c 04       		.byte	0x4
 275 008d 45       		.byte	0x45
 276 008e 94000000 		.long	0x94
 277 0092 00       		.byte	0
 278 0093 00       		.byte	0
 279 0094 07       		.uleb128 0x7
 280 0095 5A000000 		.long	0x5a
 281 0099 A4000000 		.long	0xa4
 282 009d 08       		.uleb128 0x8
 283 009e A4000000 		.long	0xa4
 284 00a2 0F       		.byte	0xf
 285 00a3 00       		.byte	0
 286 00a4 04       		.uleb128 0x4
 287 00a5 04       		.byte	0x4
GAS LISTING /tmp/ccvVcRyg.s 			page 8


 288 00a6 07       		.byte	0x7
 289 00a7 7E010000 		.long	.LASF11
 290 00ab 03       		.uleb128 0x3
 291 00ac F6000000 		.long	.LASF12
 292 00b0 04       		.byte	0x4
 293 00b1 46       		.byte	0x46
 294 00b2 81000000 		.long	0x81
 295 00b6 09       		.uleb128 0x9
 296 00b7 04       		.byte	0x4
 297 00b8 04       		.uleb128 0x4
 298 00b9 01       		.byte	0x1
 299 00ba 06       		.byte	0x6
 300 00bb 17010000 		.long	.LASF13
 301 00bf 0A       		.uleb128 0xa
 302 00c0 04       		.byte	0x4
 303 00c1 5A000000 		.long	0x5a
 304 00c5 0B       		.uleb128 0xb
 305 00c6 3E010000 		.long	.LASF20
 306 00ca 01       		.byte	0x1
 307 00cb 70       		.byte	0x70
 308 00cc B6000000 		.long	0xb6
 309 00d0 01       		.byte	0x1
 310 00d1 EA000000 		.long	0xea
 311 00d5 0C       		.uleb128 0xc
 312 00d6 57010000 		.long	.LASF21
 313 00da 01       		.byte	0x1
 314 00db 70       		.byte	0x70
 315 00dc 2C000000 		.long	0x2c
 316 00e0 0D       		.uleb128 0xd
 317 00e1 7000     		.string	"p"
 318 00e3 01       		.byte	0x1
 319 00e4 71       		.byte	0x71
 320 00e5 B6000000 		.long	0xb6
 321 00e9 00       		.byte	0
 322 00ea 0E       		.uleb128 0xe
 323 00eb 5C010000 		.long	.LASF22
 324 00ef 01       		.byte	0x1
 325 00f0 42       		.byte	0x42
 326 00f1 00000000 		.long	.LFB7
 327 00f5 15000000 		.long	.LFE7-.LFB7
 328 00f9 01       		.uleb128 0x1
 329 00fa 9C       		.byte	0x9c
 330 00fb 11010000 		.long	0x111
 331 00ff 0F       		.uleb128 0xf
 332 0100 D8000000 		.long	.LASF14
 333 0104 01       		.byte	0x1
 334 0105 49       		.byte	0x49
 335 0106 11010000 		.long	0x111
 336 010a 05       		.uleb128 0x5
 337 010b 03       		.byte	0x3
 338 010c 00000000 		.long	buffer.1994
 339 0110 00       		.byte	0
 340 0111 07       		.uleb128 0x7
 341 0112 AB000000 		.long	0xab
 342 0116 22010000 		.long	0x122
 343 011a 10       		.uleb128 0x10
 344 011b A4000000 		.long	0xa4
GAS LISTING /tmp/ccvVcRyg.s 			page 9


 345 011f FF1F     		.value	0x1fff
 346 0121 00       		.byte	0
 347 0122 11       		.uleb128 0x11
 348 0123 1C010000 		.long	.LASF23
 349 0127 01       		.byte	0x1
 350 0128 5B       		.byte	0x5b
 351 0129 B6000000 		.long	0xb6
 352 012d 20000000 		.long	.LFB8
 353 0131 2C000000 		.long	.LFE8-.LFB8
 354 0135 01       		.uleb128 0x1
 355 0136 9C       		.byte	0x9c
 356 0137 7B010000 		.long	0x17b
 357 013b 12       		.uleb128 0x12
 358 013c 57010000 		.long	.LASF21
 359 0140 01       		.byte	0x1
 360 0141 5B       		.byte	0x5b
 361 0142 2C000000 		.long	0x2c
 362 0146 02       		.uleb128 0x2
 363 0147 91       		.byte	0x91
 364 0148 00       		.sleb128 0
 365 0149 0D       		.uleb128 0xd
 366 014a 7000     		.string	"p"
 367 014c 01       		.byte	0x1
 368 014d 5C       		.byte	0x5c
 369 014e B6000000 		.long	0xb6
 370 0152 13       		.uleb128 0x13
 371 0153 C5000000 		.long	0xc5
 372 0157 21000000 		.long	.LBB4
 373 015b 00000000 		.long	.Ldebug_ranges0+0
 374 015f 01       		.byte	0x1
 375 0160 5F       		.byte	0x5f
 376 0161 14       		.uleb128 0x14
 377 0162 D5000000 		.long	0xd5
 378 0166 00000000 		.long	.LLST0
 379 016a 15       		.uleb128 0x15
 380 016b 00000000 		.long	.Ldebug_ranges0+0
 381 016f 16       		.uleb128 0x16
 382 0170 E0000000 		.long	0xe0
 383 0174 3D000000 		.long	.LLST1
 384 0178 00       		.byte	0
 385 0179 00       		.byte	0
 386 017a 00       		.byte	0
 387 017b 17       		.uleb128 0x17
 388 017c C5000000 		.long	0xc5
 389 0180 50000000 		.long	.LFB9
 390 0184 2B000000 		.long	.LFE9-.LFB9
 391 0188 01       		.uleb128 0x1
 392 0189 9C       		.byte	0x9c
 393 018a A1010000 		.long	0x1a1
 394 018e 14       		.uleb128 0x14
 395 018f D5000000 		.long	0xd5
 396 0193 50000000 		.long	.LLST2
 397 0197 16       		.uleb128 0x16
 398 0198 E0000000 		.long	0xe0
 399 019c 8D000000 		.long	.LLST3
 400 01a0 00       		.byte	0
 401 01a1 18       		.uleb128 0x18
GAS LISTING /tmp/ccvVcRyg.s 			page 10


 402 01a2 87010000 		.long	.LASF24
 403 01a6 01       		.byte	0x1
 404 01a7 84       		.byte	0x84
 405 01a8 2C000000 		.long	0x2c
 406 01ac 80000000 		.long	.LFB10
 407 01b0 0C000000 		.long	.LFE10-.LFB10
 408 01b4 01       		.uleb128 0x1
 409 01b5 9C       		.byte	0x9c
 410 01b6 0F       		.uleb128 0xf
 411 01b7 28000000 		.long	.LASF15
 412 01bb 01       		.byte	0x1
 413 01bc 3A       		.byte	0x3a
 414 01bd BF000000 		.long	0xbf
 415 01c1 05       		.uleb128 0x5
 416 01c2 03       		.byte	0x3
 417 01c3 04000200 		.long	nextmem
 418 01c7 0F       		.uleb128 0xf
 419 01c8 37010000 		.long	.LASF16
 420 01cc 01       		.byte	0x1
 421 01cd 3B       		.byte	0x3b
 422 01ce BF000000 		.long	0xbf
 423 01d2 05       		.uleb128 0x5
 424 01d3 03       		.byte	0x3
 425 01d4 00000200 		.long	endmem
 426 01d8 00       		.byte	0
 427              		.section	.debug_abbrev,"",@progbits
 428              	.Ldebug_abbrev0:
 429 0000 01       		.uleb128 0x1
 430 0001 11       		.uleb128 0x11
 431 0002 01       		.byte	0x1
 432 0003 25       		.uleb128 0x25
 433 0004 0E       		.uleb128 0xe
 434 0005 13       		.uleb128 0x13
 435 0006 0B       		.uleb128 0xb
 436 0007 03       		.uleb128 0x3
 437 0008 0E       		.uleb128 0xe
 438 0009 1B       		.uleb128 0x1b
 439 000a 0E       		.uleb128 0xe
 440 000b 11       		.uleb128 0x11
 441 000c 01       		.uleb128 0x1
 442 000d 12       		.uleb128 0x12
 443 000e 06       		.uleb128 0x6
 444 000f 10       		.uleb128 0x10
 445 0010 17       		.uleb128 0x17
 446 0011 00       		.byte	0
 447 0012 00       		.byte	0
 448 0013 02       		.uleb128 0x2
 449 0014 24       		.uleb128 0x24
 450 0015 00       		.byte	0
 451 0016 0B       		.uleb128 0xb
 452 0017 0B       		.uleb128 0xb
 453 0018 3E       		.uleb128 0x3e
 454 0019 0B       		.uleb128 0xb
 455 001a 03       		.uleb128 0x3
 456 001b 08       		.uleb128 0x8
 457 001c 00       		.byte	0
 458 001d 00       		.byte	0
GAS LISTING /tmp/ccvVcRyg.s 			page 11


 459 001e 03       		.uleb128 0x3
 460 001f 16       		.uleb128 0x16
 461 0020 00       		.byte	0
 462 0021 03       		.uleb128 0x3
 463 0022 0E       		.uleb128 0xe
 464 0023 3A       		.uleb128 0x3a
 465 0024 0B       		.uleb128 0xb
 466 0025 3B       		.uleb128 0x3b
 467 0026 0B       		.uleb128 0xb
 468 0027 49       		.uleb128 0x49
 469 0028 13       		.uleb128 0x13
 470 0029 00       		.byte	0
 471 002a 00       		.byte	0
 472 002b 04       		.uleb128 0x4
 473 002c 24       		.uleb128 0x24
 474 002d 00       		.byte	0
 475 002e 0B       		.uleb128 0xb
 476 002f 0B       		.uleb128 0xb
 477 0030 3E       		.uleb128 0x3e
 478 0031 0B       		.uleb128 0xb
 479 0032 03       		.uleb128 0x3
 480 0033 0E       		.uleb128 0xe
 481 0034 00       		.byte	0
 482 0035 00       		.byte	0
 483 0036 05       		.uleb128 0x5
 484 0037 13       		.uleb128 0x13
 485 0038 01       		.byte	0x1
 486 0039 0B       		.uleb128 0xb
 487 003a 0B       		.uleb128 0xb
 488 003b 3A       		.uleb128 0x3a
 489 003c 0B       		.uleb128 0xb
 490 003d 3B       		.uleb128 0x3b
 491 003e 0B       		.uleb128 0xb
 492 003f 01       		.uleb128 0x1
 493 0040 13       		.uleb128 0x13
 494 0041 00       		.byte	0
 495 0042 00       		.byte	0
 496 0043 06       		.uleb128 0x6
 497 0044 0D       		.uleb128 0xd
 498 0045 00       		.byte	0
 499 0046 03       		.uleb128 0x3
 500 0047 08       		.uleb128 0x8
 501 0048 3A       		.uleb128 0x3a
 502 0049 0B       		.uleb128 0xb
 503 004a 3B       		.uleb128 0x3b
 504 004b 0B       		.uleb128 0xb
 505 004c 49       		.uleb128 0x49
 506 004d 13       		.uleb128 0x13
 507 004e 38       		.uleb128 0x38
 508 004f 0B       		.uleb128 0xb
 509 0050 00       		.byte	0
 510 0051 00       		.byte	0
 511 0052 07       		.uleb128 0x7
 512 0053 01       		.uleb128 0x1
 513 0054 01       		.byte	0x1
 514 0055 49       		.uleb128 0x49
 515 0056 13       		.uleb128 0x13
GAS LISTING /tmp/ccvVcRyg.s 			page 12


 516 0057 01       		.uleb128 0x1
 517 0058 13       		.uleb128 0x13
 518 0059 00       		.byte	0
 519 005a 00       		.byte	0
 520 005b 08       		.uleb128 0x8
 521 005c 21       		.uleb128 0x21
 522 005d 00       		.byte	0
 523 005e 49       		.uleb128 0x49
 524 005f 13       		.uleb128 0x13
 525 0060 2F       		.uleb128 0x2f
 526 0061 0B       		.uleb128 0xb
 527 0062 00       		.byte	0
 528 0063 00       		.byte	0
 529 0064 09       		.uleb128 0x9
 530 0065 0F       		.uleb128 0xf
 531 0066 00       		.byte	0
 532 0067 0B       		.uleb128 0xb
 533 0068 0B       		.uleb128 0xb
 534 0069 00       		.byte	0
 535 006a 00       		.byte	0
 536 006b 0A       		.uleb128 0xa
 537 006c 0F       		.uleb128 0xf
 538 006d 00       		.byte	0
 539 006e 0B       		.uleb128 0xb
 540 006f 0B       		.uleb128 0xb
 541 0070 49       		.uleb128 0x49
 542 0071 13       		.uleb128 0x13
 543 0072 00       		.byte	0
 544 0073 00       		.byte	0
 545 0074 0B       		.uleb128 0xb
 546 0075 2E       		.uleb128 0x2e
 547 0076 01       		.byte	0x1
 548 0077 3F       		.uleb128 0x3f
 549 0078 19       		.uleb128 0x19
 550 0079 03       		.uleb128 0x3
 551 007a 0E       		.uleb128 0xe
 552 007b 3A       		.uleb128 0x3a
 553 007c 0B       		.uleb128 0xb
 554 007d 3B       		.uleb128 0x3b
 555 007e 0B       		.uleb128 0xb
 556 007f 27       		.uleb128 0x27
 557 0080 19       		.uleb128 0x19
 558 0081 49       		.uleb128 0x49
 559 0082 13       		.uleb128 0x13
 560 0083 20       		.uleb128 0x20
 561 0084 0B       		.uleb128 0xb
 562 0085 01       		.uleb128 0x1
 563 0086 13       		.uleb128 0x13
 564 0087 00       		.byte	0
 565 0088 00       		.byte	0
 566 0089 0C       		.uleb128 0xc
 567 008a 05       		.uleb128 0x5
 568 008b 00       		.byte	0
 569 008c 03       		.uleb128 0x3
 570 008d 0E       		.uleb128 0xe
 571 008e 3A       		.uleb128 0x3a
 572 008f 0B       		.uleb128 0xb
GAS LISTING /tmp/ccvVcRyg.s 			page 13


 573 0090 3B       		.uleb128 0x3b
 574 0091 0B       		.uleb128 0xb
 575 0092 49       		.uleb128 0x49
 576 0093 13       		.uleb128 0x13
 577 0094 00       		.byte	0
 578 0095 00       		.byte	0
 579 0096 0D       		.uleb128 0xd
 580 0097 34       		.uleb128 0x34
 581 0098 00       		.byte	0
 582 0099 03       		.uleb128 0x3
 583 009a 08       		.uleb128 0x8
 584 009b 3A       		.uleb128 0x3a
 585 009c 0B       		.uleb128 0xb
 586 009d 3B       		.uleb128 0x3b
 587 009e 0B       		.uleb128 0xb
 588 009f 49       		.uleb128 0x49
 589 00a0 13       		.uleb128 0x13
 590 00a1 00       		.byte	0
 591 00a2 00       		.byte	0
 592 00a3 0E       		.uleb128 0xe
 593 00a4 2E       		.uleb128 0x2e
 594 00a5 01       		.byte	0x1
 595 00a6 3F       		.uleb128 0x3f
 596 00a7 19       		.uleb128 0x19
 597 00a8 03       		.uleb128 0x3
 598 00a9 0E       		.uleb128 0xe
 599 00aa 3A       		.uleb128 0x3a
 600 00ab 0B       		.uleb128 0xb
 601 00ac 3B       		.uleb128 0x3b
 602 00ad 0B       		.uleb128 0xb
 603 00ae 27       		.uleb128 0x27
 604 00af 19       		.uleb128 0x19
 605 00b0 11       		.uleb128 0x11
 606 00b1 01       		.uleb128 0x1
 607 00b2 12       		.uleb128 0x12
 608 00b3 06       		.uleb128 0x6
 609 00b4 40       		.uleb128 0x40
 610 00b5 18       		.uleb128 0x18
 611 00b6 9742     		.uleb128 0x2117
 612 00b8 19       		.uleb128 0x19
 613 00b9 01       		.uleb128 0x1
 614 00ba 13       		.uleb128 0x13
 615 00bb 00       		.byte	0
 616 00bc 00       		.byte	0
 617 00bd 0F       		.uleb128 0xf
 618 00be 34       		.uleb128 0x34
 619 00bf 00       		.byte	0
 620 00c0 03       		.uleb128 0x3
 621 00c1 0E       		.uleb128 0xe
 622 00c2 3A       		.uleb128 0x3a
 623 00c3 0B       		.uleb128 0xb
 624 00c4 3B       		.uleb128 0x3b
 625 00c5 0B       		.uleb128 0xb
 626 00c6 49       		.uleb128 0x49
 627 00c7 13       		.uleb128 0x13
 628 00c8 02       		.uleb128 0x2
 629 00c9 18       		.uleb128 0x18
GAS LISTING /tmp/ccvVcRyg.s 			page 14


 630 00ca 00       		.byte	0
 631 00cb 00       		.byte	0
 632 00cc 10       		.uleb128 0x10
 633 00cd 21       		.uleb128 0x21
 634 00ce 00       		.byte	0
 635 00cf 49       		.uleb128 0x49
 636 00d0 13       		.uleb128 0x13
 637 00d1 2F       		.uleb128 0x2f
 638 00d2 05       		.uleb128 0x5
 639 00d3 00       		.byte	0
 640 00d4 00       		.byte	0
 641 00d5 11       		.uleb128 0x11
 642 00d6 2E       		.uleb128 0x2e
 643 00d7 01       		.byte	0x1
 644 00d8 3F       		.uleb128 0x3f
 645 00d9 19       		.uleb128 0x19
 646 00da 03       		.uleb128 0x3
 647 00db 0E       		.uleb128 0xe
 648 00dc 3A       		.uleb128 0x3a
 649 00dd 0B       		.uleb128 0xb
 650 00de 3B       		.uleb128 0x3b
 651 00df 0B       		.uleb128 0xb
 652 00e0 27       		.uleb128 0x27
 653 00e1 19       		.uleb128 0x19
 654 00e2 49       		.uleb128 0x49
 655 00e3 13       		.uleb128 0x13
 656 00e4 11       		.uleb128 0x11
 657 00e5 01       		.uleb128 0x1
 658 00e6 12       		.uleb128 0x12
 659 00e7 06       		.uleb128 0x6
 660 00e8 40       		.uleb128 0x40
 661 00e9 18       		.uleb128 0x18
 662 00ea 9742     		.uleb128 0x2117
 663 00ec 19       		.uleb128 0x19
 664 00ed 01       		.uleb128 0x1
 665 00ee 13       		.uleb128 0x13
 666 00ef 00       		.byte	0
 667 00f0 00       		.byte	0
 668 00f1 12       		.uleb128 0x12
 669 00f2 05       		.uleb128 0x5
 670 00f3 00       		.byte	0
 671 00f4 03       		.uleb128 0x3
 672 00f5 0E       		.uleb128 0xe
 673 00f6 3A       		.uleb128 0x3a
 674 00f7 0B       		.uleb128 0xb
 675 00f8 3B       		.uleb128 0x3b
 676 00f9 0B       		.uleb128 0xb
 677 00fa 49       		.uleb128 0x49
 678 00fb 13       		.uleb128 0x13
 679 00fc 02       		.uleb128 0x2
 680 00fd 18       		.uleb128 0x18
 681 00fe 00       		.byte	0
 682 00ff 00       		.byte	0
 683 0100 13       		.uleb128 0x13
 684 0101 1D       		.uleb128 0x1d
 685 0102 01       		.byte	0x1
 686 0103 31       		.uleb128 0x31
GAS LISTING /tmp/ccvVcRyg.s 			page 15


 687 0104 13       		.uleb128 0x13
 688 0105 52       		.uleb128 0x52
 689 0106 01       		.uleb128 0x1
 690 0107 55       		.uleb128 0x55
 691 0108 17       		.uleb128 0x17
 692 0109 58       		.uleb128 0x58
 693 010a 0B       		.uleb128 0xb
 694 010b 59       		.uleb128 0x59
 695 010c 0B       		.uleb128 0xb
 696 010d 00       		.byte	0
 697 010e 00       		.byte	0
 698 010f 14       		.uleb128 0x14
 699 0110 05       		.uleb128 0x5
 700 0111 00       		.byte	0
 701 0112 31       		.uleb128 0x31
 702 0113 13       		.uleb128 0x13
 703 0114 02       		.uleb128 0x2
 704 0115 17       		.uleb128 0x17
 705 0116 00       		.byte	0
 706 0117 00       		.byte	0
 707 0118 15       		.uleb128 0x15
 708 0119 0B       		.uleb128 0xb
 709 011a 01       		.byte	0x1
 710 011b 55       		.uleb128 0x55
 711 011c 17       		.uleb128 0x17
 712 011d 00       		.byte	0
 713 011e 00       		.byte	0
 714 011f 16       		.uleb128 0x16
 715 0120 34       		.uleb128 0x34
 716 0121 00       		.byte	0
 717 0122 31       		.uleb128 0x31
 718 0123 13       		.uleb128 0x13
 719 0124 02       		.uleb128 0x2
 720 0125 17       		.uleb128 0x17
 721 0126 00       		.byte	0
 722 0127 00       		.byte	0
 723 0128 17       		.uleb128 0x17
 724 0129 2E       		.uleb128 0x2e
 725 012a 01       		.byte	0x1
 726 012b 31       		.uleb128 0x31
 727 012c 13       		.uleb128 0x13
 728 012d 11       		.uleb128 0x11
 729 012e 01       		.uleb128 0x1
 730 012f 12       		.uleb128 0x12
 731 0130 06       		.uleb128 0x6
 732 0131 40       		.uleb128 0x40
 733 0132 18       		.uleb128 0x18
 734 0133 9742     		.uleb128 0x2117
 735 0135 19       		.uleb128 0x19
 736 0136 01       		.uleb128 0x1
 737 0137 13       		.uleb128 0x13
 738 0138 00       		.byte	0
 739 0139 00       		.byte	0
 740 013a 18       		.uleb128 0x18
 741 013b 2E       		.uleb128 0x2e
 742 013c 00       		.byte	0
 743 013d 3F       		.uleb128 0x3f
GAS LISTING /tmp/ccvVcRyg.s 			page 16


 744 013e 19       		.uleb128 0x19
 745 013f 03       		.uleb128 0x3
 746 0140 0E       		.uleb128 0xe
 747 0141 3A       		.uleb128 0x3a
 748 0142 0B       		.uleb128 0xb
 749 0143 3B       		.uleb128 0x3b
 750 0144 0B       		.uleb128 0xb
 751 0145 27       		.uleb128 0x27
 752 0146 19       		.uleb128 0x19
 753 0147 49       		.uleb128 0x49
 754 0148 13       		.uleb128 0x13
 755 0149 11       		.uleb128 0x11
 756 014a 01       		.uleb128 0x1
 757 014b 12       		.uleb128 0x12
 758 014c 06       		.uleb128 0x6
 759 014d 40       		.uleb128 0x40
 760 014e 18       		.uleb128 0x18
 761 014f 9742     		.uleb128 0x2117
 762 0151 19       		.uleb128 0x19
 763 0152 00       		.byte	0
 764 0153 00       		.byte	0
 765 0154 00       		.byte	0
 766              		.section	.debug_loc,"",@progbits
 767              	.Ldebug_loc0:
 768              	.LLST0:
 769 0000 21000000 		.long	.LVL1-.Ltext0
 770 0004 36000000 		.long	.LVL2-.Ltext0
 771 0008 0200     		.value	0x2
 772 000a 91       		.byte	0x91
 773 000b 00       		.sleb128 0
 774 000c 36000000 		.long	.LVL2-.Ltext0
 775 0010 3E000000 		.long	.LVL4-.Ltext0
 776 0014 0100     		.value	0x1
 777 0016 52       		.byte	0x52
 778 0017 3E000000 		.long	.LVL4-.Ltext0
 779 001b 46000000 		.long	.LVL6-.Ltext0
 780 001f 0900     		.value	0x9
 781 0021 91       		.byte	0x91
 782 0022 00       		.sleb128 0
 783 0023 06       		.byte	0x6
 784 0024 23       		.byte	0x23
 785 0025 0F       		.uleb128 0xf
 786 0026 09       		.byte	0x9
 787 0027 F0       		.byte	0xf0
 788 0028 1A       		.byte	0x1a
 789 0029 9F       		.byte	0x9f
 790 002a 46000000 		.long	.LVL6-.Ltext0
 791 002e 4C000000 		.long	.LFE8-.Ltext0
 792 0032 0100     		.value	0x1
 793 0034 52       		.byte	0x52
 794 0035 00000000 		.long	0
 795 0039 00000000 		.long	0
 796              	.LLST1:
 797 003d 3C000000 		.long	.LVL3-.Ltext0
 798 0041 44000000 		.long	.LVL5-.Ltext0
 799 0045 0100     		.value	0x1
 800 0047 50       		.byte	0x50
GAS LISTING /tmp/ccvVcRyg.s 			page 17


 801 0048 00000000 		.long	0
 802 004c 00000000 		.long	0
 803              	.LLST2:
 804 0050 50000000 		.long	.LVL7-.Ltext0
 805 0054 65000000 		.long	.LVL8-.Ltext0
 806 0058 0200     		.value	0x2
 807 005a 91       		.byte	0x91
 808 005b 00       		.sleb128 0
 809 005c 65000000 		.long	.LVL8-.Ltext0
 810 0060 6D000000 		.long	.LVL10-.Ltext0
 811 0064 0100     		.value	0x1
 812 0066 52       		.byte	0x52
 813 0067 6D000000 		.long	.LVL10-.Ltext0
 814 006b 74000000 		.long	.LVL11-.Ltext0
 815 006f 0900     		.value	0x9
 816 0071 91       		.byte	0x91
 817 0072 00       		.sleb128 0
 818 0073 06       		.byte	0x6
 819 0074 23       		.byte	0x23
 820 0075 0F       		.uleb128 0xf
 821 0076 09       		.byte	0x9
 822 0077 F0       		.byte	0xf0
 823 0078 1A       		.byte	0x1a
 824 0079 9F       		.byte	0x9f
 825 007a 74000000 		.long	.LVL11-.Ltext0
 826 007e 7B000000 		.long	.LFE9-.Ltext0
 827 0082 0100     		.value	0x1
 828 0084 52       		.byte	0x52
 829 0085 00000000 		.long	0
 830 0089 00000000 		.long	0
 831              	.LLST3:
 832 008d 6B000000 		.long	.LVL9-.Ltext0
 833 0091 74000000 		.long	.LVL11-.Ltext0
 834 0095 0100     		.value	0x1
 835 0097 50       		.byte	0x50
 836 0098 00000000 		.long	0
 837 009c 00000000 		.long	0
 838              		.section	.debug_aranges,"",@progbits
 839 0000 1C000000 		.long	0x1c
 840 0004 0200     		.value	0x2
 841 0006 00000000 		.long	.Ldebug_info0
 842 000a 04       		.byte	0x4
 843 000b 00       		.byte	0
 844 000c 0000     		.value	0
 845 000e 0000     		.value	0
 846 0010 00000000 		.long	.Ltext0
 847 0014 8C000000 		.long	.Letext0-.Ltext0
 848 0018 00000000 		.long	0
 849 001c 00000000 		.long	0
 850              		.section	.debug_ranges,"",@progbits
 851              	.Ldebug_ranges0:
 852 0000 21000000 		.long	.LBB4-.Ltext0
 853 0004 44000000 		.long	.LBE4-.Ltext0
 854 0008 48000000 		.long	.LBB7-.Ltext0
 855 000c 4C000000 		.long	.LBE7-.Ltext0
 856 0010 00000000 		.long	0
 857 0014 00000000 		.long	0
GAS LISTING /tmp/ccvVcRyg.s 			page 18


 858              		.section	.debug_line,"",@progbits
 859              	.Ldebug_line0:
 860 0000 F1000000 		.section	.debug_str,"MS",@progbits,1
 860      0200B200 
 860      00000101 
 860      FB0E0D00 
 860      01010101 
 861              	.LASF4:
 862 0000 6C6F6E67 		.string	"long long int"
 862      206C6F6E 
 862      6720696E 
 862      7400
 863              	.LASF8:
 864 000e 73686F72 		.string	"short unsigned int"
 864      7420756E 
 864      7369676E 
 864      65642069 
 864      6E7400
 865              	.LASF5:
 866 0021 73697A65 		.string	"size_t"
 866      5F7400
 867              	.LASF15:
 868 0028 6E657874 		.string	"nextmem"
 868      6D656D00 
 869              	.LASF18:
 870 0030 2E2E2F2E 		.string	"../../../os/kernel/src/chmemcore.c"
 870      2E2F2E2E 
 870      2F6F732F 
 870      6B65726E 
 870      656C2F73 
 871              	.LASF17:
 872 0053 474E5520 		.string	"GNU C 4.8.2 -m32 -mtune=generic -march=i686 -ggdb -O2 -fomit-frame-pointer -fstack-protec
 872      4320342E 
 872      382E3220 
 872      2D6D3332 
 872      202D6D74 
 873              	.LASF19:
 874 00b0 2F686F6D 		.string	"/home/tony/ChibiOS-RT/testhal/Posix/EXT"
 874      652F746F 
 874      6E792F43 
 874      68696269 
 874      4F532D52 
 875              	.LASF14:
 876 00d8 62756666 		.string	"buffer"
 876      657200
 877              	.LASF9:
 878 00df 6C6F6E67 		.string	"long long unsigned int"
 878      206C6F6E 
 878      6720756E 
 878      7369676E 
 878      65642069 
 879              	.LASF12:
 880 00f6 73746B61 		.string	"stkalign_t"
 880      6C69676E 
 880      5F7400
 881              	.LASF6:
 882 0101 75696E74 		.string	"uint8_t"
GAS LISTING /tmp/ccvVcRyg.s 			page 19


 882      385F7400 
 883              	.LASF7:
 884 0109 756E7369 		.string	"unsigned char"
 884      676E6564 
 884      20636861 
 884      7200
 885              	.LASF13:
 886 0117 63686172 		.string	"char"
 886      00
 887              	.LASF23:
 888 011c 6368436F 		.string	"chCoreAlloc"
 888      7265416C 
 888      6C6F6300 
 889              	.LASF1:
 890 0128 6C6F6E67 		.string	"long int"
 890      20696E74 
 890      00
 891              	.LASF10:
 892 0131 5F426F6F 		.string	"_Bool"
 892      6C00
 893              	.LASF16:
 894 0137 656E646D 		.string	"endmem"
 894      656D00
 895              	.LASF20:
 896 013e 6368436F 		.string	"chCoreAllocI"
 896      7265416C 
 896      6C6F6349 
 896      00
 897              	.LASF2:
 898 014b 7369676E 		.string	"signed char"
 898      65642063 
 898      68617200 
 899              	.LASF21:
 900 0157 73697A65 		.string	"size"
 900      00
 901              	.LASF22:
 902 015c 5F636F72 		.string	"_core_init"
 902      655F696E 
 902      697400
 903              	.LASF3:
 904 0167 73686F72 		.string	"short int"
 904      7420696E 
 904      7400
 905              	.LASF0:
 906 0171 756E7369 		.string	"unsigned int"
 906      676E6564 
 906      20696E74 
 906      00
 907              	.LASF11:
 908 017e 73697A65 		.string	"sizetype"
 908      74797065 
 908      00
 909              	.LASF24:
 910 0187 6368436F 		.string	"chCoreStatus"
 910      72655374 
 910      61747573 
 910      00
GAS LISTING /tmp/ccvVcRyg.s 			page 20


 911              		.ident	"GCC: (Ubuntu 4.8.2-19ubuntu1) 4.8.2"
 912              		.section	.note.GNU-stack,"",@progbits
GAS LISTING /tmp/ccvVcRyg.s 			page 21


DEFINED SYMBOLS
                            *ABS*:0000000000000000 chmemcore.c
     /tmp/ccvVcRyg.s:61     .text:0000000000000000 _core_init
     /tmp/ccvVcRyg.s:194    .bss:0000000000000000 buffer.1994
     /tmp/ccvVcRyg.s:198    .bss:0000000000020004 nextmem
     /tmp/ccvVcRyg.s:196    .bss:0000000000020000 endmem
     /tmp/ccvVcRyg.s:77     .text:0000000000000020 chCoreAlloc
     /tmp/ccvVcRyg.s:140    .text:0000000000000050 chCoreAllocI
     /tmp/ccvVcRyg.s:181    .text:0000000000000080 chCoreStatus

NO UNDEFINED SYMBOLS
