GAS LISTING /tmp/ccjuMB99.s 			page 1


   1              		.file	"chqueues.c"
   2              	# GNU C (Ubuntu 4.8.2-19ubuntu1) version 4.8.2 (x86_64-linux-gnu)
   3              	#	compiled by GNU C version 4.8.2, GMP version 5.1.3, MPFR version 3.1.2-p3, MPC version 1.0.1
   4              	# GGC heuristics: --param ggc-min-expand=97 --param ggc-min-heapsize=126309
   5              	# options passed:  -I . -I ../../../os/ports/GCC/SIMIA32
   6              	# -I ../../../os/kernel/include -I ../../../test -I ../../../os/hal/include
   7              	# -I ../../../os/hal/platforms/Posix -I ../../../boards/simulator
   8              	# -I ../../../os/various -imultilib 32 -imultiarch i386-linux-gnu
   9              	# -MD ../../../os/kernel/src/chqueues.d -MF .dep/chqueues.o.d -MP
  10              	# -MQ ../../../os/kernel/src/chqueues.o -D SIMULATOR
  11              	# -D SHELL_USE_IPRINTF=FALSE ../../../os/kernel/src/chqueues.c -m32
  12              	# -mtune=generic -march=i686
  13              	# -auxbase-strip ../../../os/kernel/src/chqueues.o -ggdb -O2 -Wall -Wextra
  14              	# -Wstrict-prototypes -fomit-frame-pointer -fverbose-asm -fstack-protector
  15              	# -Wformat -Wformat-security
  16              	# options enabled:  -faggressive-loop-optimizations
  17              	# -fasynchronous-unwind-tables -fauto-inc-dec -fbranch-count-reg
  18              	# -fcaller-saves -fcombine-stack-adjustments -fcommon -fcompare-elim
  19              	# -fcprop-registers -fcrossjumping -fcse-follow-jumps -fdefer-pop
  20              	# -fdelete-null-pointer-checks -fdevirtualize -fdwarf2-cfi-asm
  21              	# -fearly-inlining -feliminate-unused-debug-types -fexpensive-optimizations
  22              	# -fforward-propagate -ffunction-cse -fgcse -fgcse-lm -fgnu-runtime
  23              	# -fguess-branch-probability -fhoist-adjacent-loads -fident -fif-conversion
  24              	# -fif-conversion2 -findirect-inlining -finline -finline-atomics
  25              	# -finline-functions-called-once -finline-small-functions -fipa-cp
  26              	# -fipa-profile -fipa-pure-const -fipa-reference -fipa-sra
  27              	# -fira-hoist-pressure -fira-share-save-slots -fira-share-spill-slots
  28              	# -fivopts -fkeep-static-consts -fleading-underscore -fmath-errno
  29              	# -fmerge-constants -fmerge-debug-strings -fmove-loop-invariants
  30              	# -fomit-frame-pointer -foptimize-register-move -foptimize-sibling-calls
  31              	# -foptimize-strlen -fpartial-inlining -fpcc-struct-return -fpeephole
  32              	# -fpeephole2 -fprefetch-loop-arrays -free -fregmove -freorder-blocks
  33              	# -freorder-functions -frerun-cse-after-loop
  34              	# -fsched-critical-path-heuristic -fsched-dep-count-heuristic
  35              	# -fsched-group-heuristic -fsched-interblock -fsched-last-insn-heuristic
  36              	# -fsched-rank-heuristic -fsched-spec -fsched-spec-insn-heuristic
  37              	# -fsched-stalled-insns-dep -fschedule-insns2 -fshow-column -fshrink-wrap
  38              	# -fsigned-zeros -fsplit-ivs-in-unroller -fsplit-wide-types
  39              	# -fstack-protector -fstrict-aliasing -fstrict-overflow
  40              	# -fstrict-volatile-bitfields -fsync-libcalls -fthread-jumps
  41              	# -ftoplevel-reorder -ftrapping-math -ftree-bit-ccp -ftree-builtin-call-dce
  42              	# -ftree-ccp -ftree-ch -ftree-coalesce-vars -ftree-copy-prop
  43              	# -ftree-copyrename -ftree-cselim -ftree-dce -ftree-dominator-opts
  44              	# -ftree-dse -ftree-forwprop -ftree-fre -ftree-loop-if-convert
  45              	# -ftree-loop-im -ftree-loop-ivcanon -ftree-loop-optimize
  46              	# -ftree-parallelize-loops= -ftree-phiprop -ftree-pre -ftree-pta
  47              	# -ftree-reassoc -ftree-scev-cprop -ftree-sink -ftree-slp-vectorize
  48              	# -ftree-slsr -ftree-sra -ftree-switch-conversion -ftree-tail-merge
  49              	# -ftree-ter -ftree-vect-loop-version -ftree-vrp -funit-at-a-time
  50              	# -funwind-tables -fvar-tracking -fvar-tracking-assignments -fverbose-asm
  51              	# -fzero-initialized-in-bss -m32 -m80387 -m96bit-long-double
  52              	# -maccumulate-outgoing-args -malign-stringops -mfancy-math-387
  53              	# -mfp-ret-in-387 -mglibc -mieee-fp -mlong-double-80 -mno-red-zone
  54              	# -mno-sse4 -mpush-args -msahf -mtls-direct-seg-refs
  55              	
  56              		.text
  57              	.Ltext0:
GAS LISTING /tmp/ccjuMB99.s 			page 2


  58              		.p2align 4,,15
  59              		.type	qwait, @function
  60              	qwait:
  61              	.LFB7:
  62              		.file 1 "../../../os/kernel/src/chqueues.c"
  63              		.loc 1 70 0
  64              		.cfi_startproc
  65              		.loc 1 72 0
  66 0000 85D2     		testl	%edx, %edx	# time
  67 0002 7434     		je	.L3	#,
  68              		.loc 1 70 0
  69 0004 53       		pushl	%ebx	#
  70              		.cfi_def_cfa_offset 8
  71              		.cfi_offset 3, -8
  72 0005 83EC18   		subl	$24, %esp	#,
  73              		.cfi_def_cfa_offset 32
  74              		.loc 1 74 0
  75 0008 8B0D1800 		movl	rlist+24, %ecx	# rlist.r_current, D.2276
  75      0000
  76 000e 894124   		movl	%eax, 36(%ecx)	# qp, _5->p_u.wtobjp
  77              	.LBB12:
  78              	.LBB13:
  79              		.file 2 "../../../os/kernel/include/chinline.h"
  80              		.loc 2 55 0
  81 0011 8B5804   		movl	4(%eax), %ebx	# MEM[(struct ThreadsQueue *)qp_6(D)].p_prev, D.2276
  82              		.loc 2 54 0
  83 0014 8901     		movl	%eax, (%ecx)	# qp, _5->p_next
  84              		.loc 2 55 0
  85 0016 895904   		movl	%ebx, 4(%ecx)	# D.2276, _5->p_prev
  86              		.loc 2 56 0
  87 0019 894804   		movl	%ecx, 4(%eax)	# D.2276, MEM[(struct ThreadsQueue *)qp_6(D)].p_prev
  88 001c 890B     		movl	%ecx, (%ebx)	# D.2276, _12->p_next
  89              	.LBE13:
  90              	.LBE12:
  91              		.loc 1 76 0
  92 001e 89542404 		movl	%edx, 4(%esp)	# time,
  93 0022 C704240D 		movl	$13, (%esp)	#,
  93      000000
  94 0029 E8FCFFFF 		call	chSchGoSleepTimeoutS	#
  94      FF
  95              		.loc 1 77 0
  96 002e 83C418   		addl	$24, %esp	#,
  97              		.cfi_def_cfa_offset 8
  98 0031 5B       		popl	%ebx	#
  99              		.cfi_restore 3
 100              		.cfi_def_cfa_offset 4
 101 0032 C3       		ret
 102              		.p2align 4,,7
 103 0033 908D7426 		.p2align 3
 103      00
 104              	.L3:
 105              		.loc 1 73 0
 106 0038 B8FFFFFF 		movl	$-1, %eax	#, D.2275
 106      FF
 107 003d C3       		ret
 108              		.cfi_endproc
 109              	.LFE7:
GAS LISTING /tmp/ccjuMB99.s 			page 3


 110              		.size	qwait, .-qwait
 111 003e 6690     		.p2align 4,,15
 112              		.globl	chIQInit
 113              		.type	chIQInit, @function
 114              	chIQInit:
 115              	.LFB8:
 116              		.loc 1 96 0
 117              		.cfi_startproc
 118              	.LVL0:
 119              		.loc 1 96 0
 120 0040 8B442404 		movl	4(%esp), %eax	# iqp, iqp
 121 0044 8B542408 		movl	8(%esp), %edx	# bp, bp
 122              		.loc 1 98 0
 123 0048 894004   		movl	%eax, 4(%eax)	# iqp, iqp_1(D)->q_waiting.p_prev
 124              		.loc 1 100 0
 125 004b 895014   		movl	%edx, 20(%eax)	# bp, iqp_1(D)->q_wrptr
 126 004e 895018   		movl	%edx, 24(%eax)	# bp, iqp_1(D)->q_rdptr
 127 0051 89500C   		movl	%edx, 12(%eax)	# bp, iqp_1(D)->q_buffer
 128              		.loc 1 101 0
 129 0054 0354240C 		addl	12(%esp), %edx	# size, tmp66
 130              		.loc 1 98 0
 131 0058 8900     		movl	%eax, (%eax)	# iqp, iqp_1(D)->q_waiting.p_next
 132              		.loc 1 99 0
 133 005a C7400800 		movl	$0, 8(%eax)	#, iqp_1(D)->q_counter
 133      000000
 134              		.loc 1 101 0
 135 0061 895010   		movl	%edx, 16(%eax)	# tmp66, iqp_1(D)->q_top
 136              		.loc 1 102 0
 137 0064 8B542410 		movl	16(%esp), %edx	# infy, infy
 138 0068 89501C   		movl	%edx, 28(%eax)	# infy, iqp_1(D)->q_notify
 139              		.loc 1 103 0
 140 006b 8B542414 		movl	20(%esp), %edx	# link, link
 141 006f 895020   		movl	%edx, 32(%eax)	# link, iqp_1(D)->q_link
 142 0072 C3       		ret
 143              		.cfi_endproc
 144              	.LFE8:
 145              		.size	chIQInit, .-chIQInit
 146 0073 8DB60000 		.p2align 4,,15
 146      00008DBC 
 146      27000000 
 146      00
 147              		.globl	chIQResetI
 148              		.type	chIQResetI, @function
 149              	chIQResetI:
 150              	.LFB9:
 151              		.loc 1 117 0
 152              		.cfi_startproc
 153              	.LVL1:
 154 0080 53       		pushl	%ebx	#
 155              		.cfi_def_cfa_offset 8
 156              		.cfi_offset 3, -8
 157 0081 83EC18   		subl	$24, %esp	#,
 158              		.cfi_def_cfa_offset 32
 159              		.loc 1 117 0
 160 0084 8B5C2420 		movl	32(%esp), %ebx	# iqp, iqp
 161              		.loc 1 121 0
 162 0088 8B430C   		movl	12(%ebx), %eax	# iqp_3(D)->q_buffer, D.2284
GAS LISTING /tmp/ccjuMB99.s 			page 4


 163              		.loc 1 122 0
 164 008b C7430800 		movl	$0, 8(%ebx)	#, iqp_3(D)->q_counter
 164      000000
 165              		.loc 1 121 0
 166 0092 894314   		movl	%eax, 20(%ebx)	# D.2284, iqp_3(D)->q_wrptr
 167 0095 894318   		movl	%eax, 24(%ebx)	# D.2284, iqp_3(D)->q_rdptr
 168              		.loc 1 123 0
 169 0098 8B03     		movl	(%ebx), %eax	# iqp_3(D)->q_waiting.p_next, D.2285
 170 009a 39D8     		cmpl	%ebx, %eax	# iqp, D.2285
 171 009c 741E     		je	.L8	#,
 172 009e 6690     		.p2align 4,,7
 173              		.p2align 3
 174              	.L12:
 175              	.LVL2:
 176              	.LBB14:
 177              	.LBB15:
 178              		.loc 2 62 0
 179 00a0 8B10     		movl	(%eax), %edx	# _22->p_next, D.2285
 180 00a2 8913     		movl	%edx, (%ebx)	# D.2285, MEM[(struct ThreadsQueue *)iqp_3(D)].p_next
 181 00a4 895A04   		movl	%ebx, 4(%edx)	# iqp, _14->p_prev
 182              	.LBE15:
 183              	.LBE14:
 184              		.loc 1 124 0
 185 00a7 890424   		movl	%eax, (%esp)	# D.2285,
 186 00aa E8FCFFFF 		call	chSchReadyI	#
 186      FF
 187              	.LVL3:
 188 00af C74024FE 		movl	$-2, 36(%eax)	#, _12->p_u.rdymsg
 188      FFFFFF
 189              		.loc 1 123 0
 190 00b6 8B03     		movl	(%ebx), %eax	# iqp_3(D)->q_waiting.p_next, D.2285
 191 00b8 39D8     		cmpl	%ebx, %eax	# iqp, D.2285
 192 00ba 75E4     		jne	.L12	#,
 193              	.LVL4:
 194              	.L8:
 195              		.loc 1 125 0
 196 00bc 83C418   		addl	$24, %esp	#,
 197              		.cfi_def_cfa_offset 8
 198 00bf 5B       		popl	%ebx	#
 199              		.cfi_restore 3
 200              		.cfi_def_cfa_offset 4
 201 00c0 C3       		ret
 202              		.cfi_endproc
 203              	.LFE9:
 204              		.size	chIQResetI, .-chIQResetI
 205 00c1 EB0D9090 		.p2align 4,,15
 205      90909090 
 205      90909090 
 205      909090
 206              		.globl	chIQPutI
 207              		.type	chIQPutI, @function
 208              	chIQPutI:
 209              	.LFB10:
 210              		.loc 1 140 0
 211              		.cfi_startproc
 212              	.LVL5:
 213 00d0 53       		pushl	%ebx	#
GAS LISTING /tmp/ccjuMB99.s 			page 5


 214              		.cfi_def_cfa_offset 8
 215              		.cfi_offset 3, -8
 216 00d1 83EC18   		subl	$24, %esp	#,
 217              		.cfi_def_cfa_offset 32
 218              		.loc 1 140 0
 219 00d4 8B542420 		movl	32(%esp), %edx	# iqp, iqp
 220 00d8 8B442424 		movl	36(%esp), %eax	# b, b
 221              		.loc 1 144 0
 222 00dc 8B4A14   		movl	20(%edx), %ecx	# iqp_6(D)->q_wrptr, D.2290
 223 00df 3B4A18   		cmpl	24(%edx), %ecx	# iqp_6(D)->q_rdptr, D.2290
 224 00e2 744C     		je	.L24	#,
 225 00e4 8B5A08   		movl	8(%edx), %ebx	# iqp_6(D)->q_counter, D.2294
 226              	.L17:
 227              		.loc 1 147 0
 228 00e7 83C301   		addl	$1, %ebx	#, tmp79
 229 00ea 895A08   		movl	%ebx, 8(%edx)	# tmp79, iqp_6(D)->q_counter
 230              		.loc 1 148 0
 231 00ed 8D5901   		leal	1(%ecx), %ebx	#, tmp80
 232 00f0 895A14   		movl	%ebx, 20(%edx)	# tmp80, iqp_6(D)->q_wrptr
 233 00f3 8801     		movb	%al, (%ecx)	# b, *_7
 234              		.loc 1 149 0
 235 00f5 8B4210   		movl	16(%edx), %eax	# iqp_6(D)->q_top, tmp82
 236 00f8 394214   		cmpl	%eax, 20(%edx)	# tmp82, iqp_6(D)->q_wrptr
 237 00fb 732B     		jae	.L18	#,
 238              	.L19:
 239              		.loc 1 152 0
 240 00fd 8B0A     		movl	(%edx), %ecx	# iqp_6(D)->q_waiting.p_next, D.2292
 241              		.loc 1 155 0
 242 00ff 31DB     		xorl	%ebx, %ebx	# D.2289
 243              		.loc 1 152 0
 244 0101 39D1     		cmpl	%edx, %ecx	# iqp, D.2292
 245 0103 7416     		je	.L22	#,
 246              	.LVL6:
 247              	.LBB16:
 248              	.LBB17:
 249              		.loc 2 62 0
 250 0105 8B01     		movl	(%ecx), %eax	# _22->p_next, D.2292
 251 0107 8902     		movl	%eax, (%edx)	# D.2292, MEM[(struct ThreadsQueue *)iqp_6(D)].p_next
 252 0109 895004   		movl	%edx, 4(%eax)	# iqp, _28->p_prev
 253              	.LBE17:
 254              	.LBE16:
 255              		.loc 1 153 0
 256 010c 890C24   		movl	%ecx, (%esp)	# D.2292,
 257 010f E8FCFFFF 		call	chSchReadyI	#
 257      FF
 258              	.LVL7:
 259 0114 C7402400 		movl	$0, 36(%eax)	#, _26->p_u.rdymsg
 259      000000
 260              	.LVL8:
 261              	.L22:
 262              		.loc 1 156 0
 263 011b 83C418   		addl	$24, %esp	#,
 264              		.cfi_remember_state
 265              		.cfi_def_cfa_offset 8
 266 011e 89D8     		movl	%ebx, %eax	# D.2289,
 267 0120 5B       		popl	%ebx	#
 268              		.cfi_restore 3
GAS LISTING /tmp/ccjuMB99.s 			page 6


 269              		.cfi_def_cfa_offset 4
 270 0121 C3       		ret
 271              		.p2align 4,,7
 272 0122 8DB60000 		.p2align 3
 272      0000
 273              	.L18:
 274              		.cfi_restore_state
 275              		.loc 1 150 0
 276 0128 8B420C   		movl	12(%edx), %eax	# iqp_6(D)->q_buffer, iqp_6(D)->q_buffer
 277 012b 894214   		movl	%eax, 20(%edx)	# iqp_6(D)->q_buffer, iqp_6(D)->q_wrptr
 278 012e EBCD     		jmp	.L19	#
 279              		.p2align 4,,7
 280              		.p2align 3
 281              	.L24:
 282              		.loc 1 144 0 discriminator 1
 283 0130 837A0800 		cmpl	$0, 8(%edx)	#, iqp_6(D)->q_counter
 284              		.loc 1 145 0 discriminator 1
 285 0134 BBFCFFFF 		movl	$-4, %ebx	#, D.2289
 285      FF
 286              		.loc 1 144 0 discriminator 1
 287 0139 75E0     		jne	.L22	#,
 288 013b 31DB     		xorl	%ebx, %ebx	# D.2294
 289 013d EBA8     		jmp	.L17	#
 290              		.cfi_endproc
 291              	.LFE10:
 292              		.size	chIQPutI, .-chIQPutI
 293 013f 90       		.p2align 4,,15
 294              		.globl	chIQGetTimeout
 295              		.type	chIQGetTimeout, @function
 296              	chIQGetTimeout:
 297              	.LFB11:
 298              		.loc 1 178 0
 299              		.cfi_startproc
 300              	.LVL9:
 301 0140 56       		pushl	%esi	#
 302              		.cfi_def_cfa_offset 8
 303              		.cfi_offset 6, -8
 304 0141 53       		pushl	%ebx	#
 305              		.cfi_def_cfa_offset 12
 306              		.cfi_offset 3, -12
 307 0142 83EC14   		subl	$20, %esp	#,
 308              		.cfi_def_cfa_offset 32
 309              		.loc 1 178 0
 310 0145 8B5C2420 		movl	32(%esp), %ebx	# iqp, iqp
 311 0149 8B742424 		movl	36(%esp), %esi	# time, time
 312              		.loc 1 181 0
 313              	#APP
 314              	# 181 "../../../os/kernel/src/chqueues.c" 1
   1              	/*
   2              	    ChibiOS/RT - Copyright (C) 2006,2007,2008,2009,2010,
   3              	                 2011,2012,2013 Giovanni Di Sirio.
   4              	
   5              	    This file is part of ChibiOS/RT.
   6              	
   7              	    ChibiOS/RT is free software; you can redistribute it and/or modify
   8              	    it under the terms of the GNU General Public License as published by
   9              	    the Free Software Foundation; either version 3 of the License, or
GAS LISTING /tmp/ccjuMB99.s 			page 7


  10              	    (at your option) any later version.
  11              	
  12              	    ChibiOS/RT is distributed in the hope that it will be useful,
  13              	    but WITHOUT ANY WARRANTY; without even the implied warranty of
  14              	    MERCHANTABILITY or FITNESS FOR A PARTICULAR PURPOSE.  See the
  15              	    GNU General Public License for more details.
  16              	
  17              	    You should have received a copy of the GNU General Public License
  18              	    along with this program.  If not, see <http://www.gnu.org/licenses/>.
  19              	
  20              	                                      ---
  21              	
  22              	    A special exception to the GPL can be applied should you wish to distribute
  23              	    a combined work that includes ChibiOS/RT, without being obliged to provide
  24              	    the source code for any proprietary components. See the file exception.txt
  25              	    for full details of how and when the exception can be applied.
  26              	*/
  27              	
  28              	/**
  29              	 * @file    chqueues.c
  30              	 * @brief   I/O Queues code.
  31              	 *
  32              	 * @addtogroup io_queues
  33              	 * @details ChibiOS/RT queues are mostly used in serial-like device drivers.
  34              	 *          The device drivers are usually designed to have a lower side
  35              	 *          (lower driver, it is usually an interrupt service routine) and an
  36              	 *          upper side (upper driver, accessed by the application threads).<br>
  37              	 *          There are several kind of queues:<br>
  38              	 *          - <b>Input queue</b>, unidirectional queue where the writer is the
  39              	 *            lower side and the reader is the upper side.
  40              	 *          - <b>Output queue</b>, unidirectional queue where the writer is the
  41              	 *            upper side and the reader is the lower side.
  42              	 *          - <b>Full duplex queue</b>, bidirectional queue. Full duplex queues
  43              	 *            are implemented by pairing an input queue and an output queue
  44              	 *            together.
  45              	 *          .
  46              	 * @pre     In order to use the I/O queues the @p CH_USE_QUEUES option must
  47              	 *          be enabled in @p chconf.h.
  48              	 * @{
  49              	 */
  50              	
  51              	#include "ch.h"
  52              	
  53              	#if CH_USE_QUEUES || defined(__DOXYGEN__)
  54              	
  55              	/**
  56              	 * @brief   Puts the invoking thread into the queue's threads queue.
  57              	 *
  58              	 * @param[out] qp       pointer to an @p GenericQueue structure
  59              	 * @param[in] time      the number of ticks before the operation timeouts,
  60              	 *                      the following special values are allowed:
  61              	 *                      - @a TIME_IMMEDIATE immediate timeout.
  62              	 *                      - @a TIME_INFINITE no timeout.
  63              	 *                      .
  64              	 * @return              A message specifying how the invoking thread has been
  65              	 *                      released from threads queue.
  66              	 * @retval Q_OK         is the normal exit, thread signaled.
GAS LISTING /tmp/ccjuMB99.s 			page 8


  67              	 * @retval Q_RESET      if the queue has been reset.
  68              	 * @retval Q_TIMEOUT    if the queue operation timed out.
  69              	 */
  70              	static msg_t qwait(GenericQueue *qp, systime_t time) {
  71              	
  72              	  if (TIME_IMMEDIATE == time)
  73              	    return Q_TIMEOUT;
  74              	  currp->p_u.wtobjp = qp;
  75              	  queue_insert(currp, &qp->q_waiting);
  76              	  return chSchGoSleepTimeoutS(THD_STATE_WTQUEUE, time);
  77              	}
  78              	
  79              	/**
  80              	 * @brief   Initializes an input queue.
  81              	 * @details A Semaphore is internally initialized and works as a counter of
  82              	 *          the bytes contained in the queue.
  83              	 * @note    The callback is invoked from within the S-Locked system state,
  84              	 *          see @ref system_states.
  85              	 *
  86              	 * @param[out] iqp      pointer to an @p InputQueue structure
  87              	 * @param[in] bp        pointer to a memory area allocated as queue buffer
  88              	 * @param[in] size      size of the queue buffer
  89              	 * @param[in] infy      pointer to a callback function that is invoked when
  90              	 *                      data is read from the queue. The value can be @p NULL.
  91              	 * @param[in] link      application defined pointer
  92              	 *
  93              	 * @init
  94              	 */
  95              	void chIQInit(InputQueue *iqp, uint8_t *bp, size_t size, qnotify_t infy,
  96              	              void *link) {
  97              	
  98              	  queue_init(&iqp->q_waiting);
  99              	  iqp->q_counter = 0;
 100              	  iqp->q_buffer = iqp->q_rdptr = iqp->q_wrptr = bp;
 101              	  iqp->q_top = bp + size;
 102              	  iqp->q_notify = infy;
 103              	  iqp->q_link = link;
 104              	}
 105              	
 106              	/**
 107              	 * @brief   Resets an input queue.
 108              	 * @details All the data in the input queue is erased and lost, any waiting
 109              	 *          thread is resumed with status @p Q_RESET.
 110              	 * @note    A reset operation can be used by a low level driver in order to
 111              	 *          obtain immediate attention from the high level layers.
 112              	 *
 113              	 * @param[in] iqp       pointer to an @p InputQueue structure
 114              	 *
 115              	 * @iclass
 116              	 */
 117              	void chIQResetI(InputQueue *iqp) {
 118              	
 119              	  chDbgCheckClassI();
 120              	
 121              	  iqp->q_rdptr = iqp->q_wrptr = iqp->q_buffer;
 122              	  iqp->q_counter = 0;
 123              	  while (notempty(&iqp->q_waiting))
GAS LISTING /tmp/ccjuMB99.s 			page 9


 124              	    chSchReadyI(fifo_remove(&iqp->q_waiting))->p_u.rdymsg = Q_RESET;
 125              	}
 126              	
 127              	/**
 128              	 * @brief   Input queue write.
 129              	 * @details A byte value is written into the low end of an input queue.
 130              	 *
 131              	 * @param[in] iqp       pointer to an @p InputQueue structure
 132              	 * @param[in] b         the byte value to be written in the queue
 133              	 * @return              The operation status.
 134              	 * @retval Q_OK         if the operation has been completed with success.
 135              	 * @retval Q_FULL       if the queue is full and the operation cannot be
 136              	 *                      completed.
 137              	 *
 138              	 * @iclass
 139              	 */
 140              	msg_t chIQPutI(InputQueue *iqp, uint8_t b) {
 141              	
 142              	  chDbgCheckClassI();
 143              	
 144              	  if (chIQIsFullI(iqp))
 145              	    return Q_FULL;
 146              	
 147              	  iqp->q_counter++;
 148              	  *iqp->q_wrptr++ = b;
 149              	  if (iqp->q_wrptr >= iqp->q_top)
 150              	    iqp->q_wrptr = iqp->q_buffer;
 151              	
 152              	  if (notempty(&iqp->q_waiting))
 153              	    chSchReadyI(fifo_remove(&iqp->q_waiting))->p_u.rdymsg = Q_OK;
 154              	
 155              	  return Q_OK;
 156              	}
 157              	
 158              	/**
 159              	 * @brief   Input queue read with timeout.
 160              	 * @details This function reads a byte value from an input queue. If the queue
 161              	 *          is empty then the calling thread is suspended until a byte arrives
 162              	 *          in the queue or a timeout occurs.
 163              	 * @note    The callback is invoked before reading the character from the
 164              	 *          buffer or before entering the state @p THD_STATE_WTQUEUE.
 165              	 *
 166              	 * @param[in] iqp       pointer to an @p InputQueue structure
 167              	 * @param[in] time      the number of ticks before the operation timeouts,
 168              	 *                      the following special values are allowed:
 169              	 *                      - @a TIME_IMMEDIATE immediate timeout.
 170              	 *                      - @a TIME_INFINITE no timeout.
 171              	 *                      .
 172              	 * @return              A byte value from the queue.
 173              	 * @retval Q_TIMEOUT    if the specified time expired.
 174              	 * @retval Q_RESET      if the queue has been reset.
 175              	 *
 176              	 * @api
 177              	 */
 178              	msg_t chIQGetTimeout(InputQueue *iqp, systime_t time) {
 179              	  uint8_t b;
 180              	
GAS LISTING /tmp/ccjuMB99.s 			page 10


 181 014d 90       	  chSysLock();
 182              	  if (iqp->q_notify)
 315              		nop
 316              	# 0 "" 2
 317              		.loc 1 182 0
 318              	#NO_APP
 319 014e 8B431C   		movl	28(%ebx), %eax	# iqp_6(D)->q_notify, D.2299
 320 0151 85C0     		testl	%eax, %eax	# D.2299
 321 0153 7418     		je	.L28	#,
 322              		.loc 1 183 0
 323 0155 891C24   		movl	%ebx, (%esp)	# iqp,
 324 0158 FFD0     		call	*%eax	# D.2299
 325              	.LVL10:
 326 015a EB11     		jmp	.L28	#
 327 015c 8D742600 		.p2align 4,,7
 328              		.p2align 3
 329              	.L30:
 330              	.LBB18:
 331              		.loc 1 187 0
 332 0160 89F2     		movl	%esi, %edx	# time,
 333 0162 89D8     		movl	%ebx, %eax	# iqp,
 334 0164 E897FEFF 		call	qwait	#
 334      FF
 335              	.LVL11:
 336 0169 85C0     		testl	%eax, %eax	# msg
 337              		.p2align 4,,2
 338 016b 7824     		js	.L31	#,
 339              	.LVL12:
 340              	.L28:
 341              	.LBE18:
 342              		.loc 1 185 0 discriminator 1
 343 016d 8B4308   		movl	8(%ebx), %eax	# iqp_6(D)->q_counter, D.2300
 344 0170 85C0     		testl	%eax, %eax	# D.2300
 345 0172 74EC     		je	.L30	#,
 346              		.loc 1 193 0
 347 0174 83E801   		subl	$1, %eax	#, tmp72
 348 0177 894308   		movl	%eax, 8(%ebx)	# tmp72, iqp_6(D)->q_counter
 349              		.loc 1 194 0
 350 017a 8B4318   		movl	24(%ebx), %eax	# iqp_6(D)->q_rdptr, D.2301
 351 017d 8D5001   		leal	1(%eax), %edx	#, D.2301
 352              		.loc 1 195 0
 353 0180 3B5310   		cmpl	16(%ebx), %edx	# iqp_6(D)->q_top, D.2301
 354              		.loc 1 194 0
 355 0183 895318   		movl	%edx, 24(%ebx)	# D.2301, iqp_6(D)->q_rdptr
 356 0186 0FB600   		movzbl	(%eax), %eax	# *_16,
 357              	.LVL13:
 358              		.loc 1 195 0
 359 0189 7206     		jb	.L31	#,
 360              		.loc 1 196 0
 361 018b 8B530C   		movl	12(%ebx), %edx	# iqp_6(D)->q_buffer, iqp_6(D)->q_buffer
 362 018e 895318   		movl	%edx, 24(%ebx)	# iqp_6(D)->q_buffer, iqp_6(D)->q_rdptr
 363              	.LVL14:
 364              	.L31:
 365              		.loc 1 198 0
 366              	#APP
 367              	# 198 "../../../os/kernel/src/chqueues.c" 1
 183              	    iqp->q_notify(iqp);
GAS LISTING /tmp/ccjuMB99.s 			page 11


 184              	
 185              	  while (chIQIsEmptyI(iqp)) {
 186              	    msg_t msg;
 187              	    if ((msg = qwait((GenericQueue *)iqp, time)) < Q_OK) {
 188              	      chSysUnlock();
 189              	      return msg;
 190              	    }
 191              	  }
 192              	
 193              	  iqp->q_counter--;
 194              	  b = *iqp->q_rdptr++;
 195              	  if (iqp->q_rdptr >= iqp->q_top)
 196              	    iqp->q_rdptr = iqp->q_buffer;
 197              	
 198 0191 90       	  chSysUnlock();
 199              	  return b;
 368              		nop
 369              	# 0 "" 2
 370              		.loc 1 200 0
 371              	#NO_APP
 372 0192 83C414   		addl	$20, %esp	#,
 373              		.cfi_def_cfa_offset 12
 374 0195 5B       		popl	%ebx	#
 375              		.cfi_restore 3
 376              		.cfi_def_cfa_offset 8
 377 0196 5E       		popl	%esi	#
 378              		.cfi_restore 6
 379              		.cfi_def_cfa_offset 4
 380 0197 C3       		ret
 381              		.cfi_endproc
 382              	.LFE11:
 383              		.size	chIQGetTimeout, .-chIQGetTimeout
 384 0198 908DB426 		.p2align 4,,15
 384      00000000 
 385              		.globl	chIQReadTimeout
 386              		.type	chIQReadTimeout, @function
 387              	chIQReadTimeout:
 388              	.LFB12:
 389              		.loc 1 227 0
 390              		.cfi_startproc
 391              	.LVL15:
 392 01a0 55       		pushl	%ebp	#
 393              		.cfi_def_cfa_offset 8
 394              		.cfi_offset 5, -8
 395 01a1 57       		pushl	%edi	#
 396              		.cfi_def_cfa_offset 12
 397              		.cfi_offset 7, -12
 398 01a2 56       		pushl	%esi	#
 399              		.cfi_def_cfa_offset 16
 400              		.cfi_offset 6, -16
 401 01a3 53       		pushl	%ebx	#
 402              		.cfi_def_cfa_offset 20
 403              		.cfi_offset 3, -20
 404 01a4 83EC1C   		subl	$28, %esp	#,
 405              		.cfi_def_cfa_offset 48
 406              		.loc 1 227 0
 407 01a7 8B6C2430 		movl	48(%esp), %ebp	# iqp, iqp
GAS LISTING /tmp/ccjuMB99.s 			page 12


 408 01ab 8B5C243C 		movl	60(%esp), %ebx	# time, time
 409              		.loc 1 228 0
 410 01af 8B7D1C   		movl	28(%ebp), %edi	# iqp_10(D)->q_notify, nfy
 411              	.LVL16:
 412              		.loc 1 233 0
 413              	#APP
 414              	# 233 "../../../os/kernel/src/chqueues.c" 1
 200              	}
 201              	
 202              	/**
 203              	 * @brief   Input queue read with timeout.
 204              	 * @details The function reads data from an input queue into a buffer. The
 205              	 *          operation completes when the specified amount of data has been
 206              	 *          transferred or after the specified timeout or if the queue has
 207              	 *          been reset.
 208              	 * @note    The function is not atomic, if you need atomicity it is suggested
 209              	 *          to use a semaphore or a mutex for mutual exclusion.
 210              	 * @note    The callback is invoked before reading each character from the
 211              	 *          buffer or before entering the state @p THD_STATE_WTQUEUE.
 212              	 *
 213              	 * @param[in] iqp       pointer to an @p InputQueue structure
 214              	 * @param[out] bp       pointer to the data buffer
 215              	 * @param[in] n         the maximum amount of data to be transferred, the
 216              	 *                      value 0 is reserved
 217              	 * @param[in] time      the number of ticks before the operation timeouts,
 218              	 *                      the following special values are allowed:
 219              	 *                      - @a TIME_IMMEDIATE immediate timeout.
 220              	 *                      - @a TIME_INFINITE no timeout.
 221              	 *                      .
 222              	 * @return              The number of bytes effectively transferred.
 223              	 *
 224              	 * @api
 225              	 */
 226              	size_t chIQReadTimeout(InputQueue *iqp, uint8_t *bp,
 227              	                       size_t n, systime_t time) {
 228              	  qnotify_t nfy = iqp->q_notify;
 229              	  size_t r = 0;
 230              	
 231              	  chDbgCheck(n > 0, "chIQReadTimeout");
 232              	
 233 01b2 90       	  chSysLock();
 234              	  while (TRUE) {
 415              		nop
 416              	# 0 "" 2
 417              		.loc 1 229 0
 418              	#NO_APP
 419 01b3 31F6     		xorl	%esi, %esi	# r
 420              	.LVL17:
 421              	.L43:
 422              		.loc 1 235 0
 423 01b5 85FF     		testl	%edi, %edi	# nfy
 424 01b7 7414     		je	.L39	#,
 425              		.loc 1 236 0
 426 01b9 892C24   		movl	%ebp, (%esp)	# iqp,
 427 01bc FFD7     		call	*%edi	# nfy
 428              	.LVL18:
 429 01be EB0D     		jmp	.L39	#
GAS LISTING /tmp/ccjuMB99.s 			page 13


 430              		.p2align 4,,7
 431              		.p2align 3
 432              	.L41:
 433              		.loc 1 239 0
 434 01c0 89DA     		movl	%ebx, %edx	# time,
 435 01c2 89E8     		movl	%ebp, %eax	# iqp,
 436 01c4 E837FEFF 		call	qwait	#
 436      FF
 437              	.LVL19:
 438 01c9 85C0     		testl	%eax, %eax	# D.2320
 439              		.p2align 4,,2
 440 01cb 753B     		jne	.L48	#,
 441              	.L39:
 442              		.loc 1 238 0 discriminator 1
 443 01cd 8B4508   		movl	8(%ebp), %eax	# iqp_10(D)->q_counter, D.2319
 444 01d0 85C0     		testl	%eax, %eax	# D.2319
 445 01d2 74EC     		je	.L41	#,
 446              		.loc 1 245 0
 447 01d4 83E801   		subl	$1, %eax	#, tmp75
 448              		.loc 1 246 0
 449 01d7 8B4C2434 		movl	52(%esp), %ecx	# bp, tmp80
 450              		.loc 1 245 0
 451 01db 894508   		movl	%eax, 8(%ebp)	# tmp75, iqp_10(D)->q_counter
 452              	.LVL20:
 453              		.loc 1 246 0
 454 01de 8B4518   		movl	24(%ebp), %eax	# iqp_10(D)->q_rdptr, D.2321
 455 01e1 8D5001   		leal	1(%eax), %edx	#, tmp76
 456 01e4 895518   		movl	%edx, 24(%ebp)	# tmp76, iqp_10(D)->q_rdptr
 457 01e7 0FB600   		movzbl	(%eax), %eax	# *_23, D.2322
 458 01ea 880431   		movb	%al, (%ecx,%esi)	# D.2322, MEM[base: bp_12(D), index: r_3, offset: 0B]
 459              		.loc 1 247 0
 460 01ed 8B4510   		movl	16(%ebp), %eax	# iqp_10(D)->q_top, tmp81
 461 01f0 394518   		cmpl	%eax, 24(%ebp)	# tmp81, iqp_10(D)->q_rdptr
 462 01f3 7206     		jb	.L42	#,
 463              		.loc 1 248 0
 464 01f5 8B450C   		movl	12(%ebp), %eax	# iqp_10(D)->q_buffer, iqp_10(D)->q_buffer
 465 01f8 894518   		movl	%eax, 24(%ebp)	# iqp_10(D)->q_buffer, iqp_10(D)->q_rdptr
 466              	.L42:
 467              		.loc 1 250 0
 468              	#APP
 469              	# 250 "../../../os/kernel/src/chqueues.c" 1
 235              	    if (nfy)
 236              	      nfy(iqp);
 237              	
 238              	    while (chIQIsEmptyI(iqp)) {
 239              	      if (qwait((GenericQueue *)iqp, time) != Q_OK) {
 240              	        chSysUnlock();
 241              	        return r;
 242              	      }
 243              	    }
 244              	
 245              	    iqp->q_counter--;
 246              	    *bp++ = *iqp->q_rdptr++;
 247              	    if (iqp->q_rdptr >= iqp->q_top)
 248              	      iqp->q_rdptr = iqp->q_buffer;
 249              	
 250 01fb 90       	    chSysUnlock(); /* Gives a preemption chance in a controlled point.*/
GAS LISTING /tmp/ccjuMB99.s 			page 14


 251              	    r++;
 470              		nop
 471              	# 0 "" 2
 472              		.loc 1 251 0
 473              	#NO_APP
 474 01fc 83C601   		addl	$1, %esi	#, r
 475              	.LVL21:
 476              		.loc 1 252 0
 477 01ff 39742438 		cmpl	%esi, 56(%esp)	# r, n
 478 0203 7404     		je	.L40	#,
 479              		.loc 1 255 0
 480              	#APP
 481              	# 255 "../../../os/kernel/src/chqueues.c" 1
 252              	    if (--n == 0)
 253              	      return r;
 254              	
 255 0205 90       	    chSysLock();
 256              	  }
 482              		nop
 483              	# 0 "" 2
 484              		.loc 1 256 0
 485              	#NO_APP
 486 0206 EBAD     		jmp	.L43	#
 487              	.LVL22:
 488              		.p2align 4,,7
 489              		.p2align 3
 490              	.L48:
 491              		.loc 1 240 0
 492              	#APP
 493              	# 240 "../../../os/kernel/src/chqueues.c" 1
 494              		nop
 495              	# 0 "" 2
 496              	.LVL23:
 497              	#NO_APP
 498              	.L40:
 499              		.loc 1 257 0
 500 0209 83C41C   		addl	$28, %esp	#,
 501              		.cfi_def_cfa_offset 20
 502 020c 89F0     		movl	%esi, %eax	# r,
 503 020e 5B       		popl	%ebx	#
 504              		.cfi_restore 3
 505              		.cfi_def_cfa_offset 16
 506 020f 5E       		popl	%esi	#
 507              		.cfi_restore 6
 508              		.cfi_def_cfa_offset 12
 509              	.LVL24:
 510 0210 5F       		popl	%edi	#
 511              		.cfi_restore 7
 512              		.cfi_def_cfa_offset 8
 513              	.LVL25:
 514 0211 5D       		popl	%ebp	#
 515              		.cfi_restore 5
 516              		.cfi_def_cfa_offset 4
 517 0212 C3       		ret
 518              		.cfi_endproc
 519              	.LFE12:
 520              		.size	chIQReadTimeout, .-chIQReadTimeout
GAS LISTING /tmp/ccjuMB99.s 			page 15


 521 0213 8DB60000 		.p2align 4,,15
 521      00008DBC 
 521      27000000 
 521      00
 522              		.globl	chOQInit
 523              		.type	chOQInit, @function
 524              	chOQInit:
 525              	.LFB13:
 526              		.loc 1 276 0
 527              		.cfi_startproc
 528              	.LVL26:
 529              		.loc 1 276 0
 530 0220 8B442404 		movl	4(%esp), %eax	# oqp, oqp
 531 0224 8B542408 		movl	8(%esp), %edx	# bp, bp
 532 0228 8B4C240C 		movl	12(%esp), %ecx	# size, size
 533              		.loc 1 278 0
 534 022c 894004   		movl	%eax, 4(%eax)	# oqp, oqp_1(D)->q_waiting.p_prev
 535              		.loc 1 280 0
 536 022f 895014   		movl	%edx, 20(%eax)	# bp, oqp_1(D)->q_wrptr
 537 0232 895018   		movl	%edx, 24(%eax)	# bp, oqp_1(D)->q_rdptr
 538 0235 89500C   		movl	%edx, 12(%eax)	# bp, oqp_1(D)->q_buffer
 539              		.loc 1 281 0
 540 0238 01CA     		addl	%ecx, %edx	# size, tmp66
 541 023a 895010   		movl	%edx, 16(%eax)	# tmp66, oqp_1(D)->q_top
 542              		.loc 1 282 0
 543 023d 8B542410 		movl	16(%esp), %edx	# onfy, onfy
 544              		.loc 1 278 0
 545 0241 8900     		movl	%eax, (%eax)	# oqp, oqp_1(D)->q_waiting.p_next
 546              		.loc 1 279 0
 547 0243 894808   		movl	%ecx, 8(%eax)	# size, oqp_1(D)->q_counter
 548              		.loc 1 282 0
 549 0246 89501C   		movl	%edx, 28(%eax)	# onfy, oqp_1(D)->q_notify
 550              		.loc 1 283 0
 551 0249 8B542414 		movl	20(%esp), %edx	# link, link
 552 024d 895020   		movl	%edx, 32(%eax)	# link, oqp_1(D)->q_link
 553 0250 C3       		ret
 554              		.cfi_endproc
 555              	.LFE13:
 556              		.size	chOQInit, .-chOQInit
 557 0251 EB0D9090 		.p2align 4,,15
 557      90909090 
 557      90909090 
 557      909090
 558              		.globl	chOQResetI
 559              		.type	chOQResetI, @function
 560              	chOQResetI:
 561              	.LFB14:
 562              		.loc 1 297 0
 563              		.cfi_startproc
 564              	.LVL27:
 565 0260 53       		pushl	%ebx	#
 566              		.cfi_def_cfa_offset 8
 567              		.cfi_offset 3, -8
 568 0261 83EC18   		subl	$24, %esp	#,
 569              		.cfi_def_cfa_offset 32
 570              		.loc 1 297 0
 571 0264 8B5C2420 		movl	32(%esp), %ebx	# oqp, oqp
GAS LISTING /tmp/ccjuMB99.s 			page 16


 572              		.loc 1 301 0
 573 0268 8B530C   		movl	12(%ebx), %edx	# oqp_3(D)->q_buffer, D.2329
 574              		.loc 1 302 0
 575 026b 8B4310   		movl	16(%ebx), %eax	# oqp_3(D)->q_top, D.2330
 576              		.loc 1 301 0
 577 026e 895314   		movl	%edx, 20(%ebx)	# D.2329, oqp_3(D)->q_wrptr
 578              		.loc 1 302 0
 579 0271 29D0     		subl	%edx, %eax	# D.2329, D.2330
 580 0273 894308   		movl	%eax, 8(%ebx)	# D.2330, oqp_3(D)->q_counter
 581              		.loc 1 303 0
 582 0276 8B03     		movl	(%ebx), %eax	# oqp_3(D)->q_waiting.p_next, D.2332
 583              		.loc 1 301 0
 584 0278 895318   		movl	%edx, 24(%ebx)	# D.2329, oqp_3(D)->q_rdptr
 585              		.loc 1 303 0
 586 027b 39D8     		cmpl	%ebx, %eax	# oqp, D.2332
 587 027d 741D     		je	.L50	#,
 588 027f 90       		.p2align 4,,7
 589              		.p2align 3
 590              	.L54:
 591              	.LVL28:
 592              	.LBB19:
 593              	.LBB20:
 594              		.loc 2 62 0
 595 0280 8B10     		movl	(%eax), %edx	# _27->p_next, D.2332
 596 0282 8913     		movl	%edx, (%ebx)	# D.2332, MEM[(struct ThreadsQueue *)oqp_3(D)].p_next
 597 0284 895A04   		movl	%ebx, 4(%edx)	# oqp, _19->p_prev
 598              	.LBE20:
 599              	.LBE19:
 600              		.loc 1 304 0
 601 0287 890424   		movl	%eax, (%esp)	# D.2332,
 602 028a E8FCFFFF 		call	chSchReadyI	#
 602      FF
 603              	.LVL29:
 604 028f C74024FE 		movl	$-2, 36(%eax)	#, _17->p_u.rdymsg
 604      FFFFFF
 605              		.loc 1 303 0
 606 0296 8B03     		movl	(%ebx), %eax	# oqp_3(D)->q_waiting.p_next, D.2332
 607 0298 39D8     		cmpl	%ebx, %eax	# oqp, D.2332
 608 029a 75E4     		jne	.L54	#,
 609              	.LVL30:
 610              	.L50:
 611              		.loc 1 305 0
 612 029c 83C418   		addl	$24, %esp	#,
 613              		.cfi_def_cfa_offset 8
 614 029f 5B       		popl	%ebx	#
 615              		.cfi_restore 3
 616              		.cfi_def_cfa_offset 4
 617 02a0 C3       		ret
 618              		.cfi_endproc
 619              	.LFE14:
 620              		.size	chOQResetI, .-chOQResetI
 621 02a1 EB0D9090 		.p2align 4,,15
 621      90909090 
 621      90909090 
 621      909090
 622              		.globl	chOQPutTimeout
 623              		.type	chOQPutTimeout, @function
GAS LISTING /tmp/ccjuMB99.s 			page 17


 624              	chOQPutTimeout:
 625              	.LFB15:
 626              		.loc 1 329 0
 627              		.cfi_startproc
 628              	.LVL31:
 629 02b0 57       		pushl	%edi	#
 630              		.cfi_def_cfa_offset 8
 631              		.cfi_offset 7, -8
 632 02b1 56       		pushl	%esi	#
 633              		.cfi_def_cfa_offset 12
 634              		.cfi_offset 6, -12
 635 02b2 53       		pushl	%ebx	#
 636              		.cfi_def_cfa_offset 16
 637              		.cfi_offset 3, -16
 638 02b3 83EC10   		subl	$16, %esp	#,
 639              		.cfi_def_cfa_offset 32
 640              		.loc 1 329 0
 641 02b6 8B5C2420 		movl	32(%esp), %ebx	# oqp, oqp
 642 02ba 8B7C2424 		movl	36(%esp), %edi	# b, b
 643 02be 8B742428 		movl	40(%esp), %esi	# time, time
 644              		.loc 1 331 0
 645              	#APP
 646              	# 331 "../../../os/kernel/src/chqueues.c" 1
 257              	}
 258              	
 259              	/**
 260              	 * @brief   Initializes an output queue.
 261              	 * @details A Semaphore is internally initialized and works as a counter of
 262              	 *          the free bytes in the queue.
 263              	 * @note    The callback is invoked from within the S-Locked system state,
 264              	 *          see @ref system_states.
 265              	 *
 266              	 * @param[out] oqp      pointer to an @p OutputQueue structure
 267              	 * @param[in] bp        pointer to a memory area allocated as queue buffer
 268              	 * @param[in] size      size of the queue buffer
 269              	 * @param[in] onfy      pointer to a callback function that is invoked when
 270              	 *                      data is written to the queue. The value can be @p NULL.
 271              	 * @param[in] link      application defined pointer
 272              	 *
 273              	 * @init
 274              	 */
 275              	void chOQInit(OutputQueue *oqp, uint8_t *bp, size_t size, qnotify_t onfy,
 276              	              void *link) {
 277              	
 278              	  queue_init(&oqp->q_waiting);
 279              	  oqp->q_counter = size;
 280              	  oqp->q_buffer = oqp->q_rdptr = oqp->q_wrptr = bp;
 281              	  oqp->q_top = bp + size;
 282              	  oqp->q_notify = onfy;
 283              	  oqp->q_link = link;
 284              	}
 285              	
 286              	/**
 287              	 * @brief   Resets an output queue.
 288              	 * @details All the data in the output queue is erased and lost, any waiting
 289              	 *          thread is resumed with status @p Q_RESET.
 290              	 * @note    A reset operation can be used by a low level driver in order to
GAS LISTING /tmp/ccjuMB99.s 			page 18


 291              	 *          obtain immediate attention from the high level layers.
 292              	 *
 293              	 * @param[in] oqp       pointer to an @p OutputQueue structure
 294              	 *
 295              	 * @iclass
 296              	 */
 297              	void chOQResetI(OutputQueue *oqp) {
 298              	
 299              	  chDbgCheckClassI();
 300              	
 301              	  oqp->q_rdptr = oqp->q_wrptr = oqp->q_buffer;
 302              	  oqp->q_counter = chQSizeI(oqp);
 303              	  while (notempty(&oqp->q_waiting))
 304              	    chSchReadyI(fifo_remove(&oqp->q_waiting))->p_u.rdymsg = Q_RESET;
 305              	}
 306              	
 307              	/**
 308              	 * @brief   Output queue write with timeout.
 309              	 * @details This function writes a byte value to an output queue. If the queue
 310              	 *          is full then the calling thread is suspended until there is space
 311              	 *          in the queue or a timeout occurs.
 312              	 * @note    The callback is invoked after writing the character into the
 313              	 *          buffer.
 314              	 *
 315              	 * @param[in] oqp       pointer to an @p OutputQueue structure
 316              	 * @param[in] b         the byte value to be written in the queue
 317              	 * @param[in] time      the number of ticks before the operation timeouts,
 318              	 *                      the following special values are allowed:
 319              	 *                      - @a TIME_IMMEDIATE immediate timeout.
 320              	 *                      - @a TIME_INFINITE no timeout.
 321              	 *                      .
 322              	 * @return              The operation status.
 323              	 * @retval Q_OK         if the operation succeeded.
 324              	 * @retval Q_TIMEOUT    if the specified time expired.
 325              	 * @retval Q_RESET      if the queue has been reset.
 326              	 *
 327              	 * @api
 328              	 */
 329              	msg_t chOQPutTimeout(OutputQueue *oqp, uint8_t b, systime_t time) {
 330              	
 331 02c2 90       	  chSysLock();
 332              	  while (chOQIsFullI(oqp)) {
 647              		nop
 648              	# 0 "" 2
 649              		.loc 1 332 0
 650              	#NO_APP
 651 02c3 EB10     		jmp	.L57	#
 652              		.p2align 4,,7
 653 02c5 8D7600   		.p2align 3
 654              	.L60:
 655              	.LBB21:
 656              		.loc 1 335 0
 657 02c8 89F2     		movl	%esi, %edx	# time,
 658 02ca 89D8     		movl	%ebx, %eax	# oqp,
 659 02cc E82FFDFF 		call	qwait	#
 659      FF
 660              	.LVL32:
GAS LISTING /tmp/ccjuMB99.s 			page 19


 661 02d1 85C0     		testl	%eax, %eax	# msg
 662 02d3 7843     		js	.L67	#,
 663              	.LVL33:
 664              	.L57:
 665              	.LBE21:
 666              		.loc 1 332 0 discriminator 1
 667 02d5 8B4308   		movl	8(%ebx), %eax	# oqp_7(D)->q_counter, D.2337
 668 02d8 85C0     		testl	%eax, %eax	# D.2337
 669 02da 74EC     		je	.L60	#,
 670              		.loc 1 341 0
 671 02dc 83E801   		subl	$1, %eax	#, tmp74
 672              		.loc 1 342 0
 673 02df 89F9     		movl	%edi, %ecx	# b, tmp79
 674              		.loc 1 341 0
 675 02e1 894308   		movl	%eax, 8(%ebx)	# tmp74, oqp_7(D)->q_counter
 676              		.loc 1 342 0
 677 02e4 8B4314   		movl	20(%ebx), %eax	# oqp_7(D)->q_wrptr, D.2338
 678 02e7 8D5001   		leal	1(%eax), %edx	#, tmp75
 679 02ea 895314   		movl	%edx, 20(%ebx)	# tmp75, oqp_7(D)->q_wrptr
 680 02ed 8808     		movb	%cl, (%eax)	# tmp79, *_14
 681              		.loc 1 343 0
 682 02ef 8B4310   		movl	16(%ebx), %eax	# oqp_7(D)->q_top, tmp80
 683 02f2 394314   		cmpl	%eax, 20(%ebx)	# tmp80, oqp_7(D)->q_wrptr
 684 02f5 7206     		jb	.L61	#,
 685              		.loc 1 344 0
 686 02f7 8B430C   		movl	12(%ebx), %eax	# oqp_7(D)->q_buffer, oqp_7(D)->q_buffer
 687 02fa 894314   		movl	%eax, 20(%ebx)	# oqp_7(D)->q_buffer, oqp_7(D)->q_wrptr
 688              	.L61:
 689              		.loc 1 346 0
 690 02fd 8B431C   		movl	28(%ebx), %eax	# oqp_7(D)->q_notify, D.2339
 691 0300 85C0     		testl	%eax, %eax	# D.2339
 692 0302 7405     		je	.L62	#,
 693              		.loc 1 347 0
 694 0304 891C24   		movl	%ebx, (%esp)	# oqp,
 695 0307 FFD0     		call	*%eax	# D.2339
 696              	.LVL34:
 697              	.L62:
 698              		.loc 1 349 0
 699              	#APP
 700              	# 349 "../../../os/kernel/src/chqueues.c" 1
 333              	    msg_t msg;
 334              	
 335              	    if ((msg = qwait((GenericQueue *)oqp, time)) < Q_OK) {
 336              	      chSysUnlock();
 337              	      return msg;
 338              	    }
 339              	  }
 340              	
 341              	  oqp->q_counter--;
 342              	  *oqp->q_wrptr++ = b;
 343              	  if (oqp->q_wrptr >= oqp->q_top)
 344              	    oqp->q_wrptr = oqp->q_buffer;
 345              	
 346              	  if (oqp->q_notify)
 347              	    oqp->q_notify(oqp);
 348              	
 349 0309 90       	  chSysUnlock();
GAS LISTING /tmp/ccjuMB99.s 			page 20


 350              	  return Q_OK;
 701              		nop
 702              	# 0 "" 2
 703              		.loc 1 351 0
 704              	#NO_APP
 705 030a 83C410   		addl	$16, %esp	#,
 706              		.cfi_remember_state
 707              		.cfi_def_cfa_offset 16
 708              		.loc 1 350 0
 709 030d 31C0     		xorl	%eax, %eax	# D.2336
 710              		.loc 1 351 0
 711 030f 5B       		popl	%ebx	#
 712              		.cfi_restore 3
 713              		.cfi_def_cfa_offset 12
 714 0310 5E       		popl	%esi	#
 715              		.cfi_restore 6
 716              		.cfi_def_cfa_offset 8
 717 0311 5F       		popl	%edi	#
 718              		.cfi_restore 7
 719              		.cfi_def_cfa_offset 4
 720 0312 C3       		ret
 721              	.LVL35:
 722              		.p2align 4,,7
 723 0313 908D7426 		.p2align 3
 723      00
 724              	.L67:
 725              		.cfi_restore_state
 726              	.LBB22:
 727              		.loc 1 336 0
 728              	#APP
 729              	# 336 "../../../os/kernel/src/chqueues.c" 1
 730              		nop
 731              	# 0 "" 2
 732              	#NO_APP
 733              	.LBE22:
 734              		.loc 1 351 0
 735 0319 83C410   		addl	$16, %esp	#,
 736              		.cfi_def_cfa_offset 16
 737 031c 5B       		popl	%ebx	#
 738              		.cfi_restore 3
 739              		.cfi_def_cfa_offset 12
 740 031d 5E       		popl	%esi	#
 741              		.cfi_restore 6
 742              		.cfi_def_cfa_offset 8
 743 031e 5F       		popl	%edi	#
 744              		.cfi_restore 7
 745              		.cfi_def_cfa_offset 4
 746 031f C3       		ret
 747              		.cfi_endproc
 748              	.LFE15:
 749              		.size	chOQPutTimeout, .-chOQPutTimeout
 750              		.p2align 4,,15
 751              		.globl	chOQGetI
 752              		.type	chOQGetI, @function
 753              	chOQGetI:
 754              	.LFB16:
 755              		.loc 1 363 0
GAS LISTING /tmp/ccjuMB99.s 			page 21


 756              		.cfi_startproc
 757              	.LVL36:
 758 0320 56       		pushl	%esi	#
 759              		.cfi_def_cfa_offset 8
 760              		.cfi_offset 6, -8
 761 0321 53       		pushl	%ebx	#
 762              		.cfi_def_cfa_offset 12
 763              		.cfi_offset 3, -12
 764 0322 83EC14   		subl	$20, %esp	#,
 765              		.cfi_def_cfa_offset 32
 766              		.loc 1 363 0
 767 0325 8B542420 		movl	32(%esp), %edx	# oqp, oqp
 768              		.loc 1 368 0
 769 0329 8B4A18   		movl	24(%edx), %ecx	# oqp_7(D)->q_rdptr, D.2344
 770 032c 394A14   		cmpl	%ecx, 20(%edx)	# D.2344, oqp_7(D)->q_wrptr
 771 032f 7447     		je	.L78	#,
 772 0331 8B4208   		movl	8(%edx), %eax	# oqp_7(D)->q_counter, D.2348
 773              	.L71:
 774              		.loc 1 371 0
 775 0334 83C001   		addl	$1, %eax	#, tmp77
 776              		.loc 1 372 0
 777 0337 8D5901   		leal	1(%ecx), %ebx	#, D.2344
 778              		.loc 1 373 0
 779 033a 3B5A10   		cmpl	16(%edx), %ebx	# oqp_7(D)->q_top, D.2344
 780              		.loc 1 371 0
 781 033d 894208   		movl	%eax, 8(%edx)	# tmp77, oqp_7(D)->q_counter
 782              		.loc 1 372 0
 783 0340 895A18   		movl	%ebx, 24(%edx)	# D.2344, oqp_7(D)->q_rdptr
 784 0343 0FB631   		movzbl	(%ecx), %esi	# *_9, b
 785              	.LVL37:
 786              		.loc 1 373 0
 787 0346 7328     		jae	.L73	#,
 788              	.L74:
 789              		.loc 1 376 0
 790 0348 8B0A     		movl	(%edx), %ecx	# oqp_7(D)->q_waiting.p_next, D.2346
 791 034a 39D1     		cmpl	%edx, %ecx	# oqp, D.2346
 792 034c 7416     		je	.L72	#,
 793              	.LVL38:
 794              	.LBB23:
 795              	.LBB24:
 796              		.loc 2 62 0
 797 034e 8B19     		movl	(%ecx), %ebx	# _21->p_next, D.2346
 798 0350 891A     		movl	%ebx, (%edx)	# D.2346, MEM[(struct ThreadsQueue *)oqp_7(D)].p_next
 799 0352 895304   		movl	%edx, 4(%ebx)	# oqp, _28->p_prev
 800              	.LBE24:
 801              	.LBE23:
 802              		.loc 1 377 0
 803 0355 890C24   		movl	%ecx, (%esp)	# D.2346,
 804 0358 E8FCFFFF 		call	chSchReadyI	#
 804      FF
 805              	.LVL39:
 806 035d C7402400 		movl	$0, 36(%eax)	#, _25->p_u.rdymsg
 806      000000
 807              	.LVL40:
 808              	.L72:
 809              		.loc 1 379 0
 810 0364 89F0     		movl	%esi, %eax	# b, b
GAS LISTING /tmp/ccjuMB99.s 			page 22


 811 0366 0FB6C0   		movzbl	%al, %eax	# b, D.2343
 812              	.LVL41:
 813              	.L76:
 814              		.loc 1 380 0
 815 0369 83C414   		addl	$20, %esp	#,
 816              		.cfi_remember_state
 817              		.cfi_def_cfa_offset 12
 818 036c 5B       		popl	%ebx	#
 819              		.cfi_restore 3
 820              		.cfi_def_cfa_offset 8
 821 036d 5E       		popl	%esi	#
 822              		.cfi_restore 6
 823              		.cfi_def_cfa_offset 4
 824 036e C3       		ret
 825              	.LVL42:
 826 036f 90       		.p2align 4,,7
 827              		.p2align 3
 828              	.L73:
 829              		.cfi_restore_state
 830              		.loc 1 374 0
 831 0370 8B420C   		movl	12(%edx), %eax	# oqp_7(D)->q_buffer, oqp_7(D)->q_buffer
 832 0373 894218   		movl	%eax, 24(%edx)	# oqp_7(D)->q_buffer, oqp_7(D)->q_rdptr
 833 0376 EBD0     		jmp	.L74	#
 834              	.LVL43:
 835              		.p2align 4,,7
 836              		.p2align 3
 837              	.L78:
 838              		.loc 1 368 0 discriminator 1
 839 0378 8B5A08   		movl	8(%edx), %ebx	# oqp_7(D)->q_counter,
 840              		.loc 1 369 0 discriminator 1
 841 037b B8FDFFFF 		movl	$-3, %eax	#, D.2343
 841      FF
 842              		.loc 1 368 0 discriminator 1
 843 0380 85DB     		testl	%ebx, %ebx	#
 844 0382 75E5     		jne	.L76	#,
 845 0384 31C0     		xorl	%eax, %eax	# D.2348
 846 0386 EBAC     		jmp	.L71	#
 847              		.cfi_endproc
 848              	.LFE16:
 849              		.size	chOQGetI, .-chOQGetI
 850 0388 908DB426 		.p2align 4,,15
 850      00000000 
 851              		.globl	chOQWriteTimeout
 852              		.type	chOQWriteTimeout, @function
 853              	chOQWriteTimeout:
 854              	.LFB17:
 855              		.loc 1 407 0
 856              		.cfi_startproc
 857              	.LVL44:
 858 0390 55       		pushl	%ebp	#
 859              		.cfi_def_cfa_offset 8
 860              		.cfi_offset 5, -8
 861 0391 57       		pushl	%edi	#
 862              		.cfi_def_cfa_offset 12
 863              		.cfi_offset 7, -12
 864 0392 56       		pushl	%esi	#
 865              		.cfi_def_cfa_offset 16
GAS LISTING /tmp/ccjuMB99.s 			page 23


 866              		.cfi_offset 6, -16
 867 0393 53       		pushl	%ebx	#
 868              		.cfi_def_cfa_offset 20
 869              		.cfi_offset 3, -20
 870 0394 83EC1C   		subl	$28, %esp	#,
 871              		.cfi_def_cfa_offset 48
 872              		.loc 1 407 0
 873 0397 8B5C2430 		movl	48(%esp), %ebx	# oqp, oqp
 874 039b 8B4C2434 		movl	52(%esp), %ecx	# bp, bp
 875 039f 8B742438 		movl	56(%esp), %esi	# n, n
 876              		.loc 1 408 0
 877 03a3 8B6B1C   		movl	28(%ebx), %ebp	# oqp_10(D)->q_notify, nfy
 878              	.LVL45:
 879              		.loc 1 413 0
 880              	#APP
 881              	# 413 "../../../os/kernel/src/chqueues.c" 1
 351              	}
 352              	
 353              	/**
 354              	 * @brief   Output queue read.
 355              	 * @details A byte value is read from the low end of an output queue.
 356              	 *
 357              	 * @param[in] oqp       pointer to an @p OutputQueue structure
 358              	 * @return              The byte value from the queue.
 359              	 * @retval Q_EMPTY      if the queue is empty.
 360              	 *
 361              	 * @iclass
 362              	 */
 363              	msg_t chOQGetI(OutputQueue *oqp) {
 364              	  uint8_t b;
 365              	
 366              	  chDbgCheckClassI();
 367              	
 368              	  if (chOQIsEmptyI(oqp))
 369              	    return Q_EMPTY;
 370              	
 371              	  oqp->q_counter++;
 372              	  b = *oqp->q_rdptr++;
 373              	  if (oqp->q_rdptr >= oqp->q_top)
 374              	    oqp->q_rdptr = oqp->q_buffer;
 375              	
 376              	  if (notempty(&oqp->q_waiting))
 377              	    chSchReadyI(fifo_remove(&oqp->q_waiting))->p_u.rdymsg = Q_OK;
 378              	
 379              	  return b;
 380              	}
 381              	
 382              	/**
 383              	 * @brief   Output queue write with timeout.
 384              	 * @details The function writes data from a buffer to an output queue. The
 385              	 *          operation completes when the specified amount of data has been
 386              	 *          transferred or after the specified timeout or if the queue has
 387              	 *          been reset.
 388              	 * @note    The function is not atomic, if you need atomicity it is suggested
 389              	 *          to use a semaphore or a mutex for mutual exclusion.
 390              	 * @note    The callback is invoked after writing each character into the
 391              	 *          buffer.
GAS LISTING /tmp/ccjuMB99.s 			page 24


 392              	 *
 393              	 * @param[in] oqp       pointer to an @p OutputQueue structure
 394              	 * @param[out] bp       pointer to the data buffer
 395              	 * @param[in] n         the maximum amount of data to be transferred, the
 396              	 *                      value 0 is reserved
 397              	 * @param[in] time      the number of ticks before the operation timeouts,
 398              	 *                      the following special values are allowed:
 399              	 *                      - @a TIME_IMMEDIATE immediate timeout.
 400              	 *                      - @a TIME_INFINITE no timeout.
 401              	 *                      .
 402              	 * @return              The number of bytes effectively transferred.
 403              	 *
 404              	 * @api
 405              	 */
 406              	size_t chOQWriteTimeout(OutputQueue *oqp, const uint8_t *bp,
 407              	                        size_t n, systime_t time) {
 408              	  qnotify_t nfy = oqp->q_notify;
 409              	  size_t w = 0;
 410              	
 411              	  chDbgCheck(n > 0, "chOQWriteTimeout");
 412              	
 413 03a6 90       	  chSysLock();
 414              	  while (TRUE) {
 882              		nop
 883              	# 0 "" 2
 884              		.loc 1 409 0
 885              	#NO_APP
 886 03a7 31FF     		xorl	%edi, %edi	# w
 887              	.LVL46:
 888 03a9 8DB42600 		.p2align 4,,7
 888      000000
 889              		.p2align 3
 890              	.L80:
 891              		.loc 1 415 0 discriminator 1
 892 03b0 8B4308   		movl	8(%ebx), %eax	# oqp_10(D)->q_counter, D.2351
 893 03b3 85C0     		testl	%eax, %eax	# D.2351
 894 03b5 7449     		je	.L83	#,
 895              	.L97:
 896              		.loc 1 421 0
 897 03b7 83E801   		subl	$1, %eax	#, tmp76
 898 03ba 894308   		movl	%eax, 8(%ebx)	# tmp76, oqp_10(D)->q_counter
 899              		.loc 1 422 0
 900 03bd 8B4314   		movl	20(%ebx), %eax	# oqp_10(D)->q_wrptr, D.2353
 901 03c0 8D5001   		leal	1(%eax), %edx	#, tmp77
 902 03c3 895314   		movl	%edx, 20(%ebx)	# tmp77, oqp_10(D)->q_wrptr
 903 03c6 8D5101   		leal	1(%ecx), %edx	#, bp
 904              	.LVL47:
 905 03c9 0FB609   		movzbl	(%ecx), %ecx	# *bp_1, D.2354
 906 03cc 8808     		movb	%cl, (%eax)	# D.2354, *_22
 907              		.loc 1 423 0
 908 03ce 8B4310   		movl	16(%ebx), %eax	# oqp_10(D)->q_top, tmp86
 909 03d1 394314   		cmpl	%eax, 20(%ebx)	# tmp86, oqp_10(D)->q_wrptr
 910 03d4 7206     		jb	.L84	#,
 911              		.loc 1 424 0
 912 03d6 8B430C   		movl	12(%ebx), %eax	# oqp_10(D)->q_buffer, oqp_10(D)->q_buffer
 913 03d9 894314   		movl	%eax, 20(%ebx)	# oqp_10(D)->q_buffer, oqp_10(D)->q_wrptr
 914              	.L84:
GAS LISTING /tmp/ccjuMB99.s 			page 25


 915              		.loc 1 426 0
 916 03dc 85ED     		testl	%ebp, %ebp	# nfy
 917 03de 740D     		je	.L85	#,
 918 03e0 8954240C 		movl	%edx, 12(%esp)	# bp, %sfp
 919              		.loc 1 427 0
 920 03e4 891C24   		movl	%ebx, (%esp)	# oqp,
 921 03e7 FFD5     		call	*%ebp	# nfy
 922              	.LVL48:
 923 03e9 8B54240C 		movl	12(%esp), %edx	# %sfp, bp
 924              	.LVL49:
 925              	.L85:
 926              		.loc 1 429 0
 927              	#APP
 928              	# 429 "../../../os/kernel/src/chqueues.c" 1
 415              	    while (chOQIsFullI(oqp)) {
 416              	      if (qwait((GenericQueue *)oqp, time) != Q_OK) {
 417              	        chSysUnlock();
 418              	        return w;
 419              	      }
 420              	    }
 421              	    oqp->q_counter--;
 422              	    *oqp->q_wrptr++ = *bp++;
 423              	    if (oqp->q_wrptr >= oqp->q_top)
 424              	      oqp->q_wrptr = oqp->q_buffer;
 425              	
 426              	    if (nfy)
 427              	      nfy(oqp);
 428              	
 429 03ed 90       	    chSysUnlock(); /* Gives a preemption chance in a controlled point.*/
 430              	    w++;
 929              		nop
 930              	# 0 "" 2
 931              		.loc 1 430 0
 932              	#NO_APP
 933 03ee 83C701   		addl	$1, %edi	#, w
 934              	.LVL50:
 935              		.loc 1 431 0
 936 03f1 83EE01   		subl	$1, %esi	#, n
 937              	.LVL51:
 938 03f4 7422     		je	.L82	#,
 939              		.loc 1 433 0
 940              	#APP
 941              	# 433 "../../../os/kernel/src/chqueues.c" 1
 431              	    if (--n == 0)
 432              	      return w;
 433 03f6 90       	    chSysLock();
 434              	  }
 942              		nop
 943              	# 0 "" 2
 944              		.loc 1 415 0
 945              	#NO_APP
 946 03f7 8B4308   		movl	8(%ebx), %eax	# oqp_10(D)->q_counter, D.2351
 947              		.loc 1 422 0
 948 03fa 89D1     		movl	%edx, %ecx	# bp, bp
 949              	.LVL52:
 950              		.loc 1 415 0
 951 03fc 85C0     		testl	%eax, %eax	# D.2351
GAS LISTING /tmp/ccjuMB99.s 			page 26


 952 03fe 75B7     		jne	.L97	#,
 953              	.LVL53:
 954              	.L83:
 955              		.loc 1 416 0
 956 0400 8B54243C 		movl	60(%esp), %edx	# time,
 957 0404 89D8     		movl	%ebx, %eax	# oqp,
 958 0406 894C240C 		movl	%ecx, 12(%esp)	# bp, %sfp
 959 040a E8F1FBFF 		call	qwait	#
 959      FF
 960              	.LVL54:
 961 040f 8B4C240C 		movl	12(%esp), %ecx	# %sfp, bp
 962 0413 85C0     		testl	%eax, %eax	# D.2352
 963 0415 7499     		je	.L80	#,
 964              		.loc 1 417 0
 965              	#APP
 966              	# 417 "../../../os/kernel/src/chqueues.c" 1
 967              		nop
 968              	# 0 "" 2
 969              	.LVL55:
 970              	#NO_APP
 971              	.L82:
 972              		.loc 1 435 0
 973 0418 83C41C   		addl	$28, %esp	#,
 974              		.cfi_def_cfa_offset 20
 975 041b 89F8     		movl	%edi, %eax	# w,
 976 041d 5B       		popl	%ebx	#
 977              		.cfi_restore 3
 978              		.cfi_def_cfa_offset 16
 979 041e 5E       		popl	%esi	#
 980              		.cfi_restore 6
 981              		.cfi_def_cfa_offset 12
 982              	.LVL56:
 983 041f 5F       		popl	%edi	#
 984              		.cfi_restore 7
 985              		.cfi_def_cfa_offset 8
 986              	.LVL57:
 987 0420 5D       		popl	%ebp	#
 988              		.cfi_restore 5
 989              		.cfi_def_cfa_offset 4
 990              	.LVL58:
 991 0421 C3       		ret
 992              		.cfi_endproc
 993              	.LFE17:
 994              		.size	chOQWriteTimeout, .-chOQWriteTimeout
 995              	.Letext0:
 996              		.file 3 "/usr/lib/gcc/x86_64-linux-gnu/4.8/include/stddef.h"
 997              		.file 4 "/usr/include/stdint.h"
 998              		.file 5 "../../../os/ports/GCC/SIMIA32/chtypes.h"
 999              		.file 6 "../../../os/kernel/include/chlists.h"
 1000              		.file 7 "../../../os/kernel/include/chthreads.h"
 1001              		.file 8 "../../../os/ports/GCC/SIMIA32/chcore.h"
 1002              		.file 9 "../../../os/kernel/include/chschd.h"
 1003              		.file 10 "../../../os/kernel/include/chmtx.h"
 1004              		.file 11 "../../../os/kernel/include/chqueues.h"
 1005              		.section	.debug_info,"",@progbits
 1006              	.Ldebug_info0:
 1007 0000 DA090000 		.long	0x9da
GAS LISTING /tmp/ccjuMB99.s 			page 27


 1008 0004 0400     		.value	0x4
 1009 0006 00000000 		.long	.Ldebug_abbrev0
 1010 000a 04       		.byte	0x4
 1011 000b 01       		.uleb128 0x1
 1012 000c 70020000 		.long	.LASF91
 1013 0010 01       		.byte	0x1
 1014 0011 83030000 		.long	.LASF92
 1015 0015 B3000000 		.long	.LASF93
 1016 0019 00000000 		.long	.Ltext0
 1017 001d 22040000 		.long	.Letext0-.Ltext0
 1018 0021 00000000 		.long	.Ldebug_line0
 1019 0025 02       		.uleb128 0x2
 1020 0026 04       		.byte	0x4
 1021 0027 05       		.byte	0x5
 1022 0028 696E7400 		.string	"int"
 1023 002c 03       		.uleb128 0x3
 1024 002d 28000000 		.long	.LASF4
 1025 0031 03       		.byte	0x3
 1026 0032 D4       		.byte	0xd4
 1027 0033 37000000 		.long	0x37
 1028 0037 04       		.uleb128 0x4
 1029 0038 04       		.byte	0x4
 1030 0039 07       		.byte	0x7
 1031 003a 44010000 		.long	.LASF0
 1032 003e 04       		.uleb128 0x4
 1033 003f 04       		.byte	0x4
 1034 0040 05       		.byte	0x5
 1035 0041 EB000000 		.long	.LASF1
 1036 0045 04       		.uleb128 0x4
 1037 0046 01       		.byte	0x1
 1038 0047 06       		.byte	0x6
 1039 0048 90000000 		.long	.LASF2
 1040 004c 04       		.uleb128 0x4
 1041 004d 02       		.byte	0x2
 1042 004e 05       		.byte	0x5
 1043 004f D7020000 		.long	.LASF3
 1044 0053 03       		.uleb128 0x3
 1045 0054 5A020000 		.long	.LASF5
 1046 0058 04       		.byte	0x4
 1047 0059 26       		.byte	0x26
 1048 005a 25000000 		.long	0x25
 1049 005e 04       		.uleb128 0x4
 1050 005f 08       		.byte	0x8
 1051 0060 05       		.byte	0x5
 1052 0061 82000000 		.long	.LASF6
 1053 0065 03       		.uleb128 0x3
 1054 0066 CB030000 		.long	.LASF7
 1055 006a 04       		.byte	0x4
 1056 006b 30       		.byte	0x30
 1057 006c 70000000 		.long	0x70
 1058 0070 04       		.uleb128 0x4
 1059 0071 01       		.byte	0x1
 1060 0072 08       		.byte	0x8
 1061 0073 62020000 		.long	.LASF8
 1062 0077 04       		.uleb128 0x4
 1063 0078 02       		.byte	0x2
 1064 0079 07       		.byte	0x7
GAS LISTING /tmp/ccjuMB99.s 			page 28


 1065 007a 74010000 		.long	.LASF9
 1066 007e 03       		.uleb128 0x3
 1067 007f 27030000 		.long	.LASF10
 1068 0083 04       		.byte	0x4
 1069 0084 33       		.byte	0x33
 1070 0085 37000000 		.long	0x37
 1071 0089 04       		.uleb128 0x4
 1072 008a 08       		.byte	0x8
 1073 008b 07       		.byte	0x7
 1074 008c 5B000000 		.long	.LASF11
 1075 0090 03       		.uleb128 0x3
 1076 0091 A4000000 		.long	.LASF12
 1077 0095 05       		.byte	0x5
 1078 0096 23       		.byte	0x23
 1079 0097 9B000000 		.long	0x9b
 1080 009b 04       		.uleb128 0x4
 1081 009c 01       		.byte	0x1
 1082 009d 02       		.byte	0x2
 1083 009e 54020000 		.long	.LASF13
 1084 00a2 03       		.uleb128 0x3
 1085 00a3 8D010000 		.long	.LASF14
 1086 00a7 05       		.byte	0x5
 1087 00a8 24       		.byte	0x24
 1088 00a9 65000000 		.long	0x65
 1089 00ad 03       		.uleb128 0x3
 1090 00ae F4000000 		.long	.LASF15
 1091 00b2 05       		.byte	0x5
 1092 00b3 25       		.byte	0x25
 1093 00b4 65000000 		.long	0x65
 1094 00b8 03       		.uleb128 0x3
 1095 00b9 2B020000 		.long	.LASF16
 1096 00bd 05       		.byte	0x5
 1097 00be 26       		.byte	0x26
 1098 00bf 65000000 		.long	0x65
 1099 00c3 03       		.uleb128 0x3
 1100 00c4 DB000000 		.long	.LASF17
 1101 00c8 05       		.byte	0x5
 1102 00c9 27       		.byte	0x27
 1103 00ca 65000000 		.long	0x65
 1104 00ce 03       		.uleb128 0x3
 1105 00cf 44020000 		.long	.LASF18
 1106 00d3 05       		.byte	0x5
 1107 00d4 28       		.byte	0x28
 1108 00d5 7E000000 		.long	0x7e
 1109 00d9 03       		.uleb128 0x3
 1110 00da 87010000 		.long	.LASF19
 1111 00de 05       		.byte	0x5
 1112 00df 29       		.byte	0x29
 1113 00e0 53000000 		.long	0x53
 1114 00e4 03       		.uleb128 0x3
 1115 00e5 A1010000 		.long	.LASF20
 1116 00e9 05       		.byte	0x5
 1117 00ea 2B       		.byte	0x2b
 1118 00eb 7E000000 		.long	0x7e
 1119 00ef 03       		.uleb128 0x3
 1120 00f0 55030000 		.long	.LASF21
 1121 00f4 05       		.byte	0x5
GAS LISTING /tmp/ccjuMB99.s 			page 29


 1122 00f5 2D       		.byte	0x2d
 1123 00f6 7E000000 		.long	0x7e
 1124 00fa 03       		.uleb128 0x3
 1125 00fb 15030000 		.long	.LASF22
 1126 00ff 06       		.byte	0x6
 1127 0100 2A       		.byte	0x2a
 1128 0101 05010000 		.long	0x105
 1129 0105 05       		.uleb128 0x5
 1130 0106 15030000 		.long	.LASF22
 1131 010a 48       		.byte	0x48
 1132 010b 07       		.byte	0x7
 1133 010c 5E       		.byte	0x5e
 1134 010d 02020000 		.long	0x202
 1135 0111 06       		.uleb128 0x6
 1136 0112 01030000 		.long	.LASF23
 1137 0116 07       		.byte	0x7
 1138 0117 5F       		.byte	0x5f
 1139 0118 23020000 		.long	0x223
 1140 011c 00       		.byte	0
 1141 011d 06       		.uleb128 0x6
 1142 011e 3D020000 		.long	.LASF24
 1143 0122 07       		.byte	0x7
 1144 0123 61       		.byte	0x61
 1145 0124 23020000 		.long	0x223
 1146 0128 04       		.byte	0x4
 1147 0129 06       		.uleb128 0x6
 1148 012a 7B000000 		.long	.LASF25
 1149 012e 07       		.byte	0x7
 1150 012f 63       		.byte	0x63
 1151 0130 CE000000 		.long	0xce
 1152 0134 08       		.byte	0x8
 1153 0135 06       		.uleb128 0x6
 1154 0136 F7030000 		.long	.LASF26
 1155 013a 07       		.byte	0x7
 1156 013b 64       		.byte	0x64
 1157 013c B1020000 		.long	0x2b1
 1158 0140 0C       		.byte	0xc
 1159 0141 06       		.uleb128 0x6
 1160 0142 17010000 		.long	.LASF27
 1161 0146 07       		.byte	0x7
 1162 0147 66       		.byte	0x66
 1163 0148 23020000 		.long	0x223
 1164 014c 10       		.byte	0x10
 1165 014d 06       		.uleb128 0x6
 1166 014e EF010000 		.long	.LASF28
 1167 0152 07       		.byte	0x7
 1168 0153 67       		.byte	0x67
 1169 0154 23020000 		.long	0x223
 1170 0158 14       		.byte	0x14
 1171 0159 06       		.uleb128 0x6
 1172 015a DA030000 		.long	.LASF29
 1173 015e 07       		.byte	0x7
 1174 015f 6E       		.byte	0x6e
 1175 0160 AD030000 		.long	0x3ad
 1176 0164 18       		.byte	0x18
 1177 0165 06       		.uleb128 0x6
 1178 0166 E1020000 		.long	.LASF30
GAS LISTING /tmp/ccjuMB99.s 			page 30


 1179 016a 07       		.byte	0x7
 1180 016b 79       		.byte	0x79
 1181 016c AD000000 		.long	0xad
 1182 0170 1C       		.byte	0x1c
 1183 0171 06       		.uleb128 0x6
 1184 0172 0D030000 		.long	.LASF31
 1185 0176 07       		.byte	0x7
 1186 0177 7D       		.byte	0x7d
 1187 0178 A2000000 		.long	0xa2
 1188 017c 1D       		.byte	0x1d
 1189 017d 06       		.uleb128 0x6
 1190 017e AB030000 		.long	.LASF32
 1191 0182 07       		.byte	0x7
 1192 0183 82       		.byte	0x82
 1193 0184 B8000000 		.long	0xb8
 1194 0188 1E       		.byte	0x1e
 1195 0189 06       		.uleb128 0x6
 1196 018a E9020000 		.long	.LASF33
 1197 018e 07       		.byte	0x7
 1198 018f 88       		.byte	0x88
 1199 0190 C3000000 		.long	0xc3
 1200 0194 1F       		.byte	0x1f
 1201 0195 06       		.uleb128 0x6
 1202 0196 75030000 		.long	.LASF34
 1203 019a 07       		.byte	0x7
 1204 019b 8F       		.byte	0x8f
 1205 019c D5020000 		.long	0x2d5
 1206 01a0 20       		.byte	0x20
 1207 01a1 07       		.uleb128 0x7
 1208 01a2 705F7500 		.string	"p_u"
 1209 01a6 07       		.byte	0x7
 1210 01a7 B4       		.byte	0xb4
 1211 01a8 78030000 		.long	0x378
 1212 01ac 24       		.byte	0x24
 1213 01ad 06       		.uleb128 0x6
 1214 01ae FD030000 		.long	.LASF35
 1215 01b2 07       		.byte	0x7
 1216 01b3 B9       		.byte	0xb9
 1217 01b4 49020000 		.long	0x249
 1218 01b8 28       		.byte	0x28
 1219 01b9 06       		.uleb128 0x6
 1220 01ba 5C010000 		.long	.LASF36
 1221 01be 07       		.byte	0x7
 1222 01bf BF       		.byte	0xbf
 1223 01c0 29020000 		.long	0x229
 1224 01c4 2C       		.byte	0x2c
 1225 01c5 06       		.uleb128 0x6
 1226 01c6 09000000 		.long	.LASF37
 1227 01ca 07       		.byte	0x7
 1228 01cb C3       		.byte	0xc3
 1229 01cc D9000000 		.long	0xd9
 1230 01d0 34       		.byte	0x34
 1231 01d1 06       		.uleb128 0x6
 1232 01d2 1C030000 		.long	.LASF38
 1233 01d6 07       		.byte	0x7
 1234 01d7 C9       		.byte	0xc9
 1235 01d8 E4000000 		.long	0xe4
GAS LISTING /tmp/ccjuMB99.s 			page 31


 1236 01dc 38       		.byte	0x38
 1237 01dd 06       		.uleb128 0x6
 1238 01de CD020000 		.long	.LASF39
 1239 01e2 07       		.byte	0x7
 1240 01e3 D0       		.byte	0xd0
 1241 01e4 BF030000 		.long	0x3bf
 1242 01e8 3C       		.byte	0x3c
 1243 01e9 06       		.uleb128 0x6
 1244 01ea 5F030000 		.long	.LASF40
 1245 01ee 07       		.byte	0x7
 1246 01ef D4       		.byte	0xd4
 1247 01f0 CE000000 		.long	0xce
 1248 01f4 40       		.byte	0x40
 1249 01f5 06       		.uleb128 0x6
 1250 01f6 9C000000 		.long	.LASF41
 1251 01fa 07       		.byte	0x7
 1252 01fb DA       		.byte	0xda
 1253 01fc 66020000 		.long	0x266
 1254 0200 44       		.byte	0x44
 1255 0201 00       		.byte	0
 1256 0202 08       		.uleb128 0x8
 1257 0203 08       		.byte	0x8
 1258 0204 06       		.byte	0x6
 1259 0205 61       		.byte	0x61
 1260 0206 23020000 		.long	0x223
 1261 020a 06       		.uleb128 0x6
 1262 020b 01030000 		.long	.LASF23
 1263 020f 06       		.byte	0x6
 1264 0210 62       		.byte	0x62
 1265 0211 23020000 		.long	0x223
 1266 0215 00       		.byte	0
 1267 0216 06       		.uleb128 0x6
 1268 0217 3D020000 		.long	.LASF24
 1269 021b 06       		.byte	0x6
 1270 021c 64       		.byte	0x64
 1271 021d 23020000 		.long	0x223
 1272 0221 04       		.byte	0x4
 1273 0222 00       		.byte	0
 1274 0223 09       		.uleb128 0x9
 1275 0224 04       		.byte	0x4
 1276 0225 FA000000 		.long	0xfa
 1277 0229 03       		.uleb128 0x3
 1278 022a FD010000 		.long	.LASF42
 1279 022e 06       		.byte	0x6
 1280 022f 66       		.byte	0x66
 1281 0230 02020000 		.long	0x202
 1282 0234 08       		.uleb128 0x8
 1283 0235 04       		.byte	0x4
 1284 0236 06       		.byte	0x6
 1285 0237 6B       		.byte	0x6b
 1286 0238 49020000 		.long	0x249
 1287 023c 06       		.uleb128 0x6
 1288 023d 01030000 		.long	.LASF23
 1289 0241 06       		.byte	0x6
 1290 0242 6D       		.byte	0x6d
 1291 0243 23020000 		.long	0x223
 1292 0247 00       		.byte	0
GAS LISTING /tmp/ccjuMB99.s 			page 32


 1293 0248 00       		.byte	0
 1294 0249 03       		.uleb128 0x3
 1295 024a 95010000 		.long	.LASF43
 1296 024e 06       		.byte	0x6
 1297 024f 70       		.byte	0x70
 1298 0250 34020000 		.long	0x234
 1299 0254 04       		.uleb128 0x4
 1300 0255 04       		.byte	0x4
 1301 0256 07       		.byte	0x7
 1302 0257 DC010000 		.long	.LASF44
 1303 025b 03       		.uleb128 0x3
 1304 025c E1030000 		.long	.LASF45
 1305 0260 08       		.byte	0x8
 1306 0261 4B       		.byte	0x4b
 1307 0262 66020000 		.long	0x266
 1308 0266 0A       		.uleb128 0xa
 1309 0267 04       		.byte	0x4
 1310 0268 05       		.uleb128 0x5
 1311 0269 7C030000 		.long	.LASF46
 1312 026d 14       		.byte	0x14
 1313 026e 08       		.byte	0x8
 1314 026f 59       		.byte	0x59
 1315 0270 B1020000 		.long	0x2b1
 1316 0274 07       		.uleb128 0x7
 1317 0275 65627800 		.string	"ebx"
 1318 0279 08       		.byte	0x8
 1319 027a 5A       		.byte	0x5a
 1320 027b 5B020000 		.long	0x25b
 1321 027f 00       		.byte	0
 1322 0280 07       		.uleb128 0x7
 1323 0281 65646900 		.string	"edi"
 1324 0285 08       		.byte	0x8
 1325 0286 5B       		.byte	0x5b
 1326 0287 5B020000 		.long	0x25b
 1327 028b 04       		.byte	0x4
 1328 028c 07       		.uleb128 0x7
 1329 028d 65736900 		.string	"esi"
 1330 0291 08       		.byte	0x8
 1331 0292 5C       		.byte	0x5c
 1332 0293 5B020000 		.long	0x25b
 1333 0297 08       		.byte	0x8
 1334 0298 07       		.uleb128 0x7
 1335 0299 65627000 		.string	"ebp"
 1336 029d 08       		.byte	0x8
 1337 029e 5D       		.byte	0x5d
 1338 029f 5B020000 		.long	0x25b
 1339 02a3 0C       		.byte	0xc
 1340 02a4 07       		.uleb128 0x7
 1341 02a5 65697000 		.string	"eip"
 1342 02a9 08       		.byte	0x8
 1343 02aa 5E       		.byte	0x5e
 1344 02ab 5B020000 		.long	0x25b
 1345 02af 10       		.byte	0x10
 1346 02b0 00       		.byte	0
 1347 02b1 05       		.uleb128 0x5
 1348 02b2 67010000 		.long	.LASF47
 1349 02b6 04       		.byte	0x4
GAS LISTING /tmp/ccjuMB99.s 			page 33


 1350 02b7 08       		.byte	0x8
 1351 02b8 66       		.byte	0x66
 1352 02b9 CA020000 		.long	0x2ca
 1353 02bd 07       		.uleb128 0x7
 1354 02be 65737000 		.string	"esp"
 1355 02c2 08       		.byte	0x8
 1356 02c3 67       		.byte	0x67
 1357 02c4 CA020000 		.long	0x2ca
 1358 02c8 00       		.byte	0
 1359 02c9 00       		.byte	0
 1360 02ca 09       		.uleb128 0x9
 1361 02cb 04       		.byte	0x4
 1362 02cc D0020000 		.long	0x2d0
 1363 02d0 0B       		.uleb128 0xb
 1364 02d1 68020000 		.long	0x268
 1365 02d5 0B       		.uleb128 0xb
 1366 02d6 EF000000 		.long	0xef
 1367 02da 08       		.uleb128 0x8
 1368 02db 1C       		.byte	0x1c
 1369 02dc 09       		.byte	0x9
 1370 02dd 5E       		.byte	0x5e
 1371 02de 2B030000 		.long	0x32b
 1372 02e2 06       		.uleb128 0x6
 1373 02e3 30030000 		.long	.LASF48
 1374 02e7 09       		.byte	0x9
 1375 02e8 5F       		.byte	0x5f
 1376 02e9 29020000 		.long	0x229
 1377 02ed 00       		.byte	0
 1378 02ee 06       		.uleb128 0x6
 1379 02ef F3020000 		.long	.LASF49
 1380 02f3 09       		.byte	0x9
 1381 02f4 60       		.byte	0x60
 1382 02f5 CE000000 		.long	0xce
 1383 02f9 08       		.byte	0x8
 1384 02fa 06       		.uleb128 0x6
 1385 02fb F7010000 		.long	.LASF50
 1386 02ff 09       		.byte	0x9
 1387 0300 62       		.byte	0x62
 1388 0301 B1020000 		.long	0x2b1
 1389 0305 0C       		.byte	0xc
 1390 0306 06       		.uleb128 0x6
 1391 0307 1F010000 		.long	.LASF51
 1392 030b 09       		.byte	0x9
 1393 030c 65       		.byte	0x65
 1394 030d 23020000 		.long	0x223
 1395 0311 10       		.byte	0x10
 1396 0312 06       		.uleb128 0x6
 1397 0313 19020000 		.long	.LASF52
 1398 0317 09       		.byte	0x9
 1399 0318 66       		.byte	0x66
 1400 0319 23020000 		.long	0x223
 1401 031d 14       		.byte	0x14
 1402 031e 06       		.uleb128 0x6
 1403 031f 0F020000 		.long	.LASF53
 1404 0323 09       		.byte	0x9
 1405 0324 69       		.byte	0x69
 1406 0325 23020000 		.long	0x223
GAS LISTING /tmp/ccjuMB99.s 			page 34


 1407 0329 18       		.byte	0x18
 1408 032a 00       		.byte	0
 1409 032b 03       		.uleb128 0x3
 1410 032c B2030000 		.long	.LASF54
 1411 0330 09       		.byte	0x9
 1412 0331 6B       		.byte	0x6b
 1413 0332 DA020000 		.long	0x2da
 1414 0336 05       		.uleb128 0x5
 1415 0337 B8010000 		.long	.LASF55
 1416 033b 10       		.byte	0x10
 1417 033c 0A       		.byte	0xa
 1418 033d 2C       		.byte	0x2c
 1419 033e 67030000 		.long	0x367
 1420 0342 06       		.uleb128 0x6
 1421 0343 AB000000 		.long	.LASF56
 1422 0347 0A       		.byte	0xa
 1423 0348 2D       		.byte	0x2d
 1424 0349 29020000 		.long	0x229
 1425 034d 00       		.byte	0
 1426 034e 06       		.uleb128 0x6
 1427 034f EF030000 		.long	.LASF57
 1428 0353 0A       		.byte	0xa
 1429 0354 2F       		.byte	0x2f
 1430 0355 23020000 		.long	0x223
 1431 0359 08       		.byte	0x8
 1432 035a 06       		.uleb128 0x6
 1433 035b 0F000000 		.long	.LASF58
 1434 035f 0A       		.byte	0xa
 1435 0360 31       		.byte	0x31
 1436 0361 67030000 		.long	0x367
 1437 0365 0C       		.byte	0xc
 1438 0366 00       		.byte	0
 1439 0367 09       		.uleb128 0x9
 1440 0368 04       		.byte	0x4
 1441 0369 36030000 		.long	0x336
 1442 036d 03       		.uleb128 0x3
 1443 036e B8010000 		.long	.LASF55
 1444 0372 0A       		.byte	0xa
 1445 0373 33       		.byte	0x33
 1446 0374 36030000 		.long	0x336
 1447 0378 0C       		.uleb128 0xc
 1448 0379 04       		.byte	0x4
 1449 037a 07       		.byte	0x7
 1450 037b 96       		.byte	0x96
 1451 037c AD030000 		.long	0x3ad
 1452 0380 0D       		.uleb128 0xd
 1453 0381 2F000000 		.long	.LASF59
 1454 0385 07       		.byte	0x7
 1455 0386 9D       		.byte	0x9d
 1456 0387 D9000000 		.long	0xd9
 1457 038b 0D       		.uleb128 0xd
 1458 038c 72000000 		.long	.LASF60
 1459 0390 07       		.byte	0x7
 1460 0391 A4       		.byte	0xa4
 1461 0392 D9000000 		.long	0xd9
 1462 0396 0D       		.uleb128 0xd
 1463 0397 D3030000 		.long	.LASF61
GAS LISTING /tmp/ccjuMB99.s 			page 35


 1464 039b 07       		.byte	0x7
 1465 039c AB       		.byte	0xab
 1466 039d 66020000 		.long	0x266
 1467 03a1 0D       		.uleb128 0xd
 1468 03a2 FA020000 		.long	.LASF62
 1469 03a6 07       		.byte	0x7
 1470 03a7 B2       		.byte	0xb2
 1471 03a8 E4000000 		.long	0xe4
 1472 03ac 00       		.byte	0
 1473 03ad 09       		.uleb128 0x9
 1474 03ae 04       		.byte	0x4
 1475 03af B3030000 		.long	0x3b3
 1476 03b3 0E       		.uleb128 0xe
 1477 03b4 B8030000 		.long	0x3b8
 1478 03b8 04       		.uleb128 0x4
 1479 03b9 01       		.byte	0x1
 1480 03ba 06       		.byte	0x6
 1481 03bb 44030000 		.long	.LASF63
 1482 03bf 09       		.uleb128 0x9
 1483 03c0 04       		.byte	0x4
 1484 03c1 6D030000 		.long	0x36d
 1485 03c5 03       		.uleb128 0x3
 1486 03c6 BE010000 		.long	.LASF64
 1487 03ca 0B       		.byte	0xb
 1488 03cb 37       		.byte	0x37
 1489 03cc D0030000 		.long	0x3d0
 1490 03d0 05       		.uleb128 0x5
 1491 03d1 BE010000 		.long	.LASF64
 1492 03d5 24       		.byte	0x24
 1493 03d6 0B       		.byte	0xb
 1494 03d7 45       		.byte	0x45
 1495 03d8 3D040000 		.long	0x43d
 1496 03dc 06       		.uleb128 0x6
 1497 03dd 21020000 		.long	.LASF65
 1498 03e1 0B       		.byte	0xb
 1499 03e2 46       		.byte	0x46
 1500 03e3 29020000 		.long	0x229
 1501 03e7 00       		.byte	0
 1502 03e8 06       		.uleb128 0x6
 1503 03e9 E5010000 		.long	.LASF66
 1504 03ed 0B       		.byte	0xb
 1505 03ee 47       		.byte	0x47
 1506 03ef 2C000000 		.long	0x2c
 1507 03f3 08       		.byte	0x8
 1508 03f4 06       		.uleb128 0x6
 1509 03f5 06010000 		.long	.LASF67
 1510 03f9 0B       		.byte	0xb
 1511 03fa 48       		.byte	0x48
 1512 03fb 5F040000 		.long	0x45f
 1513 03ff 0C       		.byte	0xc
 1514 0400 06       		.uleb128 0x6
 1515 0401 A5030000 		.long	.LASF68
 1516 0405 0B       		.byte	0xb
 1517 0406 49       		.byte	0x49
 1518 0407 5F040000 		.long	0x45f
 1519 040b 10       		.byte	0x10
 1520 040c 06       		.uleb128 0x6
GAS LISTING /tmp/ccjuMB99.s 			page 36


 1521 040d 0F010000 		.long	.LASF69
 1522 0411 0B       		.byte	0xb
 1523 0412 4B       		.byte	0x4b
 1524 0413 5F040000 		.long	0x45f
 1525 0417 14       		.byte	0x14
 1526 0418 06       		.uleb128 0x6
 1527 0419 4C020000 		.long	.LASF70
 1528 041d 0B       		.byte	0xb
 1529 041e 4C       		.byte	0x4c
 1530 041f 5F040000 		.long	0x45f
 1531 0423 18       		.byte	0x18
 1532 0424 06       		.uleb128 0x6
 1533 0425 BC030000 		.long	.LASF71
 1534 0429 0B       		.byte	0xb
 1535 042a 4D       		.byte	0x4d
 1536 042b 3D040000 		.long	0x43d
 1537 042f 1C       		.byte	0x1c
 1538 0430 06       		.uleb128 0x6
 1539 0431 E8030000 		.long	.LASF72
 1540 0435 0B       		.byte	0xb
 1541 0436 4E       		.byte	0x4e
 1542 0437 66020000 		.long	0x266
 1543 043b 20       		.byte	0x20
 1544 043c 00       		.byte	0
 1545 043d 03       		.uleb128 0x3
 1546 043e 33020000 		.long	.LASF73
 1547 0442 0B       		.byte	0xb
 1548 0443 3A       		.byte	0x3a
 1549 0444 48040000 		.long	0x448
 1550 0448 09       		.uleb128 0x9
 1551 0449 04       		.byte	0x4
 1552 044a 4E040000 		.long	0x44e
 1553 044e 0F       		.uleb128 0xf
 1554 044f 59040000 		.long	0x459
 1555 0453 10       		.uleb128 0x10
 1556 0454 59040000 		.long	0x459
 1557 0458 00       		.byte	0
 1558 0459 09       		.uleb128 0x9
 1559 045a 04       		.byte	0x4
 1560 045b C5030000 		.long	0x3c5
 1561 045f 09       		.uleb128 0x9
 1562 0460 04       		.byte	0x4
 1563 0461 65000000 		.long	0x65
 1564 0465 03       		.uleb128 0x3
 1565 0466 AD010000 		.long	.LASF74
 1566 046a 0B       		.byte	0xb
 1567 046b 82       		.byte	0x82
 1568 046c C5030000 		.long	0x3c5
 1569 0470 03       		.uleb128 0x3
 1570 0471 3F000000 		.long	.LASF75
 1571 0475 0B       		.byte	0xb
 1572 0476 F5       		.byte	0xf5
 1573 0477 C5030000 		.long	0x3c5
 1574 047b 09       		.uleb128 0x9
 1575 047c 04       		.byte	0x4
 1576 047d 81040000 		.long	0x481
 1577 0481 0E       		.uleb128 0xe
GAS LISTING /tmp/ccjuMB99.s 			page 37


 1578 0482 65000000 		.long	0x65
 1579 0486 11       		.uleb128 0x11
 1580 0487 16000000 		.long	.LASF94
 1581 048b 02       		.byte	0x2
 1582 048c 34       		.byte	0x34
 1583 048d 03       		.byte	0x3
 1584 048e A8040000 		.long	0x4a8
 1585 0492 12       		.uleb128 0x12
 1586 0493 747000   		.string	"tp"
 1587 0496 02       		.byte	0x2
 1588 0497 34       		.byte	0x34
 1589 0498 23020000 		.long	0x223
 1590 049c 12       		.uleb128 0x12
 1591 049d 74717000 		.string	"tqp"
 1592 04a1 02       		.byte	0x2
 1593 04a2 34       		.byte	0x34
 1594 04a3 A8040000 		.long	0x4a8
 1595 04a7 00       		.byte	0
 1596 04a8 09       		.uleb128 0x9
 1597 04a9 04       		.byte	0x4
 1598 04aa 29020000 		.long	0x229
 1599 04ae 13       		.uleb128 0x13
 1600 04af 49030000 		.long	.LASF95
 1601 04b3 02       		.byte	0x2
 1602 04b4 3B       		.byte	0x3b
 1603 04b5 23020000 		.long	0x223
 1604 04b9 03       		.byte	0x3
 1605 04ba D4040000 		.long	0x4d4
 1606 04be 12       		.uleb128 0x12
 1607 04bf 74717000 		.string	"tqp"
 1608 04c3 02       		.byte	0x2
 1609 04c4 3B       		.byte	0x3b
 1610 04c5 A8040000 		.long	0x4a8
 1611 04c9 14       		.uleb128 0x14
 1612 04ca 747000   		.string	"tp"
 1613 04cd 02       		.byte	0x2
 1614 04ce 3C       		.byte	0x3c
 1615 04cf 23020000 		.long	0x223
 1616 04d3 00       		.byte	0
 1617 04d4 15       		.uleb128 0x15
 1618 04d5 E5000000 		.long	.LASF96
 1619 04d9 01       		.byte	0x1
 1620 04da 46       		.byte	0x46
 1621 04db D9000000 		.long	0xd9
 1622 04df 00000000 		.long	.LFB7
 1623 04e3 3E000000 		.long	.LFE7-.LFB7
 1624 04e7 01       		.uleb128 0x1
 1625 04e8 9C       		.byte	0x9c
 1626 04e9 21050000 		.long	0x521
 1627 04ed 16       		.uleb128 0x16
 1628 04ee 717000   		.string	"qp"
 1629 04f1 01       		.byte	0x1
 1630 04f2 46       		.byte	0x46
 1631 04f3 59040000 		.long	0x459
 1632 04f7 01       		.uleb128 0x1
 1633 04f8 50       		.byte	0x50
 1634 04f9 17       		.uleb128 0x17
GAS LISTING /tmp/ccjuMB99.s 			page 38


 1635 04fa 0A020000 		.long	.LASF76
 1636 04fe 01       		.byte	0x1
 1637 04ff 46       		.byte	0x46
 1638 0500 EF000000 		.long	0xef
 1639 0504 01       		.uleb128 0x1
 1640 0505 52       		.byte	0x52
 1641 0506 18       		.uleb128 0x18
 1642 0507 86040000 		.long	0x486
 1643 050b 11000000 		.long	.LBB12
 1644 050f 0D000000 		.long	.LBE12-.LBB12
 1645 0513 01       		.byte	0x1
 1646 0514 4B       		.byte	0x4b
 1647 0515 19       		.uleb128 0x19
 1648 0516 9C040000 		.long	0x49c
 1649 051a 19       		.uleb128 0x19
 1650 051b 92040000 		.long	0x492
 1651 051f 00       		.byte	0
 1652 0520 00       		.byte	0
 1653 0521 1A       		.uleb128 0x1a
 1654 0522 36000000 		.long	.LASF80
 1655 0526 01       		.byte	0x1
 1656 0527 5F       		.byte	0x5f
 1657 0528 40000000 		.long	.LFB8
 1658 052c 33000000 		.long	.LFE8-.LFB8
 1659 0530 01       		.uleb128 0x1
 1660 0531 9C       		.byte	0x9c
 1661 0532 7C050000 		.long	0x57c
 1662 0536 16       		.uleb128 0x16
 1663 0537 69717000 		.string	"iqp"
 1664 053b 01       		.byte	0x1
 1665 053c 5F       		.byte	0x5f
 1666 053d 7C050000 		.long	0x57c
 1667 0541 02       		.uleb128 0x2
 1668 0542 91       		.byte	0x91
 1669 0543 00       		.sleb128 0
 1670 0544 16       		.uleb128 0x16
 1671 0545 627000   		.string	"bp"
 1672 0548 01       		.byte	0x1
 1673 0549 5F       		.byte	0x5f
 1674 054a 5F040000 		.long	0x45f
 1675 054e 02       		.uleb128 0x2
 1676 054f 91       		.byte	0x91
 1677 0550 04       		.sleb128 4
 1678 0551 17       		.uleb128 0x17
 1679 0552 6F010000 		.long	.LASF77
 1680 0556 01       		.byte	0x1
 1681 0557 5F       		.byte	0x5f
 1682 0558 2C000000 		.long	0x2c
 1683 055c 02       		.uleb128 0x2
 1684 055d 91       		.byte	0x91
 1685 055e 08       		.sleb128 8
 1686 055f 17       		.uleb128 0x17
 1687 0560 08030000 		.long	.LASF78
 1688 0564 01       		.byte	0x1
 1689 0565 5F       		.byte	0x5f
 1690 0566 3D040000 		.long	0x43d
 1691 056a 02       		.uleb128 0x2
GAS LISTING /tmp/ccjuMB99.s 			page 39


 1692 056b 91       		.byte	0x91
 1693 056c 0C       		.sleb128 12
 1694 056d 17       		.uleb128 0x17
 1695 056e 27010000 		.long	.LASF79
 1696 0572 01       		.byte	0x1
 1697 0573 60       		.byte	0x60
 1698 0574 66020000 		.long	0x266
 1699 0578 02       		.uleb128 0x2
 1700 0579 91       		.byte	0x91
 1701 057a 10       		.sleb128 16
 1702 057b 00       		.byte	0
 1703 057c 09       		.uleb128 0x9
 1704 057d 04       		.byte	0x4
 1705 057e 65040000 		.long	0x465
 1706 0582 1A       		.uleb128 0x1a
 1707 0583 51010000 		.long	.LASF81
 1708 0587 01       		.byte	0x1
 1709 0588 75       		.byte	0x75
 1710 0589 80000000 		.long	.LFB9
 1711 058d 41000000 		.long	.LFE9-.LFB9
 1712 0591 01       		.uleb128 0x1
 1713 0592 9C       		.byte	0x9c
 1714 0593 DF050000 		.long	0x5df
 1715 0597 16       		.uleb128 0x16
 1716 0598 69717000 		.string	"iqp"
 1717 059c 01       		.byte	0x1
 1718 059d 75       		.byte	0x75
 1719 059e 7C050000 		.long	0x57c
 1720 05a2 02       		.uleb128 0x2
 1721 05a3 91       		.byte	0x91
 1722 05a4 00       		.sleb128 0
 1723 05a5 1B       		.uleb128 0x1b
 1724 05a6 AE040000 		.long	0x4ae
 1725 05aa A0000000 		.long	.LBB14
 1726 05ae 07000000 		.long	.LBE14-.LBB14
 1727 05b2 01       		.byte	0x1
 1728 05b3 7C       		.byte	0x7c
 1729 05b4 D5050000 		.long	0x5d5
 1730 05b8 1C       		.uleb128 0x1c
 1731 05b9 BE040000 		.long	0x4be
 1732 05bd 00000000 		.long	.LLST0
 1733 05c1 1D       		.uleb128 0x1d
 1734 05c2 A0000000 		.long	.LBB15
 1735 05c6 07000000 		.long	.LBE15-.LBB15
 1736 05ca 1E       		.uleb128 0x1e
 1737 05cb C9040000 		.long	0x4c9
 1738 05cf 13000000 		.long	.LLST1
 1739 05d3 00       		.byte	0
 1740 05d4 00       		.byte	0
 1741 05d5 1F       		.uleb128 0x1f
 1742 05d6 AF000000 		.long	.LVL3
 1743 05da CC090000 		.long	0x9cc
 1744 05de 00       		.byte	0
 1745 05df 20       		.uleb128 0x20
 1746 05e0 3B010000 		.long	.LASF82
 1747 05e4 01       		.byte	0x1
 1748 05e5 8C       		.byte	0x8c
GAS LISTING /tmp/ccjuMB99.s 			page 40


 1749 05e6 D9000000 		.long	0xd9
 1750 05ea D0000000 		.long	.LFB10
 1751 05ee 6F000000 		.long	.LFE10-.LFB10
 1752 05f2 01       		.uleb128 0x1
 1753 05f3 9C       		.byte	0x9c
 1754 05f4 4C060000 		.long	0x64c
 1755 05f8 16       		.uleb128 0x16
 1756 05f9 69717000 		.string	"iqp"
 1757 05fd 01       		.byte	0x1
 1758 05fe 8C       		.byte	0x8c
 1759 05ff 7C050000 		.long	0x57c
 1760 0603 02       		.uleb128 0x2
 1761 0604 91       		.byte	0x91
 1762 0605 00       		.sleb128 0
 1763 0606 16       		.uleb128 0x16
 1764 0607 6200     		.string	"b"
 1765 0609 01       		.byte	0x1
 1766 060a 8C       		.byte	0x8c
 1767 060b 65000000 		.long	0x65
 1768 060f 02       		.uleb128 0x2
 1769 0610 91       		.byte	0x91
 1770 0611 04       		.sleb128 4
 1771 0612 1B       		.uleb128 0x1b
 1772 0613 AE040000 		.long	0x4ae
 1773 0617 05010000 		.long	.LBB16
 1774 061b 07000000 		.long	.LBE16-.LBB16
 1775 061f 01       		.byte	0x1
 1776 0620 99       		.byte	0x99
 1777 0621 42060000 		.long	0x642
 1778 0625 1C       		.uleb128 0x1c
 1779 0626 BE040000 		.long	0x4be
 1780 062a 26000000 		.long	.LLST2
 1781 062e 1D       		.uleb128 0x1d
 1782 062f 05010000 		.long	.LBB17
 1783 0633 07000000 		.long	.LBE17-.LBB17
 1784 0637 1E       		.uleb128 0x1e
 1785 0638 C9040000 		.long	0x4c9
 1786 063c 45000000 		.long	.LLST3
 1787 0640 00       		.byte	0
 1788 0641 00       		.byte	0
 1789 0642 1F       		.uleb128 0x1f
 1790 0643 14010000 		.long	.LVL7
 1791 0647 CC090000 		.long	0x9cc
 1792 064b 00       		.byte	0
 1793 064c 20       		.uleb128 0x20
 1794 064d 07040000 		.long	.LASF83
 1795 0651 01       		.byte	0x1
 1796 0652 B2       		.byte	0xb2
 1797 0653 D9000000 		.long	0xd9
 1798 0657 40010000 		.long	.LFB11
 1799 065b 58000000 		.long	.LFE11-.LFB11
 1800 065f 01       		.uleb128 0x1
 1801 0660 9C       		.byte	0x9c
 1802 0661 CF060000 		.long	0x6cf
 1803 0665 16       		.uleb128 0x16
 1804 0666 69717000 		.string	"iqp"
 1805 066a 01       		.byte	0x1
GAS LISTING /tmp/ccjuMB99.s 			page 41


 1806 066b B2       		.byte	0xb2
 1807 066c 7C050000 		.long	0x57c
 1808 0670 02       		.uleb128 0x2
 1809 0671 91       		.byte	0x91
 1810 0672 00       		.sleb128 0
 1811 0673 17       		.uleb128 0x17
 1812 0674 0A020000 		.long	.LASF76
 1813 0678 01       		.byte	0x1
 1814 0679 B2       		.byte	0xb2
 1815 067a EF000000 		.long	0xef
 1816 067e 02       		.uleb128 0x2
 1817 067f 91       		.byte	0x91
 1818 0680 04       		.sleb128 4
 1819 0681 21       		.uleb128 0x21
 1820 0682 6200     		.string	"b"
 1821 0684 01       		.byte	0x1
 1822 0685 B3       		.byte	0xb3
 1823 0686 65000000 		.long	0x65
 1824 068a 58000000 		.long	.LLST4
 1825 068e 22       		.uleb128 0x22
 1826 068f 60010000 		.long	.LBB18
 1827 0693 0D000000 		.long	.LBE18-.LBB18
 1828 0697 C1060000 		.long	0x6c1
 1829 069b 21       		.uleb128 0x21
 1830 069c 6D736700 		.string	"msg"
 1831 06a0 01       		.byte	0x1
 1832 06a1 BA       		.byte	0xba
 1833 06a2 D9000000 		.long	0xd9
 1834 06a6 6B000000 		.long	.LLST5
 1835 06aa 23       		.uleb128 0x23
 1836 06ab 69010000 		.long	.LVL11
 1837 06af D4040000 		.long	0x4d4
 1838 06b3 24       		.uleb128 0x24
 1839 06b4 01       		.uleb128 0x1
 1840 06b5 50       		.byte	0x50
 1841 06b6 02       		.uleb128 0x2
 1842 06b7 73       		.byte	0x73
 1843 06b8 00       		.sleb128 0
 1844 06b9 24       		.uleb128 0x24
 1845 06ba 01       		.uleb128 0x1
 1846 06bb 52       		.byte	0x52
 1847 06bc 02       		.uleb128 0x2
 1848 06bd 76       		.byte	0x76
 1849 06be 00       		.sleb128 0
 1850 06bf 00       		.byte	0
 1851 06c0 00       		.byte	0
 1852 06c1 25       		.uleb128 0x25
 1853 06c2 5A010000 		.long	.LVL10
 1854 06c6 24       		.uleb128 0x24
 1855 06c7 02       		.uleb128 0x2
 1856 06c8 74       		.byte	0x74
 1857 06c9 00       		.sleb128 0
 1858 06ca 02       		.uleb128 0x2
 1859 06cb 73       		.byte	0x73
 1860 06cc 00       		.sleb128 0
 1861 06cd 00       		.byte	0
 1862 06ce 00       		.byte	0
GAS LISTING /tmp/ccjuMB99.s 			page 42


 1863 06cf 20       		.uleb128 0x20
 1864 06d0 4B000000 		.long	.LASF84
 1865 06d4 01       		.byte	0x1
 1866 06d5 E2       		.byte	0xe2
 1867 06d6 2C000000 		.long	0x2c
 1868 06da A0010000 		.long	.LFB12
 1869 06de 73000000 		.long	.LFE12-.LFB12
 1870 06e2 01       		.uleb128 0x1
 1871 06e3 9C       		.byte	0x9c
 1872 06e4 66070000 		.long	0x766
 1873 06e8 16       		.uleb128 0x16
 1874 06e9 69717000 		.string	"iqp"
 1875 06ed 01       		.byte	0x1
 1876 06ee E2       		.byte	0xe2
 1877 06ef 7C050000 		.long	0x57c
 1878 06f3 02       		.uleb128 0x2
 1879 06f4 91       		.byte	0x91
 1880 06f5 00       		.sleb128 0
 1881 06f6 26       		.uleb128 0x26
 1882 06f7 627000   		.string	"bp"
 1883 06fa 01       		.byte	0x1
 1884 06fb E2       		.byte	0xe2
 1885 06fc 5F040000 		.long	0x45f
 1886 0700 7E000000 		.long	.LLST6
 1887 0704 26       		.uleb128 0x26
 1888 0705 6E00     		.string	"n"
 1889 0707 01       		.byte	0x1
 1890 0708 E3       		.byte	0xe3
 1891 0709 2C000000 		.long	0x2c
 1892 070d D6000000 		.long	.LLST7
 1893 0711 17       		.uleb128 0x17
 1894 0712 0A020000 		.long	.LASF76
 1895 0716 01       		.byte	0x1
 1896 0717 E3       		.byte	0xe3
 1897 0718 EF000000 		.long	0xef
 1898 071c 02       		.uleb128 0x2
 1899 071d 91       		.byte	0x91
 1900 071e 0C       		.sleb128 12
 1901 071f 21       		.uleb128 0x21
 1902 0720 6E667900 		.string	"nfy"
 1903 0724 01       		.byte	0x1
 1904 0725 E4       		.byte	0xe4
 1905 0726 3D040000 		.long	0x43d
 1906 072a FB000000 		.long	.LLST8
 1907 072e 21       		.uleb128 0x21
 1908 072f 7200     		.string	"r"
 1909 0731 01       		.byte	0x1
 1910 0732 E5       		.byte	0xe5
 1911 0733 2C000000 		.long	0x2c
 1912 0737 0E010000 		.long	.LLST9
 1913 073b 27       		.uleb128 0x27
 1914 073c BE010000 		.long	.LVL18
 1915 0740 02       		.uleb128 0x2
 1916 0741 77       		.byte	0x77
 1917 0742 00       		.sleb128 0
 1918 0743 4F070000 		.long	0x74f
 1919 0747 24       		.uleb128 0x24
GAS LISTING /tmp/ccjuMB99.s 			page 43


 1920 0748 02       		.uleb128 0x2
 1921 0749 74       		.byte	0x74
 1922 074a 00       		.sleb128 0
 1923 074b 02       		.uleb128 0x2
 1924 074c 75       		.byte	0x75
 1925 074d 00       		.sleb128 0
 1926 074e 00       		.byte	0
 1927 074f 23       		.uleb128 0x23
 1928 0750 C9010000 		.long	.LVL19
 1929 0754 D4040000 		.long	0x4d4
 1930 0758 24       		.uleb128 0x24
 1931 0759 01       		.uleb128 0x1
 1932 075a 50       		.byte	0x50
 1933 075b 02       		.uleb128 0x2
 1934 075c 75       		.byte	0x75
 1935 075d 00       		.sleb128 0
 1936 075e 24       		.uleb128 0x24
 1937 075f 01       		.uleb128 0x1
 1938 0760 52       		.byte	0x52
 1939 0761 02       		.uleb128 0x2
 1940 0762 73       		.byte	0x73
 1941 0763 00       		.sleb128 0
 1942 0764 00       		.byte	0
 1943 0765 00       		.byte	0
 1944 0766 28       		.uleb128 0x28
 1945 0767 00000000 		.long	.LASF85
 1946 076b 01       		.byte	0x1
 1947 076c 1301     		.value	0x113
 1948 076e 20020000 		.long	.LFB13
 1949 0772 31000000 		.long	.LFE13-.LFB13
 1950 0776 01       		.uleb128 0x1
 1951 0777 9C       		.byte	0x9c
 1952 0778 C7070000 		.long	0x7c7
 1953 077c 29       		.uleb128 0x29
 1954 077d 6F717000 		.string	"oqp"
 1955 0781 01       		.byte	0x1
 1956 0782 1301     		.value	0x113
 1957 0784 C7070000 		.long	0x7c7
 1958 0788 02       		.uleb128 0x2
 1959 0789 91       		.byte	0x91
 1960 078a 00       		.sleb128 0
 1961 078b 29       		.uleb128 0x29
 1962 078c 627000   		.string	"bp"
 1963 078f 01       		.byte	0x1
 1964 0790 1301     		.value	0x113
 1965 0792 5F040000 		.long	0x45f
 1966 0796 02       		.uleb128 0x2
 1967 0797 91       		.byte	0x91
 1968 0798 04       		.sleb128 4
 1969 0799 2A       		.uleb128 0x2a
 1970 079a 6F010000 		.long	.LASF77
 1971 079e 01       		.byte	0x1
 1972 079f 1301     		.value	0x113
 1973 07a1 2C000000 		.long	0x2c
 1974 07a5 02       		.uleb128 0x2
 1975 07a6 91       		.byte	0x91
 1976 07a7 08       		.sleb128 8
GAS LISTING /tmp/ccjuMB99.s 			page 44


 1977 07a8 2A       		.uleb128 0x2a
 1978 07a9 23000000 		.long	.LASF86
 1979 07ad 01       		.byte	0x1
 1980 07ae 1301     		.value	0x113
 1981 07b0 3D040000 		.long	0x43d
 1982 07b4 02       		.uleb128 0x2
 1983 07b5 91       		.byte	0x91
 1984 07b6 0C       		.sleb128 12
 1985 07b7 2A       		.uleb128 0x2a
 1986 07b8 27010000 		.long	.LASF79
 1987 07bc 01       		.byte	0x1
 1988 07bd 1401     		.value	0x114
 1989 07bf 66020000 		.long	0x266
 1990 07c3 02       		.uleb128 0x2
 1991 07c4 91       		.byte	0x91
 1992 07c5 10       		.sleb128 16
 1993 07c6 00       		.byte	0
 1994 07c7 09       		.uleb128 0x9
 1995 07c8 04       		.byte	0x4
 1996 07c9 70040000 		.long	0x470
 1997 07cd 28       		.uleb128 0x28
 1998 07ce 6A030000 		.long	.LASF87
 1999 07d2 01       		.byte	0x1
 2000 07d3 2901     		.value	0x129
 2001 07d5 60020000 		.long	.LFB14
 2002 07d9 41000000 		.long	.LFE14-.LFB14
 2003 07dd 01       		.uleb128 0x1
 2004 07de 9C       		.byte	0x9c
 2005 07df 2D080000 		.long	0x82d
 2006 07e3 29       		.uleb128 0x29
 2007 07e4 6F717000 		.string	"oqp"
 2008 07e8 01       		.byte	0x1
 2009 07e9 2901     		.value	0x129
 2010 07eb C7070000 		.long	0x7c7
 2011 07ef 02       		.uleb128 0x2
 2012 07f0 91       		.byte	0x91
 2013 07f1 00       		.sleb128 0
 2014 07f2 2B       		.uleb128 0x2b
 2015 07f3 AE040000 		.long	0x4ae
 2016 07f7 80020000 		.long	.LBB19
 2017 07fb 07000000 		.long	.LBE19-.LBB19
 2018 07ff 01       		.byte	0x1
 2019 0800 3001     		.value	0x130
 2020 0802 23080000 		.long	0x823
 2021 0806 1C       		.uleb128 0x1c
 2022 0807 BE040000 		.long	0x4be
 2023 080b 38010000 		.long	.LLST10
 2024 080f 1D       		.uleb128 0x1d
 2025 0810 80020000 		.long	.LBB20
 2026 0814 07000000 		.long	.LBE20-.LBB20
 2027 0818 1E       		.uleb128 0x1e
 2028 0819 C9040000 		.long	0x4c9
 2029 081d 4B010000 		.long	.LLST11
 2030 0821 00       		.byte	0
 2031 0822 00       		.byte	0
 2032 0823 1F       		.uleb128 0x1f
 2033 0824 8F020000 		.long	.LVL29
GAS LISTING /tmp/ccjuMB99.s 			page 45


 2034 0828 CC090000 		.long	0x9cc
 2035 082c 00       		.byte	0
 2036 082d 2C       		.uleb128 0x2c
 2037 082e 2C010000 		.long	.LASF88
 2038 0832 01       		.byte	0x1
 2039 0833 4901     		.value	0x149
 2040 0835 D9000000 		.long	0xd9
 2041 0839 B0020000 		.long	.LFB15
 2042 083d 70000000 		.long	.LFE15-.LFB15
 2043 0841 01       		.uleb128 0x1
 2044 0842 9C       		.byte	0x9c
 2045 0843 B0080000 		.long	0x8b0
 2046 0847 29       		.uleb128 0x29
 2047 0848 6F717000 		.string	"oqp"
 2048 084c 01       		.byte	0x1
 2049 084d 4901     		.value	0x149
 2050 084f C7070000 		.long	0x7c7
 2051 0853 02       		.uleb128 0x2
 2052 0854 91       		.byte	0x91
 2053 0855 00       		.sleb128 0
 2054 0856 29       		.uleb128 0x29
 2055 0857 6200     		.string	"b"
 2056 0859 01       		.byte	0x1
 2057 085a 4901     		.value	0x149
 2058 085c 65000000 		.long	0x65
 2059 0860 02       		.uleb128 0x2
 2060 0861 91       		.byte	0x91
 2061 0862 04       		.sleb128 4
 2062 0863 2A       		.uleb128 0x2a
 2063 0864 0A020000 		.long	.LASF76
 2064 0868 01       		.byte	0x1
 2065 0869 4901     		.value	0x149
 2066 086b EF000000 		.long	0xef
 2067 086f 02       		.uleb128 0x2
 2068 0870 91       		.byte	0x91
 2069 0871 08       		.sleb128 8
 2070 0872 2D       		.uleb128 0x2d
 2071 0873 00000000 		.long	.Ldebug_ranges0+0
 2072 0877 A2080000 		.long	0x8a2
 2073 087b 2E       		.uleb128 0x2e
 2074 087c 6D736700 		.string	"msg"
 2075 0880 01       		.byte	0x1
 2076 0881 4D01     		.value	0x14d
 2077 0883 D9000000 		.long	0xd9
 2078 0887 5E010000 		.long	.LLST12
 2079 088b 23       		.uleb128 0x23
 2080 088c D1020000 		.long	.LVL32
 2081 0890 D4040000 		.long	0x4d4
 2082 0894 24       		.uleb128 0x24
 2083 0895 01       		.uleb128 0x1
 2084 0896 50       		.byte	0x50
 2085 0897 02       		.uleb128 0x2
 2086 0898 73       		.byte	0x73
 2087 0899 00       		.sleb128 0
 2088 089a 24       		.uleb128 0x24
 2089 089b 01       		.uleb128 0x1
 2090 089c 52       		.byte	0x52
GAS LISTING /tmp/ccjuMB99.s 			page 46


 2091 089d 02       		.uleb128 0x2
 2092 089e 76       		.byte	0x76
 2093 089f 00       		.sleb128 0
 2094 08a0 00       		.byte	0
 2095 08a1 00       		.byte	0
 2096 08a2 25       		.uleb128 0x25
 2097 08a3 09030000 		.long	.LVL34
 2098 08a7 24       		.uleb128 0x24
 2099 08a8 02       		.uleb128 0x2
 2100 08a9 74       		.byte	0x74
 2101 08aa 00       		.sleb128 0
 2102 08ab 02       		.uleb128 0x2
 2103 08ac 73       		.byte	0x73
 2104 08ad 00       		.sleb128 0
 2105 08ae 00       		.byte	0
 2106 08af 00       		.byte	0
 2107 08b0 2C       		.uleb128 0x2c
 2108 08b1 FD000000 		.long	.LASF89
 2109 08b5 01       		.byte	0x1
 2110 08b6 6B01     		.value	0x16b
 2111 08b8 D9000000 		.long	0xd9
 2112 08bc 20030000 		.long	.LFB16
 2113 08c0 68000000 		.long	.LFE16-.LFB16
 2114 08c4 01       		.uleb128 0x1
 2115 08c5 9C       		.byte	0x9c
 2116 08c6 22090000 		.long	0x922
 2117 08ca 29       		.uleb128 0x29
 2118 08cb 6F717000 		.string	"oqp"
 2119 08cf 01       		.byte	0x1
 2120 08d0 6B01     		.value	0x16b
 2121 08d2 C7070000 		.long	0x7c7
 2122 08d6 02       		.uleb128 0x2
 2123 08d7 91       		.byte	0x91
 2124 08d8 00       		.sleb128 0
 2125 08d9 2E       		.uleb128 0x2e
 2126 08da 6200     		.string	"b"
 2127 08dc 01       		.byte	0x1
 2128 08dd 6C01     		.value	0x16c
 2129 08df 65000000 		.long	0x65
 2130 08e3 7C010000 		.long	.LLST13
 2131 08e7 2B       		.uleb128 0x2b
 2132 08e8 AE040000 		.long	0x4ae
 2133 08ec 4E030000 		.long	.LBB23
 2134 08f0 07000000 		.long	.LBE23-.LBB23
 2135 08f4 01       		.byte	0x1
 2136 08f5 7901     		.value	0x179
 2137 08f7 18090000 		.long	0x918
 2138 08fb 1C       		.uleb128 0x1c
 2139 08fc BE040000 		.long	0x4be
 2140 0900 9A010000 		.long	.LLST14
 2141 0904 1D       		.uleb128 0x1d
 2142 0905 4E030000 		.long	.LBB24
 2143 0909 07000000 		.long	.LBE24-.LBB24
 2144 090d 1E       		.uleb128 0x1e
 2145 090e C9040000 		.long	0x4c9
 2146 0912 B9010000 		.long	.LLST15
 2147 0916 00       		.byte	0
GAS LISTING /tmp/ccjuMB99.s 			page 47


 2148 0917 00       		.byte	0
 2149 0918 1F       		.uleb128 0x1f
 2150 0919 5D030000 		.long	.LVL39
 2151 091d CC090000 		.long	0x9cc
 2152 0921 00       		.byte	0
 2153 0922 2C       		.uleb128 0x2c
 2154 0923 CB010000 		.long	.LASF90
 2155 0927 01       		.byte	0x1
 2156 0928 9601     		.value	0x196
 2157 092a 2C000000 		.long	0x2c
 2158 092e 90030000 		.long	.LFB17
 2159 0932 92000000 		.long	.LFE17-.LFB17
 2160 0936 01       		.uleb128 0x1
 2161 0937 9C       		.byte	0x9c
 2162 0938 C1090000 		.long	0x9c1
 2163 093c 29       		.uleb128 0x29
 2164 093d 6F717000 		.string	"oqp"
 2165 0941 01       		.byte	0x1
 2166 0942 9601     		.value	0x196
 2167 0944 C7070000 		.long	0x7c7
 2168 0948 02       		.uleb128 0x2
 2169 0949 91       		.byte	0x91
 2170 094a 00       		.sleb128 0
 2171 094b 2F       		.uleb128 0x2f
 2172 094c 627000   		.string	"bp"
 2173 094f 01       		.byte	0x1
 2174 0950 9601     		.value	0x196
 2175 0952 7B040000 		.long	0x47b
 2176 0956 CC010000 		.long	.LLST16
 2177 095a 2F       		.uleb128 0x2f
 2178 095b 6E00     		.string	"n"
 2179 095d 01       		.byte	0x1
 2180 095e 9701     		.value	0x197
 2181 0960 2C000000 		.long	0x2c
 2182 0964 24020000 		.long	.LLST17
 2183 0968 2A       		.uleb128 0x2a
 2184 0969 0A020000 		.long	.LASF76
 2185 096d 01       		.byte	0x1
 2186 096e 9701     		.value	0x197
 2187 0970 EF000000 		.long	0xef
 2188 0974 02       		.uleb128 0x2
 2189 0975 91       		.byte	0x91
 2190 0976 0C       		.sleb128 12
 2191 0977 2E       		.uleb128 0x2e
 2192 0978 6E667900 		.string	"nfy"
 2193 097c 01       		.byte	0x1
 2194 097d 9801     		.value	0x198
 2195 097f 3D040000 		.long	0x43d
 2196 0983 5B020000 		.long	.LLST18
 2197 0987 2E       		.uleb128 0x2e
 2198 0988 7700     		.string	"w"
 2199 098a 01       		.byte	0x1
 2200 098b 9901     		.value	0x199
 2201 098d 2C000000 		.long	0x2c
 2202 0991 6E020000 		.long	.LLST19
 2203 0995 27       		.uleb128 0x27
 2204 0996 E9030000 		.long	.LVL48
GAS LISTING /tmp/ccjuMB99.s 			page 48


 2205 099a 02       		.uleb128 0x2
 2206 099b 75       		.byte	0x75
 2207 099c 00       		.sleb128 0
 2208 099d A9090000 		.long	0x9a9
 2209 09a1 24       		.uleb128 0x24
 2210 09a2 02       		.uleb128 0x2
 2211 09a3 74       		.byte	0x74
 2212 09a4 00       		.sleb128 0
 2213 09a5 02       		.uleb128 0x2
 2214 09a6 73       		.byte	0x73
 2215 09a7 00       		.sleb128 0
 2216 09a8 00       		.byte	0
 2217 09a9 23       		.uleb128 0x23
 2218 09aa 0F040000 		.long	.LVL54
 2219 09ae D4040000 		.long	0x4d4
 2220 09b2 24       		.uleb128 0x24
 2221 09b3 01       		.uleb128 0x1
 2222 09b4 50       		.byte	0x50
 2223 09b5 02       		.uleb128 0x2
 2224 09b6 73       		.byte	0x73
 2225 09b7 00       		.sleb128 0
 2226 09b8 24       		.uleb128 0x24
 2227 09b9 01       		.uleb128 0x1
 2228 09ba 52       		.byte	0x52
 2229 09bb 03       		.uleb128 0x3
 2230 09bc 91       		.byte	0x91
 2231 09bd 0C       		.sleb128 12
 2232 09be 06       		.byte	0x6
 2233 09bf 00       		.byte	0
 2234 09c0 00       		.byte	0
 2235 09c1 30       		.uleb128 0x30
 2236 09c2 C5030000 		.long	.LASF97
 2237 09c6 09       		.byte	0x9
 2238 09c7 6F       		.byte	0x6f
 2239 09c8 2B030000 		.long	0x32b
 2240 09cc 31       		.uleb128 0x31
 2241 09cd 38030000 		.long	.LASF98
 2242 09d1 09       		.byte	0x9
 2243 09d2 90       		.byte	0x90
 2244 09d3 23020000 		.long	0x223
 2245 09d7 10       		.uleb128 0x10
 2246 09d8 23020000 		.long	0x223
 2247 09dc 00       		.byte	0
 2248 09dd 00       		.byte	0
 2249              		.section	.debug_abbrev,"",@progbits
 2250              	.Ldebug_abbrev0:
 2251 0000 01       		.uleb128 0x1
 2252 0001 11       		.uleb128 0x11
 2253 0002 01       		.byte	0x1
 2254 0003 25       		.uleb128 0x25
 2255 0004 0E       		.uleb128 0xe
 2256 0005 13       		.uleb128 0x13
 2257 0006 0B       		.uleb128 0xb
 2258 0007 03       		.uleb128 0x3
 2259 0008 0E       		.uleb128 0xe
 2260 0009 1B       		.uleb128 0x1b
 2261 000a 0E       		.uleb128 0xe
GAS LISTING /tmp/ccjuMB99.s 			page 49


 2262 000b 11       		.uleb128 0x11
 2263 000c 01       		.uleb128 0x1
 2264 000d 12       		.uleb128 0x12
 2265 000e 06       		.uleb128 0x6
 2266 000f 10       		.uleb128 0x10
 2267 0010 17       		.uleb128 0x17
 2268 0011 00       		.byte	0
 2269 0012 00       		.byte	0
 2270 0013 02       		.uleb128 0x2
 2271 0014 24       		.uleb128 0x24
 2272 0015 00       		.byte	0
 2273 0016 0B       		.uleb128 0xb
 2274 0017 0B       		.uleb128 0xb
 2275 0018 3E       		.uleb128 0x3e
 2276 0019 0B       		.uleb128 0xb
 2277 001a 03       		.uleb128 0x3
 2278 001b 08       		.uleb128 0x8
 2279 001c 00       		.byte	0
 2280 001d 00       		.byte	0
 2281 001e 03       		.uleb128 0x3
 2282 001f 16       		.uleb128 0x16
 2283 0020 00       		.byte	0
 2284 0021 03       		.uleb128 0x3
 2285 0022 0E       		.uleb128 0xe
 2286 0023 3A       		.uleb128 0x3a
 2287 0024 0B       		.uleb128 0xb
 2288 0025 3B       		.uleb128 0x3b
 2289 0026 0B       		.uleb128 0xb
 2290 0027 49       		.uleb128 0x49
 2291 0028 13       		.uleb128 0x13
 2292 0029 00       		.byte	0
 2293 002a 00       		.byte	0
 2294 002b 04       		.uleb128 0x4
 2295 002c 24       		.uleb128 0x24
 2296 002d 00       		.byte	0
 2297 002e 0B       		.uleb128 0xb
 2298 002f 0B       		.uleb128 0xb
 2299 0030 3E       		.uleb128 0x3e
 2300 0031 0B       		.uleb128 0xb
 2301 0032 03       		.uleb128 0x3
 2302 0033 0E       		.uleb128 0xe
 2303 0034 00       		.byte	0
 2304 0035 00       		.byte	0
 2305 0036 05       		.uleb128 0x5
 2306 0037 13       		.uleb128 0x13
 2307 0038 01       		.byte	0x1
 2308 0039 03       		.uleb128 0x3
 2309 003a 0E       		.uleb128 0xe
 2310 003b 0B       		.uleb128 0xb
 2311 003c 0B       		.uleb128 0xb
 2312 003d 3A       		.uleb128 0x3a
 2313 003e 0B       		.uleb128 0xb
 2314 003f 3B       		.uleb128 0x3b
 2315 0040 0B       		.uleb128 0xb
 2316 0041 01       		.uleb128 0x1
 2317 0042 13       		.uleb128 0x13
 2318 0043 00       		.byte	0
GAS LISTING /tmp/ccjuMB99.s 			page 50


 2319 0044 00       		.byte	0
 2320 0045 06       		.uleb128 0x6
 2321 0046 0D       		.uleb128 0xd
 2322 0047 00       		.byte	0
 2323 0048 03       		.uleb128 0x3
 2324 0049 0E       		.uleb128 0xe
 2325 004a 3A       		.uleb128 0x3a
 2326 004b 0B       		.uleb128 0xb
 2327 004c 3B       		.uleb128 0x3b
 2328 004d 0B       		.uleb128 0xb
 2329 004e 49       		.uleb128 0x49
 2330 004f 13       		.uleb128 0x13
 2331 0050 38       		.uleb128 0x38
 2332 0051 0B       		.uleb128 0xb
 2333 0052 00       		.byte	0
 2334 0053 00       		.byte	0
 2335 0054 07       		.uleb128 0x7
 2336 0055 0D       		.uleb128 0xd
 2337 0056 00       		.byte	0
 2338 0057 03       		.uleb128 0x3
 2339 0058 08       		.uleb128 0x8
 2340 0059 3A       		.uleb128 0x3a
 2341 005a 0B       		.uleb128 0xb
 2342 005b 3B       		.uleb128 0x3b
 2343 005c 0B       		.uleb128 0xb
 2344 005d 49       		.uleb128 0x49
 2345 005e 13       		.uleb128 0x13
 2346 005f 38       		.uleb128 0x38
 2347 0060 0B       		.uleb128 0xb
 2348 0061 00       		.byte	0
 2349 0062 00       		.byte	0
 2350 0063 08       		.uleb128 0x8
 2351 0064 13       		.uleb128 0x13
 2352 0065 01       		.byte	0x1
 2353 0066 0B       		.uleb128 0xb
 2354 0067 0B       		.uleb128 0xb
 2355 0068 3A       		.uleb128 0x3a
 2356 0069 0B       		.uleb128 0xb
 2357 006a 3B       		.uleb128 0x3b
 2358 006b 0B       		.uleb128 0xb
 2359 006c 01       		.uleb128 0x1
 2360 006d 13       		.uleb128 0x13
 2361 006e 00       		.byte	0
 2362 006f 00       		.byte	0
 2363 0070 09       		.uleb128 0x9
 2364 0071 0F       		.uleb128 0xf
 2365 0072 00       		.byte	0
 2366 0073 0B       		.uleb128 0xb
 2367 0074 0B       		.uleb128 0xb
 2368 0075 49       		.uleb128 0x49
 2369 0076 13       		.uleb128 0x13
 2370 0077 00       		.byte	0
 2371 0078 00       		.byte	0
 2372 0079 0A       		.uleb128 0xa
 2373 007a 0F       		.uleb128 0xf
 2374 007b 00       		.byte	0
 2375 007c 0B       		.uleb128 0xb
GAS LISTING /tmp/ccjuMB99.s 			page 51


 2376 007d 0B       		.uleb128 0xb
 2377 007e 00       		.byte	0
 2378 007f 00       		.byte	0
 2379 0080 0B       		.uleb128 0xb
 2380 0081 35       		.uleb128 0x35
 2381 0082 00       		.byte	0
 2382 0083 49       		.uleb128 0x49
 2383 0084 13       		.uleb128 0x13
 2384 0085 00       		.byte	0
 2385 0086 00       		.byte	0
 2386 0087 0C       		.uleb128 0xc
 2387 0088 17       		.uleb128 0x17
 2388 0089 01       		.byte	0x1
 2389 008a 0B       		.uleb128 0xb
 2390 008b 0B       		.uleb128 0xb
 2391 008c 3A       		.uleb128 0x3a
 2392 008d 0B       		.uleb128 0xb
 2393 008e 3B       		.uleb128 0x3b
 2394 008f 0B       		.uleb128 0xb
 2395 0090 01       		.uleb128 0x1
 2396 0091 13       		.uleb128 0x13
 2397 0092 00       		.byte	0
 2398 0093 00       		.byte	0
 2399 0094 0D       		.uleb128 0xd
 2400 0095 0D       		.uleb128 0xd
 2401 0096 00       		.byte	0
 2402 0097 03       		.uleb128 0x3
 2403 0098 0E       		.uleb128 0xe
 2404 0099 3A       		.uleb128 0x3a
 2405 009a 0B       		.uleb128 0xb
 2406 009b 3B       		.uleb128 0x3b
 2407 009c 0B       		.uleb128 0xb
 2408 009d 49       		.uleb128 0x49
 2409 009e 13       		.uleb128 0x13
 2410 009f 00       		.byte	0
 2411 00a0 00       		.byte	0
 2412 00a1 0E       		.uleb128 0xe
 2413 00a2 26       		.uleb128 0x26
 2414 00a3 00       		.byte	0
 2415 00a4 49       		.uleb128 0x49
 2416 00a5 13       		.uleb128 0x13
 2417 00a6 00       		.byte	0
 2418 00a7 00       		.byte	0
 2419 00a8 0F       		.uleb128 0xf
 2420 00a9 15       		.uleb128 0x15
 2421 00aa 01       		.byte	0x1
 2422 00ab 27       		.uleb128 0x27
 2423 00ac 19       		.uleb128 0x19
 2424 00ad 01       		.uleb128 0x1
 2425 00ae 13       		.uleb128 0x13
 2426 00af 00       		.byte	0
 2427 00b0 00       		.byte	0
 2428 00b1 10       		.uleb128 0x10
 2429 00b2 05       		.uleb128 0x5
 2430 00b3 00       		.byte	0
 2431 00b4 49       		.uleb128 0x49
 2432 00b5 13       		.uleb128 0x13
GAS LISTING /tmp/ccjuMB99.s 			page 52


 2433 00b6 00       		.byte	0
 2434 00b7 00       		.byte	0
 2435 00b8 11       		.uleb128 0x11
 2436 00b9 2E       		.uleb128 0x2e
 2437 00ba 01       		.byte	0x1
 2438 00bb 03       		.uleb128 0x3
 2439 00bc 0E       		.uleb128 0xe
 2440 00bd 3A       		.uleb128 0x3a
 2441 00be 0B       		.uleb128 0xb
 2442 00bf 3B       		.uleb128 0x3b
 2443 00c0 0B       		.uleb128 0xb
 2444 00c1 27       		.uleb128 0x27
 2445 00c2 19       		.uleb128 0x19
 2446 00c3 20       		.uleb128 0x20
 2447 00c4 0B       		.uleb128 0xb
 2448 00c5 01       		.uleb128 0x1
 2449 00c6 13       		.uleb128 0x13
 2450 00c7 00       		.byte	0
 2451 00c8 00       		.byte	0
 2452 00c9 12       		.uleb128 0x12
 2453 00ca 05       		.uleb128 0x5
 2454 00cb 00       		.byte	0
 2455 00cc 03       		.uleb128 0x3
 2456 00cd 08       		.uleb128 0x8
 2457 00ce 3A       		.uleb128 0x3a
 2458 00cf 0B       		.uleb128 0xb
 2459 00d0 3B       		.uleb128 0x3b
 2460 00d1 0B       		.uleb128 0xb
 2461 00d2 49       		.uleb128 0x49
 2462 00d3 13       		.uleb128 0x13
 2463 00d4 00       		.byte	0
 2464 00d5 00       		.byte	0
 2465 00d6 13       		.uleb128 0x13
 2466 00d7 2E       		.uleb128 0x2e
 2467 00d8 01       		.byte	0x1
 2468 00d9 03       		.uleb128 0x3
 2469 00da 0E       		.uleb128 0xe
 2470 00db 3A       		.uleb128 0x3a
 2471 00dc 0B       		.uleb128 0xb
 2472 00dd 3B       		.uleb128 0x3b
 2473 00de 0B       		.uleb128 0xb
 2474 00df 27       		.uleb128 0x27
 2475 00e0 19       		.uleb128 0x19
 2476 00e1 49       		.uleb128 0x49
 2477 00e2 13       		.uleb128 0x13
 2478 00e3 20       		.uleb128 0x20
 2479 00e4 0B       		.uleb128 0xb
 2480 00e5 01       		.uleb128 0x1
 2481 00e6 13       		.uleb128 0x13
 2482 00e7 00       		.byte	0
 2483 00e8 00       		.byte	0
 2484 00e9 14       		.uleb128 0x14
 2485 00ea 34       		.uleb128 0x34
 2486 00eb 00       		.byte	0
 2487 00ec 03       		.uleb128 0x3
 2488 00ed 08       		.uleb128 0x8
 2489 00ee 3A       		.uleb128 0x3a
GAS LISTING /tmp/ccjuMB99.s 			page 53


 2490 00ef 0B       		.uleb128 0xb
 2491 00f0 3B       		.uleb128 0x3b
 2492 00f1 0B       		.uleb128 0xb
 2493 00f2 49       		.uleb128 0x49
 2494 00f3 13       		.uleb128 0x13
 2495 00f4 00       		.byte	0
 2496 00f5 00       		.byte	0
 2497 00f6 15       		.uleb128 0x15
 2498 00f7 2E       		.uleb128 0x2e
 2499 00f8 01       		.byte	0x1
 2500 00f9 03       		.uleb128 0x3
 2501 00fa 0E       		.uleb128 0xe
 2502 00fb 3A       		.uleb128 0x3a
 2503 00fc 0B       		.uleb128 0xb
 2504 00fd 3B       		.uleb128 0x3b
 2505 00fe 0B       		.uleb128 0xb
 2506 00ff 27       		.uleb128 0x27
 2507 0100 19       		.uleb128 0x19
 2508 0101 49       		.uleb128 0x49
 2509 0102 13       		.uleb128 0x13
 2510 0103 11       		.uleb128 0x11
 2511 0104 01       		.uleb128 0x1
 2512 0105 12       		.uleb128 0x12
 2513 0106 06       		.uleb128 0x6
 2514 0107 40       		.uleb128 0x40
 2515 0108 18       		.uleb128 0x18
 2516 0109 9642     		.uleb128 0x2116
 2517 010b 19       		.uleb128 0x19
 2518 010c 01       		.uleb128 0x1
 2519 010d 13       		.uleb128 0x13
 2520 010e 00       		.byte	0
 2521 010f 00       		.byte	0
 2522 0110 16       		.uleb128 0x16
 2523 0111 05       		.uleb128 0x5
 2524 0112 00       		.byte	0
 2525 0113 03       		.uleb128 0x3
 2526 0114 08       		.uleb128 0x8
 2527 0115 3A       		.uleb128 0x3a
 2528 0116 0B       		.uleb128 0xb
 2529 0117 3B       		.uleb128 0x3b
 2530 0118 0B       		.uleb128 0xb
 2531 0119 49       		.uleb128 0x49
 2532 011a 13       		.uleb128 0x13
 2533 011b 02       		.uleb128 0x2
 2534 011c 18       		.uleb128 0x18
 2535 011d 00       		.byte	0
 2536 011e 00       		.byte	0
 2537 011f 17       		.uleb128 0x17
 2538 0120 05       		.uleb128 0x5
 2539 0121 00       		.byte	0
 2540 0122 03       		.uleb128 0x3
 2541 0123 0E       		.uleb128 0xe
 2542 0124 3A       		.uleb128 0x3a
 2543 0125 0B       		.uleb128 0xb
 2544 0126 3B       		.uleb128 0x3b
 2545 0127 0B       		.uleb128 0xb
 2546 0128 49       		.uleb128 0x49
GAS LISTING /tmp/ccjuMB99.s 			page 54


 2547 0129 13       		.uleb128 0x13
 2548 012a 02       		.uleb128 0x2
 2549 012b 18       		.uleb128 0x18
 2550 012c 00       		.byte	0
 2551 012d 00       		.byte	0
 2552 012e 18       		.uleb128 0x18
 2553 012f 1D       		.uleb128 0x1d
 2554 0130 01       		.byte	0x1
 2555 0131 31       		.uleb128 0x31
 2556 0132 13       		.uleb128 0x13
 2557 0133 11       		.uleb128 0x11
 2558 0134 01       		.uleb128 0x1
 2559 0135 12       		.uleb128 0x12
 2560 0136 06       		.uleb128 0x6
 2561 0137 58       		.uleb128 0x58
 2562 0138 0B       		.uleb128 0xb
 2563 0139 59       		.uleb128 0x59
 2564 013a 0B       		.uleb128 0xb
 2565 013b 00       		.byte	0
 2566 013c 00       		.byte	0
 2567 013d 19       		.uleb128 0x19
 2568 013e 05       		.uleb128 0x5
 2569 013f 00       		.byte	0
 2570 0140 31       		.uleb128 0x31
 2571 0141 13       		.uleb128 0x13
 2572 0142 00       		.byte	0
 2573 0143 00       		.byte	0
 2574 0144 1A       		.uleb128 0x1a
 2575 0145 2E       		.uleb128 0x2e
 2576 0146 01       		.byte	0x1
 2577 0147 3F       		.uleb128 0x3f
 2578 0148 19       		.uleb128 0x19
 2579 0149 03       		.uleb128 0x3
 2580 014a 0E       		.uleb128 0xe
 2581 014b 3A       		.uleb128 0x3a
 2582 014c 0B       		.uleb128 0xb
 2583 014d 3B       		.uleb128 0x3b
 2584 014e 0B       		.uleb128 0xb
 2585 014f 27       		.uleb128 0x27
 2586 0150 19       		.uleb128 0x19
 2587 0151 11       		.uleb128 0x11
 2588 0152 01       		.uleb128 0x1
 2589 0153 12       		.uleb128 0x12
 2590 0154 06       		.uleb128 0x6
 2591 0155 40       		.uleb128 0x40
 2592 0156 18       		.uleb128 0x18
 2593 0157 9742     		.uleb128 0x2117
 2594 0159 19       		.uleb128 0x19
 2595 015a 01       		.uleb128 0x1
 2596 015b 13       		.uleb128 0x13
 2597 015c 00       		.byte	0
 2598 015d 00       		.byte	0
 2599 015e 1B       		.uleb128 0x1b
 2600 015f 1D       		.uleb128 0x1d
 2601 0160 01       		.byte	0x1
 2602 0161 31       		.uleb128 0x31
 2603 0162 13       		.uleb128 0x13
GAS LISTING /tmp/ccjuMB99.s 			page 55


 2604 0163 11       		.uleb128 0x11
 2605 0164 01       		.uleb128 0x1
 2606 0165 12       		.uleb128 0x12
 2607 0166 06       		.uleb128 0x6
 2608 0167 58       		.uleb128 0x58
 2609 0168 0B       		.uleb128 0xb
 2610 0169 59       		.uleb128 0x59
 2611 016a 0B       		.uleb128 0xb
 2612 016b 01       		.uleb128 0x1
 2613 016c 13       		.uleb128 0x13
 2614 016d 00       		.byte	0
 2615 016e 00       		.byte	0
 2616 016f 1C       		.uleb128 0x1c
 2617 0170 05       		.uleb128 0x5
 2618 0171 00       		.byte	0
 2619 0172 31       		.uleb128 0x31
 2620 0173 13       		.uleb128 0x13
 2621 0174 02       		.uleb128 0x2
 2622 0175 17       		.uleb128 0x17
 2623 0176 00       		.byte	0
 2624 0177 00       		.byte	0
 2625 0178 1D       		.uleb128 0x1d
 2626 0179 0B       		.uleb128 0xb
 2627 017a 01       		.byte	0x1
 2628 017b 11       		.uleb128 0x11
 2629 017c 01       		.uleb128 0x1
 2630 017d 12       		.uleb128 0x12
 2631 017e 06       		.uleb128 0x6
 2632 017f 00       		.byte	0
 2633 0180 00       		.byte	0
 2634 0181 1E       		.uleb128 0x1e
 2635 0182 34       		.uleb128 0x34
 2636 0183 00       		.byte	0
 2637 0184 31       		.uleb128 0x31
 2638 0185 13       		.uleb128 0x13
 2639 0186 02       		.uleb128 0x2
 2640 0187 17       		.uleb128 0x17
 2641 0188 00       		.byte	0
 2642 0189 00       		.byte	0
 2643 018a 1F       		.uleb128 0x1f
 2644 018b 898201   		.uleb128 0x4109
 2645 018e 00       		.byte	0
 2646 018f 11       		.uleb128 0x11
 2647 0190 01       		.uleb128 0x1
 2648 0191 31       		.uleb128 0x31
 2649 0192 13       		.uleb128 0x13
 2650 0193 00       		.byte	0
 2651 0194 00       		.byte	0
 2652 0195 20       		.uleb128 0x20
 2653 0196 2E       		.uleb128 0x2e
 2654 0197 01       		.byte	0x1
 2655 0198 3F       		.uleb128 0x3f
 2656 0199 19       		.uleb128 0x19
 2657 019a 03       		.uleb128 0x3
 2658 019b 0E       		.uleb128 0xe
 2659 019c 3A       		.uleb128 0x3a
 2660 019d 0B       		.uleb128 0xb
GAS LISTING /tmp/ccjuMB99.s 			page 56


 2661 019e 3B       		.uleb128 0x3b
 2662 019f 0B       		.uleb128 0xb
 2663 01a0 27       		.uleb128 0x27
 2664 01a1 19       		.uleb128 0x19
 2665 01a2 49       		.uleb128 0x49
 2666 01a3 13       		.uleb128 0x13
 2667 01a4 11       		.uleb128 0x11
 2668 01a5 01       		.uleb128 0x1
 2669 01a6 12       		.uleb128 0x12
 2670 01a7 06       		.uleb128 0x6
 2671 01a8 40       		.uleb128 0x40
 2672 01a9 18       		.uleb128 0x18
 2673 01aa 9742     		.uleb128 0x2117
 2674 01ac 19       		.uleb128 0x19
 2675 01ad 01       		.uleb128 0x1
 2676 01ae 13       		.uleb128 0x13
 2677 01af 00       		.byte	0
 2678 01b0 00       		.byte	0
 2679 01b1 21       		.uleb128 0x21
 2680 01b2 34       		.uleb128 0x34
 2681 01b3 00       		.byte	0
 2682 01b4 03       		.uleb128 0x3
 2683 01b5 08       		.uleb128 0x8
 2684 01b6 3A       		.uleb128 0x3a
 2685 01b7 0B       		.uleb128 0xb
 2686 01b8 3B       		.uleb128 0x3b
 2687 01b9 0B       		.uleb128 0xb
 2688 01ba 49       		.uleb128 0x49
 2689 01bb 13       		.uleb128 0x13
 2690 01bc 02       		.uleb128 0x2
 2691 01bd 17       		.uleb128 0x17
 2692 01be 00       		.byte	0
 2693 01bf 00       		.byte	0
 2694 01c0 22       		.uleb128 0x22
 2695 01c1 0B       		.uleb128 0xb
 2696 01c2 01       		.byte	0x1
 2697 01c3 11       		.uleb128 0x11
 2698 01c4 01       		.uleb128 0x1
 2699 01c5 12       		.uleb128 0x12
 2700 01c6 06       		.uleb128 0x6
 2701 01c7 01       		.uleb128 0x1
 2702 01c8 13       		.uleb128 0x13
 2703 01c9 00       		.byte	0
 2704 01ca 00       		.byte	0
 2705 01cb 23       		.uleb128 0x23
 2706 01cc 898201   		.uleb128 0x4109
 2707 01cf 01       		.byte	0x1
 2708 01d0 11       		.uleb128 0x11
 2709 01d1 01       		.uleb128 0x1
 2710 01d2 31       		.uleb128 0x31
 2711 01d3 13       		.uleb128 0x13
 2712 01d4 00       		.byte	0
 2713 01d5 00       		.byte	0
 2714 01d6 24       		.uleb128 0x24
 2715 01d7 8A8201   		.uleb128 0x410a
 2716 01da 00       		.byte	0
 2717 01db 02       		.uleb128 0x2
GAS LISTING /tmp/ccjuMB99.s 			page 57


 2718 01dc 18       		.uleb128 0x18
 2719 01dd 9142     		.uleb128 0x2111
 2720 01df 18       		.uleb128 0x18
 2721 01e0 00       		.byte	0
 2722 01e1 00       		.byte	0
 2723 01e2 25       		.uleb128 0x25
 2724 01e3 898201   		.uleb128 0x4109
 2725 01e6 01       		.byte	0x1
 2726 01e7 11       		.uleb128 0x11
 2727 01e8 01       		.uleb128 0x1
 2728 01e9 00       		.byte	0
 2729 01ea 00       		.byte	0
 2730 01eb 26       		.uleb128 0x26
 2731 01ec 05       		.uleb128 0x5
 2732 01ed 00       		.byte	0
 2733 01ee 03       		.uleb128 0x3
 2734 01ef 08       		.uleb128 0x8
 2735 01f0 3A       		.uleb128 0x3a
 2736 01f1 0B       		.uleb128 0xb
 2737 01f2 3B       		.uleb128 0x3b
 2738 01f3 0B       		.uleb128 0xb
 2739 01f4 49       		.uleb128 0x49
 2740 01f5 13       		.uleb128 0x13
 2741 01f6 02       		.uleb128 0x2
 2742 01f7 17       		.uleb128 0x17
 2743 01f8 00       		.byte	0
 2744 01f9 00       		.byte	0
 2745 01fa 27       		.uleb128 0x27
 2746 01fb 898201   		.uleb128 0x4109
 2747 01fe 01       		.byte	0x1
 2748 01ff 11       		.uleb128 0x11
 2749 0200 01       		.uleb128 0x1
 2750 0201 9342     		.uleb128 0x2113
 2751 0203 18       		.uleb128 0x18
 2752 0204 01       		.uleb128 0x1
 2753 0205 13       		.uleb128 0x13
 2754 0206 00       		.byte	0
 2755 0207 00       		.byte	0
 2756 0208 28       		.uleb128 0x28
 2757 0209 2E       		.uleb128 0x2e
 2758 020a 01       		.byte	0x1
 2759 020b 3F       		.uleb128 0x3f
 2760 020c 19       		.uleb128 0x19
 2761 020d 03       		.uleb128 0x3
 2762 020e 0E       		.uleb128 0xe
 2763 020f 3A       		.uleb128 0x3a
 2764 0210 0B       		.uleb128 0xb
 2765 0211 3B       		.uleb128 0x3b
 2766 0212 05       		.uleb128 0x5
 2767 0213 27       		.uleb128 0x27
 2768 0214 19       		.uleb128 0x19
 2769 0215 11       		.uleb128 0x11
 2770 0216 01       		.uleb128 0x1
 2771 0217 12       		.uleb128 0x12
 2772 0218 06       		.uleb128 0x6
 2773 0219 40       		.uleb128 0x40
 2774 021a 18       		.uleb128 0x18
GAS LISTING /tmp/ccjuMB99.s 			page 58


 2775 021b 9742     		.uleb128 0x2117
 2776 021d 19       		.uleb128 0x19
 2777 021e 01       		.uleb128 0x1
 2778 021f 13       		.uleb128 0x13
 2779 0220 00       		.byte	0
 2780 0221 00       		.byte	0
 2781 0222 29       		.uleb128 0x29
 2782 0223 05       		.uleb128 0x5
 2783 0224 00       		.byte	0
 2784 0225 03       		.uleb128 0x3
 2785 0226 08       		.uleb128 0x8
 2786 0227 3A       		.uleb128 0x3a
 2787 0228 0B       		.uleb128 0xb
 2788 0229 3B       		.uleb128 0x3b
 2789 022a 05       		.uleb128 0x5
 2790 022b 49       		.uleb128 0x49
 2791 022c 13       		.uleb128 0x13
 2792 022d 02       		.uleb128 0x2
 2793 022e 18       		.uleb128 0x18
 2794 022f 00       		.byte	0
 2795 0230 00       		.byte	0
 2796 0231 2A       		.uleb128 0x2a
 2797 0232 05       		.uleb128 0x5
 2798 0233 00       		.byte	0
 2799 0234 03       		.uleb128 0x3
 2800 0235 0E       		.uleb128 0xe
 2801 0236 3A       		.uleb128 0x3a
 2802 0237 0B       		.uleb128 0xb
 2803 0238 3B       		.uleb128 0x3b
 2804 0239 05       		.uleb128 0x5
 2805 023a 49       		.uleb128 0x49
 2806 023b 13       		.uleb128 0x13
 2807 023c 02       		.uleb128 0x2
 2808 023d 18       		.uleb128 0x18
 2809 023e 00       		.byte	0
 2810 023f 00       		.byte	0
 2811 0240 2B       		.uleb128 0x2b
 2812 0241 1D       		.uleb128 0x1d
 2813 0242 01       		.byte	0x1
 2814 0243 31       		.uleb128 0x31
 2815 0244 13       		.uleb128 0x13
 2816 0245 11       		.uleb128 0x11
 2817 0246 01       		.uleb128 0x1
 2818 0247 12       		.uleb128 0x12
 2819 0248 06       		.uleb128 0x6
 2820 0249 58       		.uleb128 0x58
 2821 024a 0B       		.uleb128 0xb
 2822 024b 59       		.uleb128 0x59
 2823 024c 05       		.uleb128 0x5
 2824 024d 01       		.uleb128 0x1
 2825 024e 13       		.uleb128 0x13
 2826 024f 00       		.byte	0
 2827 0250 00       		.byte	0
 2828 0251 2C       		.uleb128 0x2c
 2829 0252 2E       		.uleb128 0x2e
 2830 0253 01       		.byte	0x1
 2831 0254 3F       		.uleb128 0x3f
GAS LISTING /tmp/ccjuMB99.s 			page 59


 2832 0255 19       		.uleb128 0x19
 2833 0256 03       		.uleb128 0x3
 2834 0257 0E       		.uleb128 0xe
 2835 0258 3A       		.uleb128 0x3a
 2836 0259 0B       		.uleb128 0xb
 2837 025a 3B       		.uleb128 0x3b
 2838 025b 05       		.uleb128 0x5
 2839 025c 27       		.uleb128 0x27
 2840 025d 19       		.uleb128 0x19
 2841 025e 49       		.uleb128 0x49
 2842 025f 13       		.uleb128 0x13
 2843 0260 11       		.uleb128 0x11
 2844 0261 01       		.uleb128 0x1
 2845 0262 12       		.uleb128 0x12
 2846 0263 06       		.uleb128 0x6
 2847 0264 40       		.uleb128 0x40
 2848 0265 18       		.uleb128 0x18
 2849 0266 9742     		.uleb128 0x2117
 2850 0268 19       		.uleb128 0x19
 2851 0269 01       		.uleb128 0x1
 2852 026a 13       		.uleb128 0x13
 2853 026b 00       		.byte	0
 2854 026c 00       		.byte	0
 2855 026d 2D       		.uleb128 0x2d
 2856 026e 0B       		.uleb128 0xb
 2857 026f 01       		.byte	0x1
 2858 0270 55       		.uleb128 0x55
 2859 0271 17       		.uleb128 0x17
 2860 0272 01       		.uleb128 0x1
 2861 0273 13       		.uleb128 0x13
 2862 0274 00       		.byte	0
 2863 0275 00       		.byte	0
 2864 0276 2E       		.uleb128 0x2e
 2865 0277 34       		.uleb128 0x34
 2866 0278 00       		.byte	0
 2867 0279 03       		.uleb128 0x3
 2868 027a 08       		.uleb128 0x8
 2869 027b 3A       		.uleb128 0x3a
 2870 027c 0B       		.uleb128 0xb
 2871 027d 3B       		.uleb128 0x3b
 2872 027e 05       		.uleb128 0x5
 2873 027f 49       		.uleb128 0x49
 2874 0280 13       		.uleb128 0x13
 2875 0281 02       		.uleb128 0x2
 2876 0282 17       		.uleb128 0x17
 2877 0283 00       		.byte	0
 2878 0284 00       		.byte	0
 2879 0285 2F       		.uleb128 0x2f
 2880 0286 05       		.uleb128 0x5
 2881 0287 00       		.byte	0
 2882 0288 03       		.uleb128 0x3
 2883 0289 08       		.uleb128 0x8
 2884 028a 3A       		.uleb128 0x3a
 2885 028b 0B       		.uleb128 0xb
 2886 028c 3B       		.uleb128 0x3b
 2887 028d 05       		.uleb128 0x5
 2888 028e 49       		.uleb128 0x49
GAS LISTING /tmp/ccjuMB99.s 			page 60


 2889 028f 13       		.uleb128 0x13
 2890 0290 02       		.uleb128 0x2
 2891 0291 17       		.uleb128 0x17
 2892 0292 00       		.byte	0
 2893 0293 00       		.byte	0
 2894 0294 30       		.uleb128 0x30
 2895 0295 34       		.uleb128 0x34
 2896 0296 00       		.byte	0
 2897 0297 03       		.uleb128 0x3
 2898 0298 0E       		.uleb128 0xe
 2899 0299 3A       		.uleb128 0x3a
 2900 029a 0B       		.uleb128 0xb
 2901 029b 3B       		.uleb128 0x3b
 2902 029c 0B       		.uleb128 0xb
 2903 029d 49       		.uleb128 0x49
 2904 029e 13       		.uleb128 0x13
 2905 029f 3F       		.uleb128 0x3f
 2906 02a0 19       		.uleb128 0x19
 2907 02a1 3C       		.uleb128 0x3c
 2908 02a2 19       		.uleb128 0x19
 2909 02a3 00       		.byte	0
 2910 02a4 00       		.byte	0
 2911 02a5 31       		.uleb128 0x31
 2912 02a6 2E       		.uleb128 0x2e
 2913 02a7 01       		.byte	0x1
 2914 02a8 3F       		.uleb128 0x3f
 2915 02a9 19       		.uleb128 0x19
 2916 02aa 03       		.uleb128 0x3
 2917 02ab 0E       		.uleb128 0xe
 2918 02ac 3A       		.uleb128 0x3a
 2919 02ad 0B       		.uleb128 0xb
 2920 02ae 3B       		.uleb128 0x3b
 2921 02af 0B       		.uleb128 0xb
 2922 02b0 27       		.uleb128 0x27
 2923 02b1 19       		.uleb128 0x19
 2924 02b2 49       		.uleb128 0x49
 2925 02b3 13       		.uleb128 0x13
 2926 02b4 3C       		.uleb128 0x3c
 2927 02b5 19       		.uleb128 0x19
 2928 02b6 00       		.byte	0
 2929 02b7 00       		.byte	0
 2930 02b8 00       		.byte	0
 2931              		.section	.debug_loc,"",@progbits
 2932              	.Ldebug_loc0:
 2933              	.LLST0:
 2934 0000 A0000000 		.long	.LVL2-.Ltext0
 2935 0004 BC000000 		.long	.LVL4-.Ltext0
 2936 0008 0100     		.value	0x1
 2937 000a 53       		.byte	0x53
 2938 000b 00000000 		.long	0
 2939 000f 00000000 		.long	0
 2940              	.LLST1:
 2941 0013 A0000000 		.long	.LVL2-.Ltext0
 2942 0017 AE000000 		.long	.LVL3-1-.Ltext0
 2943 001b 0100     		.value	0x1
 2944 001d 50       		.byte	0x50
 2945 001e 00000000 		.long	0
GAS LISTING /tmp/ccjuMB99.s 			page 61


 2946 0022 00000000 		.long	0
 2947              	.LLST2:
 2948 0026 05010000 		.long	.LVL6-.Ltext0
 2949 002a 13010000 		.long	.LVL7-1-.Ltext0
 2950 002e 0100     		.value	0x1
 2951 0030 52       		.byte	0x52
 2952 0031 13010000 		.long	.LVL7-1-.Ltext0
 2953 0035 1B010000 		.long	.LVL8-.Ltext0
 2954 0039 0200     		.value	0x2
 2955 003b 91       		.byte	0x91
 2956 003c 00       		.sleb128 0
 2957 003d 00000000 		.long	0
 2958 0041 00000000 		.long	0
 2959              	.LLST3:
 2960 0045 05010000 		.long	.LVL6-.Ltext0
 2961 0049 13010000 		.long	.LVL7-1-.Ltext0
 2962 004d 0100     		.value	0x1
 2963 004f 51       		.byte	0x51
 2964 0050 00000000 		.long	0
 2965 0054 00000000 		.long	0
 2966              	.LLST4:
 2967 0058 89010000 		.long	.LVL13-.Ltext0
 2968 005c 91010000 		.long	.LVL14-.Ltext0
 2969 0060 0100     		.value	0x1
 2970 0062 50       		.byte	0x50
 2971 0063 00000000 		.long	0
 2972 0067 00000000 		.long	0
 2973              	.LLST5:
 2974 006b 69010000 		.long	.LVL11-.Ltext0
 2975 006f 6D010000 		.long	.LVL12-.Ltext0
 2976 0073 0100     		.value	0x1
 2977 0075 50       		.byte	0x50
 2978 0076 00000000 		.long	0
 2979 007a 00000000 		.long	0
 2980              	.LLST6:
 2981 007e A0010000 		.long	.LVL15-.Ltext0
 2982 0082 B5010000 		.long	.LVL17-.Ltext0
 2983 0086 0200     		.value	0x2
 2984 0088 91       		.byte	0x91
 2985 0089 04       		.sleb128 4
 2986 008a B5010000 		.long	.LVL17-.Ltext0
 2987 008e DE010000 		.long	.LVL20-.Ltext0
 2988 0092 0700     		.value	0x7
 2989 0094 91       		.byte	0x91
 2990 0095 04       		.sleb128 4
 2991 0096 06       		.byte	0x6
 2992 0097 76       		.byte	0x76
 2993 0098 00       		.sleb128 0
 2994 0099 22       		.byte	0x22
 2995 009a 9F       		.byte	0x9f
 2996 009b DE010000 		.long	.LVL20-.Ltext0
 2997 009f FF010000 		.long	.LVL21-.Ltext0
 2998 00a3 0800     		.value	0x8
 2999 00a5 71       		.byte	0x71
 3000 00a6 00       		.sleb128 0
 3001 00a7 76       		.byte	0x76
 3002 00a8 00       		.sleb128 0
GAS LISTING /tmp/ccjuMB99.s 			page 62


 3003 00a9 22       		.byte	0x22
 3004 00aa 23       		.byte	0x23
 3005 00ab 01       		.uleb128 0x1
 3006 00ac 9F       		.byte	0x9f
 3007 00ad FF010000 		.long	.LVL21-.Ltext0
 3008 00b1 08020000 		.long	.LVL22-.Ltext0
 3009 00b5 0600     		.value	0x6
 3010 00b7 71       		.byte	0x71
 3011 00b8 00       		.sleb128 0
 3012 00b9 76       		.byte	0x76
 3013 00ba 00       		.sleb128 0
 3014 00bb 22       		.byte	0x22
 3015 00bc 9F       		.byte	0x9f
 3016 00bd 08020000 		.long	.LVL22-.Ltext0
 3017 00c1 09020000 		.long	.LVL23-.Ltext0
 3018 00c5 0700     		.value	0x7
 3019 00c7 91       		.byte	0x91
 3020 00c8 04       		.sleb128 4
 3021 00c9 06       		.byte	0x6
 3022 00ca 76       		.byte	0x76
 3023 00cb 00       		.sleb128 0
 3024 00cc 22       		.byte	0x22
 3025 00cd 9F       		.byte	0x9f
 3026 00ce 00000000 		.long	0
 3027 00d2 00000000 		.long	0
 3028              	.LLST7:
 3029 00d6 A0010000 		.long	.LVL15-.Ltext0
 3030 00da B5010000 		.long	.LVL17-.Ltext0
 3031 00de 0200     		.value	0x2
 3032 00e0 91       		.byte	0x91
 3033 00e1 08       		.sleb128 8
 3034 00e2 B5010000 		.long	.LVL17-.Ltext0
 3035 00e6 09020000 		.long	.LVL23-.Ltext0
 3036 00ea 0700     		.value	0x7
 3037 00ec 91       		.byte	0x91
 3038 00ed 08       		.sleb128 8
 3039 00ee 06       		.byte	0x6
 3040 00ef 76       		.byte	0x76
 3041 00f0 00       		.sleb128 0
 3042 00f1 1C       		.byte	0x1c
 3043 00f2 9F       		.byte	0x9f
 3044 00f3 00000000 		.long	0
 3045 00f7 00000000 		.long	0
 3046              	.LLST8:
 3047 00fb B2010000 		.long	.LVL16-.Ltext0
 3048 00ff 11020000 		.long	.LVL25-.Ltext0
 3049 0103 0100     		.value	0x1
 3050 0105 57       		.byte	0x57
 3051 0106 00000000 		.long	0
 3052 010a 00000000 		.long	0
 3053              	.LLST9:
 3054 010e B2010000 		.long	.LVL16-.Ltext0
 3055 0112 B5010000 		.long	.LVL17-.Ltext0
 3056 0116 0200     		.value	0x2
 3057 0118 30       		.byte	0x30
 3058 0119 9F       		.byte	0x9f
 3059 011a B5010000 		.long	.LVL17-.Ltext0
GAS LISTING /tmp/ccjuMB99.s 			page 63


 3060 011e 10020000 		.long	.LVL24-.Ltext0
 3061 0122 0100     		.value	0x1
 3062 0124 56       		.byte	0x56
 3063 0125 10020000 		.long	.LVL24-.Ltext0
 3064 0129 13020000 		.long	.LFE12-.Ltext0
 3065 012d 0100     		.value	0x1
 3066 012f 50       		.byte	0x50
 3067 0130 00000000 		.long	0
 3068 0134 00000000 		.long	0
 3069              	.LLST10:
 3070 0138 80020000 		.long	.LVL28-.Ltext0
 3071 013c 9C020000 		.long	.LVL30-.Ltext0
 3072 0140 0100     		.value	0x1
 3073 0142 53       		.byte	0x53
 3074 0143 00000000 		.long	0
 3075 0147 00000000 		.long	0
 3076              	.LLST11:
 3077 014b 80020000 		.long	.LVL28-.Ltext0
 3078 014f 8E020000 		.long	.LVL29-1-.Ltext0
 3079 0153 0100     		.value	0x1
 3080 0155 50       		.byte	0x50
 3081 0156 00000000 		.long	0
 3082 015a 00000000 		.long	0
 3083              	.LLST12:
 3084 015e D1020000 		.long	.LVL32-.Ltext0
 3085 0162 D5020000 		.long	.LVL33-.Ltext0
 3086 0166 0100     		.value	0x1
 3087 0168 50       		.byte	0x50
 3088 0169 13030000 		.long	.LVL35-.Ltext0
 3089 016d 20030000 		.long	.LFE15-.Ltext0
 3090 0171 0100     		.value	0x1
 3091 0173 50       		.byte	0x50
 3092 0174 00000000 		.long	0
 3093 0178 00000000 		.long	0
 3094              	.LLST13:
 3095 017c 46030000 		.long	.LVL37-.Ltext0
 3096 0180 69030000 		.long	.LVL41-.Ltext0
 3097 0184 0100     		.value	0x1
 3098 0186 56       		.byte	0x56
 3099 0187 6F030000 		.long	.LVL42-.Ltext0
 3100 018b 78030000 		.long	.LVL43-.Ltext0
 3101 018f 0100     		.value	0x1
 3102 0191 56       		.byte	0x56
 3103 0192 00000000 		.long	0
 3104 0196 00000000 		.long	0
 3105              	.LLST14:
 3106 019a 4E030000 		.long	.LVL38-.Ltext0
 3107 019e 5C030000 		.long	.LVL39-1-.Ltext0
 3108 01a2 0100     		.value	0x1
 3109 01a4 52       		.byte	0x52
 3110 01a5 5C030000 		.long	.LVL39-1-.Ltext0
 3111 01a9 64030000 		.long	.LVL40-.Ltext0
 3112 01ad 0200     		.value	0x2
 3113 01af 91       		.byte	0x91
 3114 01b0 00       		.sleb128 0
 3115 01b1 00000000 		.long	0
 3116 01b5 00000000 		.long	0
GAS LISTING /tmp/ccjuMB99.s 			page 64


 3117              	.LLST15:
 3118 01b9 4E030000 		.long	.LVL38-.Ltext0
 3119 01bd 5C030000 		.long	.LVL39-1-.Ltext0
 3120 01c1 0100     		.value	0x1
 3121 01c3 51       		.byte	0x51
 3122 01c4 00000000 		.long	0
 3123 01c8 00000000 		.long	0
 3124              	.LLST16:
 3125 01cc 90030000 		.long	.LVL44-.Ltext0
 3126 01d0 A9030000 		.long	.LVL46-.Ltext0
 3127 01d4 0200     		.value	0x2
 3128 01d6 91       		.byte	0x91
 3129 01d7 04       		.sleb128 4
 3130 01d8 A9030000 		.long	.LVL46-.Ltext0
 3131 01dc C9030000 		.long	.LVL47-.Ltext0
 3132 01e0 0100     		.value	0x1
 3133 01e2 51       		.byte	0x51
 3134 01e3 C9030000 		.long	.LVL47-.Ltext0
 3135 01e7 E8030000 		.long	.LVL48-1-.Ltext0
 3136 01eb 0100     		.value	0x1
 3137 01ed 52       		.byte	0x52
 3138 01ee E8030000 		.long	.LVL48-1-.Ltext0
 3139 01f2 ED030000 		.long	.LVL49-.Ltext0
 3140 01f6 0200     		.value	0x2
 3141 01f8 91       		.byte	0x91
 3142 01f9 5C       		.sleb128 -36
 3143 01fa FC030000 		.long	.LVL52-.Ltext0
 3144 01fe 00040000 		.long	.LVL53-.Ltext0
 3145 0202 0100     		.value	0x1
 3146 0204 52       		.byte	0x52
 3147 0205 00040000 		.long	.LVL53-.Ltext0
 3148 0209 0E040000 		.long	.LVL54-1-.Ltext0
 3149 020d 0100     		.value	0x1
 3150 020f 51       		.byte	0x51
 3151 0210 0E040000 		.long	.LVL54-1-.Ltext0
 3152 0214 18040000 		.long	.LVL55-.Ltext0
 3153 0218 0200     		.value	0x2
 3154 021a 91       		.byte	0x91
 3155 021b 5C       		.sleb128 -36
 3156 021c 00000000 		.long	0
 3157 0220 00000000 		.long	0
 3158              	.LLST17:
 3159 0224 90030000 		.long	.LVL44-.Ltext0
 3160 0228 A9030000 		.long	.LVL46-.Ltext0
 3161 022c 0200     		.value	0x2
 3162 022e 91       		.byte	0x91
 3163 022f 08       		.sleb128 8
 3164 0230 A9030000 		.long	.LVL46-.Ltext0
 3165 0234 F1030000 		.long	.LVL50-.Ltext0
 3166 0238 0100     		.value	0x1
 3167 023a 56       		.byte	0x56
 3168 023b F1030000 		.long	.LVL50-.Ltext0
 3169 023f F4030000 		.long	.LVL51-.Ltext0
 3170 0243 0300     		.value	0x3
 3171 0245 76       		.byte	0x76
 3172 0246 7F       		.sleb128 -1
 3173 0247 9F       		.byte	0x9f
GAS LISTING /tmp/ccjuMB99.s 			page 65


 3174 0248 F4030000 		.long	.LVL51-.Ltext0
 3175 024c 1F040000 		.long	.LVL56-.Ltext0
 3176 0250 0100     		.value	0x1
 3177 0252 56       		.byte	0x56
 3178 0253 00000000 		.long	0
 3179 0257 00000000 		.long	0
 3180              	.LLST18:
 3181 025b A6030000 		.long	.LVL45-.Ltext0
 3182 025f 21040000 		.long	.LVL58-.Ltext0
 3183 0263 0100     		.value	0x1
 3184 0265 55       		.byte	0x55
 3185 0266 00000000 		.long	0
 3186 026a 00000000 		.long	0
 3187              	.LLST19:
 3188 026e A6030000 		.long	.LVL45-.Ltext0
 3189 0272 A9030000 		.long	.LVL46-.Ltext0
 3190 0276 0200     		.value	0x2
 3191 0278 30       		.byte	0x30
 3192 0279 9F       		.byte	0x9f
 3193 027a A9030000 		.long	.LVL46-.Ltext0
 3194 027e 20040000 		.long	.LVL57-.Ltext0
 3195 0282 0100     		.value	0x1
 3196 0284 57       		.byte	0x57
 3197 0285 20040000 		.long	.LVL57-.Ltext0
 3198 0289 22040000 		.long	.LFE17-.Ltext0
 3199 028d 0100     		.value	0x1
 3200 028f 50       		.byte	0x50
 3201 0290 00000000 		.long	0
 3202 0294 00000000 		.long	0
 3203              		.section	.debug_aranges,"",@progbits
 3204 0000 1C000000 		.long	0x1c
 3205 0004 0200     		.value	0x2
 3206 0006 00000000 		.long	.Ldebug_info0
 3207 000a 04       		.byte	0x4
 3208 000b 00       		.byte	0
 3209 000c 0000     		.value	0
 3210 000e 0000     		.value	0
 3211 0010 00000000 		.long	.Ltext0
 3212 0014 22040000 		.long	.Letext0-.Ltext0
 3213 0018 00000000 		.long	0
 3214 001c 00000000 		.long	0
 3215              		.section	.debug_ranges,"",@progbits
 3216              	.Ldebug_ranges0:
 3217 0000 C8020000 		.long	.LBB21-.Ltext0
 3218 0004 D5020000 		.long	.LBE21-.Ltext0
 3219 0008 18030000 		.long	.LBB22-.Ltext0
 3220 000c 19030000 		.long	.LBE22-.Ltext0
 3221 0010 00000000 		.long	0
 3222 0014 00000000 		.long	0
 3223              		.section	.debug_line,"",@progbits
 3224              	.Ldebug_line0:
 3225 0000 6D020000 		.section	.debug_str,"MS",@progbits,1
 3225      02002801 
 3225      00000101 
 3225      FB0E0D00 
 3225      01010101 
 3226              	.LASF85:
GAS LISTING /tmp/ccjuMB99.s 			page 66


 3227 0000 63684F51 		.string	"chOQInit"
 3227      496E6974 
 3227      00
 3228              	.LASF37:
 3229 0009 705F6D73 		.string	"p_msg"
 3229      6700
 3230              	.LASF58:
 3231 000f 6D5F6E65 		.string	"m_next"
 3231      787400
 3232              	.LASF94:
 3233 0016 71756575 		.string	"queue_insert"
 3233      655F696E 
 3233      73657274 
 3233      00
 3234              	.LASF86:
 3235 0023 6F6E6679 		.string	"onfy"
 3235      00
 3236              	.LASF4:
 3237 0028 73697A65 		.string	"size_t"
 3237      5F7400
 3238              	.LASF59:
 3239 002f 7264796D 		.string	"rdymsg"
 3239      736700
 3240              	.LASF80:
 3241 0036 63684951 		.string	"chIQInit"
 3241      496E6974 
 3241      00
 3242              	.LASF75:
 3243 003f 4F757470 		.string	"OutputQueue"
 3243      75745175 
 3243      65756500 
 3244              	.LASF84:
 3245 004b 63684951 		.string	"chIQReadTimeout"
 3245      52656164 
 3245      54696D65 
 3245      6F757400 
 3246              	.LASF11:
 3247 005b 6C6F6E67 		.string	"long long unsigned int"
 3247      206C6F6E 
 3247      6720756E 
 3247      7369676E 
 3247      65642069 
 3248              	.LASF60:
 3249 0072 65786974 		.string	"exitcode"
 3249      636F6465 
 3249      00
 3250              	.LASF25:
 3251 007b 705F7072 		.string	"p_prio"
 3251      696F00
 3252              	.LASF6:
 3253 0082 6C6F6E67 		.string	"long long int"
 3253      206C6F6E 
 3253      6720696E 
 3253      7400
 3254              	.LASF2:
 3255 0090 7369676E 		.string	"signed char"
 3255      65642063 
GAS LISTING /tmp/ccjuMB99.s 			page 67


 3255      68617200 
 3256              	.LASF41:
 3257 009c 705F6D70 		.string	"p_mpool"
 3257      6F6F6C00 
 3258              	.LASF12:
 3259 00a4 626F6F6C 		.string	"bool_t"
 3259      5F7400
 3260              	.LASF56:
 3261 00ab 6D5F7175 		.string	"m_queue"
 3261      65756500 
 3262              	.LASF93:
 3263 00b3 2F686F6D 		.string	"/home/tony/ChibiOS-RT/testhal/Posix/EXT"
 3263      652F746F 
 3263      6E792F43 
 3263      68696269 
 3263      4F532D52 
 3264              	.LASF17:
 3265 00db 74736C69 		.string	"tslices_t"
 3265      6365735F 
 3265      7400
 3266              	.LASF96:
 3267 00e5 71776169 		.string	"qwait"
 3267      7400
 3268              	.LASF1:
 3269 00eb 6C6F6E67 		.string	"long int"
 3269      20696E74 
 3269      00
 3270              	.LASF15:
 3271 00f4 74737461 		.string	"tstate_t"
 3271      74655F74 
 3271      00
 3272              	.LASF89:
 3273 00fd 63684F51 		.string	"chOQGetI"
 3273      47657449 
 3273      00
 3274              	.LASF67:
 3275 0106 715F6275 		.string	"q_buffer"
 3275      66666572 
 3275      00
 3276              	.LASF69:
 3277 010f 715F7772 		.string	"q_wrptr"
 3277      70747200 
 3278              	.LASF27:
 3279 0117 705F6E65 		.string	"p_newer"
 3279      77657200 
 3280              	.LASF51:
 3281 011f 725F6E65 		.string	"r_newer"
 3281      77657200 
 3282              	.LASF79:
 3283 0127 6C696E6B 		.string	"link"
 3283      00
 3284              	.LASF88:
 3285 012c 63684F51 		.string	"chOQPutTimeout"
 3285      50757454 
 3285      696D656F 
 3285      757400
 3286              	.LASF82:
GAS LISTING /tmp/ccjuMB99.s 			page 68


 3287 013b 63684951 		.string	"chIQPutI"
 3287      50757449 
 3287      00
 3288              	.LASF0:
 3289 0144 756E7369 		.string	"unsigned int"
 3289      676E6564 
 3289      20696E74 
 3289      00
 3290              	.LASF81:
 3291 0151 63684951 		.string	"chIQResetI"
 3291      52657365 
 3291      744900
 3292              	.LASF36:
 3293 015c 705F6D73 		.string	"p_msgqueue"
 3293      67717565 
 3293      756500
 3294              	.LASF47:
 3295 0167 636F6E74 		.string	"context"
 3295      65787400 
 3296              	.LASF77:
 3297 016f 73697A65 		.string	"size"
 3297      00
 3298              	.LASF9:
 3299 0174 73686F72 		.string	"short unsigned int"
 3299      7420756E 
 3299      7369676E 
 3299      65642069 
 3299      6E7400
 3300              	.LASF19:
 3301 0187 6D73675F 		.string	"msg_t"
 3301      7400
 3302              	.LASF14:
 3303 018d 746D6F64 		.string	"tmode_t"
 3303      655F7400 
 3304              	.LASF43:
 3305 0195 54687265 		.string	"ThreadsList"
 3305      6164734C 
 3305      69737400 
 3306              	.LASF20:
 3307 01a1 6576656E 		.string	"eventmask_t"
 3307      746D6173 
 3307      6B5F7400 
 3308              	.LASF74:
 3309 01ad 496E7075 		.string	"InputQueue"
 3309      74517565 
 3309      756500
 3310              	.LASF55:
 3311 01b8 4D757465 		.string	"Mutex"
 3311      7800
 3312              	.LASF64:
 3313 01be 47656E65 		.string	"GenericQueue"
 3313      72696351 
 3313      75657565 
 3313      00
 3314              	.LASF90:
 3315 01cb 63684F51 		.string	"chOQWriteTimeout"
 3315      57726974 
GAS LISTING /tmp/ccjuMB99.s 			page 69


 3315      6554696D 
 3315      656F7574 
 3315      00
 3316              	.LASF44:
 3317 01dc 73697A65 		.string	"sizetype"
 3317      74797065 
 3317      00
 3318              	.LASF66:
 3319 01e5 715F636F 		.string	"q_counter"
 3319      756E7465 
 3319      7200
 3320              	.LASF28:
 3321 01ef 705F6F6C 		.string	"p_older"
 3321      64657200 
 3322              	.LASF50:
 3323 01f7 725F6374 		.string	"r_ctx"
 3323      7800
 3324              	.LASF42:
 3325 01fd 54687265 		.string	"ThreadsQueue"
 3325      61647351 
 3325      75657565 
 3325      00
 3326              	.LASF76:
 3327 020a 74696D65 		.string	"time"
 3327      00
 3328              	.LASF53:
 3329 020f 725F6375 		.string	"r_current"
 3329      7272656E 
 3329      7400
 3330              	.LASF52:
 3331 0219 725F6F6C 		.string	"r_older"
 3331      64657200 
 3332              	.LASF65:
 3333 0221 715F7761 		.string	"q_waiting"
 3333      6974696E 
 3333      6700
 3334              	.LASF16:
 3335 022b 74726566 		.string	"trefs_t"
 3335      735F7400 
 3336              	.LASF73:
 3337 0233 716E6F74 		.string	"qnotify_t"
 3337      6966795F 
 3337      7400
 3338              	.LASF24:
 3339 023d 705F7072 		.string	"p_prev"
 3339      657600
 3340              	.LASF18:
 3341 0244 74707269 		.string	"tprio_t"
 3341      6F5F7400 
 3342              	.LASF70:
 3343 024c 715F7264 		.string	"q_rdptr"
 3343      70747200 
 3344              	.LASF13:
 3345 0254 5F426F6F 		.string	"_Bool"
 3345      6C00
 3346              	.LASF5:
 3347 025a 696E7433 		.string	"int32_t"
GAS LISTING /tmp/ccjuMB99.s 			page 70


 3347      325F7400 
 3348              	.LASF8:
 3349 0262 756E7369 		.string	"unsigned char"
 3349      676E6564 
 3349      20636861 
 3349      7200
 3350              	.LASF91:
 3351 0270 474E5520 		.string	"GNU C 4.8.2 -m32 -mtune=generic -march=i686 -ggdb -O2 -fomit-frame-pointer -fstack-protec
 3351      4320342E 
 3351      382E3220 
 3351      2D6D3332 
 3351      202D6D74 
 3352              	.LASF39:
 3353 02cd 705F6D74 		.string	"p_mtxlist"
 3353      786C6973 
 3353      7400
 3354              	.LASF3:
 3355 02d7 73686F72 		.string	"short int"
 3355      7420696E 
 3355      7400
 3356              	.LASF30:
 3357 02e1 705F7374 		.string	"p_state"
 3357      61746500 
 3358              	.LASF33:
 3359 02e9 705F7072 		.string	"p_preempt"
 3359      65656D70 
 3359      7400
 3360              	.LASF49:
 3361 02f3 725F7072 		.string	"r_prio"
 3361      696F00
 3362              	.LASF62:
 3363 02fa 65776D61 		.string	"ewmask"
 3363      736B00
 3364              	.LASF23:
 3365 0301 705F6E65 		.string	"p_next"
 3365      787400
 3366              	.LASF78:
 3367 0308 696E6679 		.string	"infy"
 3367      00
 3368              	.LASF31:
 3369 030d 705F666C 		.string	"p_flags"
 3369      61677300 
 3370              	.LASF22:
 3371 0315 54687265 		.string	"Thread"
 3371      616400
 3372              	.LASF38:
 3373 031c 705F6570 		.string	"p_epending"
 3373      656E6469 
 3373      6E6700
 3374              	.LASF10:
 3375 0327 75696E74 		.string	"uint32_t"
 3375      33325F74 
 3375      00
 3376              	.LASF48:
 3377 0330 725F7175 		.string	"r_queue"
 3377      65756500 
 3378              	.LASF98:
GAS LISTING /tmp/ccjuMB99.s 			page 71


 3379 0338 63685363 		.string	"chSchReadyI"
 3379      68526561 
 3379      64794900 
 3380              	.LASF63:
 3381 0344 63686172 		.string	"char"
 3381      00
 3382              	.LASF95:
 3383 0349 6669666F 		.string	"fifo_remove"
 3383      5F72656D 
 3383      6F766500 
 3384              	.LASF21:
 3385 0355 73797374 		.string	"systime_t"
 3385      696D655F 
 3385      7400
 3386              	.LASF40:
 3387 035f 705F7265 		.string	"p_realprio"
 3387      616C7072 
 3387      696F00
 3388              	.LASF87:
 3389 036a 63684F51 		.string	"chOQResetI"
 3389      52657365 
 3389      744900
 3390              	.LASF34:
 3391 0375 705F7469 		.string	"p_time"
 3391      6D6500
 3392              	.LASF46:
 3393 037c 696E7463 		.string	"intctx"
 3393      747800
 3394              	.LASF92:
 3395 0383 2E2E2F2E 		.string	"../../../os/kernel/src/chqueues.c"
 3395      2E2F2E2E 
 3395      2F6F732F 
 3395      6B65726E 
 3395      656C2F73 
 3396              	.LASF68:
 3397 03a5 715F746F 		.string	"q_top"
 3397      7000
 3398              	.LASF32:
 3399 03ab 705F7265 		.string	"p_refs"
 3399      667300
 3400              	.LASF54:
 3401 03b2 52656164 		.string	"ReadyList"
 3401      794C6973 
 3401      7400
 3402              	.LASF71:
 3403 03bc 715F6E6F 		.string	"q_notify"
 3403      74696679 
 3403      00
 3404              	.LASF97:
 3405 03c5 726C6973 		.string	"rlist"
 3405      7400
 3406              	.LASF7:
 3407 03cb 75696E74 		.string	"uint8_t"
 3407      385F7400 
 3408              	.LASF61:
 3409 03d3 77746F62 		.string	"wtobjp"
 3409      6A7000
GAS LISTING /tmp/ccjuMB99.s 			page 72


 3410              	.LASF29:
 3411 03da 705F6E61 		.string	"p_name"
 3411      6D6500
 3412              	.LASF45:
 3413 03e1 72656778 		.string	"regx86"
 3413      383600
 3414              	.LASF72:
 3415 03e8 715F6C69 		.string	"q_link"
 3415      6E6B00
 3416              	.LASF57:
 3417 03ef 6D5F6F77 		.string	"m_owner"
 3417      6E657200 
 3418              	.LASF26:
 3419 03f7 705F6374 		.string	"p_ctx"
 3419      7800
 3420              	.LASF35:
 3421 03fd 705F7761 		.string	"p_waiting"
 3421      6974696E 
 3421      6700
 3422              	.LASF83:
 3423 0407 63684951 		.string	"chIQGetTimeout"
 3423      47657454 
 3423      696D656F 
 3423      757400
 3424              		.ident	"GCC: (Ubuntu 4.8.2-19ubuntu1) 4.8.2"
 3425              		.section	.note.GNU-stack,"",@progbits
GAS LISTING /tmp/ccjuMB99.s 			page 73


DEFINED SYMBOLS
                            *ABS*:0000000000000000 chqueues.c
     /tmp/ccjuMB99.s:60     .text:0000000000000000 qwait
     /tmp/ccjuMB99.s:114    .text:0000000000000040 chIQInit
     /tmp/ccjuMB99.s:149    .text:0000000000000080 chIQResetI
     /tmp/ccjuMB99.s:208    .text:00000000000000d0 chIQPutI
     /tmp/ccjuMB99.s:296    .text:0000000000000140 chIQGetTimeout
     /tmp/ccjuMB99.s:387    .text:00000000000001a0 chIQReadTimeout
     /tmp/ccjuMB99.s:524    .text:0000000000000220 chOQInit
     /tmp/ccjuMB99.s:560    .text:0000000000000260 chOQResetI
     /tmp/ccjuMB99.s:624    .text:00000000000002b0 chOQPutTimeout
     /tmp/ccjuMB99.s:753    .text:0000000000000320 chOQGetI
     /tmp/ccjuMB99.s:853    .text:0000000000000390 chOQWriteTimeout

UNDEFINED SYMBOLS
rlist
chSchGoSleepTimeoutS
chSchReadyI
