GAS LISTING /tmp/ccjuMB99.s 			page 1


   1              		.file	"chqueues.c"
   2              	# GNU C (Ubuntu 4.8.2-19ubuntu1) version 4.8.2 (x86_64-linux-gnu)
   3              	#	compiled by GNU C version 4.8.2, GMP version 5.1.3, MPFR version 3.1.2-p3, MPC version 1.0.1
   4              	# GGC heuristics: --param ggc-min-expand=97 --param ggc-min-heapsize=126309
   5              	# options passed:  -I . -I ../../../os/ports/GCC/SIMIA32
   6              	# -I ../../../os/kernel/include -I ../../../test -I ../../../os/hal/include
   7              	# -I ../../../os/hal/platforms/Posix -I ../../../boards/simulator
   8              	# -I ../../../os/various -imultilib 32 -imultiarch i386-linux-gnu
   9              	# -MD ../../../os/kernel/src/chqueues.d -MF .dep/chqueues.o.d -MP
  10              	# -MQ ../../../os/kernel/src/chqueues.o -D SIMULATOR
  11              	# -D SHELL_USE_IPRINTF=FALSE ../../../os/kernel/src/chqueues.c -m32
  12              	# -mtune=generic -march=i686
  13              	# -auxbase-strip ../../../os/kernel/src/chqueues.o -ggdb -O2 -Wall -Wextra
  14              	# -Wstrict-prototypes -fomit-frame-pointer -fverbose-asm -fstack-protector
  15              	# -Wformat -Wformat-security
  16              	# options enabled:  -faggressive-loop-optimizations
  17              	# -fasynchronous-unwind-tables -fauto-inc-dec -fbranch-count-reg
  18              	# -fcaller-saves -fcombine-stack-adjustments -fcommon -fcompare-elim
  19              	# -fcprop-registers -fcrossjumping -fcse-follow-jumps -fdefer-pop
  20              	# -fdelete-null-pointer-checks -fdevirtualize -fdwarf2-cfi-asm
  21              	# -fearly-inlining -feliminate-unused-debug-types -fexpensive-optimizations
  22              	# -fforward-propagate -ffunction-cse -fgcse -fgcse-lm -fgnu-runtime
  23              	# -fguess-branch-probability -fhoist-adjacent-loads -fident -fif-conversion
  24              	# -fif-conversion2 -findirect-inlining -finline -finline-atomics
  25              	# -finline-functions-called-once -finline-small-functions -fipa-cp
  26              	# -fipa-profile -fipa-pure-const -fipa-reference -fipa-sra
  27              	# -fira-hoist-pressure -fira-share-save-slots -fira-share-spill-slots
  28              	# -fivopts -fkeep-static-consts -fleading-underscore -fmath-errno
  29              	# -fmerge-constants -fmerge-debug-strings -fmove-loop-invariants
  30              	# -fomit-frame-pointer -foptimize-register-move -foptimize-sibling-calls
  31              	# -foptimize-strlen -fpartial-inlining -fpcc-struct-return -fpeephole
  32              	# -fpeephole2 -fprefetch-loop-arrays -free -fregmove -freorder-blocks
  33              	# -freorder-functions -frerun-cse-after-loop
  34              	# -fsched-critical-path-heuristic -fsched-dep-count-heuristic
  35              	# -fsched-group-heuristic -fsched-interblock -fsched-last-insn-heuristic
  36              	# -fsched-rank-heuristic -fsched-spec -fsched-spec-insn-heuristic
  37              	# -fsched-stalled-insns-dep -fschedule-insns2 -fshow-column -fshrink-wrap
  38              	# -fsigned-zeros -fsplit-ivs-in-unroller -fsplit-wide-types
  39              	# -fstack-protector -fstrict-aliasing -fstrict-overflow
  40              	# -fstrict-volatile-bitfields -fsync-libcalls -fthread-jumps
  41              	# -ftoplevel-reorder -ftrapping-math -ftree-bit-ccp -ftree-builtin-call-dce
  42              	# -ftree-ccp -ftree-ch -ftree-coalesce-vars -ftree-copy-prop
  43              	# -ftree-copyrename -ftree-cselim -ftree-dce -ftree-dominator-opts
  44              	# -ftree-dse -ftree-forwprop -ftree-fre -ftree-loop-if-convert
  45              	# -ftree-loop-im -ftree-loop-ivcanon -ftree-loop-optimize
  46              	# -ftree-parallelize-loops= -ftree-phiprop -ftree-pre -ftree-pta
  47              	# -ftree-reassoc -ftree-scev-cprop -ftree-sink -ftree-slp-vectorize
  48              	# -ftree-slsr -ftree-sra -ftree-switch-conversion -ftree-tail-merge
  49              	# -ftree-ter -ftree-vect-loop-version -ftree-vrp -funit-at-a-time
  50              	# -funwind-tables -fvar-tracking -fvar-tracking-assignments -fverbose-asm
  51              	# -fzero-initialized-in-bss -m32 -m80387 -m96bit-long-double
  52              	# -maccumulate-outgoing-args -malign-stringops -mfancy-math-387
  53              	# -mfp-ret-in-387 -mglibc -mieee-fp -mlong-double-80 -mno-red-zone
  54              	# -mno-sse4 -mpush-args -msahf -mtls-direct-seg-refs
  55              	
  56              		.text
  57              	.Ltext0:
GAS LISTING /tmp/ccjuMB99.s 			page 2


  58              		.p2align 4,,15
  59              		.type	qwait, @function
  60              	qwait:
  61              	.LFB7:
  62              		.file 1 "../../../os/kernel/src/chqueues.c"
  63              		.loc 1 70 0
  64              		.cfi_startproc
  65              		.loc 1 72 0
  66 0000 85D2     		testl	%edx, %edx	# time
  67 0002 7434     		je	.L3	#,
  68              		.loc 1 70 0
  69 0004 53       		pushl	%ebx	#
  70              		.cfi_def_cfa_offset 8
  71              		.cfi_offset 3, -8
  72 0005 83EC18   		subl	$24, %esp	#,
  73              		.cfi_def_cfa_offset 32
  74              		.loc 1 74 0
  75 0008 8B0D1800 		movl	rlist+24, %ecx	# rlist.r_current, D.2276
  75      0000
  76 000e 894124   		movl	%eax, 36(%ecx)	# qp, _5->p_u.wtobjp
  77              	.LBB12:
  78              	.LBB13:
  79              		.file 2 "../../../os/kernel/include/chinline.h"
  80              		.loc 2 55 0
  81 0011 8B5804   		movl	4(%eax), %ebx	# MEM[(struct ThreadsQueue *)qp_6(D)].p_prev, D.2276
  82              		.loc 2 54 0
  83 0014 8901     		movl	%eax, (%ecx)	# qp, _5->p_next
  84              		.loc 2 55 0
  85 0016 895904   		movl	%ebx, 4(%ecx)	# D.2276, _5->p_prev
  86              		.loc 2 56 0
  87 0019 894804   		movl	%ecx, 4(%eax)	# D.2276, MEM[(struct ThreadsQueue *)qp_6(D)].p_prev
  88 001c 890B     		movl	%ecx, (%ebx)	# D.2276, _12->p_next
  89              	.LBE13:
  90              	.LBE12:
  91              		.loc 1 76 0
  92 001e 89542404 		movl	%edx, 4(%esp)	# time,
  93 0022 C704240D 		movl	$13, (%esp)	#,
  93      000000
  94 0029 E8FCFFFF 		call	chSchGoSleepTimeoutS	#
  94      FF
  95              		.loc 1 77 0
  96 002e 83C418   		addl	$24, %esp	#,
  97              		.cfi_def_cfa_offset 8
  98 0031 5B       		popl	%ebx	#
  99              		.cfi_restore 3
 100              		.cfi_def_cfa_offset 4
 101 0032 C3       		ret
 102              		.p2align 4,,7
 103 0033 908D7426 		.p2align 3
 103      00
 104              	.L3:
 105              		.loc 1 73 0
 106 0038 B8FFFFFF 		movl	$-1, %eax	#, D.2275
 106      FF
 107 003d C3       		ret
 108              		.cfi_endproc
 109              	.LFE7:
GAS LISTING /tmp/ccjuMB99.s 			page 3


 110              		.size	qwait, .-qwait
 111 003e 6690     		.p2align 4,,15
 112              		.globl	chIQInit
 113              		.type	chIQInit, @function
 114              	chIQInit:
 115              	.LFB8:
 116              		.loc 1 96 0
 117              		.cfi_startproc
 118              	.LVL0:
 119              		.loc 1 96 0
 120 0040 8B442404 		movl	4(%esp), %eax	# iqp, iqp
 121 0044 8B542408 		movl	8(%esp), %edx	# bp, bp
 122              		.loc 1 98 0
 123 0048 894004   		movl	%eax, 4(%eax)	# iqp, iqp_1(D)->q_waiting.p_prev
 124              		.loc 1 100 0
 125 004b 895014   		movl	%edx, 20(%eax)	# bp, iqp_1(D)->q_wrptr
 126 004e 895018   		movl	%edx, 24(%eax)	# bp, iqp_1(D)->q_rdptr
 127 0051 89500C   		movl	%edx, 12(%eax)	# bp, iqp_1(D)->q_buffer
 128              		.loc 1 101 0
 129 0054 0354240C 		addl	12(%esp), %edx	# size, tmp66
 130              		.loc 1 98 0
 131 0058 8900     		movl	%eax, (%eax)	# iqp, iqp_1(D)->q_waiting.p_next
 132              		.loc 1 99 0
 133 005a C7400800 		movl	$0, 8(%eax)	#, iqp_1(D)->q_counter
 133      000000
 134              		.loc 1 101 0
 135 0061 895010   		movl	%edx, 16(%eax)	# tmp66, iqp_1(D)->q_top
 136              		.loc 1 102 0
 137 0064 8B542410 		movl	16(%esp), %edx	# infy, infy
 138 0068 89501C   		movl	%edx, 28(%eax)	# infy, iqp_1(D)->q_notify
 139              		.loc 1 103 0
 140 006b 8B542414 		movl	20(%esp), %edx	# link, link
 141 006f 895020   		movl	%edx, 32(%eax)	# link, iqp_1(D)->q_link
 142 0072 C3       		ret
 143              		.cfi_endproc
 144              	.LFE8:
 145              		.size	chIQInit, .-chIQInit
 146 0073 8DB60000 		.p2align 4,,15
 146      00008DBC 
 146      27000000 
 146      00
 147              		.globl	chIQResetI
 148              		.type	chIQResetI, @function
 149              	chIQResetI:
 150              	.LFB9:
 151              		.loc 1 117 0
 152              		.cfi_startproc
 153              	.LVL1:
 154 0080 53       		pushl	%ebx	#
 155              		.cfi_def_cfa_offset 8
 156              		.cfi_offset 3, -8
 157 0081 83EC18   		subl	$24, %esp	#,
 158              		.cfi_def_cfa_offset 32
 159              		.loc 1 117 0
 160 0084 8B5C2420 		movl	32(%esp), %ebx	# iqp, iqp
 161              		.loc 1 121 0
 162 0088 8B430C   		movl	12(%ebx), %eax	# iqp_3(D)->q_buffer, D.2284
GAS LISTING /tmp/ccjuMB99.s 			page 4


 163              		.loc 1 122 0
 164 008b C7430800 		movl	$0, 8(%ebx)	#, iqp_3(D)->q_counter
 164      000000
 165              		.loc 1 121 0
 166 0092 894314   		movl	%eax, 20(%ebx)	# D.2284, iqp_3(D)->q_wrptr
 167 0095 894318   		movl	%eax, 24(%ebx)	# D.2284, iqp_3(D)->q_rdptr
 168              		.loc 1 123 0
 169 0098 8B03     		movl	(%ebx), %eax	# iqp_3(D)->q_waiting.p_next, D.2285
 170 009a 39D8     		cmpl	%ebx, %eax	# iqp, D.2285
 171 009c 741E     		je	.L8	#,
 172 009e 6690     		.p2align 4,,7
 173              		.p2align 3
 174              	.L12:
 175              	.LVL2:
 176              	.LBB14:
 177              	.LBB15:
 178              		.loc 2 62 0
 179 00a0 8B10     		movl	(%eax), %edx	# _22->p_next, D.2285
 180 00a2 8913     		movl	%edx, (%ebx)	# D.2285, MEM[(struct ThreadsQueue *)iqp_3(D)].p_next
 181 00a4 895A04   		movl	%ebx, 4(%edx)	# iqp, _14->p_prev
 182              	.LBE15:
 183              	.LBE14:
 184              		.loc 1 124 0
 185 00a7 890424   		movl	%eax, (%esp)	# D.2285,
 186 00aa E8FCFFFF 		call	chSchReadyI	#
 186      FF
 187              	.LVL3:
 188 00af C74024FE 		movl	$-2, 36(%eax)	#, _12->p_u.rdymsg
 188      FFFFFF
 189              		.loc 1 123 0
 190 00b6 8B03     		movl	(%ebx), %eax	# iqp_3(D)->q_waiting.p_next, D.2285
 191 00b8 39D8     		cmpl	%ebx, %eax	# iqp, D.2285
 192 00ba 75E4     		jne	.L12	#,
 193              	.LVL4:
 194              	.L8:
 195              		.loc 1 125 0
 196 00bc 83C418   		addl	$24, %esp	#,
 197              		.cfi_def_cfa_offset 8
 198 00bf 5B       		popl	%ebx	#
 199              		.cfi_restore 3
 200              		.cfi_def_cfa_offset 4
 201 00c0 C3       		ret
 202              		.cfi_endproc
 203              	.LFE9:
 204              		.size	chIQResetI, .-chIQResetI
 205 00c1 EB0D9090 		.p2align 4,,15
 205      90909090 
 205      90909090 
 205      909090
 206              		.globl	chIQPutI
 207              		.type	chIQPutI, @function
 208              	chIQPutI:
 209              	.LFB10:
 210              		.loc 1 140 0
 211              		.cfi_startproc
 212              	.LVL5:
 213 00d0 53       		pushl	%ebx	#
GAS LISTING /tmp/ccjuMB99.s 			page 5


 214              		.cfi_def_cfa_offset 8
 215              		.cfi_offset 3, -8
 216 00d1 83EC18   		subl	$24, %esp	#,
 217              		.cfi_def_cfa_offset 32
 218              		.loc 1 140 0
 219 00d4 8B542420 		movl	32(%esp), %edx	# iqp, iqp
 220 00d8 8B442424 		movl	36(%esp), %eax	# b, b
 221              		.loc 1 144 0
 222 00dc 8B4A14   		movl	20(%edx), %ecx	# iqp_6(D)->q_wrptr, D.2290
 223 00df 3B4A18   		cmpl	24(%edx), %ecx	# iqp_6(D)->q_rdptr, D.2290
 224 00e2 744C     		je	.L24	#,
 225 00e4 8B5A08   		movl	8(%edx), %ebx	# iqp_6(D)->q_counter, D.2294
 226              	.L17:
 227              		.loc 1 147 0
 228 00e7 83C301   		addl	$1, %ebx	#, tmp79
 229 00ea 895A08   		movl	%ebx, 8(%edx)	# tmp79, iqp_6(D)->q_counter
 230              		.loc 1 148 0
 231 00ed 8D5901   		leal	1(%ecx), %ebx	#, tmp80
 232 00f0 895A14   		movl	%ebx, 20(%edx)	# tmp80, iqp_6(D)->q_wrptr
 233 00f3 8801     		movb	%al, (%ecx)	# b, *_7
 234              		.loc 1 149 0
 235 00f5 8B4210   		movl	16(%edx), %eax	# iqp_6(D)->q_top, tmp82
 236 00f8 394214   		cmpl	%eax, 20(%edx)	# tmp82, iqp_6(D)->q_wrptr
 237 00fb 732B     		jae	.L18	#,
 238              	.L19:
 239              		.loc 1 152 0
 240 00fd 8B0A     		movl	(%edx), %ecx	# iqp_6(D)->q_waiting.p_next, D.2292
 241              		.loc 1 155 0
 242 00ff 31DB     		xorl	%ebx, %ebx	# D.2289
 243              		.loc 1 152 0
 244 0101 39D1     		cmpl	%edx, %ecx	# iqp, D.2292
 245 0103 7416     		je	.L22	#,
 246              	.LVL6:
 247              	.LBB16:
 248              	.LBB17:
 249              		.loc 2 62 0
 250 0105 8B01     		movl	(%ecx), %eax	# _22->p_next, D.2292
 251 0107 8902     		movl	%eax, (%edx)	# D.2292, MEM[(struct ThreadsQueue *)iqp_6(D)].p_next
 252 0109 895004   		movl	%edx, 4(%eax)	# iqp, _28->p_prev
 253              	.LBE17:
 254              	.LBE16:
 255              		.loc 1 153 0
 256 010c 890C24   		movl	%ecx, (%esp)	# D.2292,
 257 010f E8FCFFFF 		call	chSchReadyI	#
 257      FF
 258              	.LVL7:
 259 0114 C7402400 		movl	$0, 36(%eax)	#, _26->p_u.rdymsg
 259      000000
 260              	.LVL8:
 261              	.L22:
 262              		.loc 1 156 0
 263 011b 83C418   		addl	$24, %esp	#,
 264              		.cfi_remember_state
 265              		.cfi_def_cfa_offset 8
 266 011e 89D8     		movl	%ebx, %eax	# D.2289,
 267 0120 5B       		popl	%ebx	#
 268              		.cfi_restore 3
GAS LISTING /tmp/ccjuMB99.s 			page 6


 269              		.cfi_def_cfa_offset 4
 270 0121 C3       		ret
 271              		.p2align 4,,7
 272 0122 8DB60000 		.p2align 3
 272      0000
 273              	.L18:
 274              		.cfi_restore_state
 275              		.loc 1 150 0
 276 0128 8B420C   		movl	12(%edx), %eax	# iqp_6(D)->q_buffer, iqp_6(D)->q_buffer
 277 012b 894214   		movl	%eax, 20(%edx)	# iqp_6(D)->q_buffer, iqp_6(D)->q_wrptr
 278 012e EBCD     		jmp	.L19	#
 279              		.p2align 4,,7
 280              		.p2align 3
 281              	.L24:
 282              		.loc 1 144 0 discriminator 1
 283 0130 837A0800 		cmpl	$0, 8(%edx)	#, iqp_6(D)->q_counter
 284              		.loc 1 145 0 discriminator 1
 285 0134 BBFCFFFF 		movl	$-4, %ebx	#, D.2289
 285      FF
 286              		.loc 1 144 0 discriminator 1
 287 0139 75E0     		jne	.L22	#,
 288 013b 31DB     		xorl	%ebx, %ebx	# D.2294
 289 013d EBA8     		jmp	.L17	#
 290              		.cfi_endproc
 291              	.LFE10:
 292              		.size	chIQPutI, .-chIQPutI
 293 013f 90       		.p2align 4,,15
 294              		.globl	chIQGetTimeout
 295              		.type	chIQGetTimeout, @function
 296              	chIQGetTimeout:
 297              	.LFB11:
 298              		.loc 1 178 0
 299              		.cfi_startproc
 300              	.LVL9:
 301 0140 56       		pushl	%esi	#
 302              		.cfi_def_cfa_offset 8
 303              		.cfi_offset 6, -8
 304 0141 53       		pushl	%ebx	#
 305              		.cfi_def_cfa_offset 12
 306              		.cfi_offset 3, -12
 307 0142 83EC14   		subl	$20, %esp	#,
 308              		.cfi_def_cfa_offset 32
 309              		.loc 1 178 0
 310 0145 8B5C2420 		movl	32(%esp), %ebx	# iqp, iqp
 311 0149 8B742424 		movl	36(%esp), %esi	# time, time
 312              		.loc 1 181 0
 313              	#APP
 314              	# 181 "../../../os/kernel/src/chqueues.c" 1
   1              	/*
   2              	    ChibiOS/RT - Copyright (C) 2006,2007,2008,2009,2010,
   3              	                 2011,2012,2013 Giovanni Di Sirio.
   4              	
   5              	    This file is part of ChibiOS/RT.
   6              	
   7              	    ChibiOS/RT is free software; you can redistribute it and/or modify
   8              	    it under the terms of the GNU General Public License as published by
   9              	    the Free Software Foundation; either version 3 of the License, or
GAS LISTING /tmp/ccjuMB99.s 			page 7


  10              	    (at your option) any later version.
  11              	
  12              	    ChibiOS/RT is distributed in the hope that it will be useful,
  13              	    but WITHOUT ANY WARRANTY; without even the implied warranty of
  14              	    MERCHANTABILITY or FITNESS FOR A PARTICULAR PURPOSE.  See the
  15              	    GNU General Public License for more details.
  16              	
  17              	    You should have received a copy of the GNU General Public License
  18              	    along with this program.  If not, see <http://www.gnu.org/licenses/>.
  19              	
  20              	                                      ---
  21              	
  22              	    A special exception to the GPL can be applied should you wish to distribute
  23              	    a combined work that includes ChibiOS/RT, without being obliged to provide
  24              	    the source code for any proprietary components. See the file exception.txt
  25              	    for full details of how and when the exception can be applied.
  26              	*/
  27              	
  28              	/**
  29              	 * @file    chqueues.c
  30              	 * @brief   I/O Queues code.
  31              	 *
  32              	 * @addtogroup io_queues
  33              	 * @details ChibiOS/RT queues are mostly used in serial-like device drivers.
  34              	 *          The device drivers are usually designed to have a lower side
  35              	 *          (lower driver, it is usually an interrupt service routine) and an
  36              	 *          upper side (upper driver, accessed by the application threads).<br>
  37              	 *          There are several kind of queues:<br>
  38              	 *          - <b>Input queue</b>, unidirectional queue where the writer is the
  39              	 *            lower side and the reader is the upper side.
  40              	 *          - <b>Output queue</b>, unidirectional queue where the writer is the
  41              	 *            upper side and the reader is the lower side.
  42              	 *          - <b>Full duplex queue</b>, bidirectional queue. Full duplex queues
  43              	 *            are implemented by pairing an input queue and an output queue
  44              	 *            together.
  45              	 *          .
  46              	 * @pre     In order to use the I/O queues the @p CH_USE_QUEUES option must
  47              	 *          be enabled in @p chconf.h.
  48              	 * @{
  49              	 */
  50              	
  51              	#include "ch.h"
  52              	
  53              	#if CH_USE_QUEUES || defined(__DOXYGEN__)
  54              	
  55              	/**
  56              	 * @brief   Puts the invoking thread into the queue's threads queue.
  57              	 *
  58              	 * @param[out] qp       pointer to an @p GenericQueue structure
  59              	 * @param[in] time      the number of ticks before the operation timeouts,
  60              	 *                      the following special values are allowed:
  61              	 *                      - @a TIME_IMMEDIATE immediate timeout.
  62              	 *                      - @a TIME_INFINITE no timeout.
  63              	 *                      .
  64              	 * @return              A message specifying how the invoking thread has been
  65              	 *                      released from threads queue.
  66              	 * @retval Q_OK         is the normal exit, thread signaled.
GAS LISTING /tmp/ccjuMB99.s 			page 8


  67              	 * @retval Q_RESET      if the queue has been reset.
  68              	 * @retval Q_TIMEOUT    if the queue operation timed out.
  69              	 */
  70              	static msg_t qwait(GenericQueue *qp, systime_t time) {
  71              	
  72              	  if (TIME_IMMEDIATE == time)
  73              	    return Q_TIMEOUT;
  74              	  currp->p_u.wtobjp = qp;
  75              	  queue_insert(currp, &qp->q_waiting);
  76              	  return chSchGoSleepTimeoutS(THD_STATE_WTQUEUE, time);
  77              	}
  78              	
  79              	/**
  80              	 * @brief   Initializes an input queue.
  81              	 * @details A Semaphore is internally initialized and works as a counter of
  82              	 *          the bytes contained in the queue.
  83              	 * @note    The callback is invoked from within the S-Locked system state,
  84              	 *          see @ref system_states.
  85              	 *
  86              	 * @param[out] iqp      pointer to an @p InputQueue structure
  87              	 * @param[in] bp        pointer to a memory area allocated as queue buffer
  88              	 * @param[in] size      size of the queue buffer
  89              	 * @param[in] infy      pointer to a callback function that is invoked when
  90              	 *                      data is read from the queue. The value can be @p NULL.
  91              	 * @param[in] link      application defined pointer
  92              	 *
  93              	 * @init
  94              	 */
  95              	void chIQInit(InputQueue *iqp, uint8_t *bp, size_t size, qnotify_t infy,
  96              	              void *link) {
  97              	
  98              	  queue_init(&iqp->q_waiting);
  99              	  iqp->q_counter = 0;
 100              	  iqp->q_buffer = iqp->q_rdptr = iqp->q_wrptr = bp;
 101              	  iqp->q_top = bp + size;
 102              	  iqp->q_notify = infy;
 103              	  iqp->q_link = link;
 104              	}
 105              	
 106              	/**
 107              	 * @brief   Resets an input queue.
 108              	 * @details All the data in the input queue is erased and lost, any waiting
 109              	 *          thread is resumed with status @p Q_RESET.
 110              	 * @note    A reset operation can be used by a low level driver in order to
 111              	 *          obtain immediate attention from the high level layers.
 112              	 *
 113              	 * @param[in] iqp       pointer to an @p InputQueue structure
 114              	 *
 115              	 * @iclass
 116              	 */
 117              	void chIQResetI(InputQueue *iqp) {
 118              	
 119              	  chDbgCheckClassI();
 120              	
 121              	  iqp->q_rdptr = iqp->q_wrptr = iqp->q_buffer;
 122              	  iqp->q_counter = 0;
 123              	  while (notempty(&iqp->q_waiting))
GAS LISTING /tmp/ccjuMB99.s 			page 9


 124              	    chSchReadyI(fifo_remove(&iqp->q_waiting))->p_u.rdymsg = Q_RESET;
 125              	}
 126              	
 127              	/**
 128              	 * @brief   Input queue write.
 129              	 * @details A byte value is written into the low end of an input queue.
 130              	 *
 131              	 * @param[in] iqp       pointer to an @p InputQueue structure
 132              	 * @param[in] b         the byte value to be written in the queue
 133              	 * @return              The operation status.
 134              	 * @retval Q_OK         if the operation has been completed with success.
 135              	 * @retval Q_FULL       if the queue is full and the operation cannot be
 136              	 *                      completed.
 137              	 *
 138              	 * @iclass
 139              	 */
 140              	msg_t chIQPutI(InputQueue *iqp, uint8_t b) {
 141              	
 142              	  chDbgCheckClassI();
 143              	
 144              	  if (chIQIsFullI(iqp))
 145              	    return Q_FULL;
 146              	
 147              	  iqp->q_counter++;
 148              	  *iqp->q_wrptr++ = b;
 149              	  if (iqp->q_wrptr >= iqp->q_top)
 150              	    iqp->q_wrptr = iqp->q_buffer;
 151              	
 152              	  if (notempty(&iqp->q_waiting))
 153              	    chSchReadyI(fifo_remove(&iqp->q_waiting))->p_u.rdymsg = Q_OK;
 154              	
 155              	  return Q_OK;
 156              	}
 157              	
 158              	/**
 159              	 * @brief   Input queue read with timeout.
 160              	 * @details This function reads a byte value from an input queue. If the queue
 161              	 *          is empty then the calling thread is suspended until a byte arrives
 162              	 *          in the queue or a timeout occurs.
 163              	 * @note    The callback is invoked before reading the character from the
 164              	 *          buffer or before entering the state @p THD_STATE_WTQUEUE.
 165              	 *
 166              	 * @param[in] iqp       pointer to an @p InputQueue structure
 167              	 * @param[in] time      the number of ticks before the operation timeouts,
 168              	 *                      the following special values are allowed:
 169              	 *                      - @a TIME_IMMEDIATE immediate timeout.
 170              	 *                      - @a TIME_INFINITE no timeout.
 171              	 *                      .
 172              	 * @return              A byte value from the queue.
 173              	 * @retval Q_TIMEOUT    if the specified time expired.
 174              	 * @retval Q_RESET      if the queue has been reset.
 175              	 *
 176              	 * @api
 177              	 */
 178              	msg_t chIQGetTimeout(InputQueue *iqp, systime_t time) {
 179              	  uint8_t b;
 180              	
GAS LISTING /tmp/ccjuMB99.s 			page 10


 181 014d 90       	  chSysLock();
 182              	  if (iqp->q_notify)
 315              		nop
 316              	# 0 "" 2
 317              		.loc 1 182 0
 318              	#NO_APP
 319 014e 8B431C   		movl	28(%ebx), %eax	# iqp_6(D)->q_notify, D.2299
 320 0151 85C0     		testl	%eax, %eax	# D.2299
 321 0153 7418     		je	.L28	#,
 322              		.loc 1 183 0
 323 0155 891C24   		movl	%ebx, (%esp)	# iqp,
 324 0158 FFD0     		call	*%eax	# D.2299
 325              	.LVL10:
 326 015a EB11     		jmp	.L28	#
 327 015c 8D742600 		.p2align 4,,7
 328              		.p2align 3
 329              	.L30:
 330              	.LBB18:
 331              		.loc 1 187 0
 332 0160 89F2     		movl	%esi, %edx	# time,
 333 0162 89D8     		movl	%ebx, %eax	# iqp,
 334 0164 E897FEFF 		call	qwait	#
 334      FF
 335              	.LVL11:
 336 0169 85C0     		testl	%eax, %eax	# msg
 337              		.p2align 4,,2
 338 016b 7824     		js	.L31	#,
 339              	.LVL12:
 340              	.L28:
 341              	.LBE18:
 342              		.loc 1 185 0 discriminator 1
 343 016d 8B4308   		movl	8(%ebx), %eax	# iqp_6(D)->q_counter, D.2300
 344 0170 85C0     		testl	%eax, %eax	# D.2300
 345 0172 74EC     		je	.L30	#,
 346              		.loc 1 193 0
 347 0174 83E801   		subl	$1, %eax	#, tmp72
 348 0177 894308   		movl	%eax, 8(%ebx)	# tmp72, iqp_6(D)->q_counter
 349              		.loc 1 194 0
 350 017a 8B4318   		movl	24(%ebx), %eax	# iqp_6(D)->q_rdptr, D.2301
 351 017d 8D5001   		leal	1(%eax), %edx	#, D.2301
 352              		.loc 1 195 0
 353 0180 3B5310   		cmpl	16(%ebx), %edx	# iqp_6(D)->q_top, D.2301
 354              		.loc 1 194 0
 355 0183 895318   		movl	%edx, 24(%ebx)	# D.2301, iqp_6(D)->q_rdptr
 356 0186 0FB600   		movzbl	(%eax), %eax	# *_16,
 357              	.LVL13:
 358              		.loc 1 195 0
 359 0189 7206     		jb	.L31	#,
 360              		.loc 1 196 0
 361 018b 8B530C   		movl	12(%ebx), %edx	# iqp_6(D)->q_buffer, iqp_6(D)->q_buffer
 362 018e 895318   		movl	%edx, 24(%ebx)	# iqp_6(D)->q_buffer, iqp_6(D)->q_rdptr
 363              	.LVL14:
 364              	.L31:
 365              		.loc 1 198 0
 366              	#APP
 367              	# 198 "../../../os/kernel/src/chqueues.c" 1
 183              	    iqp->q_notify(iqp);
GAS LISTING /tmp/ccjuMB99.s 			page 11


 184              	
 185              	  while (chIQIsEmptyI(iqp)) {
 186              	    msg_t msg;
 187              	    if ((msg = qwait((GenericQueue *)iqp, time)) < Q_OK) {
 188              	      chSysUnlock();
 189              	      return msg;
 190              	    }
 191              	  }
 192              	
 193              	  iqp->q_counter--;
 194              	  b = *iqp->q_rdptr++;
 195              	  if (iqp->q_rdptr >= iqp->q_top)
 196              	    iqp->q_rdptr = iqp->q_buffer;
 197              	
 198 0191 90       	  chSysUnlock();
 199              	  return b;
 368              		nop
 369              	# 0 "" 2
 370              		.loc 1 200 0
 371              	#NO_APP
 372 0192 83C414   		addl	$20, %esp	#,
 373              		.cfi_def_cfa_offset 12
 374 0195 5B       		popl	%ebx	#
 375              		.cfi_restore 3
 376              		.cfi_def_cfa_offset 8
 377 0196 5E       		popl	%esi	#
 378              		.cfi_restore 6
 379              		.cfi_def_cfa_offset 4
 380 0197 C3       		ret
 381              		.cfi_endproc
 382              	.LFE11:
 383              		.size	chIQGetTimeout, .-chIQGetTimeout
 384 0198 908DB426 		.p2align 4,,15
 384      00000000 
 385              		.globl	chIQReadTimeout
 386              		.type	chIQReadTimeout, @function
 387              	chIQReadTimeout:
 388              	.LFB12:
 389              		.loc 1 227 0
 390              		.cfi_startproc
 391              	.LVL15:
 392 01a0 55       		pushl	%ebp	#
 393              		.cfi_def_cfa_offset 8
 394              		.cfi_offset 5, -8
 395 01a1 57       		pushl	%edi	#
 396              		.cfi_def_cfa_offset 12
 397              		.cfi_offset 7, -12
 398 01a2 56       		pushl	%esi	#
 399              		.cfi_def_cfa_offset 16
 400              		.cfi_offset 6, -16
 401 01a3 53       		pushl	%ebx	#
 402              		.cfi_def_cfa_offset 20
 403              		.cfi_offset 3, -20
 404 01a4 83EC1C   		subl	$28, %esp	#,
 405              		.cfi_def_cfa_offset 48
 406              		.loc 1 227 0
 407 01a7 8B6C2430 		movl	48(%esp), %ebp	# iqp, iqp
GAS LISTING /tmp/ccjuMB99.s 			page 12


 408 01ab 8B5C243C 		movl	60(%esp), %ebx	# time, time
 409              		.loc 1 228 0
 410 01af 8B7D1C   		movl	28(%ebp), %edi	# iqp_10(D)->q_notify, nfy
 411              	.LVL16:
 412              		.loc 1 233 0
 413              	#APP
 414              	# 233 "../../../os/kernel/src/chqueues.c" 1
 200              	}
 201              	
 202              	/**
 203              	 * @brief   Input queue read with timeout.
 204              	 * @details The function reads data from an input queue into a buffer. The
 205              	 *          operation completes when the specified amount of data has been
 206              	 *          transferred or after the specified timeout or if the queue has
 207              	 *          been reset.
 208              	 * @note    The function is not atomic, if you need atomicity it is suggested
 209              	 *          to use a semaphore or a mutex for mutual exclusion.
 210              	 * @note    The callback is invoked before reading each character from the
 211              	 *          buffer or before entering the state @p THD_STATE_WTQUEUE.
 212              	 *
 213              	 * @param[in] iqp       pointer to an @p InputQueue structure
 214              	 * @param[out] bp       pointer to the data buffer
 215              	 * @param[in] n         the maximum amount of data to be transferred, the
 216              	 *                      value 0 is reserved
 217              	 * @param[in] time      the number of ticks before the operation timeouts,
 218              	 *                      the following special values are allowed:
 219              	 *                      - @a TIME_IMMEDIATE immediate timeout.
 220              	 *                      - @a TIME_INFINITE no timeout.
 221              	 *                      .
 222              	 * @return              The number of bytes effectively transferred.
 223              	 *
 224              	 * @api
 225              	 */
 226              	size_t chIQReadTimeout(InputQueue *iqp, uint8_t *bp,
 227              	                       size_t n, systime_t time) {
 228              	  qnotify_t nfy = iqp->q_notify;
 229              	  size_t r = 0;
 230              	
 231              	  chDbgCheck(n > 0, "chIQReadTimeout");
 232              	
 233 01b2 90       	  chSysLock();
 234              	  while (TRUE) {
 415              		nop
 416              	# 0 "" 2
 417              		.loc 1 229 0
 418              	#NO_APP
 419 01b3 31F6     		xorl	%esi, %esi	# r
 420              	.LVL17:
 421              	.L43:
 422              		.loc 1 235 0
 423 01b5 85FF     		testl	%edi, %edi	# nfy
 424 01b7 7414     		je	.L39	#,
 425              		.loc 1 236 0
 426 01b9 892C24   		movl	%ebp, (%esp)	# iqp,
 427 01bc FFD7     		call	*%edi	# nfy
 428              	.LVL18:
 429 01be EB0D     		jmp	.L39	#
GAS LISTING /tmp/ccjuMB99.s 			page 13


 430              		.p2align 4,,7
 431              		.p2align 3
 432              	.L41:
 433              		.loc 1 239 0
 434 01c0 89DA     		movl	%ebx, %edx	# time,
 435 01c2 89E8     		movl	%ebp, %eax	# iqp,
 436 01c4 E837FEFF 		call	qwait	#
 436      FF
 437              	.LVL19:
 438 01c9 85C0     		testl	%eax, %eax	# D.2320
 439              		.p2align 4,,2
 440 01cb 753B     		jne	.L48	#,
 441              	.L39:
 442              		.loc 1 238 0 discriminator 1
 443 01cd 8B4508   		movl	8(%ebp), %eax	# iqp_10(D)->q_counter, D.2319
 444 01d0 85C0     		testl	%eax, %eax	# D.2319
 445 01d2 74EC     		je	.L41	#,
 446              		.loc 1 245 0
 447 01d4 83E801   		subl	$1, %eax	#, tmp75
 448              		.loc 1 246 0
 449 01d7 8B4C2434 		movl	52(%esp), %ecx	# bp, tmp80
 450              		.loc 1 245 0
 451 01db 894508   		movl	%eax, 8(%ebp)	# tmp75, iqp_10(D)->q_counter
 452              	.LVL20:
 453              		.loc 1 246 0
 454 01de 8B4518   		movl	24(%ebp), %eax	# iqp_10(D)->q_rdptr, D.2321
 455 01e1 8D5001   		leal	1(%eax), %edx	#, tmp76
 456 01e4 895518   		movl	%edx, 24(%ebp)	# tmp76, iqp_10(D)->q_rdptr
 457 01e7 0FB600   		movzbl	(%eax), %eax	# *_23, D.2322
 458 01ea 880431   		movb	%al, (%ecx,%esi)	# D.2322, MEM[base: bp_12(D), index: r_3, offset: 0B]
 459              		.loc 1 247 0
 460 01ed 8B4510   		movl	16(%ebp), %eax	# iqp_10(D)->q_top, tmp81
 461 01f0 394518   		cmpl	%eax, 24(%ebp)	# tmp81, iqp_10(D)->q_rdptr
 462 01f3 7206     		jb	.L42	#,
 463              		.loc 1 248 0
 464 01f5 8B450C   		movl	12(%ebp), %eax	# iqp_10(D)->q_buffer, iqp_10(D)->q_buffer
 465 01f8 894518   		movl	%eax, 24(%ebp)	# iqp_10(D)->q_buffer, iqp_10(D)->q_rdptr
 466              	.L42:
 467              		.loc 1 250 0
 468              	#APP
 469              	# 250 "../../../os/kernel/src/chqueues.c" 1
 235              	    if (nfy)
 236              	      nfy(iqp);
 237              	
 238              	    while (chIQIsEmptyI(iqp)) {
 239              	      if (qwait((GenericQueue *)iqp, time) != Q_OK) {
 240              	        chSysUnlock();
 241              	        return r;
 242              	      }
 243              	    }
 244              	
 245              	    iqp->q_counter--;
 246              	    *bp++ = *iqp->q_rdptr++;
 247              	    if (iqp->q_rdptr >= iqp->q_top)
 248              	      iqp->q_rdptr = iqp->q_buffer;
 249              	
 250 01fb 90       	    chSysUnlock(); /* Gives a preemption chance in a controlled point.*/
GAS LISTING /tmp/ccjuMB99.s 			page 14


 251              	    r++;
 470              		nop
 471              	# 0 "" 2
 472              		.loc 1 251 0
 473              	#NO_APP
 474 01fc 83C601   		addl	$1, %esi	#, r
 475              	.LVL21:
 476              		.loc 1 252 0
 477 01ff 39742438 		cmpl	%esi, 56(%esp)	# r, n
 478 0203 7404     		je	.L40	#,
 479              		.loc 1 255 0
 480              	#APP
 481              	# 255 "../../../os/kernel/src/chqueues.c" 1
 252              	    if (--n == 0)
 253              	      return r;
 254              	
 255 0205 90       	    chSysLock();
 256              	  }
 482              		nop
 483              	# 0 "" 2
 484              		.loc 1 256 0
 485              	#NO_APP
 486 0206 EBAD     		jmp	.L43	#
 487              	.LVL22:
 488              		.p2align 4,,7
 489              		.p2align 3
 490              	.L48:
 491              		.loc 1 240 0
 492              	#APP
 493              	# 240 "../../../os/kernel/src/chqueues.c" 1
 494              		nop
 495              	# 0 "" 2
 496              	.LVL23:
 497              	#NO_APP
 498              	.L40:
 499              		.loc 1 257 0
 500 0209 83C41C   		addl	$28, %esp	#,
 501              		.cfi_def_cfa_offset 20
 502 020c 89F0     		movl	%esi, %eax	# r,
 503 020e 5B       		popl	%ebx	#
 504              		.cfi_restore 3
 505              		.cfi_def_cfa_offset 16
 506 020f 5E       		popl	%esi	#
 507              		.cfi_restore 6
 508              		.cfi_def_cfa_offset 12
 509              	.LVL24:
 510 0210 5F       		popl	%edi	#
 511              		.cfi_restore 7
 512              		.cfi_def_cfa_offset 8
 513              	.LVL25:
 514 0211 5D       		popl	%ebp	#
 515              		.cfi_restore 5
 516              		.cfi_def_cfa_offset 4
 517 0212 C3       		ret
 518              		.cfi_endproc
 519              	.LFE12:
 520              		.size	chIQReadTimeout, .-chIQReadTimeout
GAS LISTING /tmp/ccjuMB99.s 			page 15


 521 0213 8DB60000 		.p2align 4,,15
 521      00008DBC 
 521      27000000 
 521      00
 522              		.globl	chOQInit
 523              		.type	chOQInit, @function
 524              	chOQInit:
 525              	.LFB13:
 526              		.loc 1 276 0
 527              		.cfi_startproc
 528              	.LVL26:
 529              		.loc 1 276 0
 530 0220 8B442404 		movl	4(%esp), %eax	# oqp, oqp
 531 0224 8B542408 		movl	8(%esp), %edx	# bp, bp
 532 0228 8B4C240C 		movl	12(%esp), %ecx	# size, size
 533              		.loc 1 278 0
 534 022c 894004   		movl	%eax, 4(%eax)	# oqp, oqp_1(D)->q_waiting.p_prev
 535              		.loc 1 280 0
 536 022f 895014   		movl	%edx, 20(%eax)	# bp, oqp_1(D)->q_wrptr
 537 0232 895018   		movl	%edx, 24(%eax)	# bp, oqp_1(D)->q_rdptr
 538 0235 89500C   		movl	%edx, 12(%eax)	# bp, oqp_1(D)->q_buffer
 539              		.loc 1 281 0
 540 0238 01CA     		addl	%ecx, %edx	# size, tmp66
 541 023a 895010   		movl	%edx, 16(%eax)	# tmp66, oqp_1(D)->q_top
 542              		.loc 1 282 0
 543 023d 8B542410 		movl	16(%esp), %edx	# onfy, onfy
 544              		.loc 1 278 0
 545 0241 8900     		movl	%eax, (%eax)	# oqp, oqp_1(D)->q_waiting.p_next
 546              		.loc 1 279 0
 547 0243 894808   		movl	%ecx, 8(%eax)	# size, oqp_1(D)->q_counter
 548              		.loc 1 282 0
 549 0246 89501C   		movl	%edx, 28(%eax)	# onfy, oqp_1(D)->q_notify
 550              		.loc 1 283 0
 551 0249 8B542414 		movl	20(%esp), %edx	# link, link
 552 024d 895020   		movl	%edx, 32(%eax)	# link, oqp_1(D)->q_link
 553 0250 C3       		ret
 554              		.cfi_endproc
 555              	.LFE13:
 556              		.size	chOQInit, .-chOQInit
 557 0251 EB0D9090 		.p2align 4,,15
 557      90909090 
 557      90909090 
 557      909090
 558              		.globl	chOQResetI
 559              		.type	chOQResetI, @function
 560              	chOQResetI:
 561              	.LFB14:
 562              		.loc 1 297 0
 563              		.cfi_startproc
 564              	.LVL27:
 565 0260 53       		pushl	%ebx	#
 566              		.cfi_def_cfa_offset 8
 567              		.cfi_offset 3, -8
 568 0261 83EC18   		subl	$24, %esp	#,
 569              		.cfi_def_cfa_offset 32
 570              		.loc 1 297 0
 571 0264 8B5C2420 		movl	32(%esp), %ebx	# oqp, oqp
GAS LISTING /tmp/ccjuMB99.s 			page 16


 572              		.loc 1 301 0
 573 0268 8B530C   		movl	12(%ebx), %edx	# oqp_3(D)->q_buffer, D.2329
 574              		.loc 1 302 0
 575 026b 8B4310   		movl	16(%ebx), %eax	# oqp_3(D)->q_top, D.2330
 576              		.loc 1 301 0
 577 026e 895314   		movl	%edx, 20(%ebx)	# D.2329, oqp_3(D)->q_wrptr
 578              		.loc 1 302 0
 579 0271 29D0     		subl	%edx, %eax	# D.2329, D.2330
 580 0273 894308   		movl	%eax, 8(%ebx)	# D.2330, oqp_3(D)->q_counter
 581              		.loc 1 303 0
 582 0276 8B03     		movl	(%ebx), %eax	# oqp_3(D)->q_waiting.p_next, D.2332
 583              		.loc 1 301 0
 584 0278 895318   		movl	%edx, 24(%ebx)	# D.2329, oqp_3(D)->q_rdptr
 585              		.loc 1 303 0
 586 027b 39D8     		cmpl	%ebx, %eax	# oqp, D.2332
 587 027d 741D     		je	.L50	#,
 588 027f 90       		.p2align 4,,7
 589              		.p2align 3
 590              	.L54:
 591              	.LVL28:
 592              	.LBB19:
 593              	.LBB20:
 594              		.loc 2 62 0
 595 0280 8B10     		movl	(%eax), %edx	# _27->p_next, D.2332
 596 0282 8913     		movl	%edx, (%ebx)	# D.2332, MEM[(struct ThreadsQueue *)oqp_3(D)].p_next
 597 0284 895A04   		movl	%ebx, 4(%edx)	# oqp, _19->p_prev
 598              	.LBE20:
 599              	.LBE19:
 600              		.loc 1 304 0
 601 0287 890424   		movl	%eax, (%esp)	# D.2332,
 602 028a E8FCFFFF 		call	chSchReadyI	#
 602      FF
 603              	.LVL29:
 604 028f C74024FE 		movl	$-2, 36(%eax)	#, _17->p_u.rdymsg
 604      FFFFFF
 605              		.loc 1 303 0
 606 0296 8B03     		movl	(%ebx), %eax	# oqp_3(D)->q_waiting.p_next, D.2332
 607 0298 39D8     		cmpl	%ebx, %eax	# oqp, D.2332
 608 029a 75E4     		jne	.L54	#,
 609              	.LVL30:
 610              	.L50:
 611              		.loc 1 305 0
 612 029c 83C418   		addl	$24, %esp	#,
 613              		.cfi_def_cfa_offset 8
 614 029f 5B       		popl	%ebx	#
 615              		.cfi_restore 3
 616              		.cfi_def_cfa_offset 4
 617 02a0 C3       		ret
 618              		.cfi_endproc
 619              	.LFE14:
 620              		.size	chOQResetI, .-chOQResetI
 621 02a1 EB0D9090 		.p2align 4,,15
 621      90909090 
 621      90909090 
 621      909090
 622              		.globl	chOQPutTimeout
 623              		.type	chOQPutTimeout, @function
GAS LISTING /tmp/ccjuMB99.s 			page 17


 624              	chOQPutTimeout:
 625              	.LFB15:
 626              		.loc 1 329 0
 627              		.cfi_startproc
 628              	.LVL31:
 629 02b0 57       		pushl	%edi	#
 630              		.cfi_def_cfa_offset 8
 631              		.cfi_offset 7, -8
 632 02b1 56       		pushl	%esi	#
 633              		.cfi_def_cfa_offset 12
 634              		.cfi_offset 6, -12
 635 02b2 53       		pushl	%ebx	#
 636              		.cfi_def_cfa_offset 16
 637              		.cfi_offset 3, -16
 638 02b3 83EC10   		subl	$16, %esp	#,
 639              		.cfi_def_cfa_offset 32
 640              		.loc 1 329 0
 641 02b6 8B5C2420 		movl	32(%esp), %ebx	# oqp, oqp
 642 02ba 8B7C2424 		movl	36(%esp), %edi	# b, b
 643 02be 8B742428 		movl	40(%esp), %esi	# time, time
 644              		.loc 1 331 0
 645              	#APP
 646              	# 331 "../../../os/kernel/src/chqueues.c" 1
 257              	}
 258              	
 259              	/**
 260              	 * @brief   Initializes an output queue.
 261              	 * @details A Semaphore is internally initialized and works as a counter of
 262              	 *          the free bytes in the queue.
 263              	 * @note    The callback is invoked from within the S-Locked system state,
 264              	 *          see @ref system_states.
 265              	 *
 266              	 * @param[out] oqp      pointer to an @p OutputQueue structure
 267              	 * @param[in] bp        pointer to a memory area allocated as queue buffer
 268              	 * @param[in] size      size of the queue buffer
 269              	 * @param[in] onfy      pointer to a callback function that is invoked when
 270              	 *                      data is written to the queue. The value can be @p NULL.
 271              	 * @param[in] link      application defined pointer
 272              	 *
 273              	 * @init
 274              	 */
 275              	void chOQInit(OutputQueue *oqp, uint8_t *bp, size_t size, qnotify_t onfy,
 276              	              void *link) {
 277              	
 278              	  queue_init(&oqp->q_waiting);
 279              	  oqp->q_counter = size;
 280              	  oqp->q_buffer = oqp->q_rdptr = oqp->q_wrptr = bp;
 281              	  oqp->q_top = bp + size;
 282              	  oqp->q_notify = onfy;
 283              	  oqp->q_link = link;
 284              	}
 285              	
 286              	/**
 287              	 * @brief   Resets an output queue.
 288              	 * @details All the data in the output queue is erased and lost, any waiting
 289              	 *          thread is resumed with status @p Q_RESET.
 290              	 * @note    A reset operation can be used by a low level driver in order to
GAS LISTING /tmp/ccjuMB99.s 			page 18


 291              	 *          obtain immediate attention from the high level layers.
 292              	 *
 293              	 * @param[in] oqp       pointer to an @p OutputQueue structure
 294              	 *
 295              	 * @iclass
 296              	 */
 297              	void chOQResetI(OutputQueue *oqp) {
 298              	
 299              	  chDbgCheckClassI();
 300              	
 301              	  oqp->q_rdptr = oqp->q_wrptr = oqp->q_buffer;
 302              	  oqp->q_counter = chQSizeI(oqp);
 303              	  while (notempty(&oqp->q_waiting))
 304              	    chSchReadyI(fifo_remove(&oqp->q_waiting))->p_u.rdymsg = Q_RESET;
 305              	}
 306              	
 307              	/**
 308              	 * @brief   Output queue write with timeout.
 309              	 * @details This function writes a byte value to an output queue. If the queue
 310              	 *          is full then the calling thread is suspended until there is space
 311              	 *          in the queue or a timeout occurs.
 312              	 * @note    The callback is invoked after writing the character into the
 313              	 *          buffer.
 314              	 *
 315              	 * @param[in] oqp       pointer to an @p OutputQueue structure
 316              	 * @param[in] b         the byte value to be written in the queue
 317              	 * @param[in] time      the number of ticks before the operation timeouts,
 318              	 *                      the following special values are allowed:
 319              	 *                      - @a TIME_IMMEDIATE immediate timeout.
 320              	 *                      - @a TIME_INFINITE no timeout.
 321              	 *                      .
 322              	 * @return              The operation status.
 323              	 * @retval Q_OK         if the operation succeeded.
 324              	 * @retval Q_TIMEOUT    if the specified time expired.
 325              	 * @retval Q_RESET      if the queue has been reset.
 326              	 *
 327              	 * @api
 328              	 */
 329              	msg_t chOQPutTimeout(OutputQueue *oqp, uint8_t b, systime_t time) {
 330              	
 331 02c2 90       	  chSysLock();
 332              	  while (chOQIsFullI(oqp)) {
 647              		nop
 648              	# 0 "" 2
 649              		.loc 1 332 0
 650              	#NO_APP
 651 02c3 EB10     		jmp	.L57	#
 652              		.p2align 4,,7
 653 02c5 8D7600   		.p2align 3
 654              	.L60:
 655              	.LBB21:
 656              		.loc 1 335 0
 657 02c8 89F2     		movl	%esi, %edx	# time,
 658 02ca 89D8     		movl	%ebx, %eax	# oqp,
 659 02cc E82FFDFF 		call	qwait	#
 659      FF
 660              	.LVL32:
GAS LISTING /tmp/ccjuMB99.s 			page 19


 661 02d1 85C0     		testl	%eax, %eax	# msg
 662 02d3 7843     		js	.L67	#,
 663              	.LVL33:
 664              	.L57:
 665              	.LBE21:
 666              		.loc 1 332 0 discriminator 1
 667 02d5 8B4308   		movl	8(%ebx), %eax	# oqp_7(D)->q_counter, D.2337
 668 02d8 85C0     		testl	%eax, %eax	# D.2337
 669 02da 74EC     		je	.L60	#,
 670              		.loc 1 341 0
 671 02dc 83E801   		subl	$1, %eax	#, tmp74
 672              		.loc 1 342 0
 673 02df 89F9     		movl	%edi, %ecx	# b, tmp79
 674              		.loc 1 341 0
 675 02e1 894308   		movl	%eax, 8(%ebx)	# tmp74, oqp_7(D)->q_counter
 676              		.loc 1 342 0
 677 02e4 8B4314   		movl	20(%ebx), %eax	# oqp_7(D)->q_wrptr, D.2338
 678 02e7 8D5001   		leal	1(%eax), %edx	#, tmp75
 679 02ea 895314   		movl	%edx, 20(%ebx)	# tmp75, oqp_7(D)->q_wrptr
 680 02ed 8808     		movb	%cl, (%eax)	# tmp79, *_14
 681              		.loc 1 343 0
 682 02ef 8B4310   		movl	16(%ebx), %eax	# oqp_7(D)->q_top, tmp80
 683 02f2 394314   		cmpl	%eax, 20(%ebx)	# tmp80, oqp_7(D)->q_wrptr
 684 02f5 7206     		jb	.L61	#,
 685              		.loc 1 344 0
 686 02f7 8B430C   		movl	12(%ebx), %eax	# oqp_7(D)->q_buffer, oqp_7(D)->q_buffer
 687 02fa 894314   		movl	%eax, 20(%ebx)	# oqp_7(D)->q_buffer, oqp_7(D)->q_wrptr
 688              	.L61:
 689              		.loc 1 346 0
 690 02fd 8B431C   		movl	28(%ebx), %eax	# oqp_7(D)->q_notify, D.2339
 691 0300 85C0     		testl	%eax, %eax	# D.2339
 692 0302 7405     		je	.L62	#,
 693              		.loc 1 347 0
 694 0304 891C24   		movl	%ebx, (%esp)	# oqp,
 695 0307 FFD0     		call	*%eax	# D.2339
 696              	.LVL34:
 697              	.L62:
 698              		.loc 1 349 0
 699              	#APP
 700              	# 349 "../../../os/kernel/src/chqueues.c" 1
 333              	    msg_t msg;
 334              	
 335              	    if ((msg = qwait((GenericQueue *)oqp, time)) < Q_OK) {
 336              	      chSysUnlock();
 337              	      return msg;
 338              	    }
 339              	  }
 340              	
 341              	  oqp->q_counter--;
 342              	  *oqp->q_wrptr++ = b;
 343              	  if (oqp->q_wrptr >= oqp->q_top)
 344              	    oqp->q_wrptr = oqp->q_buffer;
 345              	
 346              	  if (oqp->q_notify)
 347              	    oqp->q_notify(oqp);
 348              	
 349 0309 90       	  chSysUnlock();
GAS LISTING /tmp/ccjuMB99.s 			page 20


 350              	  return Q_OK;
 701              		nop
 702              	# 0 "" 2
 703              		.loc 1 351 0
 704              	#NO_APP
 705 030a 83C410   		addl	$16, %esp	#,
 706              		.cfi_remember_state
 707              		.cfi_def_cfa_offset 16
 708              		.loc 1 350 0
 709 030d 31C0     		xorl	%eax, %eax	# D.2336
 710              		.loc 1 351 0
 711 030f 5B       		popl	%ebx	#
 712              		.cfi_restore 3
 713              		.cfi_def_cfa_offset 12
 714 0310 5E       		popl	%esi	#
 715              		.cfi_restore 6
 716              		.cfi_def_cfa_offset 8
 717 0311 5F       		popl	%edi	#
 718              		.cfi_restore 7
 719              		.cfi_def_cfa_offset 4
 720 0312 C3       		ret
 721              	.LVL35:
 722              		.p2align 4,,7
 723 0313 908D7426 		.p2align 3
 723      00
 724              	.L67:
 725              		.cfi_restore_state
 726              	.LBB22:
 727              		.loc 1 336 0
 728              	#APP
 729              	# 336 "../../../os/kernel/src/chqueues.c" 1
 730              		nop
 731              	# 0 "" 2
 732              	#NO_APP
 733              	.LBE22:
 734              		.loc 1 351 0
 735 0319 83C410   		addl	$16, %esp	#,
 736              		.cfi_def_cfa_offset 16
 737 031c 5B       		popl	%ebx	#
 738              		.cfi_restore 3
 739              		.cfi_def_cfa_offset 12
 740 031d 5E       		popl	%esi	#
 741              		.cfi_restore 6
 742              		.cfi_def_cfa_offset 8
 743 031e 5F       		popl	%edi	#
 744              		.cfi_restore 7
 745              		.cfi_def_cfa_offset 4
 746 031f C3       		ret
 747              		.cfi_endproc
 748              	.LFE15:
 749              		.size	chOQPutTimeout, .-chOQPutTimeout
 750              		.p2align 4,,15
 751              		.globl	chOQGetI
 752              		.type	chOQGetI, @function
 753              	chOQGetI:
 754              	.LFB16:
 755              		.loc 1 363 0
GAS LISTING /tmp/ccjuMB99.s 			page 21


 756              		.cfi_startproc
 757              	.LVL36:
 758 0320 56       		pushl	%esi	#
 759              		.cfi_def_cfa_offset 8
 760              		.cfi_offset 6, -8
 761 0321 53       		pushl	%ebx	#
 762              		.cfi_def_cfa_offset 12
 763              		.cfi_offset 3, -12
 764 0322 83EC14   		subl	$20, %esp	#,
 765              		.cfi_def_cfa_offset 32
 766              		.loc 1 363 0
 767 0325 8B542420 		movl	32(%esp), %edx	# oqp, oqp
 768              		.loc 1 368 0
 769 0329 8B4A18   		movl	24(%edx), %ecx	# oqp_7(D)->q_rdptr, D.2344
 770 032c 394A14   		cmpl	%ecx, 20(%edx)	# D.2344, oqp_7(D)->q_wrptr
 771 032f 7447     		je	.L78	#,
 772 0331 8B4208   		movl	8(%edx), %eax	# oqp_7(D)->q_counter, D.2348
 773              	.L71:
 774              		.loc 1 371 0
 775 0334 83C001   		addl	$1, %eax	#, tmp77
 776              		.loc 1 372 0
 777 0337 8D5901   		leal	1(%ecx), %ebx	#, D.2344
 778              		.loc 1 373 0
 779 033a 3B5A10   		cmpl	16(%edx), %ebx	# oqp_7(D)->q_top, D.2344
 780              		.loc 1 371 0
 781 033d 894208   		movl	%eax, 8(%edx)	# tmp77, oqp_7(D)->q_counter
 782              		.loc 1 372 0
 783 0340 895A18   		movl	%ebx, 24(%edx)	# D.2344, oqp_7(D)->q_rdptr
 784 0343 0FB631   		movzbl	(%ecx), %esi	# *_9, b
 785              	.LVL37:
 786              		.loc 1 373 0
 787 0346 7328     		jae	.L73	#,
 788              	.L74:
 789              		.loc 1 376 0
 790 0348 8B0A     		movl	(%edx), %ecx	# oqp_7(D)->q_waiting.p_next, D.2346
 791 034a 39D1     		cmpl	%edx, %ecx	# oqp, D.2346
 792 034c 7416     		je	.L72	#,
 793              	.LVL38:
 794              	.LBB23:
 795              	.LBB24:
 796              		.loc 2 62 0
 797 034e 8B19     		movl	(%ecx), %ebx	# _21->p_next, D.2346
 798 0350 891A     		movl	%ebx, (%edx)	# D.2346, MEM[(struct ThreadsQueue *)oqp_7(D)].p_next
 799 0352 895304   		movl	%edx, 4(%ebx)	# oqp, _28->p_prev
 800              	.LBE24:
 801              	.LBE23:
 802              		.loc 1 377 0
 803 0355 890C24   		movl	%ecx, (%esp)	# D.2346,
 804 0358 E8FCFFFF 		call	chSchReadyI	#
 804      FF
 805              	.LVL39:
 806 035d C7402400 		movl	$0, 36(%eax)	#, _25->p_u.rdymsg
 806      000000
 807              	.LVL40:
 808              	.L72:
 809              		.loc 1 379 0
 810 0364 89F0     		movl	%esi, %eax	# b, b
GAS LISTING /tmp/ccjuMB99.s 			page 22


 811 0366 0FB6C0   		movzbl	%al, %eax	# b, D.2343
 812              	.LVL41:
 813              	.L76:
 814              		.loc 1 380 0
 815 0369 83C414   		addl	$20, %esp	#,
 816              		.cfi_remember_state
 817              		.cfi_def_cfa_offset 12
 818 036c 5B       		popl	%ebx	#
 819              		.cfi_restore 3
 820              		.cfi_def_cfa_offset 8
 821 036d 5E       		popl	%esi	#
 822              		.cfi_restore 6
 823              		.cfi_def_cfa_offset 4
 824 036e C3       		ret
 825              	.LVL42:
 826 036f 90       		.p2align 4,,7
 827              		.p2align 3
 828              	.L73:
 829              		.cfi_restore_state
 830              		.loc 1 374 0
 831 0370 8B420C   		movl	12(%edx), %eax	# oqp_7(D)->q_buffer, oqp_7(D)->q_buffer
 832 0373 894218   		movl	%eax, 24(%edx)	# oqp_7(D)->q_buffer, oqp_7(D)->q_rdptr
 833 0376 EBD0     		jmp	.L74	#
 834              	.LVL43:
 835              		.p2align 4,,7
 836              		.p2align 3
 837              	.L78:
 838              		.loc 1 368 0 discriminator 1
 839 0378 8B5A08   		movl	8(%edx), %ebx	# oqp_7(D)->q_counter,
 840              		.loc 1 369 0 discriminator 1
 841 037b B8FDFFFF 		movl	$-3, %eax	#, D.2343
 841      FF
 842              		.loc 1 368 0 discriminator 1
 843 0380 85DB     		testl	%ebx, %ebx	#
 844 0382 75E5     		jne	.L76	#,
 845 0384 31C0     		xorl	%eax, %eax	# D.2348
 846 0386 EBAC     		jmp	.L71	#
 847              		.cfi_endproc
 848              	.LFE16:
 849              		.size	chOQGetI, .-chOQGetI
 850 0388 908DB426 		.p2align 4,,15
 850      00000000 
 851              		.globl	chOQWriteTimeout
 852              		.type	chOQWriteTimeout, @function
 853              	chOQWriteTimeout:
 854              	.LFB17:
 855              		.loc 1 407 0
 856              		.cfi_startproc
 857              	.LVL44:
 858 0390 55       		pushl	%ebp	#
 859              		.cfi_def_cfa_offset 8
 860              		.cfi_offset 5, -8
 861 0391 57       		pushl	%edi	#
 862              		.cfi_def_cfa_offset 12
 863              		.cfi_offset 7, -12
 864 0392 56       		pushl	%esi	#
 865              		.cfi_def_cfa_offset 16
GAS LISTING /tmp/ccjuMB99.s 			page 23


 866              		.cfi_offset 6, -16
 867 0393 53       		pushl	%ebx	#
 868              		.cfi_def_cfa_offset 20
 869              		.cfi_offset 3, -20
 870 0394 83EC1C   		subl	$28, %esp	#,
 871              		.cfi_def_cfa_offset 48
 872              		.loc 1 407 0
 873 0397 8B5C2430 		movl	48(%esp), %ebx	# oqp, oqp
 874 039b 8B4C2434 		movl	52(%esp), %ecx	# bp, bp
 875 039f 8B742438 		movl	56(%esp), %esi	# n, n
 876              		.loc 1 408 0
 877 03a3 8B6B1C   		movl	28(%ebx), %ebp	# oqp_10(D)->q_notify, nfy
 878              	.LVL45:
 879              		.loc 1 413 0
 880              	#APP
 881              	# 413 "../../../os/kernel/src/chqueues.c" 1
 351              	}
 352              	
 353              	/**
 354              	 * @brief   Output queue read.
 355              	 * @details A byte value is read from the low end of an output queue.
 356              	 *
 357              	 * @param[in] oqp       pointer to an @p OutputQueue structure
 358              	 * @return              The byte value from the queue.
 359              	 * @retval Q_EMPTY      if the queue is empty.
 360              	 *
 361              	 * @iclass
 362              	 */
 363              	msg_t chOQGetI(OutputQueue *oqp) {
 364              	  uint8_t b;
 365              	
 366              	  chDbgCheckClassI();
 367              	
 368              	  if (chOQIsEmptyI(oqp))
 369              	    return Q_EMPTY;
 370              	
 371              	  oqp->q_counter++;
 372              	  b = *oqp->q_rdptr++;
 373              	  if (oqp->q_rdptr >= oqp->q_top)
 374              	    oqp->q_rdptr = oqp->q_buffer;
 375              	
 376              	  if (notempty(&oqp->q_waiting))
 377              	    chSchReadyI(fifo_remove(&oqp->q_waiting))->p_u.rdymsg = Q_OK;
 378              	
 379              	  return b;
 380              	}
 381              	
 382              	/**
 383              	 * @brief   Output queue write with timeout.
 384              	 * @details The function writes data from a buffer to an output queue. The
 385              	 *          operation completes when the specified amount of data has been
 386              	 *          transferred or after the specified timeout or if the queue has
 387              	 *          been reset.
 388              	 * @note    The function is not atomic, if you need atomicity it is suggested
 389              	 *          to use a semaphore or a mutex for mutual exclusion.
 390              	 * @note    The callback is invoked after writing each character into the
 391              	 *          buffer.
GAS LISTING /tmp/ccjuMB99.s 			page 24


 392              	 *
 393              	 * @param[in] oqp       pointer to an @p OutputQueue structure
 394              	 * @param[out] bp       pointer to the data buffer
 395              	 * @param[in] n         the maximum amount of data to be transferred, the
 396              	 *                      value 0 is reserved
 397              	 * @param[in] time      the number of ticks before the operation timeouts,
 398              	 *                      the following special values are allowed:
 399              	 *                      - @a TIME_IMMEDIATE immediate timeout.
 400              	 *                      - @a TIME_INFINITE no timeout.
 401              	 *                      .
 402              	 * @return              The number of bytes effectively transferred.
 403              	 *
 404              	 * @api
 405              	 */
 406              	size_t chOQWriteTimeout(OutputQueue *oqp, const uint8_t *bp,
 407              	                        size_t n, systime_t time) {
 408              	  qnotify_t nfy = oqp->q_notify;
 409              	  size_t w = 0;
 410              	
 411              	  chDbgCheck(n > 0, "chOQWriteTimeout");
 412              	
 413 03a6 90       	  chSysLock();
 414              	  while (TRUE) {
 882              		nop
 883              	# 0 "" 2
 884              		.loc 1 409 0
 885              	#NO_APP
 886 03a7 31FF     		xorl	%edi, %edi	# w
 887              	.LVL46:
 888 03a9 8DB42600 		.p2align 4,,7
 888      000000
 889              		.p2align 3
 890              	.L80:
 891              		.loc 1 415 0 discriminator 1
 892 03b0 8B4308   		movl	8(%ebx), %eax	# oqp_10(D)->q_counter, D.2351
 893 03b3 85C0     		testl	%eax, %eax	# D.2351
 894 03b5 7449     		je	.L83	#,
 895              	.L97:
 896              		.loc 1 421 0
 897 03b7 83E801   		subl	$1, %eax	#, tmp76
 898 03ba 894308   		movl	%eax, 8(%ebx)	# tmp76, oqp_10(D)->q_counter
 899              		.loc 1 422 0
 900 03bd 8B4314   		movl	20(%ebx), %eax	# oqp_10(D)->q_wrptr, D.2353
 901 03c0 8D5001   		leal	1(%eax), %edx	#, tmp77
 902 03c3 895314   		movl	%edx, 20(%ebx)	# tmp77, oqp_10(D)->q_wrptr
 903 03c6 8D5101   		leal	1(%ecx), %edx	#, bp
 904              	.LVL47:
 905 03c9 0FB609   		movzbl	(%ecx), %ecx	# *bp_1, D.2354
 906 03cc 8808     		movb	%cl, (%eax)	# D.2354, *_22
 907              		.loc 1 423 0
 908 03ce 8B4310   		movl	16(%ebx), %eax	# oqp_10(D)->q_top, tmp86
 909 03d1 394314   		cmpl	%eax, 20(%ebx)	# tmp86, oqp_10(D)->q_wrptr
 910 03d4 7206     		jb	.L84	#,
 911              		.loc 1 424 0
 912 03d6 8B430C   		movl	12(%ebx), %eax	# oqp_10(D)->q_buffer, oqp_10(D)->q_buffer
 913 03d9 894314   		movl	%eax, 20(%ebx)	# oqp_10(D)->q_buffer, oqp_10(D)->q_wrptr
 914              	.L84:
GAS LISTING /tmp/ccjuMB99.s 			page 25


 915              		.loc 1 426 0
 916 03dc 85ED     		testl	%ebp, %ebp	# nfy
 917 03de 740D     		je	.L85	#,
 918 03e0 8954240C 		movl	%edx, 12(%esp)	# bp, %sfp
 919              		.loc 1 427 0
 920 03e4 891C24   		movl	%ebx, (%esp)	# oqp,
 921 03e7 FFD5     		call	*%ebp	# nfy
 922              	.LVL48:
 923 03e9 8B54240C 		movl	12(%esp), %edx	# %sfp, bp
 924              	.LVL49:
 925              	.L85:
 926              		.loc 1 429 0
 927              	#APP
 928              	# 429 "../../../os/kernel/src/chqueues.c" 1
 415              	    while (chOQIsFullI(oqp)) {
 416              	      if (qwait((GenericQueue *)oqp, time) != Q_OK) {
 417              	        chSysUnlock();
 418              	        return w;
 419              	      }
 420              	    }
 421              	    oqp->q_counter--;
 422              	    *oqp->q_wrptr++ = *bp++;
 423              	    if (oqp->q_wrptr >= oqp->q_top)
 424              	      oqp->q_wrptr = oqp->q_buffer;
 425              	
 426              	    if (nfy)
 427              	      nfy(oqp);
 428              	
 429 03ed 90       	    chSysUnlock(); /* Gives a preemption chance in a controlled point.*/
 430              	    w++;
 929              		nop
 930              	# 0 "" 2
 931              		.loc 1 430 0
 932              	#NO_APP
 933 03ee 83C701   		addl	$1, %edi	#, w
 934              	.LVL50:
 935              		.loc 1 431 0
 936 03f1 83EE01   		subl	$1, %esi	#, n
 937              	.LVL51:
 938 03f4 7422     		je	.L82	#,
 939              		.loc 1 433 0
 940              	#APP
 941              	# 433 "../../../os/kernel/src/chqueues.c" 1
 431              	    if (--n == 0)
 432              	      return w;
 433 03f6 90       	    chSysLock();
 434              	  }
 942              		nop
 943              	# 0 "" 2
 944              		.loc 1 415 0
 945              	#NO_APP
 946 03f7 8B4308   		movl	8(%ebx), %eax	# oqp_10(D)->q_counter, D.2351
 947              		.loc 1 422 0
 948 03fa 89D1     		movl	%edx, %ecx	# bp, bp
 949              	.LVL52:
 950              		.loc 1 415 0
 951 03fc 85C0     		testl	%eax, %eax	# D.2351
GAS LISTING /tmp/ccjuMB99.s 			page 26


 952 03fe 75B7     		jne	.L97	#,
 953              	.LVL53:
 954              	.L83:
 955              		.loc 1 416 0
 956 0400 8B54243C 		movl	60(%esp), %edx	# time,
 957 0404 89D8     		movl	%ebx, %eax	# oqp,
 958 0406 894C240C 		movl	%ecx, 12(%esp)	# bp, %sfp
 959 040a E8F1FBFF 		call	qwait	#
 959      FF
 960              	.LVL54:
 961 040f 8B4C240C 		movl	12(%esp), %ecx	# %sfp, bp
 962 0413 85C0     		testl	%eax, %eax	# D.2352
 963 0415 7499     		je	.L80	#,
 964              		.loc 1 417 0
 965              	#APP
 966              	# 417 "../../../os/kernel/src/chqueues.c" 1
 967              		nop
 968              	# 0 "" 2
 969              	.LVL55:
 970              	#NO_APP
 971              	.L82:
 972              		.loc 1 435 0
 973 0418 83C41C   		addl	$28, %esp	#,
 974              		.cfi_def_cfa_offset 20
 975 041b 89F8     		movl	%edi, %eax	# w,
 976 041d 5B       		popl	%ebx	#
 977              		.cfi_restore 3
 978              		.cfi_def_cfa_offset 16
 979 041e 5E       		popl	%esi	#
 980              		.cfi_restore 6
 981              		.cfi_def_cfa_offset 12
 982              	.LVL56:
 983 041f 5F       		popl	%edi	#
 984              		.cfi_restore 7
 985              		.cfi_def_cfa_offset 8
 986              	.LVL57:
 987 0420 5D       		popl	%ebp	#
 988              		.cfi_restore 5
 989              		.cfi_def_cfa_offset 4
 990              	.LVL58:
 991 0421 C3       		ret
 992              		.cfi_endproc
 993              	.LFE17:
 994              		.size	chOQWriteTimeout, .-chOQWriteTimeout
 995              	.Letext0:
 996              		.file 3 "/usr/lib/gcc/x86_64-linux-gnu/4.8/include/stddef.h"
 997              		.file 4 "/usr/include/stdint.h"
 998              		.file 5 "../../../os/ports/GCC/SIMIA32/chtypes.h"
 999              		.file 6 "../../../os/kernel/include/chlists.h"
 1000              		.file 7 "../../../os/kernel/include/chthreads.h"
 1001              		.file 8 "../../../os/ports/GCC/SIMIA32/chcore.h"
 1002              		.file 9 "../../../os/kernel/include/chschd.h"
 1003              		.file 10 "../../../os/kernel/include/chmtx.h"
 1004              		.file 11 "../../../os/kernel/include/chqueues.h"
 3425              		.section	.note.GNU-stack,"",@progbits
GAS LISTING /tmp/ccjuMB99.s 			page 73

