GAS LISTING /tmp/cc08teOy.s 			page 1


   1              		.file	"chregistry.c"
   2              	# GNU C (Ubuntu 4.8.2-19ubuntu1) version 4.8.2 (x86_64-linux-gnu)
   3              	#	compiled by GNU C version 4.8.2, GMP version 5.1.3, MPFR version 3.1.2-p3, MPC version 1.0.1
   4              	# GGC heuristics: --param ggc-min-expand=97 --param ggc-min-heapsize=126309
   5              	# options passed:  -I . -I ../../../os/ports/GCC/SIMIA32
   6              	# -I ../../../os/kernel/include -I ../../../test -I ../../../os/hal/include
   7              	# -I ../../../os/hal/platforms/Posix -I ../../../boards/simulator
   8              	# -I ../../../os/various -imultilib 32 -imultiarch i386-linux-gnu
   9              	# -MD ../../../os/kernel/src/chregistry.d -MF .dep/chregistry.o.d -MP
  10              	# -MQ ../../../os/kernel/src/chregistry.o -D SIMULATOR
  11              	# -D SHELL_USE_IPRINTF=FALSE ../../../os/kernel/src/chregistry.c -m32
  12              	# -mtune=generic -march=i686
  13              	# -auxbase-strip ../../../os/kernel/src/chregistry.o -ggdb -O2 -Wall
  14              	# -Wextra -Wstrict-prototypes -fomit-frame-pointer -fverbose-asm
  15              	# -fstack-protector -Wformat -Wformat-security
  16              	# options enabled:  -faggressive-loop-optimizations
  17              	# -fasynchronous-unwind-tables -fauto-inc-dec -fbranch-count-reg
  18              	# -fcaller-saves -fcombine-stack-adjustments -fcommon -fcompare-elim
  19              	# -fcprop-registers -fcrossjumping -fcse-follow-jumps -fdefer-pop
  20              	# -fdelete-null-pointer-checks -fdevirtualize -fdwarf2-cfi-asm
  21              	# -fearly-inlining -feliminate-unused-debug-types -fexpensive-optimizations
  22              	# -fforward-propagate -ffunction-cse -fgcse -fgcse-lm -fgnu-runtime
  23              	# -fguess-branch-probability -fhoist-adjacent-loads -fident -fif-conversion
  24              	# -fif-conversion2 -findirect-inlining -finline -finline-atomics
  25              	# -finline-functions-called-once -finline-small-functions -fipa-cp
  26              	# -fipa-profile -fipa-pure-const -fipa-reference -fipa-sra
  27              	# -fira-hoist-pressure -fira-share-save-slots -fira-share-spill-slots
  28              	# -fivopts -fkeep-static-consts -fleading-underscore -fmath-errno
  29              	# -fmerge-constants -fmerge-debug-strings -fmove-loop-invariants
  30              	# -fomit-frame-pointer -foptimize-register-move -foptimize-sibling-calls
  31              	# -foptimize-strlen -fpartial-inlining -fpcc-struct-return -fpeephole
  32              	# -fpeephole2 -fprefetch-loop-arrays -free -fregmove -freorder-blocks
  33              	# -freorder-functions -frerun-cse-after-loop
  34              	# -fsched-critical-path-heuristic -fsched-dep-count-heuristic
  35              	# -fsched-group-heuristic -fsched-interblock -fsched-last-insn-heuristic
  36              	# -fsched-rank-heuristic -fsched-spec -fsched-spec-insn-heuristic
  37              	# -fsched-stalled-insns-dep -fschedule-insns2 -fshow-column -fshrink-wrap
  38              	# -fsigned-zeros -fsplit-ivs-in-unroller -fsplit-wide-types
  39              	# -fstack-protector -fstrict-aliasing -fstrict-overflow
  40              	# -fstrict-volatile-bitfields -fsync-libcalls -fthread-jumps
  41              	# -ftoplevel-reorder -ftrapping-math -ftree-bit-ccp -ftree-builtin-call-dce
  42              	# -ftree-ccp -ftree-ch -ftree-coalesce-vars -ftree-copy-prop
  43              	# -ftree-copyrename -ftree-cselim -ftree-dce -ftree-dominator-opts
  44              	# -ftree-dse -ftree-forwprop -ftree-fre -ftree-loop-if-convert
  45              	# -ftree-loop-im -ftree-loop-ivcanon -ftree-loop-optimize
  46              	# -ftree-parallelize-loops= -ftree-phiprop -ftree-pre -ftree-pta
  47              	# -ftree-reassoc -ftree-scev-cprop -ftree-sink -ftree-slp-vectorize
  48              	# -ftree-slsr -ftree-sra -ftree-switch-conversion -ftree-tail-merge
  49              	# -ftree-ter -ftree-vect-loop-version -ftree-vrp -funit-at-a-time
  50              	# -funwind-tables -fvar-tracking -fvar-tracking-assignments -fverbose-asm
  51              	# -fzero-initialized-in-bss -m32 -m80387 -m96bit-long-double
  52              	# -maccumulate-outgoing-args -malign-stringops -mfancy-math-387
  53              	# -mfp-ret-in-387 -mglibc -mieee-fp -mlong-double-80 -mno-red-zone
  54              	# -mno-sse4 -mpush-args -msahf -mtls-direct-seg-refs
  55              	
  56              		.text
  57              	.Ltext0:
GAS LISTING /tmp/cc08teOy.s 			page 2


  58              		.p2align 4,,15
  59              		.globl	chRegFirstThread
  60              		.type	chRegFirstThread, @function
  61              	chRegFirstThread:
  62              	.LFB7:
  63              		.file 1 "../../../os/kernel/src/chregistry.c"
  64              		.loc 1 117 0
  65              		.cfi_startproc
  66              		.loc 1 120 0
  67              	#APP
  68              	# 120 "../../../os/kernel/src/chregistry.c" 1
   1              	/*
   2              	    ChibiOS/RT - Copyright (C) 2006,2007,2008,2009,2010,
   3              	                 2011,2012,2013 Giovanni Di Sirio.
   4              	
   5              	    This file is part of ChibiOS/RT.
   6              	
   7              	    ChibiOS/RT is free software; you can redistribute it and/or modify
   8              	    it under the terms of the GNU General Public License as published by
   9              	    the Free Software Foundation; either version 3 of the License, or
  10              	    (at your option) any later version.
  11              	
  12              	    ChibiOS/RT is distributed in the hope that it will be useful,
  13              	    but WITHOUT ANY WARRANTY; without even the implied warranty of
  14              	    MERCHANTABILITY or FITNESS FOR A PARTICULAR PURPOSE.  See the
  15              	    GNU General Public License for more details.
  16              	
  17              	    You should have received a copy of the GNU General Public License
  18              	    along with this program.  If not, see <http://www.gnu.org/licenses/>.
  19              	
  20              	                                      ---
  21              	
  22              	    A special exception to the GPL can be applied should you wish to distribute
  23              	    a combined work that includes ChibiOS/RT, without being obliged to provide
  24              	    the source code for any proprietary components. See the file exception.txt
  25              	    for full details of how and when the exception can be applied.
  26              	*/
  27              	
  28              	/**
  29              	 * @file    chregistry.c
  30              	 * @brief   Threads registry code.
  31              	 *
  32              	 * @addtogroup registry
  33              	 * @details Threads Registry related APIs and services.
  34              	 *
  35              	 *          <h2>Operation mode</h2>
  36              	 *          The Threads Registry is a double linked list that holds all the
  37              	 *          active threads in the system.<br>
  38              	 *          Operations defined for the registry:
  39              	 *          - <b>First</b>, returns the first, in creation order, active thread
  40              	 *            in the system.
  41              	 *          - <b>Next</b>, returns the next, in creation order, active thread
  42              	 *            in the system.
  43              	 *          .
  44              	 *          The registry is meant to be mainly a debug feature, for example,
  45              	 *          using the registry a debugger can enumerate the active threads
  46              	 *          in any given moment or the shell can print the active threads
GAS LISTING /tmp/cc08teOy.s 			page 3


  47              	 *          and their state.<br>
  48              	 *          Another possible use is for centralized threads memory management,
  49              	 *          terminating threads can pulse an event source and an event handler
  50              	 *          can perform a scansion of the registry in order to recover the
  51              	 *          memory.
  52              	 * @pre     In order to use the threads registry the @p CH_USE_REGISTRY option
  53              	 *          must be enabled in @p chconf.h.
  54              	 * @{
  55              	 */
  56              	#include "ch.h"
  57              	
  58              	#if CH_USE_REGISTRY || defined(__DOXYGEN__)
  59              	
  60              	#define _offsetof(st, m)                                                     \
  61              	  ((size_t)((char *)&((st *)0)->m - (char *)0))
  62              	
  63              	/*
  64              	 * OS signature in ROM plus debug-related information.
  65              	 */
  66              	ROMCONST chdebug_t ch_debug = {
  67              	  "main",
  68              	  (uint8_t)0,
  69              	  (uint8_t)sizeof (chdebug_t),
  70              	  (uint16_t)((CH_KERNEL_MAJOR << 11) |
  71              	             (CH_KERNEL_MINOR << 6) |
  72              	             (CH_KERNEL_PATCH) << 0),
  73              	  (uint8_t)sizeof (void *),
  74              	  (uint8_t)sizeof (systime_t),
  75              	  (uint8_t)sizeof (Thread),
  76              	  (uint8_t)_offsetof(Thread, p_prio),
  77              	  (uint8_t)_offsetof(Thread, p_ctx),
  78              	  (uint8_t)_offsetof(Thread, p_newer),
  79              	  (uint8_t)_offsetof(Thread, p_older),
  80              	  (uint8_t)_offsetof(Thread, p_name),
  81              	#if CH_DBG_ENABLE_STACK_CHECK
  82              	  (uint8_t)_offsetof(Thread, p_stklimit),
  83              	#else
  84              	  (uint8_t)0,
  85              	#endif
  86              	  (uint8_t)_offsetof(Thread, p_state),
  87              	  (uint8_t)_offsetof(Thread, p_flags),
  88              	#if CH_USE_DYNAMIC
  89              	  (uint8_t)_offsetof(Thread, p_refs),
  90              	#else
  91              	  (uint8_t)0,
  92              	#endif
  93              	#if CH_TIME_QUANTUM > 0
  94              	  (uint8_t)_offsetof(Thread, p_preempt),
  95              	#else
  96              	  (uint8_t)0,
  97              	#endif
  98              	#if CH_DBG_THREADS_PROFILING
  99              	  (uint8_t)_offsetof(Thread, p_time)
 100              	#else
 101              	  (uint8_t)0
 102              	#endif
 103              	};
GAS LISTING /tmp/cc08teOy.s 			page 4


 104              	
 105              	/**
 106              	 * @brief   Returns the first thread in the system.
 107              	 * @details Returns the most ancient thread in the system, usually this is
 108              	 *          the main thread unless it terminated. A reference is added to the
 109              	 *          returned thread in order to make sure its status is not lost.
 110              	 * @note    This function cannot return @p NULL because there is always at
 111              	 *          least one thread in the system.
 112              	 *
 113              	 * @return              A reference to the most ancient thread.
 114              	 *
 115              	 * @api
 116              	 */
 117              	Thread *chRegFirstThread(void) {
 118              	  Thread *tp;
 119              	
 120 0000 90       	  chSysLock();
 121              	  tp = rlist.r_newer;
  69              		nop
  70              	# 0 "" 2
  71              		.loc 1 121 0
  72              	#NO_APP
  73 0001 A1100000 		movl	rlist+16, %eax	# rlist.r_newer, tp
  73      00
  74              	.LVL0:
  75              		.loc 1 123 0
  76 0006 80401E01 		addb	$1, 30(%eax)	#, tp_2->p_refs
  77              		.loc 1 125 0
  78              	#APP
  79              	# 125 "../../../os/kernel/src/chregistry.c" 1
 122              	#if CH_USE_DYNAMIC
 123              	  tp->p_refs++;
 124              	#endif
 125 000a 90       	  chSysUnlock();
 126              	  return tp;
  80              		nop
  81              	# 0 "" 2
  82              		.loc 1 127 0
  83              	#NO_APP
  84 000b C3       		ret
  85              		.cfi_endproc
  86              	.LFE7:
  87              		.size	chRegFirstThread, .-chRegFirstThread
  88 000c 8D742600 		.p2align 4,,15
  89              		.globl	chRegNextThread
  90              		.type	chRegNextThread, @function
  91              	chRegNextThread:
  92              	.LFB8:
  93              		.loc 1 140 0
  94              		.cfi_startproc
  95              	.LVL1:
  96 0010 53       		pushl	%ebx	#
  97              		.cfi_def_cfa_offset 8
  98              		.cfi_offset 3, -8
  99 0011 83EC18   		subl	$24, %esp	#,
 100              		.cfi_def_cfa_offset 32
 101              		.loc 1 140 0
GAS LISTING /tmp/cc08teOy.s 			page 5


 102 0014 8B442420 		movl	32(%esp), %eax	# tp, tp
 103              		.loc 1 143 0
 104              	#APP
 105              	# 143 "../../../os/kernel/src/chregistry.c" 1
 127              	}
 128              	
 129              	/**
 130              	 * @brief   Returns the thread next to the specified one.
 131              	 * @details The reference counter of the specified thread is decremented and
 132              	 *          the reference counter of the returned thread is incremented.
 133              	 *
 134              	 * @param[in] tp        pointer to the thread
 135              	 * @return              A reference to the next thread.
 136              	 * @retval NULL         if there is no next thread.
 137              	 *
 138              	 * @api
 139              	 */
 140              	Thread *chRegNextThread(Thread *tp) {
 141              	  Thread *ntp;
 142              	
 143 0018 90       	  chSysLock();
 144              	  ntp = tp->p_newer;
 106              		nop
 107              	# 0 "" 2
 108              		.loc 1 144 0
 109              	#NO_APP
 110 0019 8B5810   		movl	16(%eax), %ebx	# tp_4(D)->p_newer, ntp
 111              	.LVL2:
 112              		.loc 1 145 0
 113 001c 81FB0000 		cmpl	$rlist, %ebx	#, ntp
 113      0000
 114 0022 7414     		je	.L4	#,
 115              		.loc 1 151 0
 116 0024 80431E01 		addb	$1, 30(%ebx)	#, ntp_5->p_refs
 117              	.LVL3:
 118              	.L3:
 119              		.loc 1 154 0
 120              	#APP
 121              	# 154 "../../../os/kernel/src/chregistry.c" 1
 145              	  if (ntp == (Thread *)&rlist)
 146              	    ntp = NULL;
 147              	#if CH_USE_DYNAMIC
 148              	  else {
 149              	    chDbgAssert(ntp->p_refs < 255, "chRegNextThread(), #1",
 150              	                "too many references");
 151              	    ntp->p_refs++;
 152              	  }
 153              	#endif
 154 0028 90       	  chSysUnlock();
 155              	#if CH_USE_DYNAMIC
 122              		nop
 123              	# 0 "" 2
 124              		.loc 1 156 0
 125              	#NO_APP
 126 0029 890424   		movl	%eax, (%esp)	# tp,
 127 002c E8FCFFFF 		call	chThdRelease	#
 127      FF
GAS LISTING /tmp/cc08teOy.s 			page 6


 128              	.LVL4:
 129              		.loc 1 159 0
 130 0031 83C418   		addl	$24, %esp	#,
 131              		.cfi_remember_state
 132              		.cfi_def_cfa_offset 8
 133 0034 89D8     		movl	%ebx, %eax	# ntp,
 134 0036 5B       		popl	%ebx	#
 135              		.cfi_restore 3
 136              		.cfi_def_cfa_offset 4
 137              	.LVL5:
 138 0037 C3       		ret
 139              	.LVL6:
 140              		.p2align 4,,7
 141              		.p2align 3
 142              	.L4:
 143              		.cfi_restore_state
 144              		.loc 1 146 0
 145 0038 31DB     		xorl	%ebx, %ebx	# ntp
 146              	.LVL7:
 147 003a EBEC     		jmp	.L3	#
 148              		.cfi_endproc
 149              	.LFE8:
 150              		.size	chRegNextThread, .-chRegNextThread
 151              		.globl	ch_debug
 152              		.section	.rodata
 153              		.align 2
 154              		.type	ch_debug, @object
 155              		.size	ch_debug, 22
 156              	ch_debug:
 157              	# ch_identifier:
 158 0000 6D61696E 		.ascii	"main"
 159              	# ch_zero:
 160 0004 00       		.byte	0
 161              	# ch_size:
 162 0005 16       		.byte	22
 163              	# ch_version:
 164 0006 8511     		.value	4485
 165              	# ch_ptrsize:
 166 0008 04       		.byte	4
 167              	# ch_timesize:
 168 0009 04       		.byte	4
 169              	# ch_threadsize:
 170 000a 48       		.byte	72
 171              	# cf_off_prio:
 172 000b 08       		.byte	8
 173              	# cf_off_ctx:
 174 000c 0C       		.byte	12
 175              	# cf_off_newer:
 176 000d 10       		.byte	16
 177              	# cf_off_older:
 178 000e 14       		.byte	20
 179              	# cf_off_name:
 180 000f 18       		.byte	24
 181              	# cf_off_stklimit:
 182 0010 00       		.byte	0
 183              	# cf_off_state:
 184 0011 1C       		.byte	28
GAS LISTING /tmp/cc08teOy.s 			page 7


 185              	# cf_off_flags:
 186 0012 1D       		.byte	29
 187              	# cf_off_refs:
 188 0013 1E       		.byte	30
 189              	# cf_off_preempt:
 190 0014 1F       		.byte	31
 191              	# cf_off_time:
 192 0015 20       		.byte	32
 193              		.text
 194              	.Letext0:
 195              		.file 2 "/usr/lib/gcc/x86_64-linux-gnu/4.8/include/stddef.h"
 196              		.file 3 "/usr/include/stdint.h"
 197              		.file 4 "../../../os/ports/GCC/SIMIA32/chtypes.h"
 198              		.file 5 "../../../os/kernel/include/chlists.h"
 199              		.file 6 "../../../os/kernel/include/chthreads.h"
 200              		.file 7 "../../../os/ports/GCC/SIMIA32/chcore.h"
 201              		.file 8 "../../../os/kernel/include/chschd.h"
 202              		.file 9 "../../../os/kernel/include/chmtx.h"
 203              		.file 10 "../../../os/kernel/include/chregistry.h"
 204              		.file 11 "../../../os/kernel/include/chdynamic.h"
 1446              		.section	.note.GNU-stack,"",@progbits
GAS LISTING /tmp/cc08teOy.s 			page 33

