GAS LISTING /tmp/cc08teOy.s 			page 1


   1              		.file	"chregistry.c"
   2              	# GNU C (Ubuntu 4.8.2-19ubuntu1) version 4.8.2 (x86_64-linux-gnu)
   3              	#	compiled by GNU C version 4.8.2, GMP version 5.1.3, MPFR version 3.1.2-p3, MPC version 1.0.1
   4              	# GGC heuristics: --param ggc-min-expand=97 --param ggc-min-heapsize=126309
   5              	# options passed:  -I . -I ../../../os/ports/GCC/SIMIA32
   6              	# -I ../../../os/kernel/include -I ../../../test -I ../../../os/hal/include
   7              	# -I ../../../os/hal/platforms/Posix -I ../../../boards/simulator
   8              	# -I ../../../os/various -imultilib 32 -imultiarch i386-linux-gnu
   9              	# -MD ../../../os/kernel/src/chregistry.d -MF .dep/chregistry.o.d -MP
  10              	# -MQ ../../../os/kernel/src/chregistry.o -D SIMULATOR
  11              	# -D SHELL_USE_IPRINTF=FALSE ../../../os/kernel/src/chregistry.c -m32
  12              	# -mtune=generic -march=i686
  13              	# -auxbase-strip ../../../os/kernel/src/chregistry.o -ggdb -O2 -Wall
  14              	# -Wextra -Wstrict-prototypes -fomit-frame-pointer -fverbose-asm
  15              	# -fstack-protector -Wformat -Wformat-security
  16              	# options enabled:  -faggressive-loop-optimizations
  17              	# -fasynchronous-unwind-tables -fauto-inc-dec -fbranch-count-reg
  18              	# -fcaller-saves -fcombine-stack-adjustments -fcommon -fcompare-elim
  19              	# -fcprop-registers -fcrossjumping -fcse-follow-jumps -fdefer-pop
  20              	# -fdelete-null-pointer-checks -fdevirtualize -fdwarf2-cfi-asm
  21              	# -fearly-inlining -feliminate-unused-debug-types -fexpensive-optimizations
  22              	# -fforward-propagate -ffunction-cse -fgcse -fgcse-lm -fgnu-runtime
  23              	# -fguess-branch-probability -fhoist-adjacent-loads -fident -fif-conversion
  24              	# -fif-conversion2 -findirect-inlining -finline -finline-atomics
  25              	# -finline-functions-called-once -finline-small-functions -fipa-cp
  26              	# -fipa-profile -fipa-pure-const -fipa-reference -fipa-sra
  27              	# -fira-hoist-pressure -fira-share-save-slots -fira-share-spill-slots
  28              	# -fivopts -fkeep-static-consts -fleading-underscore -fmath-errno
  29              	# -fmerge-constants -fmerge-debug-strings -fmove-loop-invariants
  30              	# -fomit-frame-pointer -foptimize-register-move -foptimize-sibling-calls
  31              	# -foptimize-strlen -fpartial-inlining -fpcc-struct-return -fpeephole
  32              	# -fpeephole2 -fprefetch-loop-arrays -free -fregmove -freorder-blocks
  33              	# -freorder-functions -frerun-cse-after-loop
  34              	# -fsched-critical-path-heuristic -fsched-dep-count-heuristic
  35              	# -fsched-group-heuristic -fsched-interblock -fsched-last-insn-heuristic
  36              	# -fsched-rank-heuristic -fsched-spec -fsched-spec-insn-heuristic
  37              	# -fsched-stalled-insns-dep -fschedule-insns2 -fshow-column -fshrink-wrap
  38              	# -fsigned-zeros -fsplit-ivs-in-unroller -fsplit-wide-types
  39              	# -fstack-protector -fstrict-aliasing -fstrict-overflow
  40              	# -fstrict-volatile-bitfields -fsync-libcalls -fthread-jumps
  41              	# -ftoplevel-reorder -ftrapping-math -ftree-bit-ccp -ftree-builtin-call-dce
  42              	# -ftree-ccp -ftree-ch -ftree-coalesce-vars -ftree-copy-prop
  43              	# -ftree-copyrename -ftree-cselim -ftree-dce -ftree-dominator-opts
  44              	# -ftree-dse -ftree-forwprop -ftree-fre -ftree-loop-if-convert
  45              	# -ftree-loop-im -ftree-loop-ivcanon -ftree-loop-optimize
  46              	# -ftree-parallelize-loops= -ftree-phiprop -ftree-pre -ftree-pta
  47              	# -ftree-reassoc -ftree-scev-cprop -ftree-sink -ftree-slp-vectorize
  48              	# -ftree-slsr -ftree-sra -ftree-switch-conversion -ftree-tail-merge
  49              	# -ftree-ter -ftree-vect-loop-version -ftree-vrp -funit-at-a-time
  50              	# -funwind-tables -fvar-tracking -fvar-tracking-assignments -fverbose-asm
  51              	# -fzero-initialized-in-bss -m32 -m80387 -m96bit-long-double
  52              	# -maccumulate-outgoing-args -malign-stringops -mfancy-math-387
  53              	# -mfp-ret-in-387 -mglibc -mieee-fp -mlong-double-80 -mno-red-zone
  54              	# -mno-sse4 -mpush-args -msahf -mtls-direct-seg-refs
  55              	
  56              		.text
  57              	.Ltext0:
GAS LISTING /tmp/cc08teOy.s 			page 2


  58              		.p2align 4,,15
  59              		.globl	chRegFirstThread
  60              		.type	chRegFirstThread, @function
  61              	chRegFirstThread:
  62              	.LFB7:
  63              		.file 1 "../../../os/kernel/src/chregistry.c"
  64              		.loc 1 117 0
  65              		.cfi_startproc
  66              		.loc 1 120 0
  67              	#APP
  68              	# 120 "../../../os/kernel/src/chregistry.c" 1
   1              	/*
   2              	    ChibiOS/RT - Copyright (C) 2006,2007,2008,2009,2010,
   3              	                 2011,2012,2013 Giovanni Di Sirio.
   4              	
   5              	    This file is part of ChibiOS/RT.
   6              	
   7              	    ChibiOS/RT is free software; you can redistribute it and/or modify
   8              	    it under the terms of the GNU General Public License as published by
   9              	    the Free Software Foundation; either version 3 of the License, or
  10              	    (at your option) any later version.
  11              	
  12              	    ChibiOS/RT is distributed in the hope that it will be useful,
  13              	    but WITHOUT ANY WARRANTY; without even the implied warranty of
  14              	    MERCHANTABILITY or FITNESS FOR A PARTICULAR PURPOSE.  See the
  15              	    GNU General Public License for more details.
  16              	
  17              	    You should have received a copy of the GNU General Public License
  18              	    along with this program.  If not, see <http://www.gnu.org/licenses/>.
  19              	
  20              	                                      ---
  21              	
  22              	    A special exception to the GPL can be applied should you wish to distribute
  23              	    a combined work that includes ChibiOS/RT, without being obliged to provide
  24              	    the source code for any proprietary components. See the file exception.txt
  25              	    for full details of how and when the exception can be applied.
  26              	*/
  27              	
  28              	/**
  29              	 * @file    chregistry.c
  30              	 * @brief   Threads registry code.
  31              	 *
  32              	 * @addtogroup registry
  33              	 * @details Threads Registry related APIs and services.
  34              	 *
  35              	 *          <h2>Operation mode</h2>
  36              	 *          The Threads Registry is a double linked list that holds all the
  37              	 *          active threads in the system.<br>
  38              	 *          Operations defined for the registry:
  39              	 *          - <b>First</b>, returns the first, in creation order, active thread
  40              	 *            in the system.
  41              	 *          - <b>Next</b>, returns the next, in creation order, active thread
  42              	 *            in the system.
  43              	 *          .
  44              	 *          The registry is meant to be mainly a debug feature, for example,
  45              	 *          using the registry a debugger can enumerate the active threads
  46              	 *          in any given moment or the shell can print the active threads
GAS LISTING /tmp/cc08teOy.s 			page 3


  47              	 *          and their state.<br>
  48              	 *          Another possible use is for centralized threads memory management,
  49              	 *          terminating threads can pulse an event source and an event handler
  50              	 *          can perform a scansion of the registry in order to recover the
  51              	 *          memory.
  52              	 * @pre     In order to use the threads registry the @p CH_USE_REGISTRY option
  53              	 *          must be enabled in @p chconf.h.
  54              	 * @{
  55              	 */
  56              	#include "ch.h"
  57              	
  58              	#if CH_USE_REGISTRY || defined(__DOXYGEN__)
  59              	
  60              	#define _offsetof(st, m)                                                     \
  61              	  ((size_t)((char *)&((st *)0)->m - (char *)0))
  62              	
  63              	/*
  64              	 * OS signature in ROM plus debug-related information.
  65              	 */
  66              	ROMCONST chdebug_t ch_debug = {
  67              	  "main",
  68              	  (uint8_t)0,
  69              	  (uint8_t)sizeof (chdebug_t),
  70              	  (uint16_t)((CH_KERNEL_MAJOR << 11) |
  71              	             (CH_KERNEL_MINOR << 6) |
  72              	             (CH_KERNEL_PATCH) << 0),
  73              	  (uint8_t)sizeof (void *),
  74              	  (uint8_t)sizeof (systime_t),
  75              	  (uint8_t)sizeof (Thread),
  76              	  (uint8_t)_offsetof(Thread, p_prio),
  77              	  (uint8_t)_offsetof(Thread, p_ctx),
  78              	  (uint8_t)_offsetof(Thread, p_newer),
  79              	  (uint8_t)_offsetof(Thread, p_older),
  80              	  (uint8_t)_offsetof(Thread, p_name),
  81              	#if CH_DBG_ENABLE_STACK_CHECK
  82              	  (uint8_t)_offsetof(Thread, p_stklimit),
  83              	#else
  84              	  (uint8_t)0,
  85              	#endif
  86              	  (uint8_t)_offsetof(Thread, p_state),
  87              	  (uint8_t)_offsetof(Thread, p_flags),
  88              	#if CH_USE_DYNAMIC
  89              	  (uint8_t)_offsetof(Thread, p_refs),
  90              	#else
  91              	  (uint8_t)0,
  92              	#endif
  93              	#if CH_TIME_QUANTUM > 0
  94              	  (uint8_t)_offsetof(Thread, p_preempt),
  95              	#else
  96              	  (uint8_t)0,
  97              	#endif
  98              	#if CH_DBG_THREADS_PROFILING
  99              	  (uint8_t)_offsetof(Thread, p_time)
 100              	#else
 101              	  (uint8_t)0
 102              	#endif
 103              	};
GAS LISTING /tmp/cc08teOy.s 			page 4


 104              	
 105              	/**
 106              	 * @brief   Returns the first thread in the system.
 107              	 * @details Returns the most ancient thread in the system, usually this is
 108              	 *          the main thread unless it terminated. A reference is added to the
 109              	 *          returned thread in order to make sure its status is not lost.
 110              	 * @note    This function cannot return @p NULL because there is always at
 111              	 *          least one thread in the system.
 112              	 *
 113              	 * @return              A reference to the most ancient thread.
 114              	 *
 115              	 * @api
 116              	 */
 117              	Thread *chRegFirstThread(void) {
 118              	  Thread *tp;
 119              	
 120 0000 90       	  chSysLock();
 121              	  tp = rlist.r_newer;
  69              		nop
  70              	# 0 "" 2
  71              		.loc 1 121 0
  72              	#NO_APP
  73 0001 A1100000 		movl	rlist+16, %eax	# rlist.r_newer, tp
  73      00
  74              	.LVL0:
  75              		.loc 1 123 0
  76 0006 80401E01 		addb	$1, 30(%eax)	#, tp_2->p_refs
  77              		.loc 1 125 0
  78              	#APP
  79              	# 125 "../../../os/kernel/src/chregistry.c" 1
 122              	#if CH_USE_DYNAMIC
 123              	  tp->p_refs++;
 124              	#endif
 125 000a 90       	  chSysUnlock();
 126              	  return tp;
  80              		nop
  81              	# 0 "" 2
  82              		.loc 1 127 0
  83              	#NO_APP
  84 000b C3       		ret
  85              		.cfi_endproc
  86              	.LFE7:
  87              		.size	chRegFirstThread, .-chRegFirstThread
  88 000c 8D742600 		.p2align 4,,15
  89              		.globl	chRegNextThread
  90              		.type	chRegNextThread, @function
  91              	chRegNextThread:
  92              	.LFB8:
  93              		.loc 1 140 0
  94              		.cfi_startproc
  95              	.LVL1:
  96 0010 53       		pushl	%ebx	#
  97              		.cfi_def_cfa_offset 8
  98              		.cfi_offset 3, -8
  99 0011 83EC18   		subl	$24, %esp	#,
 100              		.cfi_def_cfa_offset 32
 101              		.loc 1 140 0
GAS LISTING /tmp/cc08teOy.s 			page 5


 102 0014 8B442420 		movl	32(%esp), %eax	# tp, tp
 103              		.loc 1 143 0
 104              	#APP
 105              	# 143 "../../../os/kernel/src/chregistry.c" 1
 127              	}
 128              	
 129              	/**
 130              	 * @brief   Returns the thread next to the specified one.
 131              	 * @details The reference counter of the specified thread is decremented and
 132              	 *          the reference counter of the returned thread is incremented.
 133              	 *
 134              	 * @param[in] tp        pointer to the thread
 135              	 * @return              A reference to the next thread.
 136              	 * @retval NULL         if there is no next thread.
 137              	 *
 138              	 * @api
 139              	 */
 140              	Thread *chRegNextThread(Thread *tp) {
 141              	  Thread *ntp;
 142              	
 143 0018 90       	  chSysLock();
 144              	  ntp = tp->p_newer;
 106              		nop
 107              	# 0 "" 2
 108              		.loc 1 144 0
 109              	#NO_APP
 110 0019 8B5810   		movl	16(%eax), %ebx	# tp_4(D)->p_newer, ntp
 111              	.LVL2:
 112              		.loc 1 145 0
 113 001c 81FB0000 		cmpl	$rlist, %ebx	#, ntp
 113      0000
 114 0022 7414     		je	.L4	#,
 115              		.loc 1 151 0
 116 0024 80431E01 		addb	$1, 30(%ebx)	#, ntp_5->p_refs
 117              	.LVL3:
 118              	.L3:
 119              		.loc 1 154 0
 120              	#APP
 121              	# 154 "../../../os/kernel/src/chregistry.c" 1
 145              	  if (ntp == (Thread *)&rlist)
 146              	    ntp = NULL;
 147              	#if CH_USE_DYNAMIC
 148              	  else {
 149              	    chDbgAssert(ntp->p_refs < 255, "chRegNextThread(), #1",
 150              	                "too many references");
 151              	    ntp->p_refs++;
 152              	  }
 153              	#endif
 154 0028 90       	  chSysUnlock();
 155              	#if CH_USE_DYNAMIC
 122              		nop
 123              	# 0 "" 2
 124              		.loc 1 156 0
 125              	#NO_APP
 126 0029 890424   		movl	%eax, (%esp)	# tp,
 127 002c E8FCFFFF 		call	chThdRelease	#
 127      FF
GAS LISTING /tmp/cc08teOy.s 			page 6


 128              	.LVL4:
 129              		.loc 1 159 0
 130 0031 83C418   		addl	$24, %esp	#,
 131              		.cfi_remember_state
 132              		.cfi_def_cfa_offset 8
 133 0034 89D8     		movl	%ebx, %eax	# ntp,
 134 0036 5B       		popl	%ebx	#
 135              		.cfi_restore 3
 136              		.cfi_def_cfa_offset 4
 137              	.LVL5:
 138 0037 C3       		ret
 139              	.LVL6:
 140              		.p2align 4,,7
 141              		.p2align 3
 142              	.L4:
 143              		.cfi_restore_state
 144              		.loc 1 146 0
 145 0038 31DB     		xorl	%ebx, %ebx	# ntp
 146              	.LVL7:
 147 003a EBEC     		jmp	.L3	#
 148              		.cfi_endproc
 149              	.LFE8:
 150              		.size	chRegNextThread, .-chRegNextThread
 151              		.globl	ch_debug
 152              		.section	.rodata
 153              		.align 2
 154              		.type	ch_debug, @object
 155              		.size	ch_debug, 22
 156              	ch_debug:
 157              	# ch_identifier:
 158 0000 6D61696E 		.ascii	"main"
 159              	# ch_zero:
 160 0004 00       		.byte	0
 161              	# ch_size:
 162 0005 16       		.byte	22
 163              	# ch_version:
 164 0006 8511     		.value	4485
 165              	# ch_ptrsize:
 166 0008 04       		.byte	4
 167              	# ch_timesize:
 168 0009 04       		.byte	4
 169              	# ch_threadsize:
 170 000a 48       		.byte	72
 171              	# cf_off_prio:
 172 000b 08       		.byte	8
 173              	# cf_off_ctx:
 174 000c 0C       		.byte	12
 175              	# cf_off_newer:
 176 000d 10       		.byte	16
 177              	# cf_off_older:
 178 000e 14       		.byte	20
 179              	# cf_off_name:
 180 000f 18       		.byte	24
 181              	# cf_off_stklimit:
 182 0010 00       		.byte	0
 183              	# cf_off_state:
 184 0011 1C       		.byte	28
GAS LISTING /tmp/cc08teOy.s 			page 7


 185              	# cf_off_flags:
 186 0012 1D       		.byte	29
 187              	# cf_off_refs:
 188 0013 1E       		.byte	30
 189              	# cf_off_preempt:
 190 0014 1F       		.byte	31
 191              	# cf_off_time:
 192 0015 20       		.byte	32
 193              		.text
 194              	.Letext0:
 195              		.file 2 "/usr/lib/gcc/x86_64-linux-gnu/4.8/include/stddef.h"
 196              		.file 3 "/usr/include/stdint.h"
 197              		.file 4 "../../../os/ports/GCC/SIMIA32/chtypes.h"
 198              		.file 5 "../../../os/kernel/include/chlists.h"
 199              		.file 6 "../../../os/kernel/include/chthreads.h"
 200              		.file 7 "../../../os/ports/GCC/SIMIA32/chcore.h"
 201              		.file 8 "../../../os/kernel/include/chschd.h"
 202              		.file 9 "../../../os/kernel/include/chmtx.h"
 203              		.file 10 "../../../os/kernel/include/chregistry.h"
 204              		.file 11 "../../../os/kernel/include/chdynamic.h"
 205              		.section	.debug_info,"",@progbits
 206              	.Ldebug_info0:
 207 0000 5A050000 		.long	0x55a
 208 0004 0400     		.value	0x4
 209 0006 00000000 		.long	.Ldebug_abbrev0
 210 000a 04       		.byte	0x4
 211 000b 01       		.uleb128 0x1
 212 000c 6B020000 		.long	.LASF87
 213 0010 01       		.byte	0x1
 214 0011 9F010000 		.long	.LASF88
 215 0015 B2000000 		.long	.LASF89
 216 0019 00000000 		.long	.Ltext0
 217 001d 3C000000 		.long	.Letext0-.Ltext0
 218 0021 00000000 		.long	.Ldebug_line0
 219 0025 02       		.uleb128 0x2
 220 0026 04       		.byte	0x4
 221 0027 05       		.byte	0x5
 222 0028 696E7400 		.string	"int"
 223 002c 03       		.uleb128 0x3
 224 002d 1A000000 		.long	.LASF4
 225 0031 02       		.byte	0x2
 226 0032 D4       		.byte	0xd4
 227 0033 37000000 		.long	0x37
 228 0037 04       		.uleb128 0x4
 229 0038 04       		.byte	0x4
 230 0039 07       		.byte	0x7
 231 003a 29010000 		.long	.LASF0
 232 003e 04       		.uleb128 0x4
 233 003f 04       		.byte	0x4
 234 0040 05       		.byte	0x5
 235 0041 E4000000 		.long	.LASF1
 236 0045 04       		.uleb128 0x4
 237 0046 01       		.byte	0x1
 238 0047 06       		.byte	0x6
 239 0048 89000000 		.long	.LASF2
 240 004c 04       		.uleb128 0x4
 241 004d 02       		.byte	0x2
GAS LISTING /tmp/cc08teOy.s 			page 8


 242 004e 05       		.byte	0x5
 243 004f D2020000 		.long	.LASF3
 244 0053 03       		.uleb128 0x3
 245 0054 55020000 		.long	.LASF5
 246 0058 03       		.byte	0x3
 247 0059 26       		.byte	0x26
 248 005a 25000000 		.long	0x25
 249 005e 04       		.uleb128 0x4
 250 005f 08       		.byte	0x8
 251 0060 05       		.byte	0x5
 252 0061 7B000000 		.long	.LASF6
 253 0065 03       		.uleb128 0x3
 254 0066 C9030000 		.long	.LASF7
 255 006a 03       		.byte	0x3
 256 006b 30       		.byte	0x30
 257 006c 70000000 		.long	0x70
 258 0070 04       		.uleb128 0x4
 259 0071 01       		.byte	0x1
 260 0072 08       		.byte	0x8
 261 0073 5D020000 		.long	.LASF8
 262 0077 03       		.uleb128 0x3
 263 0078 F6000000 		.long	.LASF9
 264 007c 03       		.byte	0x3
 265 007d 31       		.byte	0x31
 266 007e 82000000 		.long	0x82
 267 0082 04       		.uleb128 0x4
 268 0083 02       		.byte	0x2
 269 0084 07       		.byte	0x7
 270 0085 60010000 		.long	.LASF10
 271 0089 03       		.uleb128 0x3
 272 008a 52030000 		.long	.LASF11
 273 008e 03       		.byte	0x3
 274 008f 33       		.byte	0x33
 275 0090 37000000 		.long	0x37
 276 0094 04       		.uleb128 0x4
 277 0095 08       		.byte	0x8
 278 0096 07       		.byte	0x7
 279 0097 28000000 		.long	.LASF12
 280 009b 04       		.uleb128 0x4
 281 009c 01       		.byte	0x1
 282 009d 02       		.byte	0x2
 283 009e 4F020000 		.long	.LASF13
 284 00a2 03       		.uleb128 0x3
 285 00a3 79010000 		.long	.LASF14
 286 00a7 04       		.byte	0x4
 287 00a8 24       		.byte	0x24
 288 00a9 65000000 		.long	0x65
 289 00ad 03       		.uleb128 0x3
 290 00ae ED000000 		.long	.LASF15
 291 00b2 04       		.byte	0x4
 292 00b3 25       		.byte	0x25
 293 00b4 65000000 		.long	0x65
 294 00b8 03       		.uleb128 0x3
 295 00b9 2D020000 		.long	.LASF16
 296 00bd 04       		.byte	0x4
 297 00be 26       		.byte	0x26
 298 00bf 65000000 		.long	0x65
GAS LISTING /tmp/cc08teOy.s 			page 9


 299 00c3 03       		.uleb128 0x3
 300 00c4 DA000000 		.long	.LASF17
 301 00c8 04       		.byte	0x4
 302 00c9 27       		.byte	0x27
 303 00ca 65000000 		.long	0x65
 304 00ce 03       		.uleb128 0x3
 305 00cf 47020000 		.long	.LASF18
 306 00d3 04       		.byte	0x4
 307 00d4 28       		.byte	0x28
 308 00d5 89000000 		.long	0x89
 309 00d9 03       		.uleb128 0x3
 310 00da 73010000 		.long	.LASF19
 311 00de 04       		.byte	0x4
 312 00df 29       		.byte	0x29
 313 00e0 53000000 		.long	0x53
 314 00e4 03       		.uleb128 0x3
 315 00e5 8D010000 		.long	.LASF20
 316 00e9 04       		.byte	0x4
 317 00ea 2B       		.byte	0x2b
 318 00eb 89000000 		.long	0x89
 319 00ef 03       		.uleb128 0x3
 320 00f0 84030000 		.long	.LASF21
 321 00f4 04       		.byte	0x4
 322 00f5 2D       		.byte	0x2d
 323 00f6 89000000 		.long	0x89
 324 00fa 03       		.uleb128 0x3
 325 00fb 33030000 		.long	.LASF22
 326 00ff 05       		.byte	0x5
 327 0100 2A       		.byte	0x2a
 328 0101 05010000 		.long	0x105
 329 0105 05       		.uleb128 0x5
 330 0106 33030000 		.long	.LASF22
 331 010a 48       		.byte	0x48
 332 010b 06       		.byte	0x6
 333 010c 5E       		.byte	0x5e
 334 010d 02020000 		.long	0x202
 335 0111 06       		.uleb128 0x6
 336 0112 08030000 		.long	.LASF23
 337 0116 06       		.byte	0x6
 338 0117 5F       		.byte	0x5f
 339 0118 23020000 		.long	0x223
 340 011c 00       		.byte	0
 341 011d 06       		.uleb128 0x6
 342 011e 40020000 		.long	.LASF24
 343 0122 06       		.byte	0x6
 344 0123 61       		.byte	0x61
 345 0124 23020000 		.long	0x223
 346 0128 04       		.byte	0x4
 347 0129 06       		.uleb128 0x6
 348 012a 67000000 		.long	.LASF25
 349 012e 06       		.byte	0x6
 350 012f 63       		.byte	0x63
 351 0130 CE000000 		.long	0xce
 352 0134 08       		.byte	0x8
 353 0135 06       		.uleb128 0x6
 354 0136 F9030000 		.long	.LASF26
 355 013a 06       		.byte	0x6
GAS LISTING /tmp/cc08teOy.s 			page 10


 356 013b 64       		.byte	0x64
 357 013c B1020000 		.long	0x2b1
 358 0140 0C       		.byte	0xc
 359 0141 06       		.uleb128 0x6
 360 0142 09010000 		.long	.LASF27
 361 0146 06       		.byte	0x6
 362 0147 66       		.byte	0x66
 363 0148 23020000 		.long	0x223
 364 014c 10       		.byte	0x10
 365 014d 06       		.uleb128 0x6
 366 014e F8010000 		.long	.LASF28
 367 0152 06       		.byte	0x6
 368 0153 67       		.byte	0x67
 369 0154 23020000 		.long	0x223
 370 0158 14       		.byte	0x14
 371 0159 06       		.uleb128 0x6
 372 015a D8030000 		.long	.LASF29
 373 015e 06       		.byte	0x6
 374 015f 6E       		.byte	0x6e
 375 0160 AD030000 		.long	0x3ad
 376 0164 18       		.byte	0x18
 377 0165 06       		.uleb128 0x6
 378 0166 DC020000 		.long	.LASF30
 379 016a 06       		.byte	0x6
 380 016b 79       		.byte	0x79
 381 016c AD000000 		.long	0xad
 382 0170 1C       		.byte	0x1c
 383 0171 06       		.uleb128 0x6
 384 0172 1E030000 		.long	.LASF31
 385 0176 06       		.byte	0x6
 386 0177 7D       		.byte	0x7d
 387 0178 A2000000 		.long	0xa2
 388 017c 1D       		.byte	0x1d
 389 017d 06       		.uleb128 0x6
 390 017e B2030000 		.long	.LASF32
 391 0182 06       		.byte	0x6
 392 0183 82       		.byte	0x82
 393 0184 B8000000 		.long	0xb8
 394 0188 1E       		.byte	0x1e
 395 0189 06       		.uleb128 0x6
 396 018a E4020000 		.long	.LASF33
 397 018e 06       		.byte	0x6
 398 018f 88       		.byte	0x88
 399 0190 C3000000 		.long	0xc3
 400 0194 1F       		.byte	0x1f
 401 0195 06       		.uleb128 0x6
 402 0196 99030000 		.long	.LASF34
 403 019a 06       		.byte	0x6
 404 019b 8F       		.byte	0x8f
 405 019c D5020000 		.long	0x2d5
 406 01a0 20       		.byte	0x20
 407 01a1 07       		.uleb128 0x7
 408 01a2 705F7500 		.string	"p_u"
 409 01a6 06       		.byte	0x6
 410 01a7 B4       		.byte	0xb4
 411 01a8 78030000 		.long	0x378
 412 01ac 24       		.byte	0x24
GAS LISTING /tmp/cc08teOy.s 			page 11


 413 01ad 06       		.uleb128 0x6
 414 01ae FF030000 		.long	.LASF35
 415 01b2 06       		.byte	0x6
 416 01b3 B9       		.byte	0xb9
 417 01b4 49020000 		.long	0x249
 418 01b8 28       		.byte	0x28
 419 01b9 06       		.uleb128 0x6
 420 01ba 36010000 		.long	.LASF36
 421 01be 06       		.byte	0x6
 422 01bf BF       		.byte	0xbf
 423 01c0 29020000 		.long	0x229
 424 01c4 2C       		.byte	0x2c
 425 01c5 06       		.uleb128 0x6
 426 01c6 0D000000 		.long	.LASF37
 427 01ca 06       		.byte	0x6
 428 01cb C3       		.byte	0xc3
 429 01cc D9000000 		.long	0xd9
 430 01d0 34       		.byte	0x34
 431 01d1 06       		.uleb128 0x6
 432 01d2 47030000 		.long	.LASF38
 433 01d6 06       		.byte	0x6
 434 01d7 C9       		.byte	0xc9
 435 01d8 E4000000 		.long	0xe4
 436 01dc 38       		.byte	0x38
 437 01dd 06       		.uleb128 0x6
 438 01de C8020000 		.long	.LASF39
 439 01e2 06       		.byte	0x6
 440 01e3 D0       		.byte	0xd0
 441 01e4 BF030000 		.long	0x3bf
 442 01e8 3C       		.byte	0x3c
 443 01e9 06       		.uleb128 0x6
 444 01ea 8E030000 		.long	.LASF40
 445 01ee 06       		.byte	0x6
 446 01ef D4       		.byte	0xd4
 447 01f0 CE000000 		.long	0xce
 448 01f4 40       		.byte	0x40
 449 01f5 06       		.uleb128 0x6
 450 01f6 A2000000 		.long	.LASF41
 451 01fa 06       		.byte	0x6
 452 01fb DA       		.byte	0xda
 453 01fc 66020000 		.long	0x266
 454 0200 44       		.byte	0x44
 455 0201 00       		.byte	0
 456 0202 08       		.uleb128 0x8
 457 0203 08       		.byte	0x8
 458 0204 05       		.byte	0x5
 459 0205 61       		.byte	0x61
 460 0206 23020000 		.long	0x223
 461 020a 06       		.uleb128 0x6
 462 020b 08030000 		.long	.LASF23
 463 020f 05       		.byte	0x5
 464 0210 62       		.byte	0x62
 465 0211 23020000 		.long	0x223
 466 0215 00       		.byte	0
 467 0216 06       		.uleb128 0x6
 468 0217 40020000 		.long	.LASF24
 469 021b 05       		.byte	0x5
GAS LISTING /tmp/cc08teOy.s 			page 12


 470 021c 64       		.byte	0x64
 471 021d 23020000 		.long	0x223
 472 0221 04       		.byte	0x4
 473 0222 00       		.byte	0
 474 0223 09       		.uleb128 0x9
 475 0224 04       		.byte	0x4
 476 0225 FA000000 		.long	0xfa
 477 0229 03       		.uleb128 0x3
 478 022a 06020000 		.long	.LASF42
 479 022e 05       		.byte	0x5
 480 022f 66       		.byte	0x66
 481 0230 02020000 		.long	0x202
 482 0234 08       		.uleb128 0x8
 483 0235 04       		.byte	0x4
 484 0236 05       		.byte	0x5
 485 0237 6B       		.byte	0x6b
 486 0238 49020000 		.long	0x249
 487 023c 06       		.uleb128 0x6
 488 023d 08030000 		.long	.LASF23
 489 0241 05       		.byte	0x5
 490 0242 6D       		.byte	0x6d
 491 0243 23020000 		.long	0x223
 492 0247 00       		.byte	0
 493 0248 00       		.byte	0
 494 0249 03       		.uleb128 0x3
 495 024a 81010000 		.long	.LASF43
 496 024e 05       		.byte	0x5
 497 024f 70       		.byte	0x70
 498 0250 34020000 		.long	0x234
 499 0254 04       		.uleb128 0x4
 500 0255 04       		.byte	0x4
 501 0256 07       		.byte	0x7
 502 0257 D7010000 		.long	.LASF44
 503 025b 03       		.uleb128 0x3
 504 025c EA030000 		.long	.LASF45
 505 0260 07       		.byte	0x7
 506 0261 4B       		.byte	0x4b
 507 0262 66020000 		.long	0x266
 508 0266 0A       		.uleb128 0xa
 509 0267 04       		.byte	0x4
 510 0268 05       		.uleb128 0x5
 511 0269 A0030000 		.long	.LASF46
 512 026d 14       		.byte	0x14
 513 026e 07       		.byte	0x7
 514 026f 59       		.byte	0x59
 515 0270 B1020000 		.long	0x2b1
 516 0274 07       		.uleb128 0x7
 517 0275 65627800 		.string	"ebx"
 518 0279 07       		.byte	0x7
 519 027a 5A       		.byte	0x5a
 520 027b 5B020000 		.long	0x25b
 521 027f 00       		.byte	0
 522 0280 07       		.uleb128 0x7
 523 0281 65646900 		.string	"edi"
 524 0285 07       		.byte	0x7
 525 0286 5B       		.byte	0x5b
 526 0287 5B020000 		.long	0x25b
GAS LISTING /tmp/cc08teOy.s 			page 13


 527 028b 04       		.byte	0x4
 528 028c 07       		.uleb128 0x7
 529 028d 65736900 		.string	"esi"
 530 0291 07       		.byte	0x7
 531 0292 5C       		.byte	0x5c
 532 0293 5B020000 		.long	0x25b
 533 0297 08       		.byte	0x8
 534 0298 07       		.uleb128 0x7
 535 0299 65627000 		.string	"ebp"
 536 029d 07       		.byte	0x7
 537 029e 5D       		.byte	0x5d
 538 029f 5B020000 		.long	0x25b
 539 02a3 0C       		.byte	0xc
 540 02a4 07       		.uleb128 0x7
 541 02a5 65697000 		.string	"eip"
 542 02a9 07       		.byte	0x7
 543 02aa 5E       		.byte	0x5e
 544 02ab 5B020000 		.long	0x25b
 545 02af 10       		.byte	0x10
 546 02b0 00       		.byte	0
 547 02b1 05       		.uleb128 0x5
 548 02b2 58010000 		.long	.LASF47
 549 02b6 04       		.byte	0x4
 550 02b7 07       		.byte	0x7
 551 02b8 66       		.byte	0x66
 552 02b9 CA020000 		.long	0x2ca
 553 02bd 07       		.uleb128 0x7
 554 02be 65737000 		.string	"esp"
 555 02c2 07       		.byte	0x7
 556 02c3 67       		.byte	0x67
 557 02c4 CA020000 		.long	0x2ca
 558 02c8 00       		.byte	0
 559 02c9 00       		.byte	0
 560 02ca 09       		.uleb128 0x9
 561 02cb 04       		.byte	0x4
 562 02cc D0020000 		.long	0x2d0
 563 02d0 0B       		.uleb128 0xb
 564 02d1 68020000 		.long	0x268
 565 02d5 0B       		.uleb128 0xb
 566 02d6 EF000000 		.long	0xef
 567 02da 08       		.uleb128 0x8
 568 02db 1C       		.byte	0x1c
 569 02dc 08       		.byte	0x8
 570 02dd 5E       		.byte	0x5e
 571 02de 2B030000 		.long	0x32b
 572 02e2 06       		.uleb128 0x6
 573 02e3 67030000 		.long	.LASF48
 574 02e7 08       		.byte	0x8
 575 02e8 5F       		.byte	0x5f
 576 02e9 29020000 		.long	0x229
 577 02ed 00       		.byte	0
 578 02ee 06       		.uleb128 0x6
 579 02ef FA020000 		.long	.LASF49
 580 02f3 08       		.byte	0x8
 581 02f4 60       		.byte	0x60
 582 02f5 CE000000 		.long	0xce
 583 02f9 08       		.byte	0x8
GAS LISTING /tmp/cc08teOy.s 			page 14


 584 02fa 06       		.uleb128 0x6
 585 02fb 00020000 		.long	.LASF50
 586 02ff 08       		.byte	0x8
 587 0300 62       		.byte	0x62
 588 0301 B1020000 		.long	0x2b1
 589 0305 0C       		.byte	0xc
 590 0306 06       		.uleb128 0x6
 591 0307 21010000 		.long	.LASF51
 592 030b 08       		.byte	0x8
 593 030c 65       		.byte	0x65
 594 030d 23020000 		.long	0x223
 595 0311 10       		.byte	0x10
 596 0312 06       		.uleb128 0x6
 597 0313 25020000 		.long	.LASF52
 598 0317 08       		.byte	0x8
 599 0318 66       		.byte	0x66
 600 0319 23020000 		.long	0x223
 601 031d 14       		.byte	0x14
 602 031e 06       		.uleb128 0x6
 603 031f 1B020000 		.long	.LASF53
 604 0323 08       		.byte	0x8
 605 0324 69       		.byte	0x69
 606 0325 23020000 		.long	0x223
 607 0329 18       		.byte	0x18
 608 032a 00       		.byte	0
 609 032b 03       		.uleb128 0x3
 610 032c B9030000 		.long	.LASF54
 611 0330 08       		.byte	0x8
 612 0331 6B       		.byte	0x6b
 613 0332 DA020000 		.long	0x2da
 614 0336 05       		.uleb128 0x5
 615 0337 99010000 		.long	.LASF55
 616 033b 10       		.byte	0x10
 617 033c 09       		.byte	0x9
 618 033d 2C       		.byte	0x2c
 619 033e 67030000 		.long	0x367
 620 0342 06       		.uleb128 0x6
 621 0343 AA000000 		.long	.LASF56
 622 0347 09       		.byte	0x9
 623 0348 2D       		.byte	0x2d
 624 0349 29020000 		.long	0x229
 625 034d 00       		.byte	0
 626 034e 06       		.uleb128 0x6
 627 034f F1030000 		.long	.LASF57
 628 0353 09       		.byte	0x9
 629 0354 2F       		.byte	0x2f
 630 0355 23020000 		.long	0x223
 631 0359 08       		.byte	0x8
 632 035a 06       		.uleb128 0x6
 633 035b 13000000 		.long	.LASF58
 634 035f 09       		.byte	0x9
 635 0360 31       		.byte	0x31
 636 0361 67030000 		.long	0x367
 637 0365 0C       		.byte	0xc
 638 0366 00       		.byte	0
 639 0367 09       		.uleb128 0x9
 640 0368 04       		.byte	0x4
GAS LISTING /tmp/cc08teOy.s 			page 15


 641 0369 36030000 		.long	0x336
 642 036d 03       		.uleb128 0x3
 643 036e 99010000 		.long	.LASF55
 644 0372 09       		.byte	0x9
 645 0373 33       		.byte	0x33
 646 0374 36030000 		.long	0x336
 647 0378 0C       		.uleb128 0xc
 648 0379 04       		.byte	0x4
 649 037a 06       		.byte	0x6
 650 037b 96       		.byte	0x96
 651 037c AD030000 		.long	0x3ad
 652 0380 0D       		.uleb128 0xd
 653 0381 21000000 		.long	.LASF59
 654 0385 06       		.byte	0x6
 655 0386 9D       		.byte	0x9d
 656 0387 D9000000 		.long	0xd9
 657 038b 0D       		.uleb128 0xd
 658 038c 4D000000 		.long	.LASF60
 659 0390 06       		.byte	0x6
 660 0391 A4       		.byte	0xa4
 661 0392 D9000000 		.long	0xd9
 662 0396 0D       		.uleb128 0xd
 663 0397 D1030000 		.long	.LASF61
 664 039b 06       		.byte	0x6
 665 039c AB       		.byte	0xab
 666 039d 66020000 		.long	0x266
 667 03a1 0D       		.uleb128 0xd
 668 03a2 01030000 		.long	.LASF62
 669 03a6 06       		.byte	0x6
 670 03a7 B2       		.byte	0xb2
 671 03a8 E4000000 		.long	0xe4
 672 03ac 00       		.byte	0
 673 03ad 09       		.uleb128 0x9
 674 03ae 04       		.byte	0x4
 675 03af B3030000 		.long	0x3b3
 676 03b3 0E       		.uleb128 0xe
 677 03b4 B8030000 		.long	0x3b8
 678 03b8 04       		.uleb128 0x4
 679 03b9 01       		.byte	0x1
 680 03ba 06       		.byte	0x6
 681 03bb 6F030000 		.long	.LASF63
 682 03bf 09       		.uleb128 0x9
 683 03c0 04       		.byte	0x4
 684 03c1 6D030000 		.long	0x36d
 685 03c5 08       		.uleb128 0x8
 686 03c6 16       		.byte	0x16
 687 03c7 0A       		.byte	0xa
 688 03c8 2C       		.byte	0x2c
 689 03c9 A6040000 		.long	0x4a6
 690 03cd 06       		.uleb128 0x6
 691 03ce 4A010000 		.long	.LASF64
 692 03d2 0A       		.byte	0xa
 693 03d3 2D       		.byte	0x2d
 694 03d4 A6040000 		.long	0x4a6
 695 03d8 00       		.byte	0
 696 03d9 06       		.uleb128 0x6
 697 03da C3010000 		.long	.LASF65
GAS LISTING /tmp/cc08teOy.s 			page 16


 698 03de 0A       		.byte	0xa
 699 03df 2E       		.byte	0x2e
 700 03e0 65000000 		.long	0x65
 701 03e4 04       		.byte	0x4
 702 03e5 06       		.uleb128 0x6
 703 03e6 13020000 		.long	.LASF66
 704 03ea 0A       		.byte	0xa
 705 03eb 2F       		.byte	0x2f
 706 03ec 65000000 		.long	0x65
 707 03f0 05       		.byte	0x5
 708 03f1 06       		.uleb128 0x6
 709 03f2 DF030000 		.long	.LASF67
 710 03f6 0A       		.byte	0xa
 711 03f7 30       		.byte	0x30
 712 03f8 77000000 		.long	0x77
 713 03fc 06       		.byte	0x6
 714 03fd 06       		.uleb128 0x6
 715 03fe 35020000 		.long	.LASF68
 716 0402 0A       		.byte	0xa
 717 0403 31       		.byte	0x31
 718 0404 65000000 		.long	0x65
 719 0408 08       		.byte	0x8
 720 0409 06       		.uleb128 0x6
 721 040a E0010000 		.long	.LASF69
 722 040e 0A       		.byte	0xa
 723 040f 32       		.byte	0x32
 724 0410 65000000 		.long	0x65
 725 0414 09       		.byte	0x9
 726 0415 06       		.uleb128 0x6
 727 0416 3F000000 		.long	.LASF70
 728 041a 0A       		.byte	0xa
 729 041b 33       		.byte	0x33
 730 041c 65000000 		.long	0x65
 731 0420 0A       		.byte	0xa
 732 0421 06       		.uleb128 0x6
 733 0422 5B030000 		.long	.LASF71
 734 0426 0A       		.byte	0xa
 735 0427 34       		.byte	0x34
 736 0428 65000000 		.long	0x65
 737 042c 0B       		.byte	0xb
 738 042d 06       		.uleb128 0x6
 739 042e A7030000 		.long	.LASF72
 740 0432 0A       		.byte	0xa
 741 0433 35       		.byte	0x35
 742 0434 65000000 		.long	0x65
 743 0438 0C       		.byte	0xc
 744 0439 06       		.uleb128 0x6
 745 043a 3A030000 		.long	.LASF73
 746 043e 0A       		.byte	0xa
 747 043f 36       		.byte	0x36
 748 0440 65000000 		.long	0x65
 749 0444 0D       		.byte	0xd
 750 0445 06       		.uleb128 0x6
 751 0446 00000000 		.long	.LASF74
 752 044a 0A       		.byte	0xa
 753 044b 37       		.byte	0x37
 754 044c 65000000 		.long	0x65
GAS LISTING /tmp/cc08teOy.s 			page 17


 755 0450 0E       		.byte	0xe
 756 0451 06       		.uleb128 0x6
 757 0452 EC010000 		.long	.LASF75
 758 0456 0A       		.byte	0xa
 759 0457 38       		.byte	0x38
 760 0458 65000000 		.long	0x65
 761 045c 0F       		.byte	0xf
 762 045d 06       		.uleb128 0x6
 763 045e 11010000 		.long	.LASF76
 764 0462 0A       		.byte	0xa
 765 0463 39       		.byte	0x39
 766 0464 65000000 		.long	0x65
 767 0468 10       		.byte	0x10
 768 0469 06       		.uleb128 0x6
 769 046a 6E000000 		.long	.LASF77
 770 046e 0A       		.byte	0xa
 771 046f 3B       		.byte	0x3b
 772 0470 65000000 		.long	0x65
 773 0474 11       		.byte	0x11
 774 0475 06       		.uleb128 0x6
 775 0476 95000000 		.long	.LASF78
 776 047a 0A       		.byte	0xa
 777 047b 3C       		.byte	0x3c
 778 047c 65000000 		.long	0x65
 779 0480 12       		.byte	0x12
 780 0481 06       		.uleb128 0x6
 781 0482 CB010000 		.long	.LASF79
 782 0486 0A       		.byte	0xa
 783 0487 3D       		.byte	0x3d
 784 0488 65000000 		.long	0x65
 785 048c 13       		.byte	0x13
 786 048d 06       		.uleb128 0x6
 787 048e 0F030000 		.long	.LASF80
 788 0492 0A       		.byte	0xa
 789 0493 3E       		.byte	0x3e
 790 0494 65000000 		.long	0x65
 791 0498 14       		.byte	0x14
 792 0499 06       		.uleb128 0x6
 793 049a EE020000 		.long	.LASF81
 794 049e 0A       		.byte	0xa
 795 049f 40       		.byte	0x40
 796 04a0 65000000 		.long	0x65
 797 04a4 15       		.byte	0x15
 798 04a5 00       		.byte	0
 799 04a6 0F       		.uleb128 0xf
 800 04a7 B8030000 		.long	0x3b8
 801 04ab B6040000 		.long	0x4b6
 802 04af 10       		.uleb128 0x10
 803 04b0 54020000 		.long	0x254
 804 04b4 03       		.byte	0x3
 805 04b5 00       		.byte	0
 806 04b6 03       		.uleb128 0x3
 807 04b7 FF000000 		.long	.LASF82
 808 04bb 0A       		.byte	0xa
 809 04bc 41       		.byte	0x41
 810 04bd C5030000 		.long	0x3c5
 811 04c1 11       		.uleb128 0x11
GAS LISTING /tmp/cc08teOy.s 			page 18


 812 04c2 56000000 		.long	.LASF83
 813 04c6 01       		.byte	0x1
 814 04c7 75       		.byte	0x75
 815 04c8 23020000 		.long	0x223
 816 04cc 00000000 		.long	.LFB7
 817 04d0 0C000000 		.long	.LFE7-.LFB7
 818 04d4 01       		.uleb128 0x1
 819 04d5 9C       		.byte	0x9c
 820 04d6 E7040000 		.long	0x4e7
 821 04da 12       		.uleb128 0x12
 822 04db 747000   		.string	"tp"
 823 04de 01       		.byte	0x1
 824 04df 76       		.byte	0x76
 825 04e0 23020000 		.long	0x223
 826 04e4 01       		.uleb128 0x1
 827 04e5 50       		.byte	0x50
 828 04e6 00       		.byte	0
 829 04e7 11       		.uleb128 0x11
 830 04e8 74030000 		.long	.LASF84
 831 04ec 01       		.byte	0x1
 832 04ed 8C       		.byte	0x8c
 833 04ee 23020000 		.long	0x223
 834 04f2 10000000 		.long	.LFB8
 835 04f6 2C000000 		.long	.LFE8-.LFB8
 836 04fa 01       		.uleb128 0x1
 837 04fb 9C       		.byte	0x9c
 838 04fc 2F050000 		.long	0x52f
 839 0500 13       		.uleb128 0x13
 840 0501 747000   		.string	"tp"
 841 0504 01       		.byte	0x1
 842 0505 8C       		.byte	0x8c
 843 0506 23020000 		.long	0x223
 844 050a 02       		.uleb128 0x2
 845 050b 91       		.byte	0x91
 846 050c 00       		.sleb128 0
 847 050d 14       		.uleb128 0x14
 848 050e 6E747000 		.string	"ntp"
 849 0512 01       		.byte	0x1
 850 0513 8D       		.byte	0x8d
 851 0514 23020000 		.long	0x223
 852 0518 00000000 		.long	.LLST0
 853 051c 15       		.uleb128 0x15
 854 051d 31000000 		.long	.LVL4
 855 0521 50050000 		.long	0x550
 856 0525 16       		.uleb128 0x16
 857 0526 02       		.uleb128 0x2
 858 0527 74       		.byte	0x74
 859 0528 00       		.sleb128 0
 860 0529 03       		.uleb128 0x3
 861 052a 91       		.byte	0x91
 862 052b 00       		.sleb128 0
 863 052c 06       		.byte	0x6
 864 052d 00       		.byte	0
 865 052e 00       		.byte	0
 866 052f 17       		.uleb128 0x17
 867 0530 C3030000 		.long	.LASF85
 868 0534 08       		.byte	0x8
GAS LISTING /tmp/cc08teOy.s 			page 19


 869 0535 6F       		.byte	0x6f
 870 0536 2B030000 		.long	0x32b
 871 053a 18       		.uleb128 0x18
 872 053b 41010000 		.long	.LASF86
 873 053f 01       		.byte	0x1
 874 0540 42       		.byte	0x42
 875 0541 4B050000 		.long	0x54b
 876 0545 05       		.uleb128 0x5
 877 0546 03       		.byte	0x3
 878 0547 00000000 		.long	ch_debug
 879 054b 0E       		.uleb128 0xe
 880 054c B6040000 		.long	0x4b6
 881 0550 19       		.uleb128 0x19
 882 0551 26030000 		.long	.LASF90
 883 0555 0B       		.byte	0xb
 884 0556 3A       		.byte	0x3a
 885 0557 1A       		.uleb128 0x1a
 886 0558 23020000 		.long	0x223
 887 055c 00       		.byte	0
 888 055d 00       		.byte	0
 889              		.section	.debug_abbrev,"",@progbits
 890              	.Ldebug_abbrev0:
 891 0000 01       		.uleb128 0x1
 892 0001 11       		.uleb128 0x11
 893 0002 01       		.byte	0x1
 894 0003 25       		.uleb128 0x25
 895 0004 0E       		.uleb128 0xe
 896 0005 13       		.uleb128 0x13
 897 0006 0B       		.uleb128 0xb
 898 0007 03       		.uleb128 0x3
 899 0008 0E       		.uleb128 0xe
 900 0009 1B       		.uleb128 0x1b
 901 000a 0E       		.uleb128 0xe
 902 000b 11       		.uleb128 0x11
 903 000c 01       		.uleb128 0x1
 904 000d 12       		.uleb128 0x12
 905 000e 06       		.uleb128 0x6
 906 000f 10       		.uleb128 0x10
 907 0010 17       		.uleb128 0x17
 908 0011 00       		.byte	0
 909 0012 00       		.byte	0
 910 0013 02       		.uleb128 0x2
 911 0014 24       		.uleb128 0x24
 912 0015 00       		.byte	0
 913 0016 0B       		.uleb128 0xb
 914 0017 0B       		.uleb128 0xb
 915 0018 3E       		.uleb128 0x3e
 916 0019 0B       		.uleb128 0xb
 917 001a 03       		.uleb128 0x3
 918 001b 08       		.uleb128 0x8
 919 001c 00       		.byte	0
 920 001d 00       		.byte	0
 921 001e 03       		.uleb128 0x3
 922 001f 16       		.uleb128 0x16
 923 0020 00       		.byte	0
 924 0021 03       		.uleb128 0x3
 925 0022 0E       		.uleb128 0xe
GAS LISTING /tmp/cc08teOy.s 			page 20


 926 0023 3A       		.uleb128 0x3a
 927 0024 0B       		.uleb128 0xb
 928 0025 3B       		.uleb128 0x3b
 929 0026 0B       		.uleb128 0xb
 930 0027 49       		.uleb128 0x49
 931 0028 13       		.uleb128 0x13
 932 0029 00       		.byte	0
 933 002a 00       		.byte	0
 934 002b 04       		.uleb128 0x4
 935 002c 24       		.uleb128 0x24
 936 002d 00       		.byte	0
 937 002e 0B       		.uleb128 0xb
 938 002f 0B       		.uleb128 0xb
 939 0030 3E       		.uleb128 0x3e
 940 0031 0B       		.uleb128 0xb
 941 0032 03       		.uleb128 0x3
 942 0033 0E       		.uleb128 0xe
 943 0034 00       		.byte	0
 944 0035 00       		.byte	0
 945 0036 05       		.uleb128 0x5
 946 0037 13       		.uleb128 0x13
 947 0038 01       		.byte	0x1
 948 0039 03       		.uleb128 0x3
 949 003a 0E       		.uleb128 0xe
 950 003b 0B       		.uleb128 0xb
 951 003c 0B       		.uleb128 0xb
 952 003d 3A       		.uleb128 0x3a
 953 003e 0B       		.uleb128 0xb
 954 003f 3B       		.uleb128 0x3b
 955 0040 0B       		.uleb128 0xb
 956 0041 01       		.uleb128 0x1
 957 0042 13       		.uleb128 0x13
 958 0043 00       		.byte	0
 959 0044 00       		.byte	0
 960 0045 06       		.uleb128 0x6
 961 0046 0D       		.uleb128 0xd
 962 0047 00       		.byte	0
 963 0048 03       		.uleb128 0x3
 964 0049 0E       		.uleb128 0xe
 965 004a 3A       		.uleb128 0x3a
 966 004b 0B       		.uleb128 0xb
 967 004c 3B       		.uleb128 0x3b
 968 004d 0B       		.uleb128 0xb
 969 004e 49       		.uleb128 0x49
 970 004f 13       		.uleb128 0x13
 971 0050 38       		.uleb128 0x38
 972 0051 0B       		.uleb128 0xb
 973 0052 00       		.byte	0
 974 0053 00       		.byte	0
 975 0054 07       		.uleb128 0x7
 976 0055 0D       		.uleb128 0xd
 977 0056 00       		.byte	0
 978 0057 03       		.uleb128 0x3
 979 0058 08       		.uleb128 0x8
 980 0059 3A       		.uleb128 0x3a
 981 005a 0B       		.uleb128 0xb
 982 005b 3B       		.uleb128 0x3b
GAS LISTING /tmp/cc08teOy.s 			page 21


 983 005c 0B       		.uleb128 0xb
 984 005d 49       		.uleb128 0x49
 985 005e 13       		.uleb128 0x13
 986 005f 38       		.uleb128 0x38
 987 0060 0B       		.uleb128 0xb
 988 0061 00       		.byte	0
 989 0062 00       		.byte	0
 990 0063 08       		.uleb128 0x8
 991 0064 13       		.uleb128 0x13
 992 0065 01       		.byte	0x1
 993 0066 0B       		.uleb128 0xb
 994 0067 0B       		.uleb128 0xb
 995 0068 3A       		.uleb128 0x3a
 996 0069 0B       		.uleb128 0xb
 997 006a 3B       		.uleb128 0x3b
 998 006b 0B       		.uleb128 0xb
 999 006c 01       		.uleb128 0x1
 1000 006d 13       		.uleb128 0x13
 1001 006e 00       		.byte	0
 1002 006f 00       		.byte	0
 1003 0070 09       		.uleb128 0x9
 1004 0071 0F       		.uleb128 0xf
 1005 0072 00       		.byte	0
 1006 0073 0B       		.uleb128 0xb
 1007 0074 0B       		.uleb128 0xb
 1008 0075 49       		.uleb128 0x49
 1009 0076 13       		.uleb128 0x13
 1010 0077 00       		.byte	0
 1011 0078 00       		.byte	0
 1012 0079 0A       		.uleb128 0xa
 1013 007a 0F       		.uleb128 0xf
 1014 007b 00       		.byte	0
 1015 007c 0B       		.uleb128 0xb
 1016 007d 0B       		.uleb128 0xb
 1017 007e 00       		.byte	0
 1018 007f 00       		.byte	0
 1019 0080 0B       		.uleb128 0xb
 1020 0081 35       		.uleb128 0x35
 1021 0082 00       		.byte	0
 1022 0083 49       		.uleb128 0x49
 1023 0084 13       		.uleb128 0x13
 1024 0085 00       		.byte	0
 1025 0086 00       		.byte	0
 1026 0087 0C       		.uleb128 0xc
 1027 0088 17       		.uleb128 0x17
 1028 0089 01       		.byte	0x1
 1029 008a 0B       		.uleb128 0xb
 1030 008b 0B       		.uleb128 0xb
 1031 008c 3A       		.uleb128 0x3a
 1032 008d 0B       		.uleb128 0xb
 1033 008e 3B       		.uleb128 0x3b
 1034 008f 0B       		.uleb128 0xb
 1035 0090 01       		.uleb128 0x1
 1036 0091 13       		.uleb128 0x13
 1037 0092 00       		.byte	0
 1038 0093 00       		.byte	0
 1039 0094 0D       		.uleb128 0xd
GAS LISTING /tmp/cc08teOy.s 			page 22


 1040 0095 0D       		.uleb128 0xd
 1041 0096 00       		.byte	0
 1042 0097 03       		.uleb128 0x3
 1043 0098 0E       		.uleb128 0xe
 1044 0099 3A       		.uleb128 0x3a
 1045 009a 0B       		.uleb128 0xb
 1046 009b 3B       		.uleb128 0x3b
 1047 009c 0B       		.uleb128 0xb
 1048 009d 49       		.uleb128 0x49
 1049 009e 13       		.uleb128 0x13
 1050 009f 00       		.byte	0
 1051 00a0 00       		.byte	0
 1052 00a1 0E       		.uleb128 0xe
 1053 00a2 26       		.uleb128 0x26
 1054 00a3 00       		.byte	0
 1055 00a4 49       		.uleb128 0x49
 1056 00a5 13       		.uleb128 0x13
 1057 00a6 00       		.byte	0
 1058 00a7 00       		.byte	0
 1059 00a8 0F       		.uleb128 0xf
 1060 00a9 01       		.uleb128 0x1
 1061 00aa 01       		.byte	0x1
 1062 00ab 49       		.uleb128 0x49
 1063 00ac 13       		.uleb128 0x13
 1064 00ad 01       		.uleb128 0x1
 1065 00ae 13       		.uleb128 0x13
 1066 00af 00       		.byte	0
 1067 00b0 00       		.byte	0
 1068 00b1 10       		.uleb128 0x10
 1069 00b2 21       		.uleb128 0x21
 1070 00b3 00       		.byte	0
 1071 00b4 49       		.uleb128 0x49
 1072 00b5 13       		.uleb128 0x13
 1073 00b6 2F       		.uleb128 0x2f
 1074 00b7 0B       		.uleb128 0xb
 1075 00b8 00       		.byte	0
 1076 00b9 00       		.byte	0
 1077 00ba 11       		.uleb128 0x11
 1078 00bb 2E       		.uleb128 0x2e
 1079 00bc 01       		.byte	0x1
 1080 00bd 3F       		.uleb128 0x3f
 1081 00be 19       		.uleb128 0x19
 1082 00bf 03       		.uleb128 0x3
 1083 00c0 0E       		.uleb128 0xe
 1084 00c1 3A       		.uleb128 0x3a
 1085 00c2 0B       		.uleb128 0xb
 1086 00c3 3B       		.uleb128 0x3b
 1087 00c4 0B       		.uleb128 0xb
 1088 00c5 27       		.uleb128 0x27
 1089 00c6 19       		.uleb128 0x19
 1090 00c7 49       		.uleb128 0x49
 1091 00c8 13       		.uleb128 0x13
 1092 00c9 11       		.uleb128 0x11
 1093 00ca 01       		.uleb128 0x1
 1094 00cb 12       		.uleb128 0x12
 1095 00cc 06       		.uleb128 0x6
 1096 00cd 40       		.uleb128 0x40
GAS LISTING /tmp/cc08teOy.s 			page 23


 1097 00ce 18       		.uleb128 0x18
 1098 00cf 9742     		.uleb128 0x2117
 1099 00d1 19       		.uleb128 0x19
 1100 00d2 01       		.uleb128 0x1
 1101 00d3 13       		.uleb128 0x13
 1102 00d4 00       		.byte	0
 1103 00d5 00       		.byte	0
 1104 00d6 12       		.uleb128 0x12
 1105 00d7 34       		.uleb128 0x34
 1106 00d8 00       		.byte	0
 1107 00d9 03       		.uleb128 0x3
 1108 00da 08       		.uleb128 0x8
 1109 00db 3A       		.uleb128 0x3a
 1110 00dc 0B       		.uleb128 0xb
 1111 00dd 3B       		.uleb128 0x3b
 1112 00de 0B       		.uleb128 0xb
 1113 00df 49       		.uleb128 0x49
 1114 00e0 13       		.uleb128 0x13
 1115 00e1 02       		.uleb128 0x2
 1116 00e2 18       		.uleb128 0x18
 1117 00e3 00       		.byte	0
 1118 00e4 00       		.byte	0
 1119 00e5 13       		.uleb128 0x13
 1120 00e6 05       		.uleb128 0x5
 1121 00e7 00       		.byte	0
 1122 00e8 03       		.uleb128 0x3
 1123 00e9 08       		.uleb128 0x8
 1124 00ea 3A       		.uleb128 0x3a
 1125 00eb 0B       		.uleb128 0xb
 1126 00ec 3B       		.uleb128 0x3b
 1127 00ed 0B       		.uleb128 0xb
 1128 00ee 49       		.uleb128 0x49
 1129 00ef 13       		.uleb128 0x13
 1130 00f0 02       		.uleb128 0x2
 1131 00f1 18       		.uleb128 0x18
 1132 00f2 00       		.byte	0
 1133 00f3 00       		.byte	0
 1134 00f4 14       		.uleb128 0x14
 1135 00f5 34       		.uleb128 0x34
 1136 00f6 00       		.byte	0
 1137 00f7 03       		.uleb128 0x3
 1138 00f8 08       		.uleb128 0x8
 1139 00f9 3A       		.uleb128 0x3a
 1140 00fa 0B       		.uleb128 0xb
 1141 00fb 3B       		.uleb128 0x3b
 1142 00fc 0B       		.uleb128 0xb
 1143 00fd 49       		.uleb128 0x49
 1144 00fe 13       		.uleb128 0x13
 1145 00ff 02       		.uleb128 0x2
 1146 0100 17       		.uleb128 0x17
 1147 0101 00       		.byte	0
 1148 0102 00       		.byte	0
 1149 0103 15       		.uleb128 0x15
 1150 0104 898201   		.uleb128 0x4109
 1151 0107 01       		.byte	0x1
 1152 0108 11       		.uleb128 0x11
 1153 0109 01       		.uleb128 0x1
GAS LISTING /tmp/cc08teOy.s 			page 24


 1154 010a 31       		.uleb128 0x31
 1155 010b 13       		.uleb128 0x13
 1156 010c 00       		.byte	0
 1157 010d 00       		.byte	0
 1158 010e 16       		.uleb128 0x16
 1159 010f 8A8201   		.uleb128 0x410a
 1160 0112 00       		.byte	0
 1161 0113 02       		.uleb128 0x2
 1162 0114 18       		.uleb128 0x18
 1163 0115 9142     		.uleb128 0x2111
 1164 0117 18       		.uleb128 0x18
 1165 0118 00       		.byte	0
 1166 0119 00       		.byte	0
 1167 011a 17       		.uleb128 0x17
 1168 011b 34       		.uleb128 0x34
 1169 011c 00       		.byte	0
 1170 011d 03       		.uleb128 0x3
 1171 011e 0E       		.uleb128 0xe
 1172 011f 3A       		.uleb128 0x3a
 1173 0120 0B       		.uleb128 0xb
 1174 0121 3B       		.uleb128 0x3b
 1175 0122 0B       		.uleb128 0xb
 1176 0123 49       		.uleb128 0x49
 1177 0124 13       		.uleb128 0x13
 1178 0125 3F       		.uleb128 0x3f
 1179 0126 19       		.uleb128 0x19
 1180 0127 3C       		.uleb128 0x3c
 1181 0128 19       		.uleb128 0x19
 1182 0129 00       		.byte	0
 1183 012a 00       		.byte	0
 1184 012b 18       		.uleb128 0x18
 1185 012c 34       		.uleb128 0x34
 1186 012d 00       		.byte	0
 1187 012e 03       		.uleb128 0x3
 1188 012f 0E       		.uleb128 0xe
 1189 0130 3A       		.uleb128 0x3a
 1190 0131 0B       		.uleb128 0xb
 1191 0132 3B       		.uleb128 0x3b
 1192 0133 0B       		.uleb128 0xb
 1193 0134 49       		.uleb128 0x49
 1194 0135 13       		.uleb128 0x13
 1195 0136 3F       		.uleb128 0x3f
 1196 0137 19       		.uleb128 0x19
 1197 0138 02       		.uleb128 0x2
 1198 0139 18       		.uleb128 0x18
 1199 013a 00       		.byte	0
 1200 013b 00       		.byte	0
 1201 013c 19       		.uleb128 0x19
 1202 013d 2E       		.uleb128 0x2e
 1203 013e 01       		.byte	0x1
 1204 013f 3F       		.uleb128 0x3f
 1205 0140 19       		.uleb128 0x19
 1206 0141 03       		.uleb128 0x3
 1207 0142 0E       		.uleb128 0xe
 1208 0143 3A       		.uleb128 0x3a
 1209 0144 0B       		.uleb128 0xb
 1210 0145 3B       		.uleb128 0x3b
GAS LISTING /tmp/cc08teOy.s 			page 25


 1211 0146 0B       		.uleb128 0xb
 1212 0147 27       		.uleb128 0x27
 1213 0148 19       		.uleb128 0x19
 1214 0149 3C       		.uleb128 0x3c
 1215 014a 19       		.uleb128 0x19
 1216 014b 00       		.byte	0
 1217 014c 00       		.byte	0
 1218 014d 1A       		.uleb128 0x1a
 1219 014e 05       		.uleb128 0x5
 1220 014f 00       		.byte	0
 1221 0150 49       		.uleb128 0x49
 1222 0151 13       		.uleb128 0x13
 1223 0152 00       		.byte	0
 1224 0153 00       		.byte	0
 1225 0154 00       		.byte	0
 1226              		.section	.debug_loc,"",@progbits
 1227              	.Ldebug_loc0:
 1228              	.LLST0:
 1229 0000 1C000000 		.long	.LVL2-.Ltext0
 1230 0004 37000000 		.long	.LVL5-.Ltext0
 1231 0008 0100     		.value	0x1
 1232 000a 53       		.byte	0x53
 1233 000b 37000000 		.long	.LVL5-.Ltext0
 1234 000f 38000000 		.long	.LVL6-.Ltext0
 1235 0013 0100     		.value	0x1
 1236 0015 50       		.byte	0x50
 1237 0016 38000000 		.long	.LVL6-.Ltext0
 1238 001a 3A000000 		.long	.LVL7-.Ltext0
 1239 001e 0100     		.value	0x1
 1240 0020 53       		.byte	0x53
 1241 0021 3A000000 		.long	.LVL7-.Ltext0
 1242 0025 3C000000 		.long	.LFE8-.Ltext0
 1243 0029 0200     		.value	0x2
 1244 002b 70       		.byte	0x70
 1245 002c 10       		.sleb128 16
 1246 002d 00000000 		.long	0
 1247 0031 00000000 		.long	0
 1248              		.section	.debug_aranges,"",@progbits
 1249 0000 1C000000 		.long	0x1c
 1250 0004 0200     		.value	0x2
 1251 0006 00000000 		.long	.Ldebug_info0
 1252 000a 04       		.byte	0x4
 1253 000b 00       		.byte	0
 1254 000c 0000     		.value	0
 1255 000e 0000     		.value	0
 1256 0010 00000000 		.long	.Ltext0
 1257 0014 3C000000 		.long	.Letext0-.Ltext0
 1258 0018 00000000 		.long	0
 1259 001c 00000000 		.long	0
 1260              		.section	.debug_line,"",@progbits
 1261              	.Ldebug_line0:
 1262 0000 56010000 		.section	.debug_str,"MS",@progbits,1
 1262      02002D01 
 1262      00000101 
 1262      FB0E0D00 
 1262      01010101 
 1263              	.LASF74:
GAS LISTING /tmp/cc08teOy.s 			page 26


 1264 0000 63665F6F 		.string	"cf_off_older"
 1264      66665F6F 
 1264      6C646572 
 1264      00
 1265              	.LASF37:
 1266 000d 705F6D73 		.string	"p_msg"
 1266      6700
 1267              	.LASF58:
 1268 0013 6D5F6E65 		.string	"m_next"
 1268      787400
 1269              	.LASF4:
 1270 001a 73697A65 		.string	"size_t"
 1270      5F7400
 1271              	.LASF59:
 1272 0021 7264796D 		.string	"rdymsg"
 1272      736700
 1273              	.LASF12:
 1274 0028 6C6F6E67 		.string	"long long unsigned int"
 1274      206C6F6E 
 1274      6720756E 
 1274      7369676E 
 1274      65642069 
 1275              	.LASF70:
 1276 003f 63685F74 		.string	"ch_threadsize"
 1276      68726561 
 1276      6473697A 
 1276      6500
 1277              	.LASF60:
 1278 004d 65786974 		.string	"exitcode"
 1278      636F6465 
 1278      00
 1279              	.LASF83:
 1280 0056 63685265 		.string	"chRegFirstThread"
 1280      67466972 
 1280      73745468 
 1280      72656164 
 1280      00
 1281              	.LASF25:
 1282 0067 705F7072 		.string	"p_prio"
 1282      696F00
 1283              	.LASF77:
 1284 006e 63665F6F 		.string	"cf_off_state"
 1284      66665F73 
 1284      74617465 
 1284      00
 1285              	.LASF6:
 1286 007b 6C6F6E67 		.string	"long long int"
 1286      206C6F6E 
 1286      6720696E 
 1286      7400
 1287              	.LASF2:
 1288 0089 7369676E 		.string	"signed char"
 1288      65642063 
 1288      68617200 
 1289              	.LASF78:
 1290 0095 63665F6F 		.string	"cf_off_flags"
 1290      66665F66 
GAS LISTING /tmp/cc08teOy.s 			page 27


 1290      6C616773 
 1290      00
 1291              	.LASF41:
 1292 00a2 705F6D70 		.string	"p_mpool"
 1292      6F6F6C00 
 1293              	.LASF56:
 1294 00aa 6D5F7175 		.string	"m_queue"
 1294      65756500 
 1295              	.LASF89:
 1296 00b2 2F686F6D 		.string	"/home/tony/ChibiOS-RT/testhal/Posix/EXT"
 1296      652F746F 
 1296      6E792F43 
 1296      68696269 
 1296      4F532D52 
 1297              	.LASF17:
 1298 00da 74736C69 		.string	"tslices_t"
 1298      6365735F 
 1298      7400
 1299              	.LASF1:
 1300 00e4 6C6F6E67 		.string	"long int"
 1300      20696E74 
 1300      00
 1301              	.LASF15:
 1302 00ed 74737461 		.string	"tstate_t"
 1302      74655F74 
 1302      00
 1303              	.LASF9:
 1304 00f6 75696E74 		.string	"uint16_t"
 1304      31365F74 
 1304      00
 1305              	.LASF82:
 1306 00ff 63686465 		.string	"chdebug_t"
 1306      6275675F 
 1306      7400
 1307              	.LASF27:
 1308 0109 705F6E65 		.string	"p_newer"
 1308      77657200 
 1309              	.LASF76:
 1310 0111 63665F6F 		.string	"cf_off_stklimit"
 1310      66665F73 
 1310      746B6C69 
 1310      6D697400 
 1311              	.LASF51:
 1312 0121 725F6E65 		.string	"r_newer"
 1312      77657200 
 1313              	.LASF0:
 1314 0129 756E7369 		.string	"unsigned int"
 1314      676E6564 
 1314      20696E74 
 1314      00
 1315              	.LASF36:
 1316 0136 705F6D73 		.string	"p_msgqueue"
 1316      67717565 
 1316      756500
 1317              	.LASF86:
 1318 0141 63685F64 		.string	"ch_debug"
 1318      65627567 
GAS LISTING /tmp/cc08teOy.s 			page 28


 1318      00
 1319              	.LASF64:
 1320 014a 63685F69 		.string	"ch_identifier"
 1320      64656E74 
 1320      69666965 
 1320      7200
 1321              	.LASF47:
 1322 0158 636F6E74 		.string	"context"
 1322      65787400 
 1323              	.LASF10:
 1324 0160 73686F72 		.string	"short unsigned int"
 1324      7420756E 
 1324      7369676E 
 1324      65642069 
 1324      6E7400
 1325              	.LASF19:
 1326 0173 6D73675F 		.string	"msg_t"
 1326      7400
 1327              	.LASF14:
 1328 0179 746D6F64 		.string	"tmode_t"
 1328      655F7400 
 1329              	.LASF43:
 1330 0181 54687265 		.string	"ThreadsList"
 1330      6164734C 
 1330      69737400 
 1331              	.LASF20:
 1332 018d 6576656E 		.string	"eventmask_t"
 1332      746D6173 
 1332      6B5F7400 
 1333              	.LASF55:
 1334 0199 4D757465 		.string	"Mutex"
 1334      7800
 1335              	.LASF88:
 1336 019f 2E2E2F2E 		.string	"../../../os/kernel/src/chregistry.c"
 1336      2E2F2E2E 
 1336      2F6F732F 
 1336      6B65726E 
 1336      656C2F73 
 1337              	.LASF65:
 1338 01c3 63685F7A 		.string	"ch_zero"
 1338      65726F00 
 1339              	.LASF79:
 1340 01cb 63665F6F 		.string	"cf_off_refs"
 1340      66665F72 
 1340      65667300 
 1341              	.LASF44:
 1342 01d7 73697A65 		.string	"sizetype"
 1342      74797065 
 1342      00
 1343              	.LASF69:
 1344 01e0 63685F74 		.string	"ch_timesize"
 1344      696D6573 
 1344      697A6500 
 1345              	.LASF75:
 1346 01ec 63665F6F 		.string	"cf_off_name"
 1346      66665F6E 
 1346      616D6500 
GAS LISTING /tmp/cc08teOy.s 			page 29


 1347              	.LASF28:
 1348 01f8 705F6F6C 		.string	"p_older"
 1348      64657200 
 1349              	.LASF50:
 1350 0200 725F6374 		.string	"r_ctx"
 1350      7800
 1351              	.LASF42:
 1352 0206 54687265 		.string	"ThreadsQueue"
 1352      61647351 
 1352      75657565 
 1352      00
 1353              	.LASF66:
 1354 0213 63685F73 		.string	"ch_size"
 1354      697A6500 
 1355              	.LASF53:
 1356 021b 725F6375 		.string	"r_current"
 1356      7272656E 
 1356      7400
 1357              	.LASF52:
 1358 0225 725F6F6C 		.string	"r_older"
 1358      64657200 
 1359              	.LASF16:
 1360 022d 74726566 		.string	"trefs_t"
 1360      735F7400 
 1361              	.LASF68:
 1362 0235 63685F70 		.string	"ch_ptrsize"
 1362      74727369 
 1362      7A6500
 1363              	.LASF24:
 1364 0240 705F7072 		.string	"p_prev"
 1364      657600
 1365              	.LASF18:
 1366 0247 74707269 		.string	"tprio_t"
 1366      6F5F7400 
 1367              	.LASF13:
 1368 024f 5F426F6F 		.string	"_Bool"
 1368      6C00
 1369              	.LASF5:
 1370 0255 696E7433 		.string	"int32_t"
 1370      325F7400 
 1371              	.LASF8:
 1372 025d 756E7369 		.string	"unsigned char"
 1372      676E6564 
 1372      20636861 
 1372      7200
 1373              	.LASF87:
 1374 026b 474E5520 		.string	"GNU C 4.8.2 -m32 -mtune=generic -march=i686 -ggdb -O2 -fomit-frame-pointer -fstack-protec
 1374      4320342E 
 1374      382E3220 
 1374      2D6D3332 
 1374      202D6D74 
 1375              	.LASF39:
 1376 02c8 705F6D74 		.string	"p_mtxlist"
 1376      786C6973 
 1376      7400
 1377              	.LASF3:
 1378 02d2 73686F72 		.string	"short int"
GAS LISTING /tmp/cc08teOy.s 			page 30


 1378      7420696E 
 1378      7400
 1379              	.LASF30:
 1380 02dc 705F7374 		.string	"p_state"
 1380      61746500 
 1381              	.LASF33:
 1382 02e4 705F7072 		.string	"p_preempt"
 1382      65656D70 
 1382      7400
 1383              	.LASF81:
 1384 02ee 63665F6F 		.string	"cf_off_time"
 1384      66665F74 
 1384      696D6500 
 1385              	.LASF49:
 1386 02fa 725F7072 		.string	"r_prio"
 1386      696F00
 1387              	.LASF62:
 1388 0301 65776D61 		.string	"ewmask"
 1388      736B00
 1389              	.LASF23:
 1390 0308 705F6E65 		.string	"p_next"
 1390      787400
 1391              	.LASF80:
 1392 030f 63665F6F 		.string	"cf_off_preempt"
 1392      66665F70 
 1392      7265656D 
 1392      707400
 1393              	.LASF31:
 1394 031e 705F666C 		.string	"p_flags"
 1394      61677300 
 1395              	.LASF90:
 1396 0326 63685468 		.string	"chThdRelease"
 1396      6452656C 
 1396      65617365 
 1396      00
 1397              	.LASF22:
 1398 0333 54687265 		.string	"Thread"
 1398      616400
 1399              	.LASF73:
 1400 033a 63665F6F 		.string	"cf_off_newer"
 1400      66665F6E 
 1400      65776572 
 1400      00
 1401              	.LASF38:
 1402 0347 705F6570 		.string	"p_epending"
 1402      656E6469 
 1402      6E6700
 1403              	.LASF11:
 1404 0352 75696E74 		.string	"uint32_t"
 1404      33325F74 
 1404      00
 1405              	.LASF71:
 1406 035b 63665F6F 		.string	"cf_off_prio"
 1406      66665F70 
 1406      72696F00 
 1407              	.LASF48:
 1408 0367 725F7175 		.string	"r_queue"
GAS LISTING /tmp/cc08teOy.s 			page 31


 1408      65756500 
 1409              	.LASF63:
 1410 036f 63686172 		.string	"char"
 1410      00
 1411              	.LASF84:
 1412 0374 63685265 		.string	"chRegNextThread"
 1412      674E6578 
 1412      74546872 
 1412      65616400 
 1413              	.LASF21:
 1414 0384 73797374 		.string	"systime_t"
 1414      696D655F 
 1414      7400
 1415              	.LASF40:
 1416 038e 705F7265 		.string	"p_realprio"
 1416      616C7072 
 1416      696F00
 1417              	.LASF34:
 1418 0399 705F7469 		.string	"p_time"
 1418      6D6500
 1419              	.LASF46:
 1420 03a0 696E7463 		.string	"intctx"
 1420      747800
 1421              	.LASF72:
 1422 03a7 63665F6F 		.string	"cf_off_ctx"
 1422      66665F63 
 1422      747800
 1423              	.LASF32:
 1424 03b2 705F7265 		.string	"p_refs"
 1424      667300
 1425              	.LASF54:
 1426 03b9 52656164 		.string	"ReadyList"
 1426      794C6973 
 1426      7400
 1427              	.LASF85:
 1428 03c3 726C6973 		.string	"rlist"
 1428      7400
 1429              	.LASF7:
 1430 03c9 75696E74 		.string	"uint8_t"
 1430      385F7400 
 1431              	.LASF61:
 1432 03d1 77746F62 		.string	"wtobjp"
 1432      6A7000
 1433              	.LASF29:
 1434 03d8 705F6E61 		.string	"p_name"
 1434      6D6500
 1435              	.LASF67:
 1436 03df 63685F76 		.string	"ch_version"
 1436      65727369 
 1436      6F6E00
 1437              	.LASF45:
 1438 03ea 72656778 		.string	"regx86"
 1438      383600
 1439              	.LASF57:
 1440 03f1 6D5F6F77 		.string	"m_owner"
 1440      6E657200 
 1441              	.LASF26:
GAS LISTING /tmp/cc08teOy.s 			page 32


 1442 03f9 705F6374 		.string	"p_ctx"
 1442      7800
 1443              	.LASF35:
 1444 03ff 705F7761 		.string	"p_waiting"
 1444      6974696E 
 1444      6700
 1445              		.ident	"GCC: (Ubuntu 4.8.2-19ubuntu1) 4.8.2"
 1446              		.section	.note.GNU-stack,"",@progbits
GAS LISTING /tmp/cc08teOy.s 			page 33


DEFINED SYMBOLS
                            *ABS*:0000000000000000 chregistry.c
     /tmp/cc08teOy.s:61     .text:0000000000000000 chRegFirstThread
     /tmp/cc08teOy.s:91     .text:0000000000000010 chRegNextThread
     /tmp/cc08teOy.s:156    .rodata:0000000000000000 ch_debug

UNDEFINED SYMBOLS
rlist
chThdRelease
