GAS LISTING /tmp/ccHS4Eks.s 			page 1


   1              		.file	"chschd.c"
   2              	# GNU C (Ubuntu 4.8.2-19ubuntu1) version 4.8.2 (x86_64-linux-gnu)
   3              	#	compiled by GNU C version 4.8.2, GMP version 5.1.3, MPFR version 3.1.2-p3, MPC version 1.0.1
   4              	# GGC heuristics: --param ggc-min-expand=97 --param ggc-min-heapsize=126309
   5              	# options passed:  -I . -I ../../../os/ports/GCC/SIMIA32
   6              	# -I ../../../os/kernel/include -I ../../../test -I ../../../os/hal/include
   7              	# -I ../../../os/hal/platforms/Posix -I ../../../boards/simulator
   8              	# -I ../../../os/various -imultilib 32 -imultiarch i386-linux-gnu
   9              	# -MD ../../../os/kernel/src/chschd.d -MF .dep/chschd.o.d -MP
  10              	# -MQ ../../../os/kernel/src/chschd.o -D SIMULATOR
  11              	# -D SHELL_USE_IPRINTF=FALSE ../../../os/kernel/src/chschd.c -m32
  12              	# -mtune=generic -march=i686 -auxbase-strip ../../../os/kernel/src/chschd.o
  13              	# -ggdb -O2 -Wall -Wextra -Wstrict-prototypes -fomit-frame-pointer
  14              	# -fverbose-asm -fstack-protector -Wformat -Wformat-security
  15              	# options enabled:  -faggressive-loop-optimizations
  16              	# -fasynchronous-unwind-tables -fauto-inc-dec -fbranch-count-reg
  17              	# -fcaller-saves -fcombine-stack-adjustments -fcommon -fcompare-elim
  18              	# -fcprop-registers -fcrossjumping -fcse-follow-jumps -fdefer-pop
  19              	# -fdelete-null-pointer-checks -fdevirtualize -fdwarf2-cfi-asm
  20              	# -fearly-inlining -feliminate-unused-debug-types -fexpensive-optimizations
  21              	# -fforward-propagate -ffunction-cse -fgcse -fgcse-lm -fgnu-runtime
  22              	# -fguess-branch-probability -fhoist-adjacent-loads -fident -fif-conversion
  23              	# -fif-conversion2 -findirect-inlining -finline -finline-atomics
  24              	# -finline-functions-called-once -finline-small-functions -fipa-cp
  25              	# -fipa-profile -fipa-pure-const -fipa-reference -fipa-sra
  26              	# -fira-hoist-pressure -fira-share-save-slots -fira-share-spill-slots
  27              	# -fivopts -fkeep-static-consts -fleading-underscore -fmath-errno
  28              	# -fmerge-constants -fmerge-debug-strings -fmove-loop-invariants
  29              	# -fomit-frame-pointer -foptimize-register-move -foptimize-sibling-calls
  30              	# -foptimize-strlen -fpartial-inlining -fpcc-struct-return -fpeephole
  31              	# -fpeephole2 -fprefetch-loop-arrays -free -fregmove -freorder-blocks
  32              	# -freorder-functions -frerun-cse-after-loop
  33              	# -fsched-critical-path-heuristic -fsched-dep-count-heuristic
  34              	# -fsched-group-heuristic -fsched-interblock -fsched-last-insn-heuristic
  35              	# -fsched-rank-heuristic -fsched-spec -fsched-spec-insn-heuristic
  36              	# -fsched-stalled-insns-dep -fschedule-insns2 -fshow-column -fshrink-wrap
  37              	# -fsigned-zeros -fsplit-ivs-in-unroller -fsplit-wide-types
  38              	# -fstack-protector -fstrict-aliasing -fstrict-overflow
  39              	# -fstrict-volatile-bitfields -fsync-libcalls -fthread-jumps
  40              	# -ftoplevel-reorder -ftrapping-math -ftree-bit-ccp -ftree-builtin-call-dce
  41              	# -ftree-ccp -ftree-ch -ftree-coalesce-vars -ftree-copy-prop
  42              	# -ftree-copyrename -ftree-cselim -ftree-dce -ftree-dominator-opts
  43              	# -ftree-dse -ftree-forwprop -ftree-fre -ftree-loop-if-convert
  44              	# -ftree-loop-im -ftree-loop-ivcanon -ftree-loop-optimize
  45              	# -ftree-parallelize-loops= -ftree-phiprop -ftree-pre -ftree-pta
  46              	# -ftree-reassoc -ftree-scev-cprop -ftree-sink -ftree-slp-vectorize
  47              	# -ftree-slsr -ftree-sra -ftree-switch-conversion -ftree-tail-merge
  48              	# -ftree-ter -ftree-vect-loop-version -ftree-vrp -funit-at-a-time
  49              	# -funwind-tables -fvar-tracking -fvar-tracking-assignments -fverbose-asm
  50              	# -fzero-initialized-in-bss -m32 -m80387 -m96bit-long-double
  51              	# -maccumulate-outgoing-args -malign-stringops -mfancy-math-387
  52              	# -mfp-ret-in-387 -mglibc -mieee-fp -mlong-double-80 -mno-red-zone
  53              	# -mno-sse4 -mpush-args -msahf -mtls-direct-seg-refs
  54              	
  55              		.text
  56              	.Ltext0:
  57              		.p2align 4,,15
GAS LISTING /tmp/ccHS4Eks.s 			page 2


  58              		.type	wakeup, @function
  59              	wakeup:
  60              	.LFB10:
  61              		.file 1 "../../../os/kernel/src/chschd.c"
  62              		.loc 1 136 0
  63              		.cfi_startproc
  64              	.LVL0:
  65              		.loc 1 136 0
  66 0000 8B4C2404 		movl	4(%esp), %ecx	# p, p
  67              	.LVL1:
  68              		.loc 1 140 0
  69 0004 0FB6411C 		movzbl	28(%ecx), %eax	# MEM[(struct Thread *)p_4(D)].p_state, D.2171
  70 0008 3C03     		cmpb	$3, %al	#, D.2171
  71 000a 7444     		je	.L3	#,
  72 000c 763A     		jbe	.L20	#,
  73 000e 3C05     		cmpb	$5, %al	#, D.2171
  74 0010 7445     		je	.L6	#,
  75 0012 3C0D     		cmpb	$13, %al	#, D.2171
  76              		.p2align 4,,7
  77 0014 7441     		je	.L6	#,
  78              		.p2align 4,,7
  79 0016 6690     		.p2align 3
  80              	.L2:
  81 0018 8B5108   		movl	8(%ecx), %edx	# MEM[(struct Thread *)p_4(D)].p_prio, D.2176
  82              	.LBB19:
  83              	.LBB20:
  84              		.loc 1 93 0
  85 001b B8000000 		movl	$rlist, %eax	#, cp
  85      00
  86              	.LBE20:
  87              	.LBE19:
  88              		.loc 1 163 0
  89 0020 C74124FF 		movl	$-1, 36(%ecx)	#, MEM[(struct Thread *)p_4(D)].p_u.rdymsg
  89      FFFFFF
  90              	.LVL2:
  91              	.LBB22:
  92              	.LBB21:
  93              		.loc 1 92 0
  94 0027 C6411C00 		movb	$0, 28(%ecx)	#, MEM[(struct Thread *)p_4(D)].p_state
  95              	.LVL3:
  96 002b 908D7426 		.p2align 4,,7
  96      00
  97              		.p2align 3
  98              	.L8:
  99              		.loc 1 95 0
 100 0030 8B00     		movl	(%eax), %eax	# cp_17->p_next, cp
 101              	.LVL4:
 102              		.loc 1 96 0
 103 0032 395008   		cmpl	%edx, 8(%eax)	# D.2176, cp_18->p_prio
 104 0035 73F9     		jae	.L8	#,
 105              		.loc 1 99 0
 106 0037 8B5004   		movl	4(%eax), %edx	# cp_36->p_prev, D.2174
 107              		.loc 1 98 0
 108 003a 8901     		movl	%eax, (%ecx)	# cp, MEM[(struct Thread *)p_4(D)].p_next
 109              		.loc 1 99 0
 110 003c 895104   		movl	%edx, 4(%ecx)	# D.2174, MEM[(struct Thread *)p_4(D)].p_prev
 111              		.loc 1 100 0
GAS LISTING /tmp/ccHS4Eks.s 			page 3


 112 003f 894804   		movl	%ecx, 4(%eax)	# p, cp_36->p_prev
 113 0042 890A     		movl	%ecx, (%edx)	# p, _21->p_next
 114 0044 C3       		ret
 115              	.LVL5:
 116              		.p2align 4,,7
 117 0045 8D7600   		.p2align 3
 118              	.L20:
 119              	.LBE21:
 120              	.LBE22:
 121              		.loc 1 140 0
 122 0048 84C0     		testb	%al, %al	# D.2171
 123 004a 75CC     		jne	.L2	#,
 124 004c F3C3     		rep ret
 125 004e 6690     		.p2align 4,,7
 126              		.p2align 3
 127              	.L3:
 128              		.loc 1 150 0
 129 0050 8B4124   		movl	36(%ecx), %eax	# MEM[(struct Thread *)p_4(D)].p_u.wtobjp, D.2172
 130 0053 83400801 		addl	$1, 8(%eax)	#, MEM[(struct Semaphore *)_7].s_cnt
 131              	.L6:
 132              	.LVL6:
 133              	.LBB23:
 134              	.LBB24:
 135              		.file 2 "../../../os/kernel/include/chinline.h"
 136              		.loc 2 75 0
 137 0057 8B11     		movl	(%ecx), %edx	# MEM[(struct Thread *)p_4(D)].p_next, D.2174
 138 0059 8B4104   		movl	4(%ecx), %eax	# MEM[(struct Thread *)p_4(D)].p_prev, D.2174
 139 005c 8910     		movl	%edx, (%eax)	# D.2174, _14->p_next
 140              		.loc 2 76 0
 141 005e 8B11     		movl	(%ecx), %edx	# MEM[(struct Thread *)p_4(D)].p_next, MEM[(struct Thread *)p_4(D)].p_next
 142 0060 894204   		movl	%eax, 4(%edx)	# D.2174, _16->p_prev
 143 0063 EBB3     		jmp	.L2	#
 144              	.LBE24:
 145              	.LBE23:
 146              		.cfi_endproc
 147              	.LFE10:
 148              		.size	wakeup, .-wakeup
 149 0065 8D742600 		.p2align 4,,15
 149      8DBC2700 
 149      000000
 150              		.globl	_scheduler_init
 151              		.type	_scheduler_init, @function
 152              	_scheduler_init:
 153              	.LFB7:
 154              		.loc 1 55 0
 155              		.cfi_startproc
 156              		.loc 1 57 0
 157 0070 C7050400 		movl	$rlist, rlist+4	#, rlist.r_queue.p_prev
 157      00000000 
 157      0000
 158 007a C7050000 		movl	$rlist, rlist	#, rlist.r_queue.p_next
 158      00000000 
 158      0000
 159              		.loc 1 58 0
 160 0084 C7050800 		movl	$0, rlist+8	#, rlist.r_prio
 160      00000000 
 160      0000
GAS LISTING /tmp/ccHS4Eks.s 			page 4


 161              		.loc 1 60 0
 162 008e C7051400 		movl	$rlist, rlist+20	#, rlist.r_older
 162      00000000 
 162      0000
 163 0098 C7051000 		movl	$rlist, rlist+16	#, rlist.r_newer
 163      00000000 
 163      0000
 164 00a2 C3       		ret
 165              		.cfi_endproc
 166              	.LFE7:
 167              		.size	_scheduler_init, .-_scheduler_init
 168 00a3 8DB60000 		.p2align 4,,15
 168      00008DBC 
 168      27000000 
 168      00
 169              		.globl	chSchReadyI
 170              		.type	chSchReadyI, @function
 171              	chSchReadyI:
 172              	.LFB8:
 173              		.loc 1 81 0
 174              		.cfi_startproc
 175              	.LVL7:
 176              		.loc 1 81 0
 177 00b0 8B442404 		movl	4(%esp), %eax	# tp, tp
 178              		.loc 1 93 0
 179 00b4 BA000000 		movl	$rlist, %edx	#, cp
 179      00
 180 00b9 8B4808   		movl	8(%eax), %ecx	# tp_3(D)->p_prio, D.2184
 181              		.loc 1 92 0
 182 00bc C6401C00 		movb	$0, 28(%eax)	#, tp_3(D)->p_state
 183              	.LVL8:
 184              		.p2align 4,,7
 185              		.p2align 3
 186              	.L24:
 187              		.loc 1 95 0 discriminator 1
 188 00c0 8B12     		movl	(%edx), %edx	# cp_1->p_next, cp
 189              	.LVL9:
 190              		.loc 1 96 0 discriminator 1
 191 00c2 394A08   		cmpl	%ecx, 8(%edx)	# D.2184, cp_5->p_prio
 192 00c5 73F9     		jae	.L24	#,
 193              		.loc 1 99 0
 194 00c7 8B4A04   		movl	4(%edx), %ecx	# cp_16->p_prev, D.2183
 195              		.loc 1 98 0
 196 00ca 8910     		movl	%edx, (%eax)	# cp, tp_3(D)->p_next
 197              		.loc 1 99 0
 198 00cc 894804   		movl	%ecx, 4(%eax)	# D.2183, tp_3(D)->p_prev
 199              		.loc 1 100 0
 200 00cf 894204   		movl	%eax, 4(%edx)	# tp, cp_16->p_prev
 201 00d2 8901     		movl	%eax, (%ecx)	# tp, _9->p_next
 202              		.loc 1 102 0
 203 00d4 C3       		ret
 204              		.cfi_endproc
 205              	.LFE8:
 206              		.size	chSchReadyI, .-chSchReadyI
 207 00d5 8D742600 		.p2align 4,,15
 207      8DBC2700 
 207      000000
GAS LISTING /tmp/ccHS4Eks.s 			page 5


 208              		.globl	chSchGoSleepS
 209              		.type	chSchGoSleepS, @function
 210              	chSchGoSleepS:
 211              	.LFB9:
 212              		.loc 1 115 0
 213              		.cfi_startproc
 214              	.LVL10:
 215              		.loc 1 120 0
 216 00e0 8B442404 		movl	4(%esp), %eax	# newstate, newstate
 217 00e4 8B151800 		movl	rlist+24, %edx	# rlist.r_current, otp
 217      0000
 218              	.LVL11:
 219              	.LBB25:
 220              	.LBB26:
 221              		.loc 2 60 0
 222 00ea 8B0D0000 		movl	rlist, %ecx	# MEM[(struct ThreadsQueue *)&rlist].p_next, tp
 222      0000
 223              	.LBE26:
 224              	.LBE25:
 225              		.loc 1 120 0
 226 00f0 88421C   		movb	%al, 28(%edx)	# newstate, otp_2->p_state
 227              	.LBB30:
 228              	.LBB27:
 229              		.loc 2 62 0
 230 00f3 8B01     		movl	(%ecx), %eax	# tp_10->p_next, D.2187
 231              	.LBE27:
 232              	.LBE30:
 233              		.loc 1 124 0
 234 00f5 C6421F14 		movb	$20, 31(%edx)	#, otp_2->p_preempt
 235              	.LVL12:
 236              	.LBB31:
 237              	.LBB28:
 238              		.loc 2 62 0
 239 00f9 C7400400 		movl	$rlist, 4(%eax)	#, _11->p_prev
 239      000000
 240              	.LBE28:
 241              	.LBE31:
 242              		.loc 1 127 0
 243 0100 C6411C01 		movb	$1, 28(%ecx)	#, tp_10->p_state
 244              	.LBB32:
 245              	.LBB29:
 246              		.loc 2 62 0
 247 0104 A3000000 		movl	%eax, rlist	# D.2187, MEM[(struct ThreadsQueue *)&rlist].p_next
 247      00
 248              	.LBE29:
 249              	.LBE32:
 250              		.loc 1 126 0
 251 0109 890D1800 		movl	%ecx, rlist+24	# tp, rlist.r_current
 251      0000
 252              		.loc 1 128 0
 253 010f E9FCFFFF 		jmp	port_switch	#
 253      FF
 254              	.LVL13:
 255              		.cfi_endproc
 256              	.LFE9:
 257              		.size	chSchGoSleepS, .-chSchGoSleepS
 258 0114 8DB60000 		.p2align 4,,15
GAS LISTING /tmp/ccHS4Eks.s 			page 6


 258      00008DBF 
 258      00000000 
 259              		.globl	chSchGoSleepTimeoutS
 260              		.type	chSchGoSleepTimeoutS, @function
 261              	chSchGoSleepTimeoutS:
 262              	.LFB11:
 263              		.loc 1 189 0
 264              		.cfi_startproc
 265              	.LVL14:
 266 0120 56       		pushl	%esi	#
 267              		.cfi_def_cfa_offset 8
 268              		.cfi_offset 6, -8
 269 0121 53       		pushl	%ebx	#
 270              		.cfi_def_cfa_offset 12
 271              		.cfi_offset 3, -12
 272 0122 83EC34   		subl	$52, %esp	#,
 273              		.cfi_def_cfa_offset 64
 274              		.loc 1 189 0
 275 0125 8B442444 		movl	68(%esp), %eax	# time, time
 276 0129 8B742440 		movl	64(%esp), %esi	# newstate, newstate
 277              		.loc 1 193 0
 278 012d 83F8FF   		cmpl	$-1, %eax	#, time
 279 0130 744E     		je	.L27	#,
 280              	.LBB33:
 281              		.loc 1 196 0
 282 0132 8B151800 		movl	rlist+24, %edx	# rlist.r_current, rlist.r_current
 282      0000
 283 0138 8D5C241C 		leal	28(%esp), %ebx	#, tmp71
 284 013c 89442404 		movl	%eax, 4(%esp)	# time,
 285 0140 C7442408 		movl	$wakeup, 8(%esp)	#,
 285      00000000 
 286 0148 891C24   		movl	%ebx, (%esp)	# tmp71,
 287 014b 8954240C 		movl	%edx, 12(%esp)	# rlist.r_current,
 288 014f E8FCFFFF 		call	chVTSetI	#
 288      FF
 289              	.LVL15:
 290              		.loc 1 197 0
 291 0154 89F0     		movl	%esi, %eax	# newstate, tmp78
 292 0156 0FB6F0   		movzbl	%al, %esi	# tmp78, newstate
 293 0159 893424   		movl	%esi, (%esp)	# newstate,
 294 015c E8FCFFFF 		call	chSchGoSleepS	#
 294      FF
 295              	.LVL16:
 296              		.loc 1 198 0
 297 0161 8B442428 		movl	40(%esp), %eax	# vt.vt_func,
 298 0165 85C0     		testl	%eax, %eax	#
 299 0167 7408     		je	.L29	#,
 300              		.loc 1 199 0
 301 0169 891C24   		movl	%ebx, (%esp)	# tmp71,
 302 016c E8FCFFFF 		call	chVTResetI	#
 302      FF
 303              	.LVL17:
 304              	.L29:
 305              	.LBE33:
 306              		.loc 1 203 0
 307 0171 A1180000 		movl	rlist+24, %eax	# rlist.r_current, rlist.r_current
 307      00
GAS LISTING /tmp/ccHS4Eks.s 			page 7


 308 0176 8B4024   		movl	36(%eax), %eax	# _15->p_u.rdymsg, _15->p_u.rdymsg
 309              		.loc 1 204 0
 310 0179 83C434   		addl	$52, %esp	#,
 311              		.cfi_remember_state
 312              		.cfi_def_cfa_offset 12
 313 017c 5B       		popl	%ebx	#
 314              		.cfi_restore 3
 315              		.cfi_def_cfa_offset 8
 316 017d 5E       		popl	%esi	#
 317              		.cfi_restore 6
 318              		.cfi_def_cfa_offset 4
 319 017e C3       		ret
 320 017f 90       		.p2align 4,,7
 321              		.p2align 3
 322              	.L27:
 323              		.cfi_restore_state
 324              		.loc 1 202 0
 325 0180 89F0     		movl	%esi, %eax	# newstate, tmp79
 326 0182 0FB6F0   		movzbl	%al, %esi	# tmp79, newstate
 327 0185 893424   		movl	%esi, (%esp)	# newstate,
 328 0188 E8FCFFFF 		call	chSchGoSleepS	#
 328      FF
 329              	.LVL18:
 330              		.loc 1 203 0
 331 018d A1180000 		movl	rlist+24, %eax	# rlist.r_current, rlist.r_current
 331      00
 332 0192 8B4024   		movl	36(%eax), %eax	# _15->p_u.rdymsg, _15->p_u.rdymsg
 333              		.loc 1 204 0
 334 0195 83C434   		addl	$52, %esp	#,
 335              		.cfi_def_cfa_offset 12
 336 0198 5B       		popl	%ebx	#
 337              		.cfi_restore 3
 338              		.cfi_def_cfa_offset 8
 339 0199 5E       		popl	%esi	#
 340              		.cfi_restore 6
 341              		.cfi_def_cfa_offset 4
 342 019a C3       		ret
 343              		.cfi_endproc
 344              	.LFE11:
 345              		.size	chSchGoSleepTimeoutS, .-chSchGoSleepTimeoutS
 346 019b 908D7426 		.p2align 4,,15
 346      00
 347              		.globl	chSchWakeupS
 348              		.type	chSchWakeupS, @function
 349              	chSchWakeupS:
 350              	.LFB12:
 351              		.loc 1 225 0
 352              		.cfi_startproc
 353              	.LVL19:
 354 01a0 56       		pushl	%esi	#
 355              		.cfi_def_cfa_offset 8
 356              		.cfi_offset 6, -8
 357              		.loc 1 234 0
 358 01a1 8B151800 		movl	rlist+24, %edx	# rlist.r_current, D.2199
 358      0000
 359              		.loc 1 225 0
 360 01a7 53       		pushl	%ebx	#
GAS LISTING /tmp/ccHS4Eks.s 			page 8


 361              		.cfi_def_cfa_offset 12
 362              		.cfi_offset 3, -12
 363              		.loc 1 225 0
 364 01a8 8B4C240C 		movl	12(%esp), %ecx	# ntp, ntp
 365              		.loc 1 229 0
 366 01ac 8B442410 		movl	16(%esp), %eax	# msg, msg
 367              		.loc 1 234 0
 368 01b0 8B5A08   		movl	8(%edx), %ebx	# _7->p_prio, D.2198
 369 01b3 8B7108   		movl	8(%ecx), %esi	# ntp_3(D)->p_prio, D.2198
 370              		.loc 1 229 0
 371 01b6 894124   		movl	%eax, 36(%ecx)	# msg, ntp_3(D)->p_u.rdymsg
 372              		.loc 1 234 0
 373 01b9 39DE     		cmpl	%ebx, %esi	# D.2198, D.2198
 374 01bb 7723     		ja	.L32	#,
 375              	.LVL20:
 376              	.LBB34:
 377              	.LBB35:
 378              		.loc 1 92 0
 379 01bd C6411C00 		movb	$0, 28(%ecx)	#, ntp_3(D)->p_state
 380              	.LVL21:
 381              		.loc 1 93 0
 382 01c1 B8000000 		movl	$rlist, %eax	#, cp
 382      00
 383              	.LVL22:
 384              		.p2align 4,,7
 385 01c6 6690     		.p2align 3
 386              	.L34:
 387              		.loc 1 95 0
 388 01c8 8B00     		movl	(%eax), %eax	# cp_14->p_next, cp
 389              	.LVL23:
 390              		.loc 1 96 0
 391 01ca 3B7008   		cmpl	8(%eax), %esi	# cp_15->p_prio, D.2198
 392 01cd 76F9     		jbe	.L34	#,
 393              		.loc 1 99 0
 394 01cf 8B5004   		movl	4(%eax), %edx	# cp_35->p_prev, D.2199
 395              		.loc 1 98 0
 396 01d2 8901     		movl	%eax, (%ecx)	# cp, ntp_3(D)->p_next
 397              		.loc 1 99 0
 398 01d4 895104   		movl	%edx, 4(%ecx)	# D.2199, ntp_3(D)->p_prev
 399              		.loc 1 100 0
 400 01d7 894804   		movl	%ecx, 4(%eax)	# ntp, cp_35->p_prev
 401 01da 890A     		movl	%ecx, (%edx)	# ntp, _17->p_next
 402              	.LBE35:
 403              	.LBE34:
 404              		.loc 1 242 0
 405 01dc 5B       		popl	%ebx	#
 406              		.cfi_remember_state
 407              		.cfi_restore 3
 408              		.cfi_def_cfa_offset 8
 409 01dd 5E       		popl	%esi	#
 410              		.cfi_restore 6
 411              		.cfi_def_cfa_offset 4
 412 01de C3       		ret
 413              	.LVL24:
 414 01df 90       		.p2align 4,,7
 415              		.p2align 3
 416              	.L32:
GAS LISTING /tmp/ccHS4Eks.s 			page 9


 417              		.cfi_restore_state
 418              	.LBB36:
 419              	.LBB37:
 420              	.LBB38:
 421              		.loc 1 92 0
 422 01e0 C6421C00 		movb	$0, 28(%edx)	#, _7->p_state
 423              	.LVL25:
 424              		.loc 1 93 0
 425 01e4 B8000000 		movl	$rlist, %eax	#, cp
 425      00
 426              	.LVL26:
 427 01e9 8DB42600 		.p2align 4,,7
 427      000000
 428              		.p2align 3
 429              	.L37:
 430              		.loc 1 95 0
 431 01f0 8B00     		movl	(%eax), %eax	# cp_18->p_next, cp
 432              	.LVL27:
 433              		.loc 1 96 0
 434 01f2 3B5808   		cmpl	8(%eax), %ebx	# cp_19->p_prio, D.2198
 435 01f5 76F9     		jbe	.L37	#,
 436              		.loc 1 99 0
 437 01f7 8B5804   		movl	4(%eax), %ebx	# cp_33->p_prev, D.2199
 438              		.loc 1 98 0
 439 01fa 8902     		movl	%eax, (%edx)	# cp, _7->p_next
 440              		.loc 1 99 0
 441 01fc 895A04   		movl	%ebx, 4(%edx)	# D.2199, _7->p_prev
 442              		.loc 1 100 0
 443 01ff 895004   		movl	%edx, 4(%eax)	# D.2199, cp_33->p_prev
 444 0202 8913     		movl	%edx, (%ebx)	# D.2199, _21->p_next
 445              	.LBE38:
 446              	.LBE37:
 447              		.loc 1 239 0
 448 0204 C6411C01 		movb	$1, 28(%ecx)	#, ntp_3(D)->p_state
 449              	.LBE36:
 450              		.loc 1 242 0
 451 0208 5B       		popl	%ebx	#
 452              		.cfi_restore 3
 453              		.cfi_def_cfa_offset 8
 454 0209 5E       		popl	%esi	#
 455              		.cfi_restore 6
 456              		.cfi_def_cfa_offset 4
 457              	.LBB39:
 458              		.loc 1 238 0
 459 020a 890D1800 		movl	%ecx, rlist+24	# ntp, rlist.r_current
 459      0000
 460              		.loc 1 240 0
 461 0210 E9FCFFFF 		jmp	port_switch	#
 461      FF
 462              	.LVL28:
 463              	.LBE39:
 464              		.cfi_endproc
 465              	.LFE12:
 466              		.size	chSchWakeupS, .-chSchWakeupS
 467 0215 8D742600 		.p2align 4,,15
 467      8DBC2700 
 467      000000
GAS LISTING /tmp/ccHS4Eks.s 			page 10


 468              		.globl	chSchIsPreemptionRequired
 469              		.type	chSchIsPreemptionRequired, @function
 470              	chSchIsPreemptionRequired:
 471              	.LFB14:
 472              		.loc 1 276 0
 473              		.cfi_startproc
 474              		.loc 1 277 0
 475 0220 A1000000 		movl	rlist, %eax	# rlist.r_queue.p_next, rlist.r_queue.p_next
 475      00
 476              		.loc 1 278 0
 477 0225 8B151800 		movl	rlist+24, %edx	# rlist.r_current, D.2202
 477      0000
 478              		.loc 1 276 0
 479 022b 53       		pushl	%ebx	#
 480              		.cfi_def_cfa_offset 8
 481              		.cfi_offset 3, -8
 482              		.loc 1 277 0
 483 022c 8B5808   		movl	8(%eax), %ebx	# _3->p_prio, p1
 484              	.LVL29:
 485              		.loc 1 278 0
 486 022f 8B4A08   		movl	8(%edx), %ecx	# _5->p_prio, p2
 487              	.LVL30:
 488              		.loc 1 284 0
 489 0232 39CB     		cmpl	%ecx, %ebx	# p2, p1
 490 0234 0F93C0   		setae	%al	#, iftmp.0
 491 0237 807A1F00 		cmpb	$0, 31(%edx)	#, _5->p_preempt
 492 023b 7503     		jne	.L44	#,
 493              		.loc 1 290 0 discriminator 3
 494 023d 5B       		popl	%ebx	#
 495              		.cfi_remember_state
 496              		.cfi_restore 3
 497              		.cfi_def_cfa_offset 4
 498              	.LVL31:
 499 023e C3       		ret
 500              	.LVL32:
 501 023f 90       		.p2align 4,,7
 502              		.p2align 3
 503              	.L44:
 504              		.cfi_restore_state
 505              		.loc 1 284 0 discriminator 1
 506 0240 39CB     		cmpl	%ecx, %ebx	# p2, p1
 507 0242 0F97C0   		seta	%al	#, iftmp.0
 508              		.loc 1 290 0 discriminator 1
 509 0245 5B       		popl	%ebx	#
 510              		.cfi_restore 3
 511              		.cfi_def_cfa_offset 4
 512              	.LVL33:
 513 0246 C3       		ret
 514              		.cfi_endproc
 515              	.LFE14:
 516              		.size	chSchIsPreemptionRequired, .-chSchIsPreemptionRequired
 517 0247 89F68DBC 		.p2align 4,,15
 517      27000000 
 517      00
 518              		.globl	chSchDoRescheduleBehind
 519              		.type	chSchDoRescheduleBehind, @function
 520              	chSchDoRescheduleBehind:
GAS LISTING /tmp/ccHS4Eks.s 			page 11


 521              	.LFB15:
 522              		.loc 1 304 0
 523              		.cfi_startproc
 524              	.LBB40:
 525              	.LBB41:
 526              		.loc 2 60 0
 527 0250 8B0D0000 		movl	rlist, %ecx	# MEM[(struct ThreadsQueue *)&rlist].p_next, tp
 527      0000
 528              	.LBE41:
 529              	.LBE40:
 530              		.loc 1 304 0
 531 0256 53       		pushl	%ebx	#
 532              		.cfi_def_cfa_offset 8
 533              		.cfi_offset 3, -8
 534              		.loc 1 307 0
 535 0257 8B151800 		movl	rlist+24, %edx	# rlist.r_current, otp
 535      0000
 536              	.LVL34:
 537              	.LBB43:
 538              	.LBB42:
 539              		.loc 2 62 0
 540 025d 8B01     		movl	(%ecx), %eax	# tp_9->p_next, D.2206
 541 025f 8B5A08   		movl	8(%edx), %ebx	# otp_2->p_prio, D.2208
 542 0262 C7400400 		movl	$rlist, 4(%eax)	#, _10->p_prev
 542      000000
 543 0269 A3000000 		movl	%eax, rlist	# D.2206, MEM[(struct ThreadsQueue *)&rlist].p_next
 543      00
 544              	.LBE42:
 545              	.LBE43:
 546              	.LBB44:
 547              	.LBB45:
 548              		.loc 1 92 0
 549 026e 89C8     		movl	%ecx, %eax	# tp, cp
 550              	.LBE45:
 551              	.LBE44:
 552              		.loc 1 310 0
 553 0270 C6411C01 		movb	$1, 28(%ecx)	#, tp_9->p_state
 554              		.loc 1 309 0
 555 0274 890D1800 		movl	%ecx, rlist+24	# tp, rlist.r_current
 555      0000
 556              		.loc 1 312 0
 557 027a C6421F14 		movb	$20, 31(%edx)	#, otp_2->p_preempt
 558              	.LVL35:
 559              	.LBB47:
 560              	.LBB46:
 561              		.loc 1 92 0
 562 027e C6421C00 		movb	$0, 28(%edx)	#, otp_2->p_state
 563              	.LVL36:
 564 0282 EB06     		jmp	.L47	#
 565              	.LVL37:
 566              		.p2align 4,,7
 567 0284 8D742600 		.p2align 3
 568              	.L49:
 569 0288 8B00     		movl	(%eax), %eax	# cp_26->p_next, cp
 570              	.LVL38:
 571              	.L47:
 572              		.loc 1 96 0
GAS LISTING /tmp/ccHS4Eks.s 			page 12


 573 028a 395808   		cmpl	%ebx, 8(%eax)	# D.2208, cp_26->p_prio
 574 028d 73F9     		jae	.L49	#,
 575              		.loc 1 99 0
 576 028f 8B5804   		movl	4(%eax), %ebx	# cp_23->p_prev, D.2206
 577              		.loc 1 98 0
 578 0292 8902     		movl	%eax, (%edx)	# cp, otp_2->p_next
 579              		.loc 1 99 0
 580 0294 895A04   		movl	%ebx, 4(%edx)	# D.2206, otp_2->p_prev
 581              		.loc 1 100 0
 582 0297 895004   		movl	%edx, 4(%eax)	# otp, cp_23->p_prev
 583 029a 8913     		movl	%edx, (%ebx)	# otp, _15->p_next
 584              	.LBE46:
 585              	.LBE47:
 586              		.loc 1 316 0
 587 029c 5B       		popl	%ebx	#
 588              		.cfi_restore 3
 589              		.cfi_def_cfa_offset 4
 590              		.loc 1 315 0
 591 029d E9FCFFFF 		jmp	port_switch	#
 591      FF
 592              	.LVL39:
 593              		.cfi_endproc
 594              	.LFE15:
 595              		.size	chSchDoRescheduleBehind, .-chSchDoRescheduleBehind
 596 02a2 8DB42600 		.p2align 4,,15
 596      0000008D 
 596      BC270000 
 596      0000
 597              		.globl	chSchDoRescheduleAhead
 598              		.type	chSchDoRescheduleAhead, @function
 599              	chSchDoRescheduleAhead:
 600              	.LFB16:
 601              		.loc 1 329 0
 602              		.cfi_startproc
 603              	.LBB48:
 604              	.LBB49:
 605              		.loc 2 60 0
 606 02b0 8B0D0000 		movl	rlist, %ecx	# MEM[(struct ThreadsQueue *)&rlist].p_next, tp
 606      0000
 607              	.LBE49:
 608              	.LBE48:
 609              		.loc 1 329 0
 610 02b6 53       		pushl	%ebx	#
 611              		.cfi_def_cfa_offset 8
 612              		.cfi_offset 3, -8
 613              		.loc 1 332 0
 614 02b7 8B151800 		movl	rlist+24, %edx	# rlist.r_current, otp
 614      0000
 615              	.LVL40:
 616              	.LBB51:
 617              	.LBB50:
 618              		.loc 2 62 0
 619 02bd 8B01     		movl	(%ecx), %eax	# tp_17->p_next, D.2212
 620 02bf 8B5A08   		movl	8(%edx), %ebx	# otp_3->p_prio, D.2213
 621 02c2 C7400400 		movl	$rlist, 4(%eax)	#, _18->p_prev
 621      000000
 622 02c9 A3000000 		movl	%eax, rlist	# D.2212, MEM[(struct ThreadsQueue *)&rlist].p_next
GAS LISTING /tmp/ccHS4Eks.s 			page 13


 622      00
 623              	.LBE50:
 624              	.LBE51:
 625              		.loc 1 337 0
 626 02ce 89C8     		movl	%ecx, %eax	# tp, cp
 627              		.loc 1 335 0
 628 02d0 C6411C01 		movb	$1, 28(%ecx)	#, tp_17->p_state
 629              		.loc 1 334 0
 630 02d4 890D1800 		movl	%ecx, rlist+24	# tp, rlist.r_current
 630      0000
 631              		.loc 1 337 0
 632 02da C6421C00 		movb	$0, 28(%edx)	#, otp_3->p_state
 633              	.LVL41:
 634 02de EB02     		jmp	.L52	#
 635              	.LVL42:
 636              		.p2align 4,,7
 637              		.p2align 3
 638              	.L54:
 639 02e0 8B00     		movl	(%eax), %eax	# cp_23->p_next, cp
 640              	.LVL43:
 641              	.L52:
 642              		.loc 1 341 0 discriminator 1
 643 02e2 395808   		cmpl	%ebx, 8(%eax)	# D.2213, cp_23->p_prio
 644 02e5 77F9     		ja	.L54	#,
 645              		.loc 1 344 0
 646 02e7 8B5804   		movl	4(%eax), %ebx	# cp_21->p_prev, D.2212
 647              		.loc 1 343 0
 648 02ea 8902     		movl	%eax, (%edx)	# cp, otp_3->p_next
 649              		.loc 1 344 0
 650 02ec 895A04   		movl	%ebx, 4(%edx)	# D.2212, otp_3->p_prev
 651              		.loc 1 345 0
 652 02ef 895004   		movl	%edx, 4(%eax)	# otp, cp_21->p_prev
 653 02f2 8913     		movl	%edx, (%ebx)	# otp, _12->p_next
 654              		.loc 1 348 0
 655 02f4 5B       		popl	%ebx	#
 656              		.cfi_restore 3
 657              		.cfi_def_cfa_offset 4
 658              		.loc 1 347 0
 659 02f5 E9FCFFFF 		jmp	port_switch	#
 659      FF
 660              	.LVL44:
 661              		.cfi_endproc
 662              	.LFE16:
 663              		.size	chSchDoRescheduleAhead, .-chSchDoRescheduleAhead
 664 02fa 8DB60000 		.p2align 4,,15
 664      0000
 665              		.globl	chSchRescheduleS
 666              		.type	chSchRescheduleS, @function
 667              	chSchRescheduleS:
 668              	.LFB13:
 669              		.loc 1 253 0
 670              		.cfi_startproc
 671              		.loc 1 257 0
 672 0300 A1180000 		movl	rlist+24, %eax	# rlist.r_current, rlist.r_current
 672      00
 673 0305 8B150000 		movl	rlist, %edx	# rlist.r_queue.p_next, rlist.r_queue.p_next
 673      0000
GAS LISTING /tmp/ccHS4Eks.s 			page 14


 674 030b 8B4008   		movl	8(%eax), %eax	# _5->p_prio, tmp66
 675 030e 394208   		cmpl	%eax, 8(%edx)	# tmp66, _3->p_prio
 676 0311 7705     		ja	.L57	#,
 677 0313 F3C3     		rep ret
 678              		.p2align 4,,7
 679 0315 8D7600   		.p2align 3
 680              	.L57:
 681              		.loc 1 258 0
 682 0318 E9FCFFFF 		jmp	chSchDoRescheduleAhead	#
 682      FF
 683              	.LVL45:
 684              		.cfi_endproc
 685              	.LFE13:
 686              		.size	chSchRescheduleS, .-chSchRescheduleS
 687 031d 8D7600   		.p2align 4,,15
 688              		.globl	chSchDoReschedule
 689              		.type	chSchDoReschedule, @function
 690              	chSchDoReschedule:
 691              	.LFB17:
 692              		.loc 1 362 0
 693              		.cfi_startproc
 694              		.loc 1 367 0
 695 0320 A1180000 		movl	rlist+24, %eax	# rlist.r_current, rlist.r_current
 695      00
 696 0325 80781F00 		cmpb	$0, 31(%eax)	#, _3->p_preempt
 697 0329 7405     		je	.L60	#,
 698              		.loc 1 375 0
 699 032b E9FCFFFF 		jmp	chSchDoRescheduleAhead	#
 699      FF
 700              	.LVL46:
 701              		.p2align 4,,7
 702              		.p2align 3
 703              	.L60:
 704              		.loc 1 370 0
 705 0330 E9FCFFFF 		jmp	chSchDoRescheduleBehind	#
 705      FF
 706              	.LVL47:
 707              		.cfi_endproc
 708              	.LFE17:
 709              		.size	chSchDoReschedule, .-chSchDoReschedule
 710              		.comm	rlist,28,4
 711              	.Letext0:
 712              		.file 3 "/usr/include/stdint.h"
 713              		.file 4 "../../../os/ports/GCC/SIMIA32/chtypes.h"
 714              		.file 5 "../../../os/kernel/include/chlists.h"
 715              		.file 6 "../../../os/kernel/include/chthreads.h"
 716              		.file 7 "../../../os/ports/GCC/SIMIA32/chcore.h"
 717              		.file 8 "../../../os/kernel/include/chvt.h"
 718              		.file 9 "../../../os/kernel/include/chschd.h"
 719              		.file 10 "../../../os/kernel/include/chsem.h"
 720              		.file 11 "../../../os/kernel/include/chmtx.h"
 3040              		.section	.note.GNU-stack,"",@progbits
GAS LISTING /tmp/ccHS4Eks.s 			page 59

