GAS LISTING /tmp/ccju1a1D.s 			page 1


   1              		.file	"chsem.c"
   2              	# GNU C (Ubuntu 4.8.2-19ubuntu1) version 4.8.2 (x86_64-linux-gnu)
   3              	#	compiled by GNU C version 4.8.2, GMP version 5.1.3, MPFR version 3.1.2-p3, MPC version 1.0.1
   4              	# GGC heuristics: --param ggc-min-expand=97 --param ggc-min-heapsize=126309
   5              	# options passed:  -I . -I ../../../os/ports/GCC/SIMIA32
   6              	# -I ../../../os/kernel/include -I ../../../test -I ../../../os/hal/include
   7              	# -I ../../../os/hal/platforms/Posix -I ../../../boards/simulator
   8              	# -I ../../../os/various -imultilib 32 -imultiarch i386-linux-gnu
   9              	# -MD ../../../os/kernel/src/chsem.d -MF .dep/chsem.o.d -MP
  10              	# -MQ ../../../os/kernel/src/chsem.o -D SIMULATOR
  11              	# -D SHELL_USE_IPRINTF=FALSE ../../../os/kernel/src/chsem.c -m32
  12              	# -mtune=generic -march=i686 -auxbase-strip ../../../os/kernel/src/chsem.o
  13              	# -ggdb -O2 -Wall -Wextra -Wstrict-prototypes -fomit-frame-pointer
  14              	# -fverbose-asm -fstack-protector -Wformat -Wformat-security
  15              	# options enabled:  -faggressive-loop-optimizations
  16              	# -fasynchronous-unwind-tables -fauto-inc-dec -fbranch-count-reg
  17              	# -fcaller-saves -fcombine-stack-adjustments -fcommon -fcompare-elim
  18              	# -fcprop-registers -fcrossjumping -fcse-follow-jumps -fdefer-pop
  19              	# -fdelete-null-pointer-checks -fdevirtualize -fdwarf2-cfi-asm
  20              	# -fearly-inlining -feliminate-unused-debug-types -fexpensive-optimizations
  21              	# -fforward-propagate -ffunction-cse -fgcse -fgcse-lm -fgnu-runtime
  22              	# -fguess-branch-probability -fhoist-adjacent-loads -fident -fif-conversion
  23              	# -fif-conversion2 -findirect-inlining -finline -finline-atomics
  24              	# -finline-functions-called-once -finline-small-functions -fipa-cp
  25              	# -fipa-profile -fipa-pure-const -fipa-reference -fipa-sra
  26              	# -fira-hoist-pressure -fira-share-save-slots -fira-share-spill-slots
  27              	# -fivopts -fkeep-static-consts -fleading-underscore -fmath-errno
  28              	# -fmerge-constants -fmerge-debug-strings -fmove-loop-invariants
  29              	# -fomit-frame-pointer -foptimize-register-move -foptimize-sibling-calls
  30              	# -foptimize-strlen -fpartial-inlining -fpcc-struct-return -fpeephole
  31              	# -fpeephole2 -fprefetch-loop-arrays -free -fregmove -freorder-blocks
  32              	# -freorder-functions -frerun-cse-after-loop
  33              	# -fsched-critical-path-heuristic -fsched-dep-count-heuristic
  34              	# -fsched-group-heuristic -fsched-interblock -fsched-last-insn-heuristic
  35              	# -fsched-rank-heuristic -fsched-spec -fsched-spec-insn-heuristic
  36              	# -fsched-stalled-insns-dep -fschedule-insns2 -fshow-column -fshrink-wrap
  37              	# -fsigned-zeros -fsplit-ivs-in-unroller -fsplit-wide-types
  38              	# -fstack-protector -fstrict-aliasing -fstrict-overflow
  39              	# -fstrict-volatile-bitfields -fsync-libcalls -fthread-jumps
  40              	# -ftoplevel-reorder -ftrapping-math -ftree-bit-ccp -ftree-builtin-call-dce
  41              	# -ftree-ccp -ftree-ch -ftree-coalesce-vars -ftree-copy-prop
  42              	# -ftree-copyrename -ftree-cselim -ftree-dce -ftree-dominator-opts
  43              	# -ftree-dse -ftree-forwprop -ftree-fre -ftree-loop-if-convert
  44              	# -ftree-loop-im -ftree-loop-ivcanon -ftree-loop-optimize
  45              	# -ftree-parallelize-loops= -ftree-phiprop -ftree-pre -ftree-pta
  46              	# -ftree-reassoc -ftree-scev-cprop -ftree-sink -ftree-slp-vectorize
  47              	# -ftree-slsr -ftree-sra -ftree-switch-conversion -ftree-tail-merge
  48              	# -ftree-ter -ftree-vect-loop-version -ftree-vrp -funit-at-a-time
  49              	# -funwind-tables -fvar-tracking -fvar-tracking-assignments -fverbose-asm
  50              	# -fzero-initialized-in-bss -m32 -m80387 -m96bit-long-double
  51              	# -maccumulate-outgoing-args -malign-stringops -mfancy-math-387
  52              	# -mfp-ret-in-387 -mglibc -mieee-fp -mlong-double-80 -mno-red-zone
  53              	# -mno-sse4 -mpush-args -msahf -mtls-direct-seg-refs
  54              	
  55              		.text
  56              	.Ltext0:
  57              		.p2align 4,,15
GAS LISTING /tmp/ccju1a1D.s 			page 2


  58              		.globl	chSemInit
  59              		.type	chSemInit, @function
  60              	chSemInit:
  61              	.LFB7:
  62              		.file 1 "../../../os/kernel/src/chsem.c"
  63              		.loc 1 86 0
  64              		.cfi_startproc
  65              	.LVL0:
  66              		.loc 1 86 0
  67 0000 8B442404 		movl	4(%esp), %eax	# sp, sp
  68              		.loc 1 91 0
  69 0004 8B542408 		movl	8(%esp), %edx	# n, n
  70              		.loc 1 90 0
  71 0008 894004   		movl	%eax, 4(%eax)	# sp, sp_1(D)->s_queue.p_prev
  72 000b 8900     		movl	%eax, (%eax)	# sp, sp_1(D)->s_queue.p_next
  73              		.loc 1 91 0
  74 000d 895008   		movl	%edx, 8(%eax)	# n, sp_1(D)->s_cnt
  75 0010 C3       		ret
  76              		.cfi_endproc
  77              	.LFE7:
  78              		.size	chSemInit, .-chSemInit
  79 0011 EB0D9090 		.p2align 4,,15
  79      90909090 
  79      90909090 
  79      909090
  80              		.globl	chSemResetI
  81              		.type	chSemResetI, @function
  82              	chSemResetI:
  83              	.LFB9:
  84              		.loc 1 136 0
  85              		.cfi_startproc
  86              	.LVL1:
  87 0020 56       		pushl	%esi	#
  88              		.cfi_def_cfa_offset 8
  89              		.cfi_offset 6, -8
  90 0021 53       		pushl	%ebx	#
  91              		.cfi_def_cfa_offset 12
  92              		.cfi_offset 3, -12
  93 0022 83EC14   		subl	$20, %esp	#,
  94              		.cfi_def_cfa_offset 32
  95              		.loc 1 136 0
  96 0025 8B5C2420 		movl	32(%esp), %ebx	# sp, sp
  97              		.loc 1 147 0
  98 0029 8B442424 		movl	36(%esp), %eax	# n, n
  99              		.loc 1 141 0
 100 002d 8B7308   		movl	8(%ebx), %esi	# sp_3(D)->s_cnt, cnt
 101              	.LVL2:
 102              		.loc 1 147 0
 103 0030 894308   		movl	%eax, 8(%ebx)	# n, sp_3(D)->s_cnt
 104              		.loc 1 148 0
 105 0033 83C601   		addl	$1, %esi	#, cnt
 106              	.LVL3:
 107 0036 85F6     		testl	%esi, %esi	# cnt
 108 0038 7F28     		jg	.L2	#,
 109 003a 8DB60000 		.p2align 4,,7
 109      0000
 110              		.p2align 3
GAS LISTING /tmp/ccju1a1D.s 			page 3


 111              	.L8:
 112              	.LVL4:
 113              	.LBB20:
 114              	.LBB21:
 115              		.file 2 "../../../os/kernel/include/chinline.h"
 116              		.loc 2 67 0
 117 0040 8B4304   		movl	4(%ebx), %eax	# MEM[(struct ThreadsQueue *)sp_3(D)].p_prev, tp
 118              	.LVL5:
 119              	.LBE21:
 120              	.LBE20:
 121              		.loc 1 148 0
 122 0043 83C601   		addl	$1, %esi	#, cnt
 123              	.LVL6:
 124              	.LBB23:
 125              	.LBB22:
 126              		.loc 2 69 0
 127 0046 8B5004   		movl	4(%eax), %edx	# tp_14->p_prev, D.2245
 128 0049 895304   		movl	%edx, 4(%ebx)	# D.2245, MEM[(struct ThreadsQueue *)sp_3(D)].p_prev
 129 004c 891A     		movl	%ebx, (%edx)	# sp, _15->p_next
 130              	.LBE22:
 131              	.LBE23:
 132              		.loc 1 149 0
 133 004e 890424   		movl	%eax, (%esp)	# tp,
 134 0051 E8FCFFFF 		call	chSchReadyI	#
 134      FF
 135              	.LVL7:
 136              		.loc 1 148 0
 137 0056 83FE01   		cmpl	$1, %esi	#, cnt
 138              		.loc 1 149 0
 139 0059 C74024FE 		movl	$-2, 36(%eax)	#, _12->p_u.rdymsg
 139      FFFFFF
 140              	.LVL8:
 141              		.loc 1 148 0
 142 0060 75DE     		jne	.L8	#,
 143              	.LVL9:
 144              	.L2:
 145              		.loc 1 150 0
 146 0062 83C414   		addl	$20, %esp	#,
 147              		.cfi_def_cfa_offset 12
 148 0065 5B       		popl	%ebx	#
 149              		.cfi_restore 3
 150              		.cfi_def_cfa_offset 8
 151 0066 5E       		popl	%esi	#
 152              		.cfi_restore 6
 153              		.cfi_def_cfa_offset 4
 154              	.LVL10:
 155 0067 C3       		ret
 156              		.cfi_endproc
 157              	.LFE9:
 158              		.size	chSemResetI, .-chSemResetI
 159 0068 908DB426 		.p2align 4,,15
 159      00000000 
 160              		.globl	chSemReset
 161              		.type	chSemReset, @function
 162              	chSemReset:
 163              	.LFB8:
 164              		.loc 1 109 0
GAS LISTING /tmp/ccju1a1D.s 			page 4


 165              		.cfi_startproc
 166              	.LVL11:
 167 0070 83EC1C   		subl	$28, %esp	#,
 168              		.cfi_def_cfa_offset 32
 169              		.loc 1 111 0
 170              	#APP
 171              	# 111 "../../../os/kernel/src/chsem.c" 1
   1              	/*
   2              	    ChibiOS/RT - Copyright (C) 2006,2007,2008,2009,2010,
   3              	                 2011,2012,2013 Giovanni Di Sirio.
   4              	
   5              	    This file is part of ChibiOS/RT.
   6              	
   7              	    ChibiOS/RT is free software; you can redistribute it and/or modify
   8              	    it under the terms of the GNU General Public License as published by
   9              	    the Free Software Foundation; either version 3 of the License, or
  10              	    (at your option) any later version.
  11              	
  12              	    ChibiOS/RT is distributed in the hope that it will be useful,
  13              	    but WITHOUT ANY WARRANTY; without even the implied warranty of
  14              	    MERCHANTABILITY or FITNESS FOR A PARTICULAR PURPOSE.  See the
  15              	    GNU General Public License for more details.
  16              	
  17              	    You should have received a copy of the GNU General Public License
  18              	    along with this program.  If not, see <http://www.gnu.org/licenses/>.
  19              	
  20              	                                      ---
  21              	
  22              	    A special exception to the GPL can be applied should you wish to distribute
  23              	    a combined work that includes ChibiOS/RT, without being obliged to provide
  24              	    the source code for any proprietary components. See the file exception.txt
  25              	    for full details of how and when the exception can be applied.
  26              	*/
  27              	
  28              	/**
  29              	 * @file    chsem.c
  30              	 * @brief   Semaphores code.
  31              	 *
  32              	 * @addtogroup semaphores
  33              	 * @details Semaphores related APIs and services.
  34              	 *
  35              	 *          <h2>Operation mode</h2>
  36              	 *          Semaphores are a flexible synchronization primitive, ChibiOS/RT
  37              	 *          implements semaphores in their "counting semaphores" variant as
  38              	 *          defined by Edsger Dijkstra plus several enhancements like:
  39              	 *          - Wait operation with timeout.
  40              	 *          - Reset operation.
  41              	 *          - Atomic wait+signal operation.
  42              	 *          - Return message from the wait operation (OK, RESET, TIMEOUT).
  43              	 *          .
  44              	 *          The binary semaphores variant can be easily implemented using
  45              	 *          counting semaphores.<br>
  46              	 *          Operations defined for semaphores:
  47              	 *          - <b>Signal</b>: The semaphore counter is increased and if the
  48              	 *            result is non-positive then a waiting thread is removed from
  49              	 *            the semaphore queue and made ready for execution.
  50              	 *          - <b>Wait</b>: The semaphore counter is decreased and if the result
GAS LISTING /tmp/ccju1a1D.s 			page 5


  51              	 *            becomes negative the thread is queued in the semaphore and
  52              	 *            suspended.
  53              	 *          - <b>Reset</b>: The semaphore counter is reset to a non-negative
  54              	 *            value and all the threads in the queue are released.
  55              	 *          .
  56              	 *          Semaphores can be used as guards for mutual exclusion zones
  57              	 *          (note that mutexes are recommended for this kind of use) but
  58              	 *          also have other uses, queues guards and counters for example.<br>
  59              	 *          Semaphores usually use a FIFO queuing strategy but it is possible
  60              	 *          to make them order threads by priority by enabling
  61              	 *          @p CH_USE_SEMAPHORES_PRIORITY in @p chconf.h.
  62              	 * @pre     In order to use the semaphore APIs the @p CH_USE_SEMAPHORES
  63              	 *          option must be enabled in @p chconf.h.
  64              	 * @{
  65              	 */
  66              	
  67              	#include "ch.h"
  68              	
  69              	#if CH_USE_SEMAPHORES || defined(__DOXYGEN__)
  70              	
  71              	#if CH_USE_SEMAPHORES_PRIORITY
  72              	#define sem_insert(tp, qp) prio_insert(tp, qp)
  73              	#else
  74              	#define sem_insert(tp, qp) queue_insert(tp, qp)
  75              	#endif
  76              	
  77              	/**
  78              	 * @brief   Initializes a semaphore with the specified counter value.
  79              	 *
  80              	 * @param[out] sp       pointer to a @p Semaphore structure
  81              	 * @param[in] n         initial value of the semaphore counter. Must be
  82              	 *                      non-negative.
  83              	 *
  84              	 * @init
  85              	 */
  86              	void chSemInit(Semaphore *sp, cnt_t n) {
  87              	
  88              	  chDbgCheck((sp != NULL) && (n >= 0), "chSemInit");
  89              	
  90              	  queue_init(&sp->s_queue);
  91              	  sp->s_cnt = n;
  92              	}
  93              	
  94              	/**
  95              	 * @brief   Performs a reset operation on the semaphore.
  96              	 * @post    After invoking this function all the threads waiting on the
  97              	 *          semaphore, if any, are released and the semaphore counter is set
  98              	 *          to the specified, non negative, value.
  99              	 * @note    The released threads can recognize they were waked up by a reset
 100              	 *          rather than a signal because the @p chSemWait() will return
 101              	 *          @p RDY_RESET instead of @p RDY_OK.
 102              	 *
 103              	 * @param[in] sp        pointer to a @p Semaphore structure
 104              	 * @param[in] n         the new value of the semaphore counter. The value must
 105              	 *                      be non-negative.
 106              	 *
 107              	 * @api
GAS LISTING /tmp/ccju1a1D.s 			page 6


 108              	 */
 109              	void chSemReset(Semaphore *sp, cnt_t n) {
 110              	
 111 0073 90       	  chSysLock();
 112              	  chSemResetI(sp, n);
 172              		nop
 173              	# 0 "" 2
 174              		.loc 1 112 0
 175              	#NO_APP
 176 0074 8B442424 		movl	36(%esp), %eax	# n, n
 177 0078 89442404 		movl	%eax, 4(%esp)	# n,
 178 007c 8B442420 		movl	32(%esp), %eax	# sp, sp
 179 0080 890424   		movl	%eax, (%esp)	# sp,
 180 0083 E8FCFFFF 		call	chSemResetI	#
 180      FF
 181              	.LVL12:
 182              		.loc 1 113 0
 183 0088 E8FCFFFF 		call	chSchRescheduleS	#
 183      FF
 184              	.LVL13:
 185              		.loc 1 114 0
 186              	#APP
 187              	# 114 "../../../os/kernel/src/chsem.c" 1
 113              	  chSchRescheduleS();
 114 008d 90       	  chSysUnlock();
 115              	}
 188              		nop
 189              	# 0 "" 2
 190              		.loc 1 115 0
 191              	#NO_APP
 192 008e 83C41C   		addl	$28, %esp	#,
 193              		.cfi_def_cfa_offset 4
 194 0091 C3       		ret
 195              		.cfi_endproc
 196              	.LFE8:
 197              		.size	chSemReset, .-chSemReset
 198 0092 8DB42600 		.p2align 4,,15
 198      0000008D 
 198      BC270000 
 198      0000
 199              		.globl	chSemWaitS
 200              		.type	chSemWaitS, @function
 201              	chSemWaitS:
 202              	.LFB11:
 203              		.loc 1 185 0
 204              		.cfi_startproc
 205              	.LVL14:
 206 00a0 83EC1C   		subl	$28, %esp	#,
 207              		.cfi_def_cfa_offset 32
 208              		.loc 1 185 0
 209 00a3 8B542420 		movl	32(%esp), %edx	# sp, sp
 210              		.loc 1 194 0
 211 00a7 8B4208   		movl	8(%edx), %eax	# sp_4(D)->s_cnt, tmp72
 212 00aa 8D48FF   		leal	-1(%eax), %ecx	#, D.2252
 213              		.loc 1 200 0
 214 00ad 31C0     		xorl	%eax, %eax	# D.2251
 215              		.loc 1 194 0
GAS LISTING /tmp/ccju1a1D.s 			page 7


 216 00af 85C9     		testl	%ecx, %ecx	# D.2252
 217 00b1 894A08   		movl	%ecx, 8(%edx)	# D.2252, sp_4(D)->s_cnt
 218 00b4 780A     		js	.L18	#,
 219              		.loc 1 201 0
 220 00b6 83C41C   		addl	$28, %esp	#,
 221              		.cfi_remember_state
 222              		.cfi_def_cfa_offset 4
 223 00b9 C3       		ret
 224 00ba 8DB60000 		.p2align 4,,7
 224      0000
 225              		.p2align 3
 226              	.L18:
 227              		.cfi_restore_state
 228              		.loc 1 195 0
 229 00c0 A1180000 		movl	rlist+24, %eax	# rlist.r_current, D.2253
 229      00
 230 00c5 895024   		movl	%edx, 36(%eax)	# sp, _8->p_u.wtobjp
 231              	.LVL15:
 232              	.LBB24:
 233              	.LBB25:
 234              		.loc 2 55 0
 235 00c8 8B4A04   		movl	4(%edx), %ecx	# MEM[(struct ThreadsQueue *)sp_4(D)].p_prev, D.2253
 236              		.loc 2 54 0
 237 00cb 8910     		movl	%edx, (%eax)	# sp, _8->p_next
 238              		.loc 2 55 0
 239 00cd 894804   		movl	%ecx, 4(%eax)	# D.2253, _8->p_prev
 240              		.loc 2 56 0
 241 00d0 894204   		movl	%eax, 4(%edx)	# D.2253, MEM[(struct ThreadsQueue *)sp_4(D)].p_prev
 242              	.LVL16:
 243 00d3 8901     		movl	%eax, (%ecx)	# D.2253, _15->p_next
 244              	.LVL17:
 245              	.LBE25:
 246              	.LBE24:
 247              		.loc 1 197 0
 248 00d5 C7042403 		movl	$3, (%esp)	#,
 248      000000
 249 00dc E8FCFFFF 		call	chSchGoSleepS	#
 249      FF
 250              	.LVL18:
 251              		.loc 1 198 0
 252 00e1 A1180000 		movl	rlist+24, %eax	# rlist.r_current, rlist.r_current
 252      00
 253 00e6 8B4024   		movl	36(%eax), %eax	# _13->p_u.rdymsg, D.2251
 254              		.loc 1 201 0
 255 00e9 83C41C   		addl	$28, %esp	#,
 256              		.cfi_def_cfa_offset 4
 257 00ec C3       		ret
 258              		.cfi_endproc
 259              	.LFE11:
 260              		.size	chSemWaitS, .-chSemWaitS
 261 00ed 8D7600   		.p2align 4,,15
 262              		.globl	chSemWait
 263              		.type	chSemWait, @function
 264              	chSemWait:
 265              	.LFB10:
 266              		.loc 1 164 0
 267              		.cfi_startproc
GAS LISTING /tmp/ccju1a1D.s 			page 8


 268              	.LVL19:
 269 00f0 83EC1C   		subl	$28, %esp	#,
 270              		.cfi_def_cfa_offset 32
 271              		.loc 1 167 0
 272              	#APP
 273              	# 167 "../../../os/kernel/src/chsem.c" 1
 116              	
 117              	/**
 118              	 * @brief   Performs a reset operation on the semaphore.
 119              	 * @post    After invoking this function all the threads waiting on the
 120              	 *          semaphore, if any, are released and the semaphore counter is set
 121              	 *          to the specified, non negative, value.
 122              	 * @post    This function does not reschedule so a call to a rescheduling
 123              	 *          function must be performed before unlocking the kernel. Note that
 124              	 *          interrupt handlers always reschedule on exit so an explicit
 125              	 *          reschedule must not be performed in ISRs.
 126              	 * @note    The released threads can recognize they were waked up by a reset
 127              	 *          rather than a signal because the @p chSemWait() will return
 128              	 *          @p RDY_RESET instead of @p RDY_OK.
 129              	 *
 130              	 * @param[in] sp        pointer to a @p Semaphore structure
 131              	 * @param[in] n         the new value of the semaphore counter. The value must
 132              	 *                      be non-negative.
 133              	 *
 134              	 * @iclass
 135              	 */
 136              	void chSemResetI(Semaphore *sp, cnt_t n) {
 137              	  cnt_t cnt;
 138              	
 139              	  chDbgCheckClassI();
 140              	  chDbgCheck((sp != NULL) && (n >= 0), "chSemResetI");
 141              	  chDbgAssert(((sp->s_cnt >= 0) && isempty(&sp->s_queue)) ||
 142              	              ((sp->s_cnt < 0) && notempty(&sp->s_queue)),
 143              	              "chSemResetI(), #1",
 144              	              "inconsistent semaphore");
 145              	
 146              	  cnt = sp->s_cnt;
 147              	  sp->s_cnt = n;
 148              	  while (++cnt <= 0)
 149              	    chSchReadyI(lifo_remove(&sp->s_queue))->p_u.rdymsg = RDY_RESET;
 150              	}
 151              	
 152              	/**
 153              	 * @brief   Performs a wait operation on a semaphore.
 154              	 *
 155              	 * @param[in] sp        pointer to a @p Semaphore structure
 156              	 * @return              A message specifying how the invoking thread has been
 157              	 *                      released from the semaphore.
 158              	 * @retval RDY_OK       if the thread has not stopped on the semaphore or the
 159              	 *                      semaphore has been signaled.
 160              	 * @retval RDY_RESET    if the semaphore has been reset using @p chSemReset().
 161              	 *
 162              	 * @api
 163              	 */
 164              	msg_t chSemWait(Semaphore *sp) {
 165              	  msg_t msg;
 166              	
GAS LISTING /tmp/ccju1a1D.s 			page 9


 167 00f3 90       	  chSysLock();
 168              	  msg = chSemWaitS(sp);
 274              		nop
 275              	# 0 "" 2
 276              		.loc 1 168 0
 277              	#NO_APP
 278 00f4 8B442420 		movl	32(%esp), %eax	# sp, sp
 279 00f8 890424   		movl	%eax, (%esp)	# sp,
 280 00fb E8FCFFFF 		call	chSemWaitS	#
 280      FF
 281              	.LVL20:
 282              		.loc 1 169 0
 283              	#APP
 284              	# 169 "../../../os/kernel/src/chsem.c" 1
 169 0100 90       	  chSysUnlock();
 170              	  return msg;
 285              		nop
 286              	# 0 "" 2
 287              		.loc 1 171 0
 288              	#NO_APP
 289 0101 83C41C   		addl	$28, %esp	#,
 290              		.cfi_def_cfa_offset 4
 291 0104 C3       		ret
 292              		.cfi_endproc
 293              	.LFE10:
 294              		.size	chSemWait, .-chSemWait
 295 0105 8D742600 		.p2align 4,,15
 295      8DBC2700 
 295      000000
 296              		.globl	chSemWaitTimeoutS
 297              		.type	chSemWaitTimeoutS, @function
 298              	chSemWaitTimeoutS:
 299              	.LFB13:
 300              		.loc 1 250 0
 301              		.cfi_startproc
 302              	.LVL21:
 303 0110 56       		pushl	%esi	#
 304              		.cfi_def_cfa_offset 8
 305              		.cfi_offset 6, -8
 306              		.loc 1 268 0
 307 0111 31C0     		xorl	%eax, %eax	# D.2259
 308              		.loc 1 250 0
 309 0113 53       		pushl	%ebx	#
 310              		.cfi_def_cfa_offset 12
 311              		.cfi_offset 3, -12
 312              		.loc 1 250 0
 313 0114 8B54240C 		movl	12(%esp), %edx	# sp, sp
 314 0118 8B742410 		movl	16(%esp), %esi	# time, time
 315              		.loc 1 254 0
 316 011c 8B5A08   		movl	8(%edx), %ebx	# sp_4(D)->s_cnt, D.2260
 317              		.loc 1 259 0
 318 011f 8D4BFF   		leal	-1(%ebx), %ecx	#, D.2260
 319 0122 85C9     		testl	%ecx, %ecx	# D.2260
 320 0124 894A08   		movl	%ecx, 8(%edx)	# D.2260, sp_4(D)->s_cnt
 321 0127 7807     		js	.L26	#,
 322              	.L22:
 323              		.loc 1 269 0
GAS LISTING /tmp/ccju1a1D.s 			page 10


 324 0129 5B       		popl	%ebx	#
 325              		.cfi_remember_state
 326              		.cfi_restore 3
 327              		.cfi_def_cfa_offset 8
 328 012a 5E       		popl	%esi	#
 329              		.cfi_restore 6
 330              		.cfi_def_cfa_offset 4
 331 012b C3       		ret
 332              	.LVL22:
 333 012c 8D742600 		.p2align 4,,7
 334              		.p2align 3
 335              	.L26:
 336              		.cfi_restore_state
 337              		.loc 1 260 0
 338 0130 85F6     		testl	%esi, %esi	# time
 339 0132 742C     		je	.L27	#,
 340              		.loc 1 264 0
 341 0134 A1180000 		movl	rlist+24, %eax	# rlist.r_current, D.2261
 341      00
 342 0139 895024   		movl	%edx, 36(%eax)	# sp, _10->p_u.wtobjp
 343              	.LVL23:
 344              	.LBB26:
 345              	.LBB27:
 346              		.loc 2 55 0
 347 013c 8B4A04   		movl	4(%edx), %ecx	# MEM[(struct ThreadsQueue *)sp_4(D)].p_prev, D.2261
 348              		.loc 2 54 0
 349 013f 8910     		movl	%edx, (%eax)	# sp, _10->p_next
 350              		.loc 2 55 0
 351 0141 894804   		movl	%ecx, 4(%eax)	# D.2261, _10->p_prev
 352              		.loc 2 56 0
 353 0144 894204   		movl	%eax, 4(%edx)	# D.2261, MEM[(struct ThreadsQueue *)sp_4(D)].p_prev
 354              	.LVL24:
 355 0147 8901     		movl	%eax, (%ecx)	# D.2261, _16->p_next
 356              	.LVL25:
 357              	.LBE27:
 358              	.LBE26:
 359              		.loc 1 266 0
 360 0149 89742410 		movl	%esi, 16(%esp)	# time,
 361 014d C744240C 		movl	$3, 12(%esp)	#,
 361      03000000 
 362              	.LVL26:
 363              		.loc 1 269 0
 364 0155 5B       		popl	%ebx	#
 365              		.cfi_remember_state
 366              		.cfi_restore 3
 367              		.cfi_def_cfa_offset 8
 368 0156 5E       		popl	%esi	#
 369              		.cfi_restore 6
 370              		.cfi_def_cfa_offset 4
 371              	.LVL27:
 372              		.loc 1 266 0
 373 0157 E9FCFFFF 		jmp	chSchGoSleepTimeoutS	#
 373      FF
 374              	.LVL28:
 375 015c 8D742600 		.p2align 4,,7
 376              		.p2align 3
 377              	.L27:
GAS LISTING /tmp/ccju1a1D.s 			page 11


 378              		.cfi_restore_state
 379              		.loc 1 261 0
 380 0160 895A08   		movl	%ebx, 8(%edx)	# D.2260, sp_4(D)->s_cnt
 381              		.loc 1 262 0
 382 0163 B8FFFFFF 		movl	$-1, %eax	#, D.2259
 382      FF
 383 0168 EBBF     		jmp	.L22	#
 384              		.cfi_endproc
 385              	.LFE13:
 386              		.size	chSemWaitTimeoutS, .-chSemWaitTimeoutS
 387 016a 8DB60000 		.p2align 4,,15
 387      0000
 388              		.globl	chSemWaitTimeout
 389              		.type	chSemWaitTimeout, @function
 390              	chSemWaitTimeout:
 391              	.LFB12:
 392              		.loc 1 222 0
 393              		.cfi_startproc
 394              	.LVL29:
 395 0170 83EC1C   		subl	$28, %esp	#,
 396              		.cfi_def_cfa_offset 32
 397              		.loc 1 225 0
 398              	#APP
 399              	# 225 "../../../os/kernel/src/chsem.c" 1
 171              	}
 172              	
 173              	/**
 174              	 * @brief   Performs a wait operation on a semaphore.
 175              	 *
 176              	 * @param[in] sp        pointer to a @p Semaphore structure
 177              	 * @return              A message specifying how the invoking thread has been
 178              	 *                      released from the semaphore.
 179              	 * @retval RDY_OK       if the thread has not stopped on the semaphore or the
 180              	 *                      semaphore has been signaled.
 181              	 * @retval RDY_RESET    if the semaphore has been reset using @p chSemReset().
 182              	 *
 183              	 * @sclass
 184              	 */
 185              	msg_t chSemWaitS(Semaphore *sp) {
 186              	
 187              	  chDbgCheckClassS();
 188              	  chDbgCheck(sp != NULL, "chSemWaitS");
 189              	  chDbgAssert(((sp->s_cnt >= 0) && isempty(&sp->s_queue)) ||
 190              	              ((sp->s_cnt < 0) && notempty(&sp->s_queue)),
 191              	              "chSemWaitS(), #1",
 192              	              "inconsistent semaphore");
 193              	
 194              	  if (--sp->s_cnt < 0) {
 195              	    currp->p_u.wtobjp = sp;
 196              	    sem_insert(currp, &sp->s_queue);
 197              	    chSchGoSleepS(THD_STATE_WTSEM);
 198              	    return currp->p_u.rdymsg;
 199              	  }
 200              	  return RDY_OK;
 201              	}
 202              	
 203              	/**
GAS LISTING /tmp/ccju1a1D.s 			page 12


 204              	 * @brief   Performs a wait operation on a semaphore with timeout specification.
 205              	 *
 206              	 * @param[in] sp        pointer to a @p Semaphore structure
 207              	 * @param[in] time      the number of ticks before the operation timeouts,
 208              	 *                      the following special values are allowed:
 209              	 *                      - @a TIME_IMMEDIATE immediate timeout.
 210              	 *                      - @a TIME_INFINITE no timeout.
 211              	 *                      .
 212              	 * @return              A message specifying how the invoking thread has been
 213              	 *                      released from the semaphore.
 214              	 * @retval RDY_OK       if the thread has not stopped on the semaphore or the
 215              	 *                      semaphore has been signaled.
 216              	 * @retval RDY_RESET    if the semaphore has been reset using @p chSemReset().
 217              	 * @retval RDY_TIMEOUT  if the semaphore has not been signaled or reset within
 218              	 *                      the specified timeout.
 219              	 *
 220              	 * @api
 221              	 */
 222              	msg_t chSemWaitTimeout(Semaphore *sp, systime_t time) {
 223              	  msg_t msg;
 224              	
 225 0173 90       	  chSysLock();
 226              	  msg = chSemWaitTimeoutS(sp, time);
 400              		nop
 401              	# 0 "" 2
 402              		.loc 1 226 0
 403              	#NO_APP
 404 0174 8B442424 		movl	36(%esp), %eax	# time, time
 405 0178 89442404 		movl	%eax, 4(%esp)	# time,
 406 017c 8B442420 		movl	32(%esp), %eax	# sp, sp
 407 0180 890424   		movl	%eax, (%esp)	# sp,
 408 0183 E8FCFFFF 		call	chSemWaitTimeoutS	#
 408      FF
 409              	.LVL30:
 410              		.loc 1 227 0
 411              	#APP
 412              	# 227 "../../../os/kernel/src/chsem.c" 1
 227 0188 90       	  chSysUnlock();
 228              	  return msg;
 413              		nop
 414              	# 0 "" 2
 415              		.loc 1 229 0
 416              	#NO_APP
 417 0189 83C41C   		addl	$28, %esp	#,
 418              		.cfi_def_cfa_offset 4
 419 018c C3       		ret
 420              		.cfi_endproc
 421              	.LFE12:
 422              		.size	chSemWaitTimeout, .-chSemWaitTimeout
 423 018d 8D7600   		.p2align 4,,15
 424              		.globl	chSemSignal
 425              		.type	chSemSignal, @function
 426              	chSemSignal:
 427              	.LFB14:
 428              		.loc 1 278 0
 429              		.cfi_startproc
 430              	.LVL31:
GAS LISTING /tmp/ccju1a1D.s 			page 13


 431 0190 83EC1C   		subl	$28, %esp	#,
 432              		.cfi_def_cfa_offset 32
 433              		.loc 1 278 0
 434 0193 8B442420 		movl	32(%esp), %eax	# sp, sp
 435              		.loc 1 286 0
 436              	#APP
 437              	# 286 "../../../os/kernel/src/chsem.c" 1
 229              	}
 230              	
 231              	/**
 232              	 * @brief   Performs a wait operation on a semaphore with timeout specification.
 233              	 *
 234              	 * @param[in] sp        pointer to a @p Semaphore structure
 235              	 * @param[in] time      the number of ticks before the operation timeouts,
 236              	 *                      the following special values are allowed:
 237              	 *                      - @a TIME_IMMEDIATE immediate timeout.
 238              	 *                      - @a TIME_INFINITE no timeout.
 239              	 *                      .
 240              	 * @return              A message specifying how the invoking thread has been
 241              	 *                      released from the semaphore.
 242              	 * @retval RDY_OK       if the thread has not stopped on the semaphore or the
 243              	 *                      semaphore has been signaled.
 244              	 * @retval RDY_RESET    if the semaphore has been reset using @p chSemReset().
 245              	 * @retval RDY_TIMEOUT  if the semaphore has not been signaled or reset within
 246              	 *                      the specified timeout.
 247              	 *
 248              	 * @sclass
 249              	 */
 250              	msg_t chSemWaitTimeoutS(Semaphore *sp, systime_t time) {
 251              	
 252              	  chDbgCheckClassS();
 253              	  chDbgCheck(sp != NULL, "chSemWaitTimeoutS");
 254              	  chDbgAssert(((sp->s_cnt >= 0) && isempty(&sp->s_queue)) ||
 255              	              ((sp->s_cnt < 0) && notempty(&sp->s_queue)),
 256              	              "chSemWaitTimeoutS(), #1",
 257              	              "inconsistent semaphore");
 258              	
 259              	  if (--sp->s_cnt < 0) {
 260              	    if (TIME_IMMEDIATE == time) {
 261              	      sp->s_cnt++;
 262              	      return RDY_TIMEOUT;
 263              	    }
 264              	    currp->p_u.wtobjp = sp;
 265              	    sem_insert(currp, &sp->s_queue);
 266              	    return chSchGoSleepTimeoutS(THD_STATE_WTSEM, time);
 267              	  }
 268              	  return RDY_OK;
 269              	}
 270              	
 271              	/**
 272              	 * @brief   Performs a signal operation on a semaphore.
 273              	 *
 274              	 * @param[in] sp        pointer to a @p Semaphore structure
 275              	 *
 276              	 * @api
 277              	 */
 278              	void chSemSignal(Semaphore *sp) {
GAS LISTING /tmp/ccju1a1D.s 			page 14


 279              	
 280              	  chDbgCheck(sp != NULL, "chSemSignal");
 281              	  chDbgAssert(((sp->s_cnt >= 0) && isempty(&sp->s_queue)) ||
 282              	              ((sp->s_cnt < 0) && notempty(&sp->s_queue)),
 283              	              "chSemSignal(), #1",
 284              	              "inconsistent semaphore");
 285              	
 286 0197 90       	  chSysLock();
 287              	  if (++sp->s_cnt <= 0)
 438              		nop
 439              	# 0 "" 2
 440              		.loc 1 287 0
 441              	#NO_APP
 442 0198 8B4808   		movl	8(%eax), %ecx	# sp_3(D)->s_cnt, tmp66
 443 019b 8D5101   		leal	1(%ecx), %edx	#, D.2267
 444 019e 85D2     		testl	%edx, %edx	# D.2267
 445 01a0 895008   		movl	%edx, 8(%eax)	# D.2267, sp_3(D)->s_cnt
 446 01a3 7E0B     		jle	.L33	#,
 447              	.L31:
 448              		.loc 1 289 0
 449              	#APP
 450              	# 289 "../../../os/kernel/src/chsem.c" 1
 288              	    chSchWakeupS(fifo_remove(&sp->s_queue), RDY_OK);
 289 01a5 90       	  chSysUnlock();
 290              	}
 451              		nop
 452              	# 0 "" 2
 453              		.loc 1 290 0
 454              	#NO_APP
 455 01a6 83C41C   		addl	$28, %esp	#,
 456              		.cfi_remember_state
 457              		.cfi_def_cfa_offset 4
 458 01a9 C3       		ret
 459 01aa 8DB60000 		.p2align 4,,7
 459      0000
 460              		.p2align 3
 461              	.L33:
 462              		.cfi_restore_state
 463              	.LVL32:
 464              	.LBB28:
 465              	.LBB29:
 466              		.loc 2 60 0
 467 01b0 8B10     		movl	(%eax), %edx	# MEM[(struct ThreadsQueue *)sp_3(D)].p_next, tp
 468              	.LVL33:
 469              		.loc 2 62 0
 470 01b2 8B0A     		movl	(%edx), %ecx	# tp_10->p_next, D.2269
 471 01b4 8908     		movl	%ecx, (%eax)	# D.2269, MEM[(struct ThreadsQueue *)sp_3(D)].p_next
 472 01b6 894104   		movl	%eax, 4(%ecx)	# sp, _11->p_prev
 473              	.LBE29:
 474              	.LBE28:
 475              		.loc 1 288 0
 476 01b9 C7442404 		movl	$0, 4(%esp)	#,
 476      00000000 
 477 01c1 891424   		movl	%edx, (%esp)	# tp,
 478 01c4 E8FCFFFF 		call	chSchWakeupS	#
 478      FF
 479              	.LVL34:
GAS LISTING /tmp/ccju1a1D.s 			page 15


 480 01c9 EBDA     		jmp	.L31	#
 481              		.cfi_endproc
 482              	.LFE14:
 483              		.size	chSemSignal, .-chSemSignal
 484 01cb 908D7426 		.p2align 4,,15
 484      00
 485              		.globl	chSemSignalI
 486              		.type	chSemSignalI, @function
 487              	chSemSignalI:
 488              	.LFB15:
 489              		.loc 1 303 0
 490              		.cfi_startproc
 491              	.LVL35:
 492              		.loc 1 303 0
 493 01d0 8B442404 		movl	4(%esp), %eax	# sp, sp
 494              		.loc 1 312 0
 495 01d4 8B4808   		movl	8(%eax), %ecx	# sp_3(D)->s_cnt, tmp66
 496 01d7 8D5101   		leal	1(%ecx), %edx	#, D.2272
 497 01da 85D2     		testl	%edx, %edx	# D.2272
 498 01dc 895008   		movl	%edx, 8(%eax)	# D.2272, sp_3(D)->s_cnt
 499 01df 7E07     		jle	.L36	#,
 500 01e1 F3C3     		rep ret
 501              		.p2align 4,,7
 502 01e3 908D7426 		.p2align 3
 502      00
 503              	.L36:
 504              	.LVL36:
 505              	.LBB30:
 506              	.LBB31:
 507              	.LBB32:
 508              		.loc 2 60 0
 509 01e8 8B10     		movl	(%eax), %edx	# MEM[(struct ThreadsQueue *)sp_3(D)].p_next, tp
 510              	.LVL37:
 511              		.loc 2 62 0
 512 01ea 8B0A     		movl	(%edx), %ecx	# tp_11->p_next, D.2274
 513 01ec 8908     		movl	%ecx, (%eax)	# D.2274, MEM[(struct ThreadsQueue *)sp_3(D)].p_next
 514 01ee 894104   		movl	%eax, 4(%ecx)	# sp, _12->p_prev
 515              	.LBE32:
 516              	.LBE31:
 517              		.loc 1 316 0
 518 01f1 C7422400 		movl	$0, 36(%edx)	#, tp_11->p_u.rdymsg
 518      000000
 519              		.loc 1 317 0
 520 01f8 89542404 		movl	%edx, 4(%esp)	# tp,
 521              	.LVL38:
 522 01fc E9FCFFFF 		jmp	chSchReadyI	#
 522      FF
 523              	.LVL39:
 524              	.LBE30:
 525              		.cfi_endproc
 526              	.LFE15:
 527              		.size	chSemSignalI, .-chSemSignalI
 528 0201 EB0D9090 		.p2align 4,,15
 528      90909090 
 528      90909090 
 528      909090
 529              		.globl	chSemAddCounterI
GAS LISTING /tmp/ccju1a1D.s 			page 16


 530              		.type	chSemAddCounterI, @function
 531              	chSemAddCounterI:
 532              	.LFB16:
 533              		.loc 1 334 0
 534              		.cfi_startproc
 535              	.LVL40:
 536 0210 56       		pushl	%esi	#
 537              		.cfi_def_cfa_offset 8
 538              		.cfi_offset 6, -8
 539 0211 53       		pushl	%ebx	#
 540              		.cfi_def_cfa_offset 12
 541              		.cfi_offset 3, -12
 542 0212 83EC14   		subl	$20, %esp	#,
 543              		.cfi_def_cfa_offset 32
 544              		.loc 1 334 0
 545 0215 8B5C2424 		movl	36(%esp), %ebx	# n, n
 546              	.LVL41:
 547 0219 8B742420 		movl	32(%esp), %esi	# sp, sp
 548              		.loc 1 343 0
 549 021d 85DB     		testl	%ebx, %ebx	# n
 550 021f 7F0C     		jg	.L44	#,
 551 0221 EB35     		jmp	.L37	#
 552              		.p2align 4,,7
 553 0223 908D7426 		.p2align 3
 553      00
 554              	.L39:
 555              	.LVL42:
 556 0228 83EB01   		subl	$1, %ebx	#, n
 557              	.LVL43:
 558 022b 742B     		je	.L37	#,
 559              	.LVL44:
 560              	.L44:
 561              		.loc 1 344 0
 562 022d 8B4608   		movl	8(%esi), %eax	# sp_4(D)->s_cnt, tmp68
 563 0230 83C001   		addl	$1, %eax	#, D.2281
 564 0233 85C0     		testl	%eax, %eax	# D.2281
 565 0235 894608   		movl	%eax, 8(%esi)	# D.2281, sp_4(D)->s_cnt
 566 0238 7FEE     		jg	.L39	#,
 567              	.LVL45:
 568              	.LBB33:
 569              	.LBB34:
 570              		.loc 2 60 0
 571 023a 8B06     		movl	(%esi), %eax	# MEM[(struct ThreadsQueue *)sp_4(D)].p_next, tp
 572              	.LVL46:
 573              		.loc 2 62 0
 574 023c 8B10     		movl	(%eax), %edx	# tp_16->p_next, D.2283
 575 023e 8916     		movl	%edx, (%esi)	# D.2283, MEM[(struct ThreadsQueue *)sp_4(D)].p_next
 576 0240 897204   		movl	%esi, 4(%edx)	# sp, _17->p_prev
 577              	.LBE34:
 578              	.LBE33:
 579              		.loc 1 345 0
 580 0243 890424   		movl	%eax, (%esp)	# tp,
 581 0246 E8FCFFFF 		call	chSchReadyI	#
 581      FF
 582              	.LVL47:
 583              		.loc 1 343 0
 584 024b 83EB01   		subl	$1, %ebx	#, n
GAS LISTING /tmp/ccju1a1D.s 			page 17


 585              	.LVL48:
 586              		.loc 1 345 0
 587 024e C7402400 		movl	$0, 36(%eax)	#, _13->p_u.rdymsg
 587      000000
 588              	.LVL49:
 589              		.loc 1 343 0
 590 0255 75D6     		jne	.L44	#,
 591              	.LVL50:
 592              		.p2align 4,,7
 593 0257 90       		.p2align 3
 594              	.L37:
 595              		.loc 1 348 0
 596 0258 83C414   		addl	$20, %esp	#,
 597              		.cfi_def_cfa_offset 12
 598 025b 5B       		popl	%ebx	#
 599              		.cfi_restore 3
 600              		.cfi_def_cfa_offset 8
 601 025c 5E       		popl	%esi	#
 602              		.cfi_restore 6
 603              		.cfi_def_cfa_offset 4
 604 025d C3       		ret
 605              		.cfi_endproc
 606              	.LFE16:
 607              		.size	chSemAddCounterI, .-chSemAddCounterI
 608 025e 6690     		.p2align 4,,15
 609              		.globl	chSemSignalWait
 610              		.type	chSemSignalWait, @function
 611              	chSemSignalWait:
 612              	.LFB17:
 613              		.loc 1 366 0
 614              		.cfi_startproc
 615              	.LVL51:
 616 0260 56       		pushl	%esi	#
 617              		.cfi_def_cfa_offset 8
 618              		.cfi_offset 6, -8
 619 0261 53       		pushl	%ebx	#
 620              		.cfi_def_cfa_offset 12
 621              		.cfi_offset 3, -12
 622 0262 83EC14   		subl	$20, %esp	#,
 623              		.cfi_def_cfa_offset 32
 624              		.loc 1 366 0
 625 0265 8B442420 		movl	32(%esp), %eax	# sps, sps
 626 0269 8B5C2424 		movl	36(%esp), %ebx	# spw, spw
 627              		.loc 1 379 0
 628              	#APP
 629              	# 379 "../../../os/kernel/src/chsem.c" 1
 291              	
 292              	/**
 293              	 * @brief   Performs a signal operation on a semaphore.
 294              	 * @post    This function does not reschedule so a call to a rescheduling
 295              	 *          function must be performed before unlocking the kernel. Note that
 296              	 *          interrupt handlers always reschedule on exit so an explicit
 297              	 *          reschedule must not be performed in ISRs.
 298              	 *
 299              	 * @param[in] sp    pointer to a @p Semaphore structure
 300              	 *
 301              	 * @iclass
GAS LISTING /tmp/ccju1a1D.s 			page 18


 302              	 */
 303              	void chSemSignalI(Semaphore *sp) {
 304              	
 305              	  chDbgCheckClassI();
 306              	  chDbgCheck(sp != NULL, "chSemSignalI");
 307              	  chDbgAssert(((sp->s_cnt >= 0) && isempty(&sp->s_queue)) ||
 308              	              ((sp->s_cnt < 0) && notempty(&sp->s_queue)),
 309              	              "chSemSignalI(), #1",
 310              	              "inconsistent semaphore");
 311              	
 312              	  if (++sp->s_cnt <= 0) {
 313              	    /* Note, it is done this way in order to allow a tail call on
 314              	             chSchReadyI().*/
 315              	    Thread *tp = fifo_remove(&sp->s_queue);
 316              	    tp->p_u.rdymsg = RDY_OK;
 317              	    chSchReadyI(tp);
 318              	  }
 319              	}
 320              	
 321              	/**
 322              	 * @brief   Adds the specified value to the semaphore counter.
 323              	 * @post    This function does not reschedule so a call to a rescheduling
 324              	 *          function must be performed before unlocking the kernel. Note that
 325              	 *          interrupt handlers always reschedule on exit so an explicit
 326              	 *          reschedule must not be performed in ISRs.
 327              	 *
 328              	 * @param[in] sp        pointer to a @p Semaphore structure
 329              	 * @param[in] n         value to be added to the semaphore counter. The value
 330              	 *                      must be positive.
 331              	 *
 332              	 * @iclass
 333              	 */
 334              	void chSemAddCounterI(Semaphore *sp, cnt_t n) {
 335              	
 336              	  chDbgCheckClassI();
 337              	  chDbgCheck((sp != NULL) && (n > 0), "chSemAddCounterI");
 338              	  chDbgAssert(((sp->s_cnt >= 0) && isempty(&sp->s_queue)) ||
 339              	              ((sp->s_cnt < 0) && notempty(&sp->s_queue)),
 340              	              "chSemAddCounterI(), #1",
 341              	              "inconsistent semaphore");
 342              	
 343              	  while (n > 0) {
 344              	    if (++sp->s_cnt <= 0)
 345              	      chSchReadyI(fifo_remove(&sp->s_queue))->p_u.rdymsg = RDY_OK;
 346              	    n--;
 347              	  }
 348              	}
 349              	
 350              	#if CH_USE_SEMSW || defined(__DOXYGEN__)
 351              	/**
 352              	 * @brief   Performs atomic signal and wait operations on two semaphores.
 353              	 * @pre     The configuration option @p CH_USE_SEMSW must be enabled in order
 354              	 *          to use this function.
 355              	 *
 356              	 * @param[in] sps       pointer to a @p Semaphore structure to be signaled
 357              	 * @param[in] spw       pointer to a @p Semaphore structure to wait on
 358              	 * @return              A message specifying how the invoking thread has been
GAS LISTING /tmp/ccju1a1D.s 			page 19


 359              	 *                      released from the semaphore.
 360              	 * @retval RDY_OK       if the thread has not stopped on the semaphore or the
 361              	 *                      semaphore has been signaled.
 362              	 * @retval RDY_RESET    if the semaphore has been reset using @p chSemReset().
 363              	 *
 364              	 * @api
 365              	 */
 366              	msg_t chSemSignalWait(Semaphore *sps, Semaphore *spw) {
 367              	  msg_t msg;
 368              	
 369              	  chDbgCheck((sps != NULL) && (spw != NULL), "chSemSignalWait");
 370              	  chDbgAssert(((sps->s_cnt >= 0) && isempty(&sps->s_queue)) ||
 371              	              ((sps->s_cnt < 0) && notempty(&sps->s_queue)),
 372              	              "chSemSignalWait(), #1",
 373              	              "inconsistent semaphore");
 374              	  chDbgAssert(((spw->s_cnt >= 0) && isempty(&spw->s_queue)) ||
 375              	              ((spw->s_cnt < 0) && notempty(&spw->s_queue)),
 376              	              "chSemSignalWait(), #2",
 377              	              "inconsistent semaphore");
 378              	
 379 026d 90       	  chSysLock();
 380              	  if (++sps->s_cnt <= 0)
 630              		nop
 631              	# 0 "" 2
 632              		.loc 1 380 0
 633              	#NO_APP
 634 026e 8B4808   		movl	8(%eax), %ecx	# sps_4(D)->s_cnt, tmp78
 635 0271 8D5101   		leal	1(%ecx), %edx	#, D.2286
 636 0274 85D2     		testl	%edx, %edx	# D.2286
 637 0276 895008   		movl	%edx, 8(%eax)	# D.2286, sps_4(D)->s_cnt
 638 0279 7E3D     		jle	.L52	#,
 639              	.L48:
 640              		.loc 1 382 0
 641 027b 836B0801 		subl	$1, 8(%ebx)	#, spw_5(D)->s_cnt
 642 027f 780F     		js	.L53	#,
 643              		.loc 1 390 0
 644 0281 E8FCFFFF 		call	chSchRescheduleS	#
 644      FF
 645              	.LVL52:
 646              		.loc 1 391 0
 647 0286 31C0     		xorl	%eax, %eax	# msg
 648              	.LVL53:
 649              	.L50:
 650              		.loc 1 393 0
 651              	#APP
 652              	# 393 "../../../os/kernel/src/chsem.c" 1
 381              	    chSchReadyI(fifo_remove(&sps->s_queue))->p_u.rdymsg = RDY_OK;
 382              	  if (--spw->s_cnt < 0) {
 383              	    Thread *ctp = currp;
 384              	    sem_insert(ctp, &spw->s_queue);
 385              	    ctp->p_u.wtobjp = spw;
 386              	    chSchGoSleepS(THD_STATE_WTSEM);
 387              	    msg = ctp->p_u.rdymsg;
 388              	  }
 389              	  else {
 390              	    chSchRescheduleS();
 391              	    msg = RDY_OK;
GAS LISTING /tmp/ccju1a1D.s 			page 20


 392              	  }
 393 0288 90       	  chSysUnlock();
 394              	  return msg;
 653              		nop
 654              	# 0 "" 2
 655              		.loc 1 395 0
 656              	#NO_APP
 657 0289 83C414   		addl	$20, %esp	#,
 658              		.cfi_remember_state
 659              		.cfi_def_cfa_offset 12
 660 028c 5B       		popl	%ebx	#
 661              		.cfi_restore 3
 662              		.cfi_def_cfa_offset 8
 663 028d 5E       		popl	%esi	#
 664              		.cfi_restore 6
 665              		.cfi_def_cfa_offset 4
 666 028e C3       		ret
 667              	.LVL54:
 668 028f 90       		.p2align 4,,7
 669              		.p2align 3
 670              	.L53:
 671              		.cfi_restore_state
 672              	.LBB35:
 673              		.loc 1 383 0
 674 0290 8B351800 		movl	rlist+24, %esi	# rlist.r_current, ctp
 674      0000
 675              	.LVL55:
 676              	.LBB36:
 677              	.LBB37:
 678              		.loc 2 55 0
 679 0296 8B4304   		movl	4(%ebx), %eax	# MEM[(struct ThreadsQueue *)spw_5(D)].p_prev, D.2288
 680              		.loc 2 54 0
 681 0299 891E     		movl	%ebx, (%esi)	# spw, ctp_18->p_next
 682              		.loc 2 55 0
 683 029b 894604   		movl	%eax, 4(%esi)	# D.2288, ctp_18->p_prev
 684              		.loc 2 56 0
 685 029e 897304   		movl	%esi, 4(%ebx)	# ctp, MEM[(struct ThreadsQueue *)spw_5(D)].p_prev
 686 02a1 8930     		movl	%esi, (%eax)	# ctp, _27->p_next
 687              	.LBE37:
 688              	.LBE36:
 689              		.loc 1 385 0
 690 02a3 895E24   		movl	%ebx, 36(%esi)	# spw, ctp_18->p_u.wtobjp
 691              		.loc 1 386 0
 692 02a6 C7042403 		movl	$3, (%esp)	#,
 692      000000
 693 02ad E8FCFFFF 		call	chSchGoSleepS	#
 693      FF
 694              	.LVL56:
 695              		.loc 1 387 0
 696 02b2 8B4624   		movl	36(%esi), %eax	# ctp_18->p_u.rdymsg, msg
 697              	.LVL57:
 698              	.LBE35:
 699 02b5 EBD1     		jmp	.L50	#
 700              	.LVL58:
 701              		.p2align 4,,7
 702 02b7 90       		.p2align 3
 703              	.L52:
GAS LISTING /tmp/ccju1a1D.s 			page 21


 704              	.LBB38:
 705              	.LBB39:
 706              		.loc 2 60 0
 707 02b8 8B10     		movl	(%eax), %edx	# MEM[(struct ThreadsQueue *)sps_4(D)].p_next, tp
 708              	.LVL59:
 709              		.loc 2 62 0
 710 02ba 8B0A     		movl	(%edx), %ecx	# tp_25->p_next, D.2288
 711 02bc 8908     		movl	%ecx, (%eax)	# D.2288, MEM[(struct ThreadsQueue *)sps_4(D)].p_next
 712 02be 894104   		movl	%eax, 4(%ecx)	# sps, _26->p_prev
 713              	.LBE39:
 714              	.LBE38:
 715              		.loc 1 381 0
 716 02c1 891424   		movl	%edx, (%esp)	# tp,
 717 02c4 E8FCFFFF 		call	chSchReadyI	#
 717      FF
 718              	.LVL60:
 719 02c9 C7402400 		movl	$0, 36(%eax)	#, _13->p_u.rdymsg
 719      000000
 720 02d0 EBA9     		jmp	.L48	#
 721              		.cfi_endproc
 722              	.LFE17:
 723              		.size	chSemSignalWait, .-chSemSignalWait
 724              	.Letext0:
 725              		.file 3 "/usr/include/stdint.h"
 726              		.file 4 "../../../os/ports/GCC/SIMIA32/chtypes.h"
 727              		.file 5 "../../../os/kernel/include/chlists.h"
 728              		.file 6 "../../../os/kernel/include/chthreads.h"
 729              		.file 7 "../../../os/ports/GCC/SIMIA32/chcore.h"
 730              		.file 8 "../../../os/kernel/include/chschd.h"
 731              		.file 9 "../../../os/kernel/include/chsem.h"
 732              		.file 10 "../../../os/kernel/include/chmtx.h"
 3093              		.section	.note.GNU-stack,"",@progbits
GAS LISTING /tmp/ccju1a1D.s 			page 66

