GAS LISTING /tmp/ccju1a1D.s 			page 1


   1              		.file	"chsem.c"
   2              	# GNU C (Ubuntu 4.8.2-19ubuntu1) version 4.8.2 (x86_64-linux-gnu)
   3              	#	compiled by GNU C version 4.8.2, GMP version 5.1.3, MPFR version 3.1.2-p3, MPC version 1.0.1
   4              	# GGC heuristics: --param ggc-min-expand=97 --param ggc-min-heapsize=126309
   5              	# options passed:  -I . -I ../../../os/ports/GCC/SIMIA32
   6              	# -I ../../../os/kernel/include -I ../../../test -I ../../../os/hal/include
   7              	# -I ../../../os/hal/platforms/Posix -I ../../../boards/simulator
   8              	# -I ../../../os/various -imultilib 32 -imultiarch i386-linux-gnu
   9              	# -MD ../../../os/kernel/src/chsem.d -MF .dep/chsem.o.d -MP
  10              	# -MQ ../../../os/kernel/src/chsem.o -D SIMULATOR
  11              	# -D SHELL_USE_IPRINTF=FALSE ../../../os/kernel/src/chsem.c -m32
  12              	# -mtune=generic -march=i686 -auxbase-strip ../../../os/kernel/src/chsem.o
  13              	# -ggdb -O2 -Wall -Wextra -Wstrict-prototypes -fomit-frame-pointer
  14              	# -fverbose-asm -fstack-protector -Wformat -Wformat-security
  15              	# options enabled:  -faggressive-loop-optimizations
  16              	# -fasynchronous-unwind-tables -fauto-inc-dec -fbranch-count-reg
  17              	# -fcaller-saves -fcombine-stack-adjustments -fcommon -fcompare-elim
  18              	# -fcprop-registers -fcrossjumping -fcse-follow-jumps -fdefer-pop
  19              	# -fdelete-null-pointer-checks -fdevirtualize -fdwarf2-cfi-asm
  20              	# -fearly-inlining -feliminate-unused-debug-types -fexpensive-optimizations
  21              	# -fforward-propagate -ffunction-cse -fgcse -fgcse-lm -fgnu-runtime
  22              	# -fguess-branch-probability -fhoist-adjacent-loads -fident -fif-conversion
  23              	# -fif-conversion2 -findirect-inlining -finline -finline-atomics
  24              	# -finline-functions-called-once -finline-small-functions -fipa-cp
  25              	# -fipa-profile -fipa-pure-const -fipa-reference -fipa-sra
  26              	# -fira-hoist-pressure -fira-share-save-slots -fira-share-spill-slots
  27              	# -fivopts -fkeep-static-consts -fleading-underscore -fmath-errno
  28              	# -fmerge-constants -fmerge-debug-strings -fmove-loop-invariants
  29              	# -fomit-frame-pointer -foptimize-register-move -foptimize-sibling-calls
  30              	# -foptimize-strlen -fpartial-inlining -fpcc-struct-return -fpeephole
  31              	# -fpeephole2 -fprefetch-loop-arrays -free -fregmove -freorder-blocks
  32              	# -freorder-functions -frerun-cse-after-loop
  33              	# -fsched-critical-path-heuristic -fsched-dep-count-heuristic
  34              	# -fsched-group-heuristic -fsched-interblock -fsched-last-insn-heuristic
  35              	# -fsched-rank-heuristic -fsched-spec -fsched-spec-insn-heuristic
  36              	# -fsched-stalled-insns-dep -fschedule-insns2 -fshow-column -fshrink-wrap
  37              	# -fsigned-zeros -fsplit-ivs-in-unroller -fsplit-wide-types
  38              	# -fstack-protector -fstrict-aliasing -fstrict-overflow
  39              	# -fstrict-volatile-bitfields -fsync-libcalls -fthread-jumps
  40              	# -ftoplevel-reorder -ftrapping-math -ftree-bit-ccp -ftree-builtin-call-dce
  41              	# -ftree-ccp -ftree-ch -ftree-coalesce-vars -ftree-copy-prop
  42              	# -ftree-copyrename -ftree-cselim -ftree-dce -ftree-dominator-opts
  43              	# -ftree-dse -ftree-forwprop -ftree-fre -ftree-loop-if-convert
  44              	# -ftree-loop-im -ftree-loop-ivcanon -ftree-loop-optimize
  45              	# -ftree-parallelize-loops= -ftree-phiprop -ftree-pre -ftree-pta
  46              	# -ftree-reassoc -ftree-scev-cprop -ftree-sink -ftree-slp-vectorize
  47              	# -ftree-slsr -ftree-sra -ftree-switch-conversion -ftree-tail-merge
  48              	# -ftree-ter -ftree-vect-loop-version -ftree-vrp -funit-at-a-time
  49              	# -funwind-tables -fvar-tracking -fvar-tracking-assignments -fverbose-asm
  50              	# -fzero-initialized-in-bss -m32 -m80387 -m96bit-long-double
  51              	# -maccumulate-outgoing-args -malign-stringops -mfancy-math-387
  52              	# -mfp-ret-in-387 -mglibc -mieee-fp -mlong-double-80 -mno-red-zone
  53              	# -mno-sse4 -mpush-args -msahf -mtls-direct-seg-refs
  54              	
  55              		.text
  56              	.Ltext0:
  57              		.p2align 4,,15
GAS LISTING /tmp/ccju1a1D.s 			page 2


  58              		.globl	chSemInit
  59              		.type	chSemInit, @function
  60              	chSemInit:
  61              	.LFB7:
  62              		.file 1 "../../../os/kernel/src/chsem.c"
  63              		.loc 1 86 0
  64              		.cfi_startproc
  65              	.LVL0:
  66              		.loc 1 86 0
  67 0000 8B442404 		movl	4(%esp), %eax	# sp, sp
  68              		.loc 1 91 0
  69 0004 8B542408 		movl	8(%esp), %edx	# n, n
  70              		.loc 1 90 0
  71 0008 894004   		movl	%eax, 4(%eax)	# sp, sp_1(D)->s_queue.p_prev
  72 000b 8900     		movl	%eax, (%eax)	# sp, sp_1(D)->s_queue.p_next
  73              		.loc 1 91 0
  74 000d 895008   		movl	%edx, 8(%eax)	# n, sp_1(D)->s_cnt
  75 0010 C3       		ret
  76              		.cfi_endproc
  77              	.LFE7:
  78              		.size	chSemInit, .-chSemInit
  79 0011 EB0D9090 		.p2align 4,,15
  79      90909090 
  79      90909090 
  79      909090
  80              		.globl	chSemResetI
  81              		.type	chSemResetI, @function
  82              	chSemResetI:
  83              	.LFB9:
  84              		.loc 1 136 0
  85              		.cfi_startproc
  86              	.LVL1:
  87 0020 56       		pushl	%esi	#
  88              		.cfi_def_cfa_offset 8
  89              		.cfi_offset 6, -8
  90 0021 53       		pushl	%ebx	#
  91              		.cfi_def_cfa_offset 12
  92              		.cfi_offset 3, -12
  93 0022 83EC14   		subl	$20, %esp	#,
  94              		.cfi_def_cfa_offset 32
  95              		.loc 1 136 0
  96 0025 8B5C2420 		movl	32(%esp), %ebx	# sp, sp
  97              		.loc 1 147 0
  98 0029 8B442424 		movl	36(%esp), %eax	# n, n
  99              		.loc 1 141 0
 100 002d 8B7308   		movl	8(%ebx), %esi	# sp_3(D)->s_cnt, cnt
 101              	.LVL2:
 102              		.loc 1 147 0
 103 0030 894308   		movl	%eax, 8(%ebx)	# n, sp_3(D)->s_cnt
 104              		.loc 1 148 0
 105 0033 83C601   		addl	$1, %esi	#, cnt
 106              	.LVL3:
 107 0036 85F6     		testl	%esi, %esi	# cnt
 108 0038 7F28     		jg	.L2	#,
 109 003a 8DB60000 		.p2align 4,,7
 109      0000
 110              		.p2align 3
GAS LISTING /tmp/ccju1a1D.s 			page 3


 111              	.L8:
 112              	.LVL4:
 113              	.LBB20:
 114              	.LBB21:
 115              		.file 2 "../../../os/kernel/include/chinline.h"
 116              		.loc 2 67 0
 117 0040 8B4304   		movl	4(%ebx), %eax	# MEM[(struct ThreadsQueue *)sp_3(D)].p_prev, tp
 118              	.LVL5:
 119              	.LBE21:
 120              	.LBE20:
 121              		.loc 1 148 0
 122 0043 83C601   		addl	$1, %esi	#, cnt
 123              	.LVL6:
 124              	.LBB23:
 125              	.LBB22:
 126              		.loc 2 69 0
 127 0046 8B5004   		movl	4(%eax), %edx	# tp_14->p_prev, D.2245
 128 0049 895304   		movl	%edx, 4(%ebx)	# D.2245, MEM[(struct ThreadsQueue *)sp_3(D)].p_prev
 129 004c 891A     		movl	%ebx, (%edx)	# sp, _15->p_next
 130              	.LBE22:
 131              	.LBE23:
 132              		.loc 1 149 0
 133 004e 890424   		movl	%eax, (%esp)	# tp,
 134 0051 E8FCFFFF 		call	chSchReadyI	#
 134      FF
 135              	.LVL7:
 136              		.loc 1 148 0
 137 0056 83FE01   		cmpl	$1, %esi	#, cnt
 138              		.loc 1 149 0
 139 0059 C74024FE 		movl	$-2, 36(%eax)	#, _12->p_u.rdymsg
 139      FFFFFF
 140              	.LVL8:
 141              		.loc 1 148 0
 142 0060 75DE     		jne	.L8	#,
 143              	.LVL9:
 144              	.L2:
 145              		.loc 1 150 0
 146 0062 83C414   		addl	$20, %esp	#,
 147              		.cfi_def_cfa_offset 12
 148 0065 5B       		popl	%ebx	#
 149              		.cfi_restore 3
 150              		.cfi_def_cfa_offset 8
 151 0066 5E       		popl	%esi	#
 152              		.cfi_restore 6
 153              		.cfi_def_cfa_offset 4
 154              	.LVL10:
 155 0067 C3       		ret
 156              		.cfi_endproc
 157              	.LFE9:
 158              		.size	chSemResetI, .-chSemResetI
 159 0068 908DB426 		.p2align 4,,15
 159      00000000 
 160              		.globl	chSemReset
 161              		.type	chSemReset, @function
 162              	chSemReset:
 163              	.LFB8:
 164              		.loc 1 109 0
GAS LISTING /tmp/ccju1a1D.s 			page 4


 165              		.cfi_startproc
 166              	.LVL11:
 167 0070 83EC1C   		subl	$28, %esp	#,
 168              		.cfi_def_cfa_offset 32
 169              		.loc 1 111 0
 170              	#APP
 171              	# 111 "../../../os/kernel/src/chsem.c" 1
   1              	/*
   2              	    ChibiOS/RT - Copyright (C) 2006,2007,2008,2009,2010,
   3              	                 2011,2012,2013 Giovanni Di Sirio.
   4              	
   5              	    This file is part of ChibiOS/RT.
   6              	
   7              	    ChibiOS/RT is free software; you can redistribute it and/or modify
   8              	    it under the terms of the GNU General Public License as published by
   9              	    the Free Software Foundation; either version 3 of the License, or
  10              	    (at your option) any later version.
  11              	
  12              	    ChibiOS/RT is distributed in the hope that it will be useful,
  13              	    but WITHOUT ANY WARRANTY; without even the implied warranty of
  14              	    MERCHANTABILITY or FITNESS FOR A PARTICULAR PURPOSE.  See the
  15              	    GNU General Public License for more details.
  16              	
  17              	    You should have received a copy of the GNU General Public License
  18              	    along with this program.  If not, see <http://www.gnu.org/licenses/>.
  19              	
  20              	                                      ---
  21              	
  22              	    A special exception to the GPL can be applied should you wish to distribute
  23              	    a combined work that includes ChibiOS/RT, without being obliged to provide
  24              	    the source code for any proprietary components. See the file exception.txt
  25              	    for full details of how and when the exception can be applied.
  26              	*/
  27              	
  28              	/**
  29              	 * @file    chsem.c
  30              	 * @brief   Semaphores code.
  31              	 *
  32              	 * @addtogroup semaphores
  33              	 * @details Semaphores related APIs and services.
  34              	 *
  35              	 *          <h2>Operation mode</h2>
  36              	 *          Semaphores are a flexible synchronization primitive, ChibiOS/RT
  37              	 *          implements semaphores in their "counting semaphores" variant as
  38              	 *          defined by Edsger Dijkstra plus several enhancements like:
  39              	 *          - Wait operation with timeout.
  40              	 *          - Reset operation.
  41              	 *          - Atomic wait+signal operation.
  42              	 *          - Return message from the wait operation (OK, RESET, TIMEOUT).
  43              	 *          .
  44              	 *          The binary semaphores variant can be easily implemented using
  45              	 *          counting semaphores.<br>
  46              	 *          Operations defined for semaphores:
  47              	 *          - <b>Signal</b>: The semaphore counter is increased and if the
  48              	 *            result is non-positive then a waiting thread is removed from
  49              	 *            the semaphore queue and made ready for execution.
  50              	 *          - <b>Wait</b>: The semaphore counter is decreased and if the result
GAS LISTING /tmp/ccju1a1D.s 			page 5


  51              	 *            becomes negative the thread is queued in the semaphore and
  52              	 *            suspended.
  53              	 *          - <b>Reset</b>: The semaphore counter is reset to a non-negative
  54              	 *            value and all the threads in the queue are released.
  55              	 *          .
  56              	 *          Semaphores can be used as guards for mutual exclusion zones
  57              	 *          (note that mutexes are recommended for this kind of use) but
  58              	 *          also have other uses, queues guards and counters for example.<br>
  59              	 *          Semaphores usually use a FIFO queuing strategy but it is possible
  60              	 *          to make them order threads by priority by enabling
  61              	 *          @p CH_USE_SEMAPHORES_PRIORITY in @p chconf.h.
  62              	 * @pre     In order to use the semaphore APIs the @p CH_USE_SEMAPHORES
  63              	 *          option must be enabled in @p chconf.h.
  64              	 * @{
  65              	 */
  66              	
  67              	#include "ch.h"
  68              	
  69              	#if CH_USE_SEMAPHORES || defined(__DOXYGEN__)
  70              	
  71              	#if CH_USE_SEMAPHORES_PRIORITY
  72              	#define sem_insert(tp, qp) prio_insert(tp, qp)
  73              	#else
  74              	#define sem_insert(tp, qp) queue_insert(tp, qp)
  75              	#endif
  76              	
  77              	/**
  78              	 * @brief   Initializes a semaphore with the specified counter value.
  79              	 *
  80              	 * @param[out] sp       pointer to a @p Semaphore structure
  81              	 * @param[in] n         initial value of the semaphore counter. Must be
  82              	 *                      non-negative.
  83              	 *
  84              	 * @init
  85              	 */
  86              	void chSemInit(Semaphore *sp, cnt_t n) {
  87              	
  88              	  chDbgCheck((sp != NULL) && (n >= 0), "chSemInit");
  89              	
  90              	  queue_init(&sp->s_queue);
  91              	  sp->s_cnt = n;
  92              	}
  93              	
  94              	/**
  95              	 * @brief   Performs a reset operation on the semaphore.
  96              	 * @post    After invoking this function all the threads waiting on the
  97              	 *          semaphore, if any, are released and the semaphore counter is set
  98              	 *          to the specified, non negative, value.
  99              	 * @note    The released threads can recognize they were waked up by a reset
 100              	 *          rather than a signal because the @p chSemWait() will return
 101              	 *          @p RDY_RESET instead of @p RDY_OK.
 102              	 *
 103              	 * @param[in] sp        pointer to a @p Semaphore structure
 104              	 * @param[in] n         the new value of the semaphore counter. The value must
 105              	 *                      be non-negative.
 106              	 *
 107              	 * @api
GAS LISTING /tmp/ccju1a1D.s 			page 6


 108              	 */
 109              	void chSemReset(Semaphore *sp, cnt_t n) {
 110              	
 111 0073 90       	  chSysLock();
 112              	  chSemResetI(sp, n);
 172              		nop
 173              	# 0 "" 2
 174              		.loc 1 112 0
 175              	#NO_APP
 176 0074 8B442424 		movl	36(%esp), %eax	# n, n
 177 0078 89442404 		movl	%eax, 4(%esp)	# n,
 178 007c 8B442420 		movl	32(%esp), %eax	# sp, sp
 179 0080 890424   		movl	%eax, (%esp)	# sp,
 180 0083 E8FCFFFF 		call	chSemResetI	#
 180      FF
 181              	.LVL12:
 182              		.loc 1 113 0
 183 0088 E8FCFFFF 		call	chSchRescheduleS	#
 183      FF
 184              	.LVL13:
 185              		.loc 1 114 0
 186              	#APP
 187              	# 114 "../../../os/kernel/src/chsem.c" 1
 113              	  chSchRescheduleS();
 114 008d 90       	  chSysUnlock();
 115              	}
 188              		nop
 189              	# 0 "" 2
 190              		.loc 1 115 0
 191              	#NO_APP
 192 008e 83C41C   		addl	$28, %esp	#,
 193              		.cfi_def_cfa_offset 4
 194 0091 C3       		ret
 195              		.cfi_endproc
 196              	.LFE8:
 197              		.size	chSemReset, .-chSemReset
 198 0092 8DB42600 		.p2align 4,,15
 198      0000008D 
 198      BC270000 
 198      0000
 199              		.globl	chSemWaitS
 200              		.type	chSemWaitS, @function
 201              	chSemWaitS:
 202              	.LFB11:
 203              		.loc 1 185 0
 204              		.cfi_startproc
 205              	.LVL14:
 206 00a0 83EC1C   		subl	$28, %esp	#,
 207              		.cfi_def_cfa_offset 32
 208              		.loc 1 185 0
 209 00a3 8B542420 		movl	32(%esp), %edx	# sp, sp
 210              		.loc 1 194 0
 211 00a7 8B4208   		movl	8(%edx), %eax	# sp_4(D)->s_cnt, tmp72
 212 00aa 8D48FF   		leal	-1(%eax), %ecx	#, D.2252
 213              		.loc 1 200 0
 214 00ad 31C0     		xorl	%eax, %eax	# D.2251
 215              		.loc 1 194 0
GAS LISTING /tmp/ccju1a1D.s 			page 7


 216 00af 85C9     		testl	%ecx, %ecx	# D.2252
 217 00b1 894A08   		movl	%ecx, 8(%edx)	# D.2252, sp_4(D)->s_cnt
 218 00b4 780A     		js	.L18	#,
 219              		.loc 1 201 0
 220 00b6 83C41C   		addl	$28, %esp	#,
 221              		.cfi_remember_state
 222              		.cfi_def_cfa_offset 4
 223 00b9 C3       		ret
 224 00ba 8DB60000 		.p2align 4,,7
 224      0000
 225              		.p2align 3
 226              	.L18:
 227              		.cfi_restore_state
 228              		.loc 1 195 0
 229 00c0 A1180000 		movl	rlist+24, %eax	# rlist.r_current, D.2253
 229      00
 230 00c5 895024   		movl	%edx, 36(%eax)	# sp, _8->p_u.wtobjp
 231              	.LVL15:
 232              	.LBB24:
 233              	.LBB25:
 234              		.loc 2 55 0
 235 00c8 8B4A04   		movl	4(%edx), %ecx	# MEM[(struct ThreadsQueue *)sp_4(D)].p_prev, D.2253
 236              		.loc 2 54 0
 237 00cb 8910     		movl	%edx, (%eax)	# sp, _8->p_next
 238              		.loc 2 55 0
 239 00cd 894804   		movl	%ecx, 4(%eax)	# D.2253, _8->p_prev
 240              		.loc 2 56 0
 241 00d0 894204   		movl	%eax, 4(%edx)	# D.2253, MEM[(struct ThreadsQueue *)sp_4(D)].p_prev
 242              	.LVL16:
 243 00d3 8901     		movl	%eax, (%ecx)	# D.2253, _15->p_next
 244              	.LVL17:
 245              	.LBE25:
 246              	.LBE24:
 247              		.loc 1 197 0
 248 00d5 C7042403 		movl	$3, (%esp)	#,
 248      000000
 249 00dc E8FCFFFF 		call	chSchGoSleepS	#
 249      FF
 250              	.LVL18:
 251              		.loc 1 198 0
 252 00e1 A1180000 		movl	rlist+24, %eax	# rlist.r_current, rlist.r_current
 252      00
 253 00e6 8B4024   		movl	36(%eax), %eax	# _13->p_u.rdymsg, D.2251
 254              		.loc 1 201 0
 255 00e9 83C41C   		addl	$28, %esp	#,
 256              		.cfi_def_cfa_offset 4
 257 00ec C3       		ret
 258              		.cfi_endproc
 259              	.LFE11:
 260              		.size	chSemWaitS, .-chSemWaitS
 261 00ed 8D7600   		.p2align 4,,15
 262              		.globl	chSemWait
 263              		.type	chSemWait, @function
 264              	chSemWait:
 265              	.LFB10:
 266              		.loc 1 164 0
 267              		.cfi_startproc
GAS LISTING /tmp/ccju1a1D.s 			page 8


 268              	.LVL19:
 269 00f0 83EC1C   		subl	$28, %esp	#,
 270              		.cfi_def_cfa_offset 32
 271              		.loc 1 167 0
 272              	#APP
 273              	# 167 "../../../os/kernel/src/chsem.c" 1
 116              	
 117              	/**
 118              	 * @brief   Performs a reset operation on the semaphore.
 119              	 * @post    After invoking this function all the threads waiting on the
 120              	 *          semaphore, if any, are released and the semaphore counter is set
 121              	 *          to the specified, non negative, value.
 122              	 * @post    This function does not reschedule so a call to a rescheduling
 123              	 *          function must be performed before unlocking the kernel. Note that
 124              	 *          interrupt handlers always reschedule on exit so an explicit
 125              	 *          reschedule must not be performed in ISRs.
 126              	 * @note    The released threads can recognize they were waked up by a reset
 127              	 *          rather than a signal because the @p chSemWait() will return
 128              	 *          @p RDY_RESET instead of @p RDY_OK.
 129              	 *
 130              	 * @param[in] sp        pointer to a @p Semaphore structure
 131              	 * @param[in] n         the new value of the semaphore counter. The value must
 132              	 *                      be non-negative.
 133              	 *
 134              	 * @iclass
 135              	 */
 136              	void chSemResetI(Semaphore *sp, cnt_t n) {
 137              	  cnt_t cnt;
 138              	
 139              	  chDbgCheckClassI();
 140              	  chDbgCheck((sp != NULL) && (n >= 0), "chSemResetI");
 141              	  chDbgAssert(((sp->s_cnt >= 0) && isempty(&sp->s_queue)) ||
 142              	              ((sp->s_cnt < 0) && notempty(&sp->s_queue)),
 143              	              "chSemResetI(), #1",
 144              	              "inconsistent semaphore");
 145              	
 146              	  cnt = sp->s_cnt;
 147              	  sp->s_cnt = n;
 148              	  while (++cnt <= 0)
 149              	    chSchReadyI(lifo_remove(&sp->s_queue))->p_u.rdymsg = RDY_RESET;
 150              	}
 151              	
 152              	/**
 153              	 * @brief   Performs a wait operation on a semaphore.
 154              	 *
 155              	 * @param[in] sp        pointer to a @p Semaphore structure
 156              	 * @return              A message specifying how the invoking thread has been
 157              	 *                      released from the semaphore.
 158              	 * @retval RDY_OK       if the thread has not stopped on the semaphore or the
 159              	 *                      semaphore has been signaled.
 160              	 * @retval RDY_RESET    if the semaphore has been reset using @p chSemReset().
 161              	 *
 162              	 * @api
 163              	 */
 164              	msg_t chSemWait(Semaphore *sp) {
 165              	  msg_t msg;
 166              	
GAS LISTING /tmp/ccju1a1D.s 			page 9


 167 00f3 90       	  chSysLock();
 168              	  msg = chSemWaitS(sp);
 274              		nop
 275              	# 0 "" 2
 276              		.loc 1 168 0
 277              	#NO_APP
 278 00f4 8B442420 		movl	32(%esp), %eax	# sp, sp
 279 00f8 890424   		movl	%eax, (%esp)	# sp,
 280 00fb E8FCFFFF 		call	chSemWaitS	#
 280      FF
 281              	.LVL20:
 282              		.loc 1 169 0
 283              	#APP
 284              	# 169 "../../../os/kernel/src/chsem.c" 1
 169 0100 90       	  chSysUnlock();
 170              	  return msg;
 285              		nop
 286              	# 0 "" 2
 287              		.loc 1 171 0
 288              	#NO_APP
 289 0101 83C41C   		addl	$28, %esp	#,
 290              		.cfi_def_cfa_offset 4
 291 0104 C3       		ret
 292              		.cfi_endproc
 293              	.LFE10:
 294              		.size	chSemWait, .-chSemWait
 295 0105 8D742600 		.p2align 4,,15
 295      8DBC2700 
 295      000000
 296              		.globl	chSemWaitTimeoutS
 297              		.type	chSemWaitTimeoutS, @function
 298              	chSemWaitTimeoutS:
 299              	.LFB13:
 300              		.loc 1 250 0
 301              		.cfi_startproc
 302              	.LVL21:
 303 0110 56       		pushl	%esi	#
 304              		.cfi_def_cfa_offset 8
 305              		.cfi_offset 6, -8
 306              		.loc 1 268 0
 307 0111 31C0     		xorl	%eax, %eax	# D.2259
 308              		.loc 1 250 0
 309 0113 53       		pushl	%ebx	#
 310              		.cfi_def_cfa_offset 12
 311              		.cfi_offset 3, -12
 312              		.loc 1 250 0
 313 0114 8B54240C 		movl	12(%esp), %edx	# sp, sp
 314 0118 8B742410 		movl	16(%esp), %esi	# time, time
 315              		.loc 1 254 0
 316 011c 8B5A08   		movl	8(%edx), %ebx	# sp_4(D)->s_cnt, D.2260
 317              		.loc 1 259 0
 318 011f 8D4BFF   		leal	-1(%ebx), %ecx	#, D.2260
 319 0122 85C9     		testl	%ecx, %ecx	# D.2260
 320 0124 894A08   		movl	%ecx, 8(%edx)	# D.2260, sp_4(D)->s_cnt
 321 0127 7807     		js	.L26	#,
 322              	.L22:
 323              		.loc 1 269 0
GAS LISTING /tmp/ccju1a1D.s 			page 10


 324 0129 5B       		popl	%ebx	#
 325              		.cfi_remember_state
 326              		.cfi_restore 3
 327              		.cfi_def_cfa_offset 8
 328 012a 5E       		popl	%esi	#
 329              		.cfi_restore 6
 330              		.cfi_def_cfa_offset 4
 331 012b C3       		ret
 332              	.LVL22:
 333 012c 8D742600 		.p2align 4,,7
 334              		.p2align 3
 335              	.L26:
 336              		.cfi_restore_state
 337              		.loc 1 260 0
 338 0130 85F6     		testl	%esi, %esi	# time
 339 0132 742C     		je	.L27	#,
 340              		.loc 1 264 0
 341 0134 A1180000 		movl	rlist+24, %eax	# rlist.r_current, D.2261
 341      00
 342 0139 895024   		movl	%edx, 36(%eax)	# sp, _10->p_u.wtobjp
 343              	.LVL23:
 344              	.LBB26:
 345              	.LBB27:
 346              		.loc 2 55 0
 347 013c 8B4A04   		movl	4(%edx), %ecx	# MEM[(struct ThreadsQueue *)sp_4(D)].p_prev, D.2261
 348              		.loc 2 54 0
 349 013f 8910     		movl	%edx, (%eax)	# sp, _10->p_next
 350              		.loc 2 55 0
 351 0141 894804   		movl	%ecx, 4(%eax)	# D.2261, _10->p_prev
 352              		.loc 2 56 0
 353 0144 894204   		movl	%eax, 4(%edx)	# D.2261, MEM[(struct ThreadsQueue *)sp_4(D)].p_prev
 354              	.LVL24:
 355 0147 8901     		movl	%eax, (%ecx)	# D.2261, _16->p_next
 356              	.LVL25:
 357              	.LBE27:
 358              	.LBE26:
 359              		.loc 1 266 0
 360 0149 89742410 		movl	%esi, 16(%esp)	# time,
 361 014d C744240C 		movl	$3, 12(%esp)	#,
 361      03000000 
 362              	.LVL26:
 363              		.loc 1 269 0
 364 0155 5B       		popl	%ebx	#
 365              		.cfi_remember_state
 366              		.cfi_restore 3
 367              		.cfi_def_cfa_offset 8
 368 0156 5E       		popl	%esi	#
 369              		.cfi_restore 6
 370              		.cfi_def_cfa_offset 4
 371              	.LVL27:
 372              		.loc 1 266 0
 373 0157 E9FCFFFF 		jmp	chSchGoSleepTimeoutS	#
 373      FF
 374              	.LVL28:
 375 015c 8D742600 		.p2align 4,,7
 376              		.p2align 3
 377              	.L27:
GAS LISTING /tmp/ccju1a1D.s 			page 11


 378              		.cfi_restore_state
 379              		.loc 1 261 0
 380 0160 895A08   		movl	%ebx, 8(%edx)	# D.2260, sp_4(D)->s_cnt
 381              		.loc 1 262 0
 382 0163 B8FFFFFF 		movl	$-1, %eax	#, D.2259
 382      FF
 383 0168 EBBF     		jmp	.L22	#
 384              		.cfi_endproc
 385              	.LFE13:
 386              		.size	chSemWaitTimeoutS, .-chSemWaitTimeoutS
 387 016a 8DB60000 		.p2align 4,,15
 387      0000
 388              		.globl	chSemWaitTimeout
 389              		.type	chSemWaitTimeout, @function
 390              	chSemWaitTimeout:
 391              	.LFB12:
 392              		.loc 1 222 0
 393              		.cfi_startproc
 394              	.LVL29:
 395 0170 83EC1C   		subl	$28, %esp	#,
 396              		.cfi_def_cfa_offset 32
 397              		.loc 1 225 0
 398              	#APP
 399              	# 225 "../../../os/kernel/src/chsem.c" 1
 171              	}
 172              	
 173              	/**
 174              	 * @brief   Performs a wait operation on a semaphore.
 175              	 *
 176              	 * @param[in] sp        pointer to a @p Semaphore structure
 177              	 * @return              A message specifying how the invoking thread has been
 178              	 *                      released from the semaphore.
 179              	 * @retval RDY_OK       if the thread has not stopped on the semaphore or the
 180              	 *                      semaphore has been signaled.
 181              	 * @retval RDY_RESET    if the semaphore has been reset using @p chSemReset().
 182              	 *
 183              	 * @sclass
 184              	 */
 185              	msg_t chSemWaitS(Semaphore *sp) {
 186              	
 187              	  chDbgCheckClassS();
 188              	  chDbgCheck(sp != NULL, "chSemWaitS");
 189              	  chDbgAssert(((sp->s_cnt >= 0) && isempty(&sp->s_queue)) ||
 190              	              ((sp->s_cnt < 0) && notempty(&sp->s_queue)),
 191              	              "chSemWaitS(), #1",
 192              	              "inconsistent semaphore");
 193              	
 194              	  if (--sp->s_cnt < 0) {
 195              	    currp->p_u.wtobjp = sp;
 196              	    sem_insert(currp, &sp->s_queue);
 197              	    chSchGoSleepS(THD_STATE_WTSEM);
 198              	    return currp->p_u.rdymsg;
 199              	  }
 200              	  return RDY_OK;
 201              	}
 202              	
 203              	/**
GAS LISTING /tmp/ccju1a1D.s 			page 12


 204              	 * @brief   Performs a wait operation on a semaphore with timeout specification.
 205              	 *
 206              	 * @param[in] sp        pointer to a @p Semaphore structure
 207              	 * @param[in] time      the number of ticks before the operation timeouts,
 208              	 *                      the following special values are allowed:
 209              	 *                      - @a TIME_IMMEDIATE immediate timeout.
 210              	 *                      - @a TIME_INFINITE no timeout.
 211              	 *                      .
 212              	 * @return              A message specifying how the invoking thread has been
 213              	 *                      released from the semaphore.
 214              	 * @retval RDY_OK       if the thread has not stopped on the semaphore or the
 215              	 *                      semaphore has been signaled.
 216              	 * @retval RDY_RESET    if the semaphore has been reset using @p chSemReset().
 217              	 * @retval RDY_TIMEOUT  if the semaphore has not been signaled or reset within
 218              	 *                      the specified timeout.
 219              	 *
 220              	 * @api
 221              	 */
 222              	msg_t chSemWaitTimeout(Semaphore *sp, systime_t time) {
 223              	  msg_t msg;
 224              	
 225 0173 90       	  chSysLock();
 226              	  msg = chSemWaitTimeoutS(sp, time);
 400              		nop
 401              	# 0 "" 2
 402              		.loc 1 226 0
 403              	#NO_APP
 404 0174 8B442424 		movl	36(%esp), %eax	# time, time
 405 0178 89442404 		movl	%eax, 4(%esp)	# time,
 406 017c 8B442420 		movl	32(%esp), %eax	# sp, sp
 407 0180 890424   		movl	%eax, (%esp)	# sp,
 408 0183 E8FCFFFF 		call	chSemWaitTimeoutS	#
 408      FF
 409              	.LVL30:
 410              		.loc 1 227 0
 411              	#APP
 412              	# 227 "../../../os/kernel/src/chsem.c" 1
 227 0188 90       	  chSysUnlock();
 228              	  return msg;
 413              		nop
 414              	# 0 "" 2
 415              		.loc 1 229 0
 416              	#NO_APP
 417 0189 83C41C   		addl	$28, %esp	#,
 418              		.cfi_def_cfa_offset 4
 419 018c C3       		ret
 420              		.cfi_endproc
 421              	.LFE12:
 422              		.size	chSemWaitTimeout, .-chSemWaitTimeout
 423 018d 8D7600   		.p2align 4,,15
 424              		.globl	chSemSignal
 425              		.type	chSemSignal, @function
 426              	chSemSignal:
 427              	.LFB14:
 428              		.loc 1 278 0
 429              		.cfi_startproc
 430              	.LVL31:
GAS LISTING /tmp/ccju1a1D.s 			page 13


 431 0190 83EC1C   		subl	$28, %esp	#,
 432              		.cfi_def_cfa_offset 32
 433              		.loc 1 278 0
 434 0193 8B442420 		movl	32(%esp), %eax	# sp, sp
 435              		.loc 1 286 0
 436              	#APP
 437              	# 286 "../../../os/kernel/src/chsem.c" 1
 229              	}
 230              	
 231              	/**
 232              	 * @brief   Performs a wait operation on a semaphore with timeout specification.
 233              	 *
 234              	 * @param[in] sp        pointer to a @p Semaphore structure
 235              	 * @param[in] time      the number of ticks before the operation timeouts,
 236              	 *                      the following special values are allowed:
 237              	 *                      - @a TIME_IMMEDIATE immediate timeout.
 238              	 *                      - @a TIME_INFINITE no timeout.
 239              	 *                      .
 240              	 * @return              A message specifying how the invoking thread has been
 241              	 *                      released from the semaphore.
 242              	 * @retval RDY_OK       if the thread has not stopped on the semaphore or the
 243              	 *                      semaphore has been signaled.
 244              	 * @retval RDY_RESET    if the semaphore has been reset using @p chSemReset().
 245              	 * @retval RDY_TIMEOUT  if the semaphore has not been signaled or reset within
 246              	 *                      the specified timeout.
 247              	 *
 248              	 * @sclass
 249              	 */
 250              	msg_t chSemWaitTimeoutS(Semaphore *sp, systime_t time) {
 251              	
 252              	  chDbgCheckClassS();
 253              	  chDbgCheck(sp != NULL, "chSemWaitTimeoutS");
 254              	  chDbgAssert(((sp->s_cnt >= 0) && isempty(&sp->s_queue)) ||
 255              	              ((sp->s_cnt < 0) && notempty(&sp->s_queue)),
 256              	              "chSemWaitTimeoutS(), #1",
 257              	              "inconsistent semaphore");
 258              	
 259              	  if (--sp->s_cnt < 0) {
 260              	    if (TIME_IMMEDIATE == time) {
 261              	      sp->s_cnt++;
 262              	      return RDY_TIMEOUT;
 263              	    }
 264              	    currp->p_u.wtobjp = sp;
 265              	    sem_insert(currp, &sp->s_queue);
 266              	    return chSchGoSleepTimeoutS(THD_STATE_WTSEM, time);
 267              	  }
 268              	  return RDY_OK;
 269              	}
 270              	
 271              	/**
 272              	 * @brief   Performs a signal operation on a semaphore.
 273              	 *
 274              	 * @param[in] sp        pointer to a @p Semaphore structure
 275              	 *
 276              	 * @api
 277              	 */
 278              	void chSemSignal(Semaphore *sp) {
GAS LISTING /tmp/ccju1a1D.s 			page 14


 279              	
 280              	  chDbgCheck(sp != NULL, "chSemSignal");
 281              	  chDbgAssert(((sp->s_cnt >= 0) && isempty(&sp->s_queue)) ||
 282              	              ((sp->s_cnt < 0) && notempty(&sp->s_queue)),
 283              	              "chSemSignal(), #1",
 284              	              "inconsistent semaphore");
 285              	
 286 0197 90       	  chSysLock();
 287              	  if (++sp->s_cnt <= 0)
 438              		nop
 439              	# 0 "" 2
 440              		.loc 1 287 0
 441              	#NO_APP
 442 0198 8B4808   		movl	8(%eax), %ecx	# sp_3(D)->s_cnt, tmp66
 443 019b 8D5101   		leal	1(%ecx), %edx	#, D.2267
 444 019e 85D2     		testl	%edx, %edx	# D.2267
 445 01a0 895008   		movl	%edx, 8(%eax)	# D.2267, sp_3(D)->s_cnt
 446 01a3 7E0B     		jle	.L33	#,
 447              	.L31:
 448              		.loc 1 289 0
 449              	#APP
 450              	# 289 "../../../os/kernel/src/chsem.c" 1
 288              	    chSchWakeupS(fifo_remove(&sp->s_queue), RDY_OK);
 289 01a5 90       	  chSysUnlock();
 290              	}
 451              		nop
 452              	# 0 "" 2
 453              		.loc 1 290 0
 454              	#NO_APP
 455 01a6 83C41C   		addl	$28, %esp	#,
 456              		.cfi_remember_state
 457              		.cfi_def_cfa_offset 4
 458 01a9 C3       		ret
 459 01aa 8DB60000 		.p2align 4,,7
 459      0000
 460              		.p2align 3
 461              	.L33:
 462              		.cfi_restore_state
 463              	.LVL32:
 464              	.LBB28:
 465              	.LBB29:
 466              		.loc 2 60 0
 467 01b0 8B10     		movl	(%eax), %edx	# MEM[(struct ThreadsQueue *)sp_3(D)].p_next, tp
 468              	.LVL33:
 469              		.loc 2 62 0
 470 01b2 8B0A     		movl	(%edx), %ecx	# tp_10->p_next, D.2269
 471 01b4 8908     		movl	%ecx, (%eax)	# D.2269, MEM[(struct ThreadsQueue *)sp_3(D)].p_next
 472 01b6 894104   		movl	%eax, 4(%ecx)	# sp, _11->p_prev
 473              	.LBE29:
 474              	.LBE28:
 475              		.loc 1 288 0
 476 01b9 C7442404 		movl	$0, 4(%esp)	#,
 476      00000000 
 477 01c1 891424   		movl	%edx, (%esp)	# tp,
 478 01c4 E8FCFFFF 		call	chSchWakeupS	#
 478      FF
 479              	.LVL34:
GAS LISTING /tmp/ccju1a1D.s 			page 15


 480 01c9 EBDA     		jmp	.L31	#
 481              		.cfi_endproc
 482              	.LFE14:
 483              		.size	chSemSignal, .-chSemSignal
 484 01cb 908D7426 		.p2align 4,,15
 484      00
 485              		.globl	chSemSignalI
 486              		.type	chSemSignalI, @function
 487              	chSemSignalI:
 488              	.LFB15:
 489              		.loc 1 303 0
 490              		.cfi_startproc
 491              	.LVL35:
 492              		.loc 1 303 0
 493 01d0 8B442404 		movl	4(%esp), %eax	# sp, sp
 494              		.loc 1 312 0
 495 01d4 8B4808   		movl	8(%eax), %ecx	# sp_3(D)->s_cnt, tmp66
 496 01d7 8D5101   		leal	1(%ecx), %edx	#, D.2272
 497 01da 85D2     		testl	%edx, %edx	# D.2272
 498 01dc 895008   		movl	%edx, 8(%eax)	# D.2272, sp_3(D)->s_cnt
 499 01df 7E07     		jle	.L36	#,
 500 01e1 F3C3     		rep ret
 501              		.p2align 4,,7
 502 01e3 908D7426 		.p2align 3
 502      00
 503              	.L36:
 504              	.LVL36:
 505              	.LBB30:
 506              	.LBB31:
 507              	.LBB32:
 508              		.loc 2 60 0
 509 01e8 8B10     		movl	(%eax), %edx	# MEM[(struct ThreadsQueue *)sp_3(D)].p_next, tp
 510              	.LVL37:
 511              		.loc 2 62 0
 512 01ea 8B0A     		movl	(%edx), %ecx	# tp_11->p_next, D.2274
 513 01ec 8908     		movl	%ecx, (%eax)	# D.2274, MEM[(struct ThreadsQueue *)sp_3(D)].p_next
 514 01ee 894104   		movl	%eax, 4(%ecx)	# sp, _12->p_prev
 515              	.LBE32:
 516              	.LBE31:
 517              		.loc 1 316 0
 518 01f1 C7422400 		movl	$0, 36(%edx)	#, tp_11->p_u.rdymsg
 518      000000
 519              		.loc 1 317 0
 520 01f8 89542404 		movl	%edx, 4(%esp)	# tp,
 521              	.LVL38:
 522 01fc E9FCFFFF 		jmp	chSchReadyI	#
 522      FF
 523              	.LVL39:
 524              	.LBE30:
 525              		.cfi_endproc
 526              	.LFE15:
 527              		.size	chSemSignalI, .-chSemSignalI
 528 0201 EB0D9090 		.p2align 4,,15
 528      90909090 
 528      90909090 
 528      909090
 529              		.globl	chSemAddCounterI
GAS LISTING /tmp/ccju1a1D.s 			page 16


 530              		.type	chSemAddCounterI, @function
 531              	chSemAddCounterI:
 532              	.LFB16:
 533              		.loc 1 334 0
 534              		.cfi_startproc
 535              	.LVL40:
 536 0210 56       		pushl	%esi	#
 537              		.cfi_def_cfa_offset 8
 538              		.cfi_offset 6, -8
 539 0211 53       		pushl	%ebx	#
 540              		.cfi_def_cfa_offset 12
 541              		.cfi_offset 3, -12
 542 0212 83EC14   		subl	$20, %esp	#,
 543              		.cfi_def_cfa_offset 32
 544              		.loc 1 334 0
 545 0215 8B5C2424 		movl	36(%esp), %ebx	# n, n
 546              	.LVL41:
 547 0219 8B742420 		movl	32(%esp), %esi	# sp, sp
 548              		.loc 1 343 0
 549 021d 85DB     		testl	%ebx, %ebx	# n
 550 021f 7F0C     		jg	.L44	#,
 551 0221 EB35     		jmp	.L37	#
 552              		.p2align 4,,7
 553 0223 908D7426 		.p2align 3
 553      00
 554              	.L39:
 555              	.LVL42:
 556 0228 83EB01   		subl	$1, %ebx	#, n
 557              	.LVL43:
 558 022b 742B     		je	.L37	#,
 559              	.LVL44:
 560              	.L44:
 561              		.loc 1 344 0
 562 022d 8B4608   		movl	8(%esi), %eax	# sp_4(D)->s_cnt, tmp68
 563 0230 83C001   		addl	$1, %eax	#, D.2281
 564 0233 85C0     		testl	%eax, %eax	# D.2281
 565 0235 894608   		movl	%eax, 8(%esi)	# D.2281, sp_4(D)->s_cnt
 566 0238 7FEE     		jg	.L39	#,
 567              	.LVL45:
 568              	.LBB33:
 569              	.LBB34:
 570              		.loc 2 60 0
 571 023a 8B06     		movl	(%esi), %eax	# MEM[(struct ThreadsQueue *)sp_4(D)].p_next, tp
 572              	.LVL46:
 573              		.loc 2 62 0
 574 023c 8B10     		movl	(%eax), %edx	# tp_16->p_next, D.2283
 575 023e 8916     		movl	%edx, (%esi)	# D.2283, MEM[(struct ThreadsQueue *)sp_4(D)].p_next
 576 0240 897204   		movl	%esi, 4(%edx)	# sp, _17->p_prev
 577              	.LBE34:
 578              	.LBE33:
 579              		.loc 1 345 0
 580 0243 890424   		movl	%eax, (%esp)	# tp,
 581 0246 E8FCFFFF 		call	chSchReadyI	#
 581      FF
 582              	.LVL47:
 583              		.loc 1 343 0
 584 024b 83EB01   		subl	$1, %ebx	#, n
GAS LISTING /tmp/ccju1a1D.s 			page 17


 585              	.LVL48:
 586              		.loc 1 345 0
 587 024e C7402400 		movl	$0, 36(%eax)	#, _13->p_u.rdymsg
 587      000000
 588              	.LVL49:
 589              		.loc 1 343 0
 590 0255 75D6     		jne	.L44	#,
 591              	.LVL50:
 592              		.p2align 4,,7
 593 0257 90       		.p2align 3
 594              	.L37:
 595              		.loc 1 348 0
 596 0258 83C414   		addl	$20, %esp	#,
 597              		.cfi_def_cfa_offset 12
 598 025b 5B       		popl	%ebx	#
 599              		.cfi_restore 3
 600              		.cfi_def_cfa_offset 8
 601 025c 5E       		popl	%esi	#
 602              		.cfi_restore 6
 603              		.cfi_def_cfa_offset 4
 604 025d C3       		ret
 605              		.cfi_endproc
 606              	.LFE16:
 607              		.size	chSemAddCounterI, .-chSemAddCounterI
 608 025e 6690     		.p2align 4,,15
 609              		.globl	chSemSignalWait
 610              		.type	chSemSignalWait, @function
 611              	chSemSignalWait:
 612              	.LFB17:
 613              		.loc 1 366 0
 614              		.cfi_startproc
 615              	.LVL51:
 616 0260 56       		pushl	%esi	#
 617              		.cfi_def_cfa_offset 8
 618              		.cfi_offset 6, -8
 619 0261 53       		pushl	%ebx	#
 620              		.cfi_def_cfa_offset 12
 621              		.cfi_offset 3, -12
 622 0262 83EC14   		subl	$20, %esp	#,
 623              		.cfi_def_cfa_offset 32
 624              		.loc 1 366 0
 625 0265 8B442420 		movl	32(%esp), %eax	# sps, sps
 626 0269 8B5C2424 		movl	36(%esp), %ebx	# spw, spw
 627              		.loc 1 379 0
 628              	#APP
 629              	# 379 "../../../os/kernel/src/chsem.c" 1
 291              	
 292              	/**
 293              	 * @brief   Performs a signal operation on a semaphore.
 294              	 * @post    This function does not reschedule so a call to a rescheduling
 295              	 *          function must be performed before unlocking the kernel. Note that
 296              	 *          interrupt handlers always reschedule on exit so an explicit
 297              	 *          reschedule must not be performed in ISRs.
 298              	 *
 299              	 * @param[in] sp    pointer to a @p Semaphore structure
 300              	 *
 301              	 * @iclass
GAS LISTING /tmp/ccju1a1D.s 			page 18


 302              	 */
 303              	void chSemSignalI(Semaphore *sp) {
 304              	
 305              	  chDbgCheckClassI();
 306              	  chDbgCheck(sp != NULL, "chSemSignalI");
 307              	  chDbgAssert(((sp->s_cnt >= 0) && isempty(&sp->s_queue)) ||
 308              	              ((sp->s_cnt < 0) && notempty(&sp->s_queue)),
 309              	              "chSemSignalI(), #1",
 310              	              "inconsistent semaphore");
 311              	
 312              	  if (++sp->s_cnt <= 0) {
 313              	    /* Note, it is done this way in order to allow a tail call on
 314              	             chSchReadyI().*/
 315              	    Thread *tp = fifo_remove(&sp->s_queue);
 316              	    tp->p_u.rdymsg = RDY_OK;
 317              	    chSchReadyI(tp);
 318              	  }
 319              	}
 320              	
 321              	/**
 322              	 * @brief   Adds the specified value to the semaphore counter.
 323              	 * @post    This function does not reschedule so a call to a rescheduling
 324              	 *          function must be performed before unlocking the kernel. Note that
 325              	 *          interrupt handlers always reschedule on exit so an explicit
 326              	 *          reschedule must not be performed in ISRs.
 327              	 *
 328              	 * @param[in] sp        pointer to a @p Semaphore structure
 329              	 * @param[in] n         value to be added to the semaphore counter. The value
 330              	 *                      must be positive.
 331              	 *
 332              	 * @iclass
 333              	 */
 334              	void chSemAddCounterI(Semaphore *sp, cnt_t n) {
 335              	
 336              	  chDbgCheckClassI();
 337              	  chDbgCheck((sp != NULL) && (n > 0), "chSemAddCounterI");
 338              	  chDbgAssert(((sp->s_cnt >= 0) && isempty(&sp->s_queue)) ||
 339              	              ((sp->s_cnt < 0) && notempty(&sp->s_queue)),
 340              	              "chSemAddCounterI(), #1",
 341              	              "inconsistent semaphore");
 342              	
 343              	  while (n > 0) {
 344              	    if (++sp->s_cnt <= 0)
 345              	      chSchReadyI(fifo_remove(&sp->s_queue))->p_u.rdymsg = RDY_OK;
 346              	    n--;
 347              	  }
 348              	}
 349              	
 350              	#if CH_USE_SEMSW || defined(__DOXYGEN__)
 351              	/**
 352              	 * @brief   Performs atomic signal and wait operations on two semaphores.
 353              	 * @pre     The configuration option @p CH_USE_SEMSW must be enabled in order
 354              	 *          to use this function.
 355              	 *
 356              	 * @param[in] sps       pointer to a @p Semaphore structure to be signaled
 357              	 * @param[in] spw       pointer to a @p Semaphore structure to wait on
 358              	 * @return              A message specifying how the invoking thread has been
GAS LISTING /tmp/ccju1a1D.s 			page 19


 359              	 *                      released from the semaphore.
 360              	 * @retval RDY_OK       if the thread has not stopped on the semaphore or the
 361              	 *                      semaphore has been signaled.
 362              	 * @retval RDY_RESET    if the semaphore has been reset using @p chSemReset().
 363              	 *
 364              	 * @api
 365              	 */
 366              	msg_t chSemSignalWait(Semaphore *sps, Semaphore *spw) {
 367              	  msg_t msg;
 368              	
 369              	  chDbgCheck((sps != NULL) && (spw != NULL), "chSemSignalWait");
 370              	  chDbgAssert(((sps->s_cnt >= 0) && isempty(&sps->s_queue)) ||
 371              	              ((sps->s_cnt < 0) && notempty(&sps->s_queue)),
 372              	              "chSemSignalWait(), #1",
 373              	              "inconsistent semaphore");
 374              	  chDbgAssert(((spw->s_cnt >= 0) && isempty(&spw->s_queue)) ||
 375              	              ((spw->s_cnt < 0) && notempty(&spw->s_queue)),
 376              	              "chSemSignalWait(), #2",
 377              	              "inconsistent semaphore");
 378              	
 379 026d 90       	  chSysLock();
 380              	  if (++sps->s_cnt <= 0)
 630              		nop
 631              	# 0 "" 2
 632              		.loc 1 380 0
 633              	#NO_APP
 634 026e 8B4808   		movl	8(%eax), %ecx	# sps_4(D)->s_cnt, tmp78
 635 0271 8D5101   		leal	1(%ecx), %edx	#, D.2286
 636 0274 85D2     		testl	%edx, %edx	# D.2286
 637 0276 895008   		movl	%edx, 8(%eax)	# D.2286, sps_4(D)->s_cnt
 638 0279 7E3D     		jle	.L52	#,
 639              	.L48:
 640              		.loc 1 382 0
 641 027b 836B0801 		subl	$1, 8(%ebx)	#, spw_5(D)->s_cnt
 642 027f 780F     		js	.L53	#,
 643              		.loc 1 390 0
 644 0281 E8FCFFFF 		call	chSchRescheduleS	#
 644      FF
 645              	.LVL52:
 646              		.loc 1 391 0
 647 0286 31C0     		xorl	%eax, %eax	# msg
 648              	.LVL53:
 649              	.L50:
 650              		.loc 1 393 0
 651              	#APP
 652              	# 393 "../../../os/kernel/src/chsem.c" 1
 381              	    chSchReadyI(fifo_remove(&sps->s_queue))->p_u.rdymsg = RDY_OK;
 382              	  if (--spw->s_cnt < 0) {
 383              	    Thread *ctp = currp;
 384              	    sem_insert(ctp, &spw->s_queue);
 385              	    ctp->p_u.wtobjp = spw;
 386              	    chSchGoSleepS(THD_STATE_WTSEM);
 387              	    msg = ctp->p_u.rdymsg;
 388              	  }
 389              	  else {
 390              	    chSchRescheduleS();
 391              	    msg = RDY_OK;
GAS LISTING /tmp/ccju1a1D.s 			page 20


 392              	  }
 393 0288 90       	  chSysUnlock();
 394              	  return msg;
 653              		nop
 654              	# 0 "" 2
 655              		.loc 1 395 0
 656              	#NO_APP
 657 0289 83C414   		addl	$20, %esp	#,
 658              		.cfi_remember_state
 659              		.cfi_def_cfa_offset 12
 660 028c 5B       		popl	%ebx	#
 661              		.cfi_restore 3
 662              		.cfi_def_cfa_offset 8
 663 028d 5E       		popl	%esi	#
 664              		.cfi_restore 6
 665              		.cfi_def_cfa_offset 4
 666 028e C3       		ret
 667              	.LVL54:
 668 028f 90       		.p2align 4,,7
 669              		.p2align 3
 670              	.L53:
 671              		.cfi_restore_state
 672              	.LBB35:
 673              		.loc 1 383 0
 674 0290 8B351800 		movl	rlist+24, %esi	# rlist.r_current, ctp
 674      0000
 675              	.LVL55:
 676              	.LBB36:
 677              	.LBB37:
 678              		.loc 2 55 0
 679 0296 8B4304   		movl	4(%ebx), %eax	# MEM[(struct ThreadsQueue *)spw_5(D)].p_prev, D.2288
 680              		.loc 2 54 0
 681 0299 891E     		movl	%ebx, (%esi)	# spw, ctp_18->p_next
 682              		.loc 2 55 0
 683 029b 894604   		movl	%eax, 4(%esi)	# D.2288, ctp_18->p_prev
 684              		.loc 2 56 0
 685 029e 897304   		movl	%esi, 4(%ebx)	# ctp, MEM[(struct ThreadsQueue *)spw_5(D)].p_prev
 686 02a1 8930     		movl	%esi, (%eax)	# ctp, _27->p_next
 687              	.LBE37:
 688              	.LBE36:
 689              		.loc 1 385 0
 690 02a3 895E24   		movl	%ebx, 36(%esi)	# spw, ctp_18->p_u.wtobjp
 691              		.loc 1 386 0
 692 02a6 C7042403 		movl	$3, (%esp)	#,
 692      000000
 693 02ad E8FCFFFF 		call	chSchGoSleepS	#
 693      FF
 694              	.LVL56:
 695              		.loc 1 387 0
 696 02b2 8B4624   		movl	36(%esi), %eax	# ctp_18->p_u.rdymsg, msg
 697              	.LVL57:
 698              	.LBE35:
 699 02b5 EBD1     		jmp	.L50	#
 700              	.LVL58:
 701              		.p2align 4,,7
 702 02b7 90       		.p2align 3
 703              	.L52:
GAS LISTING /tmp/ccju1a1D.s 			page 21


 704              	.LBB38:
 705              	.LBB39:
 706              		.loc 2 60 0
 707 02b8 8B10     		movl	(%eax), %edx	# MEM[(struct ThreadsQueue *)sps_4(D)].p_next, tp
 708              	.LVL59:
 709              		.loc 2 62 0
 710 02ba 8B0A     		movl	(%edx), %ecx	# tp_25->p_next, D.2288
 711 02bc 8908     		movl	%ecx, (%eax)	# D.2288, MEM[(struct ThreadsQueue *)sps_4(D)].p_next
 712 02be 894104   		movl	%eax, 4(%ecx)	# sps, _26->p_prev
 713              	.LBE39:
 714              	.LBE38:
 715              		.loc 1 381 0
 716 02c1 891424   		movl	%edx, (%esp)	# tp,
 717 02c4 E8FCFFFF 		call	chSchReadyI	#
 717      FF
 718              	.LVL60:
 719 02c9 C7402400 		movl	$0, 36(%eax)	#, _13->p_u.rdymsg
 719      000000
 720 02d0 EBA9     		jmp	.L48	#
 721              		.cfi_endproc
 722              	.LFE17:
 723              		.size	chSemSignalWait, .-chSemSignalWait
 724              	.Letext0:
 725              		.file 3 "/usr/include/stdint.h"
 726              		.file 4 "../../../os/ports/GCC/SIMIA32/chtypes.h"
 727              		.file 5 "../../../os/kernel/include/chlists.h"
 728              		.file 6 "../../../os/kernel/include/chthreads.h"
 729              		.file 7 "../../../os/ports/GCC/SIMIA32/chcore.h"
 730              		.file 8 "../../../os/kernel/include/chschd.h"
 731              		.file 9 "../../../os/kernel/include/chsem.h"
 732              		.file 10 "../../../os/kernel/include/chmtx.h"
 733              		.section	.debug_info,"",@progbits
 734              	.Ldebug_info0:
 735 0000 55090000 		.long	0x955
 736 0004 0400     		.value	0x4
 737 0006 00000000 		.long	.Ldebug_abbrev0
 738 000a 04       		.byte	0x4
 739 000b 01       		.uleb128 0x1
 740 000c 39020000 		.long	.LASF82
 741 0010 01       		.byte	0x1
 742 0011 7A010000 		.long	.LASF83
 743 0015 A0000000 		.long	.LASF84
 744 0019 00000000 		.long	.Ltext0
 745 001d D2020000 		.long	.Letext0-.Ltext0
 746 0021 00000000 		.long	.Ldebug_line0
 747 0025 02       		.uleb128 0x2
 748 0026 04       		.byte	0x4
 749 0027 05       		.byte	0x5
 750 0028 696E7400 		.string	"int"
 751 002c 03       		.uleb128 0x3
 752 002d 04       		.byte	0x4
 753 002e 07       		.byte	0x7
 754 002f 1F010000 		.long	.LASF0
 755 0033 03       		.uleb128 0x3
 756 0034 04       		.byte	0x4
 757 0035 05       		.byte	0x5
 758 0036 D2000000 		.long	.LASF1
GAS LISTING /tmp/ccju1a1D.s 			page 22


 759 003a 03       		.uleb128 0x3
 760 003b 01       		.byte	0x1
 761 003c 06       		.byte	0x6
 762 003d 74000000 		.long	.LASF2
 763 0041 03       		.uleb128 0x3
 764 0042 02       		.byte	0x2
 765 0043 05       		.byte	0x5
 766 0044 A0020000 		.long	.LASF3
 767 0048 04       		.uleb128 0x4
 768 0049 23020000 		.long	.LASF5
 769 004d 03       		.byte	0x3
 770 004e 26       		.byte	0x26
 771 004f 25000000 		.long	0x25
 772 0053 03       		.uleb128 0x3
 773 0054 08       		.byte	0x8
 774 0055 05       		.byte	0x5
 775 0056 66000000 		.long	.LASF4
 776 005a 04       		.uleb128 0x4
 777 005b AB030000 		.long	.LASF6
 778 005f 03       		.byte	0x3
 779 0060 30       		.byte	0x30
 780 0061 65000000 		.long	0x65
 781 0065 03       		.uleb128 0x3
 782 0066 01       		.byte	0x1
 783 0067 08       		.byte	0x8
 784 0068 2B020000 		.long	.LASF7
 785 006c 03       		.uleb128 0x3
 786 006d 02       		.byte	0x2
 787 006e 07       		.byte	0x7
 788 006f 56010000 		.long	.LASF8
 789 0073 04       		.uleb128 0x4
 790 0074 04030000 		.long	.LASF9
 791 0078 03       		.byte	0x3
 792 0079 33       		.byte	0x33
 793 007a 2C000000 		.long	0x2c
 794 007e 03       		.uleb128 0x3
 795 007f 08       		.byte	0x8
 796 0080 07       		.byte	0x7
 797 0081 2E000000 		.long	.LASF10
 798 0085 03       		.uleb128 0x3
 799 0086 01       		.byte	0x1
 800 0087 02       		.byte	0x2
 801 0088 1D020000 		.long	.LASF11
 802 008c 04       		.uleb128 0x4
 803 008d 99010000 		.long	.LASF12
 804 0091 04       		.byte	0x4
 805 0092 24       		.byte	0x24
 806 0093 5A000000 		.long	0x5a
 807 0097 04       		.uleb128 0x4
 808 0098 DB000000 		.long	.LASF13
 809 009c 04       		.byte	0x4
 810 009d 25       		.byte	0x25
 811 009e 5A000000 		.long	0x5a
 812 00a2 04       		.uleb128 0x4
 813 00a3 06020000 		.long	.LASF14
 814 00a7 04       		.byte	0x4
 815 00a8 26       		.byte	0x26
GAS LISTING /tmp/ccju1a1D.s 			page 23


 816 00a9 5A000000 		.long	0x5a
 817 00ad 04       		.uleb128 0x4
 818 00ae C8000000 		.long	.LASF15
 819 00b2 04       		.byte	0x4
 820 00b3 27       		.byte	0x27
 821 00b4 5A000000 		.long	0x5a
 822 00b8 04       		.uleb128 0x4
 823 00b9 15020000 		.long	.LASF16
 824 00bd 04       		.byte	0x4
 825 00be 28       		.byte	0x28
 826 00bf 73000000 		.long	0x73
 827 00c3 04       		.uleb128 0x4
 828 00c4 74010000 		.long	.LASF17
 829 00c8 04       		.byte	0x4
 830 00c9 29       		.byte	0x29
 831 00ca 48000000 		.long	0x48
 832 00ce 04       		.uleb128 0x4
 833 00cf AD010000 		.long	.LASF18
 834 00d3 04       		.byte	0x4
 835 00d4 2B       		.byte	0x2b
 836 00d5 73000000 		.long	0x73
 837 00d9 04       		.uleb128 0x4
 838 00da 44030000 		.long	.LASF19
 839 00de 04       		.byte	0x4
 840 00df 2D       		.byte	0x2d
 841 00e0 73000000 		.long	0x73
 842 00e4 04       		.uleb128 0x4
 843 00e5 19010000 		.long	.LASF20
 844 00e9 04       		.byte	0x4
 845 00ea 2E       		.byte	0x2e
 846 00eb 48000000 		.long	0x48
 847 00ef 04       		.uleb128 0x4
 848 00f0 E4020000 		.long	.LASF21
 849 00f4 05       		.byte	0x5
 850 00f5 2A       		.byte	0x2a
 851 00f6 FA000000 		.long	0xfa
 852 00fa 05       		.uleb128 0x5
 853 00fb E4020000 		.long	.LASF21
 854 00ff 48       		.byte	0x48
 855 0100 06       		.byte	0x6
 856 0101 5E       		.byte	0x5e
 857 0102 F7010000 		.long	0x1f7
 858 0106 06       		.uleb128 0x6
 859 0107 CA020000 		.long	.LASF22
 860 010b 06       		.byte	0x6
 861 010c 5F       		.byte	0x5f
 862 010d 18020000 		.long	0x218
 863 0111 00       		.byte	0
 864 0112 06       		.uleb128 0x6
 865 0113 0E020000 		.long	.LASF23
 866 0117 06       		.byte	0x6
 867 0118 61       		.byte	0x61
 868 0119 18020000 		.long	0x218
 869 011d 04       		.byte	0x4
 870 011e 06       		.uleb128 0x6
 871 011f 5F000000 		.long	.LASF24
 872 0123 06       		.byte	0x6
GAS LISTING /tmp/ccju1a1D.s 			page 24


 873 0124 63       		.byte	0x63
 874 0125 B8000000 		.long	0xb8
 875 0129 08       		.byte	0x8
 876 012a 06       		.uleb128 0x6
 877 012b E5030000 		.long	.LASF25
 878 012f 06       		.byte	0x6
 879 0130 64       		.byte	0x64
 880 0131 A6020000 		.long	0x2a6
 881 0135 0C       		.byte	0xc
 882 0136 06       		.uleb128 0x6
 883 0137 F0000000 		.long	.LASF26
 884 013b 06       		.byte	0x6
 885 013c 66       		.byte	0x66
 886 013d 18020000 		.long	0x218
 887 0141 10       		.byte	0x10
 888 0142 06       		.uleb128 0x6
 889 0143 D4010000 		.long	.LASF27
 890 0147 06       		.byte	0x6
 891 0148 67       		.byte	0x67
 892 0149 18020000 		.long	0x218
 893 014d 14       		.byte	0x14
 894 014e 06       		.uleb128 0x6
 895 014f BA030000 		.long	.LASF28
 896 0153 06       		.byte	0x6
 897 0154 6E       		.byte	0x6e
 898 0155 D2030000 		.long	0x3d2
 899 0159 18       		.byte	0x18
 900 015a 06       		.uleb128 0x6
 901 015b AA020000 		.long	.LASF29
 902 015f 06       		.byte	0x6
 903 0160 79       		.byte	0x79
 904 0161 97000000 		.long	0x97
 905 0165 1C       		.byte	0x1c
 906 0166 06       		.uleb128 0x6
 907 0167 D1020000 		.long	.LASF30
 908 016b 06       		.byte	0x6
 909 016c 7D       		.byte	0x7d
 910 016d 8C000000 		.long	0x8c
 911 0171 1D       		.byte	0x1d
 912 0172 06       		.uleb128 0x6
 913 0173 94030000 		.long	.LASF31
 914 0177 06       		.byte	0x6
 915 0178 82       		.byte	0x82
 916 0179 A2000000 		.long	0xa2
 917 017d 1E       		.byte	0x1e
 918 017e 06       		.uleb128 0x6
 919 017f B2020000 		.long	.LASF32
 920 0183 06       		.byte	0x6
 921 0184 88       		.byte	0x88
 922 0185 AD000000 		.long	0xad
 923 0189 1F       		.byte	0x1f
 924 018a 06       		.uleb128 0x6
 925 018b 63030000 		.long	.LASF33
 926 018f 06       		.byte	0x6
 927 0190 8F       		.byte	0x8f
 928 0191 CA020000 		.long	0x2ca
 929 0195 20       		.byte	0x20
GAS LISTING /tmp/ccju1a1D.s 			page 25


 930 0196 07       		.uleb128 0x7
 931 0197 705F7500 		.string	"p_u"
 932 019b 06       		.byte	0x6
 933 019c B4       		.byte	0xb4
 934 019d 9D030000 		.long	0x39d
 935 01a1 24       		.byte	0x24
 936 01a2 06       		.uleb128 0x6
 937 01a3 EB030000 		.long	.LASF34
 938 01a7 06       		.byte	0x6
 939 01a8 B9       		.byte	0xb9
 940 01a9 3E020000 		.long	0x23e
 941 01ad 28       		.byte	0x28
 942 01ae 06       		.uleb128 0x6
 943 01af 3D010000 		.long	.LASF35
 944 01b3 06       		.byte	0x6
 945 01b4 BF       		.byte	0xbf
 946 01b5 1E020000 		.long	0x21e
 947 01b9 2C       		.byte	0x2c
 948 01ba 06       		.uleb128 0x6
 949 01bb 00000000 		.long	.LASF36
 950 01bf 06       		.byte	0x6
 951 01c0 C3       		.byte	0xc3
 952 01c1 C3000000 		.long	0xc3
 953 01c5 34       		.byte	0x34
 954 01c6 06       		.uleb128 0x6
 955 01c7 F9020000 		.long	.LASF37
 956 01cb 06       		.byte	0x6
 957 01cc C9       		.byte	0xc9
 958 01cd CE000000 		.long	0xce
 959 01d1 38       		.byte	0x38
 960 01d2 06       		.uleb128 0x6
 961 01d3 96020000 		.long	.LASF38
 962 01d7 06       		.byte	0x6
 963 01d8 D0       		.byte	0xd0
 964 01d9 E4030000 		.long	0x3e4
 965 01dd 3C       		.byte	0x3c
 966 01de 06       		.uleb128 0x6
 967 01df 4E030000 		.long	.LASF39
 968 01e3 06       		.byte	0x6
 969 01e4 D4       		.byte	0xd4
 970 01e5 B8000000 		.long	0xb8
 971 01e9 40       		.byte	0x40
 972 01ea 06       		.uleb128 0x6
 973 01eb 90000000 		.long	.LASF40
 974 01ef 06       		.byte	0x6
 975 01f0 DA       		.byte	0xda
 976 01f1 5B020000 		.long	0x25b
 977 01f5 44       		.byte	0x44
 978 01f6 00       		.byte	0
 979 01f7 08       		.uleb128 0x8
 980 01f8 08       		.byte	0x8
 981 01f9 05       		.byte	0x5
 982 01fa 61       		.byte	0x61
 983 01fb 18020000 		.long	0x218
 984 01ff 06       		.uleb128 0x6
 985 0200 CA020000 		.long	.LASF22
 986 0204 05       		.byte	0x5
GAS LISTING /tmp/ccju1a1D.s 			page 26


 987 0205 62       		.byte	0x62
 988 0206 18020000 		.long	0x218
 989 020a 00       		.byte	0
 990 020b 06       		.uleb128 0x6
 991 020c 0E020000 		.long	.LASF23
 992 0210 05       		.byte	0x5
 993 0211 64       		.byte	0x64
 994 0212 18020000 		.long	0x218
 995 0216 04       		.byte	0x4
 996 0217 00       		.byte	0
 997 0218 09       		.uleb128 0x9
 998 0219 04       		.byte	0x4
 999 021a EF000000 		.long	0xef
 1000 021e 04       		.uleb128 0x4
 1001 021f E2010000 		.long	.LASF41
 1002 0223 05       		.byte	0x5
 1003 0224 66       		.byte	0x66
 1004 0225 F7010000 		.long	0x1f7
 1005 0229 08       		.uleb128 0x8
 1006 022a 04       		.byte	0x4
 1007 022b 05       		.byte	0x5
 1008 022c 6B       		.byte	0x6b
 1009 022d 3E020000 		.long	0x23e
 1010 0231 06       		.uleb128 0x6
 1011 0232 CA020000 		.long	.LASF22
 1012 0236 05       		.byte	0x5
 1013 0237 6D       		.byte	0x6d
 1014 0238 18020000 		.long	0x218
 1015 023c 00       		.byte	0
 1016 023d 00       		.byte	0
 1017 023e 04       		.uleb128 0x4
 1018 023f A1010000 		.long	.LASF42
 1019 0243 05       		.byte	0x5
 1020 0244 70       		.byte	0x70
 1021 0245 29020000 		.long	0x229
 1022 0249 03       		.uleb128 0x3
 1023 024a 04       		.byte	0x4
 1024 024b 07       		.byte	0x7
 1025 024c CB010000 		.long	.LASF43
 1026 0250 04       		.uleb128 0x4
 1027 0251 D6030000 		.long	.LASF44
 1028 0255 07       		.byte	0x7
 1029 0256 4B       		.byte	0x4b
 1030 0257 5B020000 		.long	0x25b
 1031 025b 0A       		.uleb128 0xa
 1032 025c 04       		.byte	0x4
 1033 025d 05       		.uleb128 0x5
 1034 025e 76030000 		.long	.LASF45
 1035 0262 14       		.byte	0x14
 1036 0263 07       		.byte	0x7
 1037 0264 59       		.byte	0x59
 1038 0265 A6020000 		.long	0x2a6
 1039 0269 07       		.uleb128 0x7
 1040 026a 65627800 		.string	"ebx"
 1041 026e 07       		.byte	0x7
 1042 026f 5A       		.byte	0x5a
 1043 0270 50020000 		.long	0x250
GAS LISTING /tmp/ccju1a1D.s 			page 27


 1044 0274 00       		.byte	0
 1045 0275 07       		.uleb128 0x7
 1046 0276 65646900 		.string	"edi"
 1047 027a 07       		.byte	0x7
 1048 027b 5B       		.byte	0x5b
 1049 027c 50020000 		.long	0x250
 1050 0280 04       		.byte	0x4
 1051 0281 07       		.uleb128 0x7
 1052 0282 65736900 		.string	"esi"
 1053 0286 07       		.byte	0x7
 1054 0287 5C       		.byte	0x5c
 1055 0288 50020000 		.long	0x250
 1056 028c 08       		.byte	0x8
 1057 028d 07       		.uleb128 0x7
 1058 028e 65627000 		.string	"ebp"
 1059 0292 07       		.byte	0x7
 1060 0293 5D       		.byte	0x5d
 1061 0294 50020000 		.long	0x250
 1062 0298 0C       		.byte	0xc
 1063 0299 07       		.uleb128 0x7
 1064 029a 65697000 		.string	"eip"
 1065 029e 07       		.byte	0x7
 1066 029f 5E       		.byte	0x5e
 1067 02a0 50020000 		.long	0x250
 1068 02a4 10       		.byte	0x10
 1069 02a5 00       		.byte	0
 1070 02a6 05       		.uleb128 0x5
 1071 02a7 4E010000 		.long	.LASF46
 1072 02ab 04       		.byte	0x4
 1073 02ac 07       		.byte	0x7
 1074 02ad 66       		.byte	0x66
 1075 02ae BF020000 		.long	0x2bf
 1076 02b2 07       		.uleb128 0x7
 1077 02b3 65737000 		.string	"esp"
 1078 02b7 07       		.byte	0x7
 1079 02b8 67       		.byte	0x67
 1080 02b9 BF020000 		.long	0x2bf
 1081 02bd 00       		.byte	0
 1082 02be 00       		.byte	0
 1083 02bf 09       		.uleb128 0x9
 1084 02c0 04       		.byte	0x4
 1085 02c1 C5020000 		.long	0x2c5
 1086 02c5 0B       		.uleb128 0xb
 1087 02c6 5D020000 		.long	0x25d
 1088 02ca 0B       		.uleb128 0xb
 1089 02cb D9000000 		.long	0xd9
 1090 02cf 08       		.uleb128 0x8
 1091 02d0 1C       		.byte	0x1c
 1092 02d1 08       		.byte	0x8
 1093 02d2 5E       		.byte	0x5e
 1094 02d3 20030000 		.long	0x320
 1095 02d7 06       		.uleb128 0x6
 1096 02d8 0D030000 		.long	.LASF47
 1097 02dc 08       		.byte	0x8
 1098 02dd 5F       		.byte	0x5f
 1099 02de 1E020000 		.long	0x21e
 1100 02e2 00       		.byte	0
GAS LISTING /tmp/ccju1a1D.s 			page 28


 1101 02e3 06       		.uleb128 0x6
 1102 02e4 BC020000 		.long	.LASF48
 1103 02e8 08       		.byte	0x8
 1104 02e9 60       		.byte	0x60
 1105 02ea B8000000 		.long	0xb8
 1106 02ee 08       		.byte	0x8
 1107 02ef 06       		.uleb128 0x6
 1108 02f0 DC010000 		.long	.LASF49
 1109 02f4 08       		.byte	0x8
 1110 02f5 62       		.byte	0x62
 1111 02f6 A6020000 		.long	0x2a6
 1112 02fa 0C       		.byte	0xc
 1113 02fb 06       		.uleb128 0x6
 1114 02fc 11010000 		.long	.LASF50
 1115 0300 08       		.byte	0x8
 1116 0301 65       		.byte	0x65
 1117 0302 18020000 		.long	0x218
 1118 0306 10       		.byte	0x10
 1119 0307 06       		.uleb128 0x6
 1120 0308 FE010000 		.long	.LASF51
 1121 030c 08       		.byte	0x8
 1122 030d 66       		.byte	0x66
 1123 030e 18020000 		.long	0x218
 1124 0312 14       		.byte	0x14
 1125 0313 06       		.uleb128 0x6
 1126 0314 F4010000 		.long	.LASF52
 1127 0318 08       		.byte	0x8
 1128 0319 69       		.byte	0x69
 1129 031a 18020000 		.long	0x218
 1130 031e 18       		.byte	0x18
 1131 031f 00       		.byte	0
 1132 0320 04       		.uleb128 0x4
 1133 0321 9B030000 		.long	.LASF53
 1134 0325 08       		.byte	0x8
 1135 0326 6B       		.byte	0x6b
 1136 0327 CF020000 		.long	0x2cf
 1137 032b 05       		.uleb128 0x5
 1138 032c 8A030000 		.long	.LASF54
 1139 0330 0C       		.byte	0xc
 1140 0331 09       		.byte	0x9
 1141 0332 2C       		.byte	0x2c
 1142 0333 50030000 		.long	0x350
 1143 0337 06       		.uleb128 0x6
 1144 0338 F8000000 		.long	.LASF55
 1145 033c 09       		.byte	0x9
 1146 033d 2D       		.byte	0x2d
 1147 033e 1E020000 		.long	0x21e
 1148 0342 00       		.byte	0
 1149 0343 06       		.uleb128 0x6
 1150 0344 48010000 		.long	.LASF56
 1151 0348 09       		.byte	0x9
 1152 0349 2F       		.byte	0x2f
 1153 034a E4000000 		.long	0xe4
 1154 034e 08       		.byte	0x8
 1155 034f 00       		.byte	0
 1156 0350 04       		.uleb128 0x4
 1157 0351 8A030000 		.long	.LASF54
GAS LISTING /tmp/ccju1a1D.s 			page 29


 1158 0355 09       		.byte	0x9
 1159 0356 30       		.byte	0x30
 1160 0357 2B030000 		.long	0x32b
 1161 035b 05       		.uleb128 0x5
 1162 035c B9010000 		.long	.LASF57
 1163 0360 10       		.byte	0x10
 1164 0361 0A       		.byte	0xa
 1165 0362 2C       		.byte	0x2c
 1166 0363 8C030000 		.long	0x38c
 1167 0367 06       		.uleb128 0x6
 1168 0368 98000000 		.long	.LASF58
 1169 036c 0A       		.byte	0xa
 1170 036d 2D       		.byte	0x2d
 1171 036e 1E020000 		.long	0x21e
 1172 0372 00       		.byte	0
 1173 0373 06       		.uleb128 0x6
 1174 0374 DD030000 		.long	.LASF59
 1175 0378 0A       		.byte	0xa
 1176 0379 2F       		.byte	0x2f
 1177 037a 18020000 		.long	0x218
 1178 037e 08       		.byte	0x8
 1179 037f 06       		.uleb128 0x6
 1180 0380 06000000 		.long	.LASF60
 1181 0384 0A       		.byte	0xa
 1182 0385 31       		.byte	0x31
 1183 0386 8C030000 		.long	0x38c
 1184 038a 0C       		.byte	0xc
 1185 038b 00       		.byte	0
 1186 038c 09       		.uleb128 0x9
 1187 038d 04       		.byte	0x4
 1188 038e 5B030000 		.long	0x35b
 1189 0392 04       		.uleb128 0x4
 1190 0393 B9010000 		.long	.LASF57
 1191 0397 0A       		.byte	0xa
 1192 0398 33       		.byte	0x33
 1193 0399 5B030000 		.long	0x35b
 1194 039d 0C       		.uleb128 0xc
 1195 039e 04       		.byte	0x4
 1196 039f 06       		.byte	0x6
 1197 03a0 96       		.byte	0x96
 1198 03a1 D2030000 		.long	0x3d2
 1199 03a5 0D       		.uleb128 0xd
 1200 03a6 27000000 		.long	.LASF61
 1201 03aa 06       		.byte	0x6
 1202 03ab 9D       		.byte	0x9d
 1203 03ac C3000000 		.long	0xc3
 1204 03b0 0D       		.uleb128 0xd
 1205 03b1 45000000 		.long	.LASF62
 1206 03b5 06       		.byte	0x6
 1207 03b6 A4       		.byte	0xa4
 1208 03b7 C3000000 		.long	0xc3
 1209 03bb 0D       		.uleb128 0xd
 1210 03bc B3030000 		.long	.LASF63
 1211 03c0 06       		.byte	0x6
 1212 03c1 AB       		.byte	0xab
 1213 03c2 5B020000 		.long	0x25b
 1214 03c6 0D       		.uleb128 0xd
GAS LISTING /tmp/ccju1a1D.s 			page 30


 1215 03c7 C3020000 		.long	.LASF64
 1216 03cb 06       		.byte	0x6
 1217 03cc B2       		.byte	0xb2
 1218 03cd CE000000 		.long	0xce
 1219 03d1 00       		.byte	0
 1220 03d2 09       		.uleb128 0x9
 1221 03d3 04       		.byte	0x4
 1222 03d4 D8030000 		.long	0x3d8
 1223 03d8 0E       		.uleb128 0xe
 1224 03d9 DD030000 		.long	0x3dd
 1225 03dd 03       		.uleb128 0x3
 1226 03de 01       		.byte	0x1
 1227 03df 06       		.byte	0x6
 1228 03e0 21030000 		.long	.LASF65
 1229 03e4 09       		.uleb128 0x9
 1230 03e5 04       		.byte	0x4
 1231 03e6 92030000 		.long	0x392
 1232 03ea 0F       		.uleb128 0xf
 1233 03eb 6A030000 		.long	.LASF66
 1234 03ef 02       		.byte	0x2
 1235 03f0 42       		.byte	0x42
 1236 03f1 18020000 		.long	0x218
 1237 03f5 03       		.byte	0x3
 1238 03f6 10040000 		.long	0x410
 1239 03fa 10       		.uleb128 0x10
 1240 03fb 74717000 		.string	"tqp"
 1241 03ff 02       		.byte	0x2
 1242 0400 42       		.byte	0x42
 1243 0401 10040000 		.long	0x410
 1244 0405 11       		.uleb128 0x11
 1245 0406 747000   		.string	"tp"
 1246 0409 02       		.byte	0x2
 1247 040a 43       		.byte	0x43
 1248 040b 18020000 		.long	0x218
 1249 040f 00       		.byte	0
 1250 0410 09       		.uleb128 0x9
 1251 0411 04       		.byte	0x4
 1252 0412 1E020000 		.long	0x21e
 1253 0416 12       		.uleb128 0x12
 1254 0417 0D000000 		.long	.LASF85
 1255 041b 02       		.byte	0x2
 1256 041c 34       		.byte	0x34
 1257 041d 03       		.byte	0x3
 1258 041e 38040000 		.long	0x438
 1259 0422 10       		.uleb128 0x10
 1260 0423 747000   		.string	"tp"
 1261 0426 02       		.byte	0x2
 1262 0427 34       		.byte	0x34
 1263 0428 18020000 		.long	0x218
 1264 042c 10       		.uleb128 0x10
 1265 042d 74717000 		.string	"tqp"
 1266 0431 02       		.byte	0x2
 1267 0432 34       		.byte	0x34
 1268 0433 10040000 		.long	0x410
 1269 0437 00       		.byte	0
 1270 0438 0F       		.uleb128 0xf
 1271 0439 26030000 		.long	.LASF67
GAS LISTING /tmp/ccju1a1D.s 			page 31


 1272 043d 02       		.byte	0x2
 1273 043e 3B       		.byte	0x3b
 1274 043f 18020000 		.long	0x218
 1275 0443 03       		.byte	0x3
 1276 0444 5E040000 		.long	0x45e
 1277 0448 10       		.uleb128 0x10
 1278 0449 74717000 		.string	"tqp"
 1279 044d 02       		.byte	0x2
 1280 044e 3B       		.byte	0x3b
 1281 044f 10040000 		.long	0x410
 1282 0453 11       		.uleb128 0x11
 1283 0454 747000   		.string	"tp"
 1284 0457 02       		.byte	0x2
 1285 0458 3C       		.byte	0x3c
 1286 0459 18020000 		.long	0x218
 1287 045d 00       		.byte	0
 1288 045e 13       		.uleb128 0x13
 1289 045f F5030000 		.long	.LASF68
 1290 0463 01       		.byte	0x1
 1291 0464 56       		.byte	0x56
 1292 0465 00000000 		.long	.LFB7
 1293 0469 11000000 		.long	.LFE7-.LFB7
 1294 046d 01       		.uleb128 0x1
 1295 046e 9C       		.byte	0x9c
 1296 046f 8D040000 		.long	0x48d
 1297 0473 14       		.uleb128 0x14
 1298 0474 737000   		.string	"sp"
 1299 0477 01       		.byte	0x1
 1300 0478 56       		.byte	0x56
 1301 0479 8D040000 		.long	0x48d
 1302 047d 02       		.uleb128 0x2
 1303 047e 91       		.byte	0x91
 1304 047f 00       		.sleb128 0
 1305 0480 14       		.uleb128 0x14
 1306 0481 6E00     		.string	"n"
 1307 0483 01       		.byte	0x1
 1308 0484 56       		.byte	0x56
 1309 0485 E4000000 		.long	0xe4
 1310 0489 02       		.uleb128 0x2
 1311 048a 91       		.byte	0x91
 1312 048b 04       		.sleb128 4
 1313 048c 00       		.byte	0
 1314 048d 09       		.uleb128 0x9
 1315 048e 04       		.byte	0x4
 1316 048f 50030000 		.long	0x350
 1317 0493 13       		.uleb128 0x13
 1318 0494 BF010000 		.long	.LASF69
 1319 0498 01       		.byte	0x1
 1320 0499 88       		.byte	0x88
 1321 049a 20000000 		.long	.LFB9
 1322 049e 48000000 		.long	.LFE9-.LFB9
 1323 04a2 01       		.uleb128 0x1
 1324 04a3 9C       		.byte	0x9c
 1325 04a4 06050000 		.long	0x506
 1326 04a8 14       		.uleb128 0x14
 1327 04a9 737000   		.string	"sp"
 1328 04ac 01       		.byte	0x1
GAS LISTING /tmp/ccju1a1D.s 			page 32


 1329 04ad 88       		.byte	0x88
 1330 04ae 8D040000 		.long	0x48d
 1331 04b2 02       		.uleb128 0x2
 1332 04b3 91       		.byte	0x91
 1333 04b4 00       		.sleb128 0
 1334 04b5 14       		.uleb128 0x14
 1335 04b6 6E00     		.string	"n"
 1336 04b8 01       		.byte	0x1
 1337 04b9 88       		.byte	0x88
 1338 04ba E4000000 		.long	0xe4
 1339 04be 02       		.uleb128 0x2
 1340 04bf 91       		.byte	0x91
 1341 04c0 04       		.sleb128 4
 1342 04c1 15       		.uleb128 0x15
 1343 04c2 636E7400 		.string	"cnt"
 1344 04c6 01       		.byte	0x1
 1345 04c7 89       		.byte	0x89
 1346 04c8 E4000000 		.long	0xe4
 1347 04cc 00000000 		.long	.LLST0
 1348 04d0 16       		.uleb128 0x16
 1349 04d1 EA030000 		.long	0x3ea
 1350 04d5 40000000 		.long	.LBB20
 1351 04d9 00000000 		.long	.Ldebug_ranges0+0
 1352 04dd 01       		.byte	0x1
 1353 04de 95       		.byte	0x95
 1354 04df FC040000 		.long	0x4fc
 1355 04e3 17       		.uleb128 0x17
 1356 04e4 FA030000 		.long	0x3fa
 1357 04e8 2B000000 		.long	.LLST1
 1358 04ec 18       		.uleb128 0x18
 1359 04ed 00000000 		.long	.Ldebug_ranges0+0
 1360 04f1 19       		.uleb128 0x19
 1361 04f2 05040000 		.long	0x405
 1362 04f6 3E000000 		.long	.LLST2
 1363 04fa 00       		.byte	0
 1364 04fb 00       		.byte	0
 1365 04fc 1A       		.uleb128 0x1a
 1366 04fd 56000000 		.long	.LVL7
 1367 0501 FF080000 		.long	0x8ff
 1368 0505 00       		.byte	0
 1369 0506 13       		.uleb128 0x13
 1370 0507 69010000 		.long	.LASF70
 1371 050b 01       		.byte	0x1
 1372 050c 6D       		.byte	0x6d
 1373 050d 70000000 		.long	.LFB8
 1374 0511 22000000 		.long	.LFE8-.LFB8
 1375 0515 01       		.uleb128 0x1
 1376 0516 9C       		.byte	0x9c
 1377 0517 5C050000 		.long	0x55c
 1378 051b 14       		.uleb128 0x14
 1379 051c 737000   		.string	"sp"
 1380 051f 01       		.byte	0x1
 1381 0520 6D       		.byte	0x6d
 1382 0521 8D040000 		.long	0x48d
 1383 0525 02       		.uleb128 0x2
 1384 0526 91       		.byte	0x91
 1385 0527 00       		.sleb128 0
GAS LISTING /tmp/ccju1a1D.s 			page 33


 1386 0528 14       		.uleb128 0x14
 1387 0529 6E00     		.string	"n"
 1388 052b 01       		.byte	0x1
 1389 052c 6D       		.byte	0x6d
 1390 052d E4000000 		.long	0xe4
 1391 0531 02       		.uleb128 0x2
 1392 0532 91       		.byte	0x91
 1393 0533 04       		.sleb128 4
 1394 0534 1B       		.uleb128 0x1b
 1395 0535 88000000 		.long	.LVL12
 1396 0539 93040000 		.long	0x493
 1397 053d 52050000 		.long	0x552
 1398 0541 1C       		.uleb128 0x1c
 1399 0542 02       		.uleb128 0x2
 1400 0543 74       		.byte	0x74
 1401 0544 00       		.sleb128 0
 1402 0545 03       		.uleb128 0x3
 1403 0546 91       		.byte	0x91
 1404 0547 00       		.sleb128 0
 1405 0548 06       		.byte	0x6
 1406 0549 1C       		.uleb128 0x1c
 1407 054a 02       		.uleb128 0x2
 1408 054b 74       		.byte	0x74
 1409 054c 04       		.sleb128 4
 1410 054d 03       		.uleb128 0x3
 1411 054e 91       		.byte	0x91
 1412 054f 04       		.sleb128 4
 1413 0550 06       		.byte	0x6
 1414 0551 00       		.byte	0
 1415 0552 1A       		.uleb128 0x1a
 1416 0553 8D000000 		.long	.LVL13
 1417 0557 14090000 		.long	0x914
 1418 055b 00       		.byte	0
 1419 055c 1D       		.uleb128 0x1d
 1420 055d D9020000 		.long	.LASF71
 1421 0561 01       		.byte	0x1
 1422 0562 B9       		.byte	0xb9
 1423 0563 C3000000 		.long	0xc3
 1424 0567 A0000000 		.long	.LFB11
 1425 056b 4D000000 		.long	.LFE11-.LFB11
 1426 056f 01       		.uleb128 0x1
 1427 0570 9C       		.byte	0x9c
 1428 0571 B9050000 		.long	0x5b9
 1429 0575 14       		.uleb128 0x14
 1430 0576 737000   		.string	"sp"
 1431 0579 01       		.byte	0x1
 1432 057a B9       		.byte	0xb9
 1433 057b 8D040000 		.long	0x48d
 1434 057f 02       		.uleb128 0x2
 1435 0580 91       		.byte	0x91
 1436 0581 00       		.sleb128 0
 1437 0582 1E       		.uleb128 0x1e
 1438 0583 16040000 		.long	0x416
 1439 0587 C8000000 		.long	.LBB24
 1440 058b 0D000000 		.long	.LBE24-.LBB24
 1441 058f 01       		.byte	0x1
 1442 0590 C4       		.byte	0xc4
GAS LISTING /tmp/ccju1a1D.s 			page 34


 1443 0591 A8050000 		.long	0x5a8
 1444 0595 17       		.uleb128 0x17
 1445 0596 2C040000 		.long	0x42c
 1446 059a 51000000 		.long	.LLST3
 1447 059e 17       		.uleb128 0x17
 1448 059f 22040000 		.long	0x422
 1449 05a3 88000000 		.long	.LLST4
 1450 05a7 00       		.byte	0
 1451 05a8 1F       		.uleb128 0x1f
 1452 05a9 E1000000 		.long	.LVL18
 1453 05ad 1B090000 		.long	0x91b
 1454 05b1 1C       		.uleb128 0x1c
 1455 05b2 02       		.uleb128 0x2
 1456 05b3 74       		.byte	0x74
 1457 05b4 00       		.sleb128 0
 1458 05b5 01       		.uleb128 0x1
 1459 05b6 33       		.byte	0x33
 1460 05b7 00       		.byte	0
 1461 05b8 00       		.byte	0
 1462 05b9 1D       		.uleb128 0x1d
 1463 05ba 59030000 		.long	.LASF72
 1464 05be 01       		.byte	0x1
 1465 05bf A4       		.byte	0xa4
 1466 05c0 C3000000 		.long	0xc3
 1467 05c4 F0000000 		.long	.LFB10
 1468 05c8 15000000 		.long	.LFE10-.LFB10
 1469 05cc 01       		.uleb128 0x1
 1470 05cd 9C       		.byte	0x9c
 1471 05ce FF050000 		.long	0x5ff
 1472 05d2 14       		.uleb128 0x14
 1473 05d3 737000   		.string	"sp"
 1474 05d6 01       		.byte	0x1
 1475 05d7 A4       		.byte	0xa4
 1476 05d8 8D040000 		.long	0x48d
 1477 05dc 02       		.uleb128 0x2
 1478 05dd 91       		.byte	0x91
 1479 05de 00       		.sleb128 0
 1480 05df 20       		.uleb128 0x20
 1481 05e0 6D736700 		.string	"msg"
 1482 05e4 01       		.byte	0x1
 1483 05e5 A5       		.byte	0xa5
 1484 05e6 C3000000 		.long	0xc3
 1485 05ea 01       		.uleb128 0x1
 1486 05eb 50       		.byte	0x50
 1487 05ec 1F       		.uleb128 0x1f
 1488 05ed 00010000 		.long	.LVL20
 1489 05f1 5C050000 		.long	0x55c
 1490 05f5 1C       		.uleb128 0x1c
 1491 05f6 02       		.uleb128 0x2
 1492 05f7 74       		.byte	0x74
 1493 05f8 00       		.sleb128 0
 1494 05f9 03       		.uleb128 0x3
 1495 05fa 91       		.byte	0x91
 1496 05fb 00       		.sleb128 0
 1497 05fc 06       		.byte	0x6
 1498 05fd 00       		.byte	0
 1499 05fe 00       		.byte	0
GAS LISTING /tmp/ccju1a1D.s 			page 35


 1500 05ff 1D       		.uleb128 0x1d
 1501 0600 32030000 		.long	.LASF73
 1502 0604 01       		.byte	0x1
 1503 0605 FA       		.byte	0xfa
 1504 0606 C3000000 		.long	0xc3
 1505 060a 10010000 		.long	.LFB13
 1506 060e 5A000000 		.long	.LFE13-.LFB13
 1507 0612 01       		.uleb128 0x1
 1508 0613 9C       		.byte	0x9c
 1509 0614 6D060000 		.long	0x66d
 1510 0618 21       		.uleb128 0x21
 1511 0619 737000   		.string	"sp"
 1512 061c 01       		.byte	0x1
 1513 061d FA       		.byte	0xfa
 1514 061e 8D040000 		.long	0x48d
 1515 0622 9B000000 		.long	.LLST5
 1516 0626 22       		.uleb128 0x22
 1517 0627 EF010000 		.long	.LASF74
 1518 062b 01       		.byte	0x1
 1519 062c FA       		.byte	0xfa
 1520 062d D9000000 		.long	0xd9
 1521 0631 C5000000 		.long	.LLST6
 1522 0635 23       		.uleb128 0x23
 1523 0636 16040000 		.long	0x416
 1524 063a 3C010000 		.long	.LBB26
 1525 063e 0D000000 		.long	.LBE26-.LBB26
 1526 0642 01       		.byte	0x1
 1527 0643 0901     		.value	0x109
 1528 0645 5C060000 		.long	0x65c
 1529 0649 17       		.uleb128 0x17
 1530 064a 2C040000 		.long	0x42c
 1531 064e FB000000 		.long	.LLST7
 1532 0652 17       		.uleb128 0x17
 1533 0653 22040000 		.long	0x422
 1534 0657 32010000 		.long	.LLST8
 1535 065b 00       		.byte	0
 1536 065c 24       		.uleb128 0x24
 1537 065d 5C010000 		.long	.LVL28
 1538 0661 2C090000 		.long	0x92c
 1539 0665 1C       		.uleb128 0x1c
 1540 0666 02       		.uleb128 0x2
 1541 0667 91       		.byte	0x91
 1542 0668 00       		.sleb128 0
 1543 0669 01       		.uleb128 0x1
 1544 066a 33       		.byte	0x33
 1545 066b 00       		.byte	0
 1546 066c 00       		.byte	0
 1547 066d 1D       		.uleb128 0x1d
 1548 066e 2C010000 		.long	.LASF75
 1549 0672 01       		.byte	0x1
 1550 0673 DE       		.byte	0xde
 1551 0674 C3000000 		.long	0xc3
 1552 0678 70010000 		.long	.LFB12
 1553 067c 1D000000 		.long	.LFE12-.LFB12
 1554 0680 01       		.uleb128 0x1
 1555 0681 9C       		.byte	0x9c
 1556 0682 C9060000 		.long	0x6c9
GAS LISTING /tmp/ccju1a1D.s 			page 36


 1557 0686 14       		.uleb128 0x14
 1558 0687 737000   		.string	"sp"
 1559 068a 01       		.byte	0x1
 1560 068b DE       		.byte	0xde
 1561 068c 8D040000 		.long	0x48d
 1562 0690 02       		.uleb128 0x2
 1563 0691 91       		.byte	0x91
 1564 0692 00       		.sleb128 0
 1565 0693 25       		.uleb128 0x25
 1566 0694 EF010000 		.long	.LASF74
 1567 0698 01       		.byte	0x1
 1568 0699 DE       		.byte	0xde
 1569 069a D9000000 		.long	0xd9
 1570 069e 02       		.uleb128 0x2
 1571 069f 91       		.byte	0x91
 1572 06a0 04       		.sleb128 4
 1573 06a1 20       		.uleb128 0x20
 1574 06a2 6D736700 		.string	"msg"
 1575 06a6 01       		.byte	0x1
 1576 06a7 DF       		.byte	0xdf
 1577 06a8 C3000000 		.long	0xc3
 1578 06ac 01       		.uleb128 0x1
 1579 06ad 50       		.byte	0x50
 1580 06ae 1F       		.uleb128 0x1f
 1581 06af 88010000 		.long	.LVL30
 1582 06b3 FF050000 		.long	0x5ff
 1583 06b7 1C       		.uleb128 0x1c
 1584 06b8 02       		.uleb128 0x2
 1585 06b9 74       		.byte	0x74
 1586 06ba 00       		.sleb128 0
 1587 06bb 03       		.uleb128 0x3
 1588 06bc 91       		.byte	0x91
 1589 06bd 00       		.sleb128 0
 1590 06be 06       		.byte	0x6
 1591 06bf 1C       		.uleb128 0x1c
 1592 06c0 02       		.uleb128 0x2
 1593 06c1 74       		.byte	0x74
 1594 06c2 04       		.sleb128 4
 1595 06c3 03       		.uleb128 0x3
 1596 06c4 91       		.byte	0x91
 1597 06c5 04       		.sleb128 4
 1598 06c6 06       		.byte	0x6
 1599 06c7 00       		.byte	0
 1600 06c8 00       		.byte	0
 1601 06c9 26       		.uleb128 0x26
 1602 06ca E4000000 		.long	.LASF76
 1603 06ce 01       		.byte	0x1
 1604 06cf 1601     		.value	0x116
 1605 06d1 90010000 		.long	.LFB14
 1606 06d5 3B000000 		.long	.LFE14-.LFB14
 1607 06d9 01       		.uleb128 0x1
 1608 06da 9C       		.byte	0x9c
 1609 06db 2F070000 		.long	0x72f
 1610 06df 27       		.uleb128 0x27
 1611 06e0 737000   		.string	"sp"
 1612 06e3 01       		.byte	0x1
 1613 06e4 1601     		.value	0x116
GAS LISTING /tmp/ccju1a1D.s 			page 37


 1614 06e6 8D040000 		.long	0x48d
 1615 06ea 02       		.uleb128 0x2
 1616 06eb 91       		.byte	0x91
 1617 06ec 00       		.sleb128 0
 1618 06ed 23       		.uleb128 0x23
 1619 06ee 38040000 		.long	0x438
 1620 06f2 B0010000 		.long	.LBB28
 1621 06f6 09000000 		.long	.LBE28-.LBB28
 1622 06fa 01       		.byte	0x1
 1623 06fb 2001     		.value	0x120
 1624 06fd 1E070000 		.long	0x71e
 1625 0701 17       		.uleb128 0x17
 1626 0702 48040000 		.long	0x448
 1627 0706 45010000 		.long	.LLST9
 1628 070a 28       		.uleb128 0x28
 1629 070b B0010000 		.long	.LBB29
 1630 070f 09000000 		.long	.LBE29-.LBB29
 1631 0713 19       		.uleb128 0x19
 1632 0714 53040000 		.long	0x453
 1633 0718 64010000 		.long	.LLST10
 1634 071c 00       		.byte	0
 1635 071d 00       		.byte	0
 1636 071e 1F       		.uleb128 0x1f
 1637 071f C9010000 		.long	.LVL34
 1638 0723 46090000 		.long	0x946
 1639 0727 1C       		.uleb128 0x1c
 1640 0728 02       		.uleb128 0x2
 1641 0729 74       		.byte	0x74
 1642 072a 04       		.sleb128 4
 1643 072b 01       		.uleb128 0x1
 1644 072c 30       		.byte	0x30
 1645 072d 00       		.byte	0
 1646 072e 00       		.byte	0
 1647 072f 26       		.uleb128 0x26
 1648 0730 1A000000 		.long	.LASF77
 1649 0734 01       		.byte	0x1
 1650 0735 2F01     		.value	0x12f
 1651 0737 D0010000 		.long	.LFB15
 1652 073b 31000000 		.long	.LFE15-.LFB15
 1653 073f 01       		.uleb128 0x1
 1654 0740 9C       		.byte	0x9c
 1655 0741 A6070000 		.long	0x7a6
 1656 0745 29       		.uleb128 0x29
 1657 0746 737000   		.string	"sp"
 1658 0749 01       		.byte	0x1
 1659 074a 2F01     		.value	0x12f
 1660 074c 8D040000 		.long	0x48d
 1661 0750 77010000 		.long	.LLST11
 1662 0754 28       		.uleb128 0x28
 1663 0755 E8010000 		.long	.LBB30
 1664 0759 19000000 		.long	.LBE30-.LBB30
 1665 075d 2A       		.uleb128 0x2a
 1666 075e 747000   		.string	"tp"
 1667 0761 01       		.byte	0x1
 1668 0762 3B01     		.value	0x13b
 1669 0764 18020000 		.long	0x218
 1670 0768 01       		.uleb128 0x1
GAS LISTING /tmp/ccju1a1D.s 			page 38


 1671 0769 52       		.byte	0x52
 1672 076a 23       		.uleb128 0x23
 1673 076b 38040000 		.long	0x438
 1674 076f E8010000 		.long	.LBB31
 1675 0773 09000000 		.long	.LBE31-.LBB31
 1676 0777 01       		.byte	0x1
 1677 0778 3B01     		.value	0x13b
 1678 077a 9B070000 		.long	0x79b
 1679 077e 17       		.uleb128 0x17
 1680 077f 48040000 		.long	0x448
 1681 0783 96010000 		.long	.LLST12
 1682 0787 28       		.uleb128 0x28
 1683 0788 E8010000 		.long	.LBB32
 1684 078c 09000000 		.long	.LBE32-.LBB32
 1685 0790 19       		.uleb128 0x19
 1686 0791 53040000 		.long	0x453
 1687 0795 B5010000 		.long	.LLST13
 1688 0799 00       		.byte	0
 1689 079a 00       		.byte	0
 1690 079b 2B       		.uleb128 0x2b
 1691 079c 01020000 		.long	.LVL39
 1692 07a0 FF080000 		.long	0x8ff
 1693 07a4 00       		.byte	0
 1694 07a5 00       		.byte	0
 1695 07a6 26       		.uleb128 0x26
 1696 07a7 4E000000 		.long	.LASF78
 1697 07ab 01       		.byte	0x1
 1698 07ac 4E01     		.value	0x14e
 1699 07ae 10020000 		.long	.LFB16
 1700 07b2 4E000000 		.long	.LFE16-.LFB16
 1701 07b6 01       		.uleb128 0x1
 1702 07b7 9C       		.byte	0x9c
 1703 07b8 13080000 		.long	0x813
 1704 07bc 27       		.uleb128 0x27
 1705 07bd 737000   		.string	"sp"
 1706 07c0 01       		.byte	0x1
 1707 07c1 4E01     		.value	0x14e
 1708 07c3 8D040000 		.long	0x48d
 1709 07c7 02       		.uleb128 0x2
 1710 07c8 91       		.byte	0x91
 1711 07c9 00       		.sleb128 0
 1712 07ca 29       		.uleb128 0x29
 1713 07cb 6E00     		.string	"n"
 1714 07cd 01       		.byte	0x1
 1715 07ce 4E01     		.value	0x14e
 1716 07d0 E4000000 		.long	0xe4
 1717 07d4 C8010000 		.long	.LLST14
 1718 07d8 23       		.uleb128 0x23
 1719 07d9 38040000 		.long	0x438
 1720 07dd 3A020000 		.long	.LBB33
 1721 07e1 09000000 		.long	.LBE33-.LBB33
 1722 07e5 01       		.byte	0x1
 1723 07e6 5901     		.value	0x159
 1724 07e8 09080000 		.long	0x809
 1725 07ec 17       		.uleb128 0x17
 1726 07ed 48040000 		.long	0x448
 1727 07f1 0C020000 		.long	.LLST15
GAS LISTING /tmp/ccju1a1D.s 			page 39


 1728 07f5 28       		.uleb128 0x28
 1729 07f6 3A020000 		.long	.LBB34
 1730 07fa 09000000 		.long	.LBE34-.LBB34
 1731 07fe 19       		.uleb128 0x19
 1732 07ff 53040000 		.long	0x453
 1733 0803 1F020000 		.long	.LLST16
 1734 0807 00       		.byte	0
 1735 0808 00       		.byte	0
 1736 0809 1A       		.uleb128 0x1a
 1737 080a 4B020000 		.long	.LVL47
 1738 080e FF080000 		.long	0x8ff
 1739 0812 00       		.byte	0
 1740 0813 2C       		.uleb128 0x2c
 1741 0814 80000000 		.long	.LASF79
 1742 0818 01       		.byte	0x1
 1743 0819 6E01     		.value	0x16e
 1744 081b C3000000 		.long	0xc3
 1745 081f 60020000 		.long	.LFB17
 1746 0823 72000000 		.long	.LFE17-.LFB17
 1747 0827 01       		.uleb128 0x1
 1748 0828 9C       		.byte	0x9c
 1749 0829 F4080000 		.long	0x8f4
 1750 082d 27       		.uleb128 0x27
 1751 082e 73707300 		.string	"sps"
 1752 0832 01       		.byte	0x1
 1753 0833 6E01     		.value	0x16e
 1754 0835 8D040000 		.long	0x48d
 1755 0839 02       		.uleb128 0x2
 1756 083a 91       		.byte	0x91
 1757 083b 00       		.sleb128 0
 1758 083c 27       		.uleb128 0x27
 1759 083d 73707700 		.string	"spw"
 1760 0841 01       		.byte	0x1
 1761 0842 6E01     		.value	0x16e
 1762 0844 8D040000 		.long	0x48d
 1763 0848 02       		.uleb128 0x2
 1764 0849 91       		.byte	0x91
 1765 084a 04       		.sleb128 4
 1766 084b 2D       		.uleb128 0x2d
 1767 084c 6D736700 		.string	"msg"
 1768 0850 01       		.byte	0x1
 1769 0851 6F01     		.value	0x16f
 1770 0853 C3000000 		.long	0xc3
 1771 0857 32020000 		.long	.LLST17
 1772 085b 2E       		.uleb128 0x2e
 1773 085c 90020000 		.long	.LBB35
 1774 0860 25000000 		.long	.LBE35-.LBB35
 1775 0864 B0080000 		.long	0x8b0
 1776 0868 2D       		.uleb128 0x2d
 1777 0869 63747000 		.string	"ctp"
 1778 086d 01       		.byte	0x1
 1779 086e 7F01     		.value	0x17f
 1780 0870 18020000 		.long	0x218
 1781 0874 5C020000 		.long	.LLST18
 1782 0878 23       		.uleb128 0x23
 1783 0879 16040000 		.long	0x416
 1784 087d 96020000 		.long	.LBB36
GAS LISTING /tmp/ccju1a1D.s 			page 40


 1785 0881 0D000000 		.long	.LBE36-.LBB36
 1786 0885 01       		.byte	0x1
 1787 0886 8001     		.value	0x180
 1788 0888 9F080000 		.long	0x89f
 1789 088c 17       		.uleb128 0x17
 1790 088d 2C040000 		.long	0x42c
 1791 0891 6F020000 		.long	.LLST19
 1792 0895 17       		.uleb128 0x17
 1793 0896 22040000 		.long	0x422
 1794 089a 5C020000 		.long	.LLST18
 1795 089e 00       		.byte	0
 1796 089f 1F       		.uleb128 0x1f
 1797 08a0 B2020000 		.long	.LVL56
 1798 08a4 1B090000 		.long	0x91b
 1799 08a8 1C       		.uleb128 0x1c
 1800 08a9 02       		.uleb128 0x2
 1801 08aa 74       		.byte	0x74
 1802 08ab 00       		.sleb128 0
 1803 08ac 01       		.uleb128 0x1
 1804 08ad 33       		.byte	0x33
 1805 08ae 00       		.byte	0
 1806 08af 00       		.byte	0
 1807 08b0 23       		.uleb128 0x23
 1808 08b1 38040000 		.long	0x438
 1809 08b5 B8020000 		.long	.LBB38
 1810 08b9 09000000 		.long	.LBE38-.LBB38
 1811 08bd 01       		.byte	0x1
 1812 08be 7D01     		.value	0x17d
 1813 08c0 E1080000 		.long	0x8e1
 1814 08c4 17       		.uleb128 0x17
 1815 08c5 48040000 		.long	0x448
 1816 08c9 82020000 		.long	.LLST21
 1817 08cd 28       		.uleb128 0x28
 1818 08ce B8020000 		.long	.LBB39
 1819 08d2 09000000 		.long	.LBE39-.LBB39
 1820 08d6 19       		.uleb128 0x19
 1821 08d7 53040000 		.long	0x453
 1822 08db A1020000 		.long	.LLST22
 1823 08df 00       		.byte	0
 1824 08e0 00       		.byte	0
 1825 08e1 1A       		.uleb128 0x1a
 1826 08e2 86020000 		.long	.LVL52
 1827 08e6 14090000 		.long	0x914
 1828 08ea 1A       		.uleb128 0x1a
 1829 08eb C9020000 		.long	.LVL60
 1830 08ef FF080000 		.long	0x8ff
 1831 08f3 00       		.byte	0
 1832 08f4 2F       		.uleb128 0x2f
 1833 08f5 A5030000 		.long	.LASF86
 1834 08f9 08       		.byte	0x8
 1835 08fa 6F       		.byte	0x6f
 1836 08fb 20030000 		.long	0x320
 1837 08ff 30       		.uleb128 0x30
 1838 0900 15030000 		.long	.LASF80
 1839 0904 08       		.byte	0x8
 1840 0905 90       		.byte	0x90
 1841 0906 18020000 		.long	0x218
GAS LISTING /tmp/ccju1a1D.s 			page 41


 1842 090a 14090000 		.long	0x914
 1843 090e 31       		.uleb128 0x31
 1844 090f 18020000 		.long	0x218
 1845 0913 00       		.byte	0
 1846 0914 32       		.uleb128 0x32
 1847 0915 00010000 		.long	.LASF87
 1848 0919 08       		.byte	0x8
 1849 091a 9C       		.byte	0x9c
 1850 091b 33       		.uleb128 0x33
 1851 091c EB020000 		.long	.LASF88
 1852 0920 08       		.byte	0x8
 1853 0921 93       		.byte	0x93
 1854 0922 2C090000 		.long	0x92c
 1855 0926 31       		.uleb128 0x31
 1856 0927 97000000 		.long	0x97
 1857 092b 00       		.byte	0
 1858 092c 30       		.uleb128 0x30
 1859 092d C1030000 		.long	.LASF81
 1860 0931 08       		.byte	0x8
 1861 0932 96       		.byte	0x96
 1862 0933 C3000000 		.long	0xc3
 1863 0937 46090000 		.long	0x946
 1864 093b 31       		.uleb128 0x31
 1865 093c 97000000 		.long	0x97
 1866 0940 31       		.uleb128 0x31
 1867 0941 D9000000 		.long	0xd9
 1868 0945 00       		.byte	0
 1869 0946 34       		.uleb128 0x34
 1870 0947 7D030000 		.long	.LASF89
 1871 094b 08       		.byte	0x8
 1872 094c 99       		.byte	0x99
 1873 094d 31       		.uleb128 0x31
 1874 094e 18020000 		.long	0x218
 1875 0952 31       		.uleb128 0x31
 1876 0953 C3000000 		.long	0xc3
 1877 0957 00       		.byte	0
 1878 0958 00       		.byte	0
 1879              		.section	.debug_abbrev,"",@progbits
 1880              	.Ldebug_abbrev0:
 1881 0000 01       		.uleb128 0x1
 1882 0001 11       		.uleb128 0x11
 1883 0002 01       		.byte	0x1
 1884 0003 25       		.uleb128 0x25
 1885 0004 0E       		.uleb128 0xe
 1886 0005 13       		.uleb128 0x13
 1887 0006 0B       		.uleb128 0xb
 1888 0007 03       		.uleb128 0x3
 1889 0008 0E       		.uleb128 0xe
 1890 0009 1B       		.uleb128 0x1b
 1891 000a 0E       		.uleb128 0xe
 1892 000b 11       		.uleb128 0x11
 1893 000c 01       		.uleb128 0x1
 1894 000d 12       		.uleb128 0x12
 1895 000e 06       		.uleb128 0x6
 1896 000f 10       		.uleb128 0x10
 1897 0010 17       		.uleb128 0x17
 1898 0011 00       		.byte	0
GAS LISTING /tmp/ccju1a1D.s 			page 42


 1899 0012 00       		.byte	0
 1900 0013 02       		.uleb128 0x2
 1901 0014 24       		.uleb128 0x24
 1902 0015 00       		.byte	0
 1903 0016 0B       		.uleb128 0xb
 1904 0017 0B       		.uleb128 0xb
 1905 0018 3E       		.uleb128 0x3e
 1906 0019 0B       		.uleb128 0xb
 1907 001a 03       		.uleb128 0x3
 1908 001b 08       		.uleb128 0x8
 1909 001c 00       		.byte	0
 1910 001d 00       		.byte	0
 1911 001e 03       		.uleb128 0x3
 1912 001f 24       		.uleb128 0x24
 1913 0020 00       		.byte	0
 1914 0021 0B       		.uleb128 0xb
 1915 0022 0B       		.uleb128 0xb
 1916 0023 3E       		.uleb128 0x3e
 1917 0024 0B       		.uleb128 0xb
 1918 0025 03       		.uleb128 0x3
 1919 0026 0E       		.uleb128 0xe
 1920 0027 00       		.byte	0
 1921 0028 00       		.byte	0
 1922 0029 04       		.uleb128 0x4
 1923 002a 16       		.uleb128 0x16
 1924 002b 00       		.byte	0
 1925 002c 03       		.uleb128 0x3
 1926 002d 0E       		.uleb128 0xe
 1927 002e 3A       		.uleb128 0x3a
 1928 002f 0B       		.uleb128 0xb
 1929 0030 3B       		.uleb128 0x3b
 1930 0031 0B       		.uleb128 0xb
 1931 0032 49       		.uleb128 0x49
 1932 0033 13       		.uleb128 0x13
 1933 0034 00       		.byte	0
 1934 0035 00       		.byte	0
 1935 0036 05       		.uleb128 0x5
 1936 0037 13       		.uleb128 0x13
 1937 0038 01       		.byte	0x1
 1938 0039 03       		.uleb128 0x3
 1939 003a 0E       		.uleb128 0xe
 1940 003b 0B       		.uleb128 0xb
 1941 003c 0B       		.uleb128 0xb
 1942 003d 3A       		.uleb128 0x3a
 1943 003e 0B       		.uleb128 0xb
 1944 003f 3B       		.uleb128 0x3b
 1945 0040 0B       		.uleb128 0xb
 1946 0041 01       		.uleb128 0x1
 1947 0042 13       		.uleb128 0x13
 1948 0043 00       		.byte	0
 1949 0044 00       		.byte	0
 1950 0045 06       		.uleb128 0x6
 1951 0046 0D       		.uleb128 0xd
 1952 0047 00       		.byte	0
 1953 0048 03       		.uleb128 0x3
 1954 0049 0E       		.uleb128 0xe
 1955 004a 3A       		.uleb128 0x3a
GAS LISTING /tmp/ccju1a1D.s 			page 43


 1956 004b 0B       		.uleb128 0xb
 1957 004c 3B       		.uleb128 0x3b
 1958 004d 0B       		.uleb128 0xb
 1959 004e 49       		.uleb128 0x49
 1960 004f 13       		.uleb128 0x13
 1961 0050 38       		.uleb128 0x38
 1962 0051 0B       		.uleb128 0xb
 1963 0052 00       		.byte	0
 1964 0053 00       		.byte	0
 1965 0054 07       		.uleb128 0x7
 1966 0055 0D       		.uleb128 0xd
 1967 0056 00       		.byte	0
 1968 0057 03       		.uleb128 0x3
 1969 0058 08       		.uleb128 0x8
 1970 0059 3A       		.uleb128 0x3a
 1971 005a 0B       		.uleb128 0xb
 1972 005b 3B       		.uleb128 0x3b
 1973 005c 0B       		.uleb128 0xb
 1974 005d 49       		.uleb128 0x49
 1975 005e 13       		.uleb128 0x13
 1976 005f 38       		.uleb128 0x38
 1977 0060 0B       		.uleb128 0xb
 1978 0061 00       		.byte	0
 1979 0062 00       		.byte	0
 1980 0063 08       		.uleb128 0x8
 1981 0064 13       		.uleb128 0x13
 1982 0065 01       		.byte	0x1
 1983 0066 0B       		.uleb128 0xb
 1984 0067 0B       		.uleb128 0xb
 1985 0068 3A       		.uleb128 0x3a
 1986 0069 0B       		.uleb128 0xb
 1987 006a 3B       		.uleb128 0x3b
 1988 006b 0B       		.uleb128 0xb
 1989 006c 01       		.uleb128 0x1
 1990 006d 13       		.uleb128 0x13
 1991 006e 00       		.byte	0
 1992 006f 00       		.byte	0
 1993 0070 09       		.uleb128 0x9
 1994 0071 0F       		.uleb128 0xf
 1995 0072 00       		.byte	0
 1996 0073 0B       		.uleb128 0xb
 1997 0074 0B       		.uleb128 0xb
 1998 0075 49       		.uleb128 0x49
 1999 0076 13       		.uleb128 0x13
 2000 0077 00       		.byte	0
 2001 0078 00       		.byte	0
 2002 0079 0A       		.uleb128 0xa
 2003 007a 0F       		.uleb128 0xf
 2004 007b 00       		.byte	0
 2005 007c 0B       		.uleb128 0xb
 2006 007d 0B       		.uleb128 0xb
 2007 007e 00       		.byte	0
 2008 007f 00       		.byte	0
 2009 0080 0B       		.uleb128 0xb
 2010 0081 35       		.uleb128 0x35
 2011 0082 00       		.byte	0
 2012 0083 49       		.uleb128 0x49
GAS LISTING /tmp/ccju1a1D.s 			page 44


 2013 0084 13       		.uleb128 0x13
 2014 0085 00       		.byte	0
 2015 0086 00       		.byte	0
 2016 0087 0C       		.uleb128 0xc
 2017 0088 17       		.uleb128 0x17
 2018 0089 01       		.byte	0x1
 2019 008a 0B       		.uleb128 0xb
 2020 008b 0B       		.uleb128 0xb
 2021 008c 3A       		.uleb128 0x3a
 2022 008d 0B       		.uleb128 0xb
 2023 008e 3B       		.uleb128 0x3b
 2024 008f 0B       		.uleb128 0xb
 2025 0090 01       		.uleb128 0x1
 2026 0091 13       		.uleb128 0x13
 2027 0092 00       		.byte	0
 2028 0093 00       		.byte	0
 2029 0094 0D       		.uleb128 0xd
 2030 0095 0D       		.uleb128 0xd
 2031 0096 00       		.byte	0
 2032 0097 03       		.uleb128 0x3
 2033 0098 0E       		.uleb128 0xe
 2034 0099 3A       		.uleb128 0x3a
 2035 009a 0B       		.uleb128 0xb
 2036 009b 3B       		.uleb128 0x3b
 2037 009c 0B       		.uleb128 0xb
 2038 009d 49       		.uleb128 0x49
 2039 009e 13       		.uleb128 0x13
 2040 009f 00       		.byte	0
 2041 00a0 00       		.byte	0
 2042 00a1 0E       		.uleb128 0xe
 2043 00a2 26       		.uleb128 0x26
 2044 00a3 00       		.byte	0
 2045 00a4 49       		.uleb128 0x49
 2046 00a5 13       		.uleb128 0x13
 2047 00a6 00       		.byte	0
 2048 00a7 00       		.byte	0
 2049 00a8 0F       		.uleb128 0xf
 2050 00a9 2E       		.uleb128 0x2e
 2051 00aa 01       		.byte	0x1
 2052 00ab 03       		.uleb128 0x3
 2053 00ac 0E       		.uleb128 0xe
 2054 00ad 3A       		.uleb128 0x3a
 2055 00ae 0B       		.uleb128 0xb
 2056 00af 3B       		.uleb128 0x3b
 2057 00b0 0B       		.uleb128 0xb
 2058 00b1 27       		.uleb128 0x27
 2059 00b2 19       		.uleb128 0x19
 2060 00b3 49       		.uleb128 0x49
 2061 00b4 13       		.uleb128 0x13
 2062 00b5 20       		.uleb128 0x20
 2063 00b6 0B       		.uleb128 0xb
 2064 00b7 01       		.uleb128 0x1
 2065 00b8 13       		.uleb128 0x13
 2066 00b9 00       		.byte	0
 2067 00ba 00       		.byte	0
 2068 00bb 10       		.uleb128 0x10
 2069 00bc 05       		.uleb128 0x5
GAS LISTING /tmp/ccju1a1D.s 			page 45


 2070 00bd 00       		.byte	0
 2071 00be 03       		.uleb128 0x3
 2072 00bf 08       		.uleb128 0x8
 2073 00c0 3A       		.uleb128 0x3a
 2074 00c1 0B       		.uleb128 0xb
 2075 00c2 3B       		.uleb128 0x3b
 2076 00c3 0B       		.uleb128 0xb
 2077 00c4 49       		.uleb128 0x49
 2078 00c5 13       		.uleb128 0x13
 2079 00c6 00       		.byte	0
 2080 00c7 00       		.byte	0
 2081 00c8 11       		.uleb128 0x11
 2082 00c9 34       		.uleb128 0x34
 2083 00ca 00       		.byte	0
 2084 00cb 03       		.uleb128 0x3
 2085 00cc 08       		.uleb128 0x8
 2086 00cd 3A       		.uleb128 0x3a
 2087 00ce 0B       		.uleb128 0xb
 2088 00cf 3B       		.uleb128 0x3b
 2089 00d0 0B       		.uleb128 0xb
 2090 00d1 49       		.uleb128 0x49
 2091 00d2 13       		.uleb128 0x13
 2092 00d3 00       		.byte	0
 2093 00d4 00       		.byte	0
 2094 00d5 12       		.uleb128 0x12
 2095 00d6 2E       		.uleb128 0x2e
 2096 00d7 01       		.byte	0x1
 2097 00d8 03       		.uleb128 0x3
 2098 00d9 0E       		.uleb128 0xe
 2099 00da 3A       		.uleb128 0x3a
 2100 00db 0B       		.uleb128 0xb
 2101 00dc 3B       		.uleb128 0x3b
 2102 00dd 0B       		.uleb128 0xb
 2103 00de 27       		.uleb128 0x27
 2104 00df 19       		.uleb128 0x19
 2105 00e0 20       		.uleb128 0x20
 2106 00e1 0B       		.uleb128 0xb
 2107 00e2 01       		.uleb128 0x1
 2108 00e3 13       		.uleb128 0x13
 2109 00e4 00       		.byte	0
 2110 00e5 00       		.byte	0
 2111 00e6 13       		.uleb128 0x13
 2112 00e7 2E       		.uleb128 0x2e
 2113 00e8 01       		.byte	0x1
 2114 00e9 3F       		.uleb128 0x3f
 2115 00ea 19       		.uleb128 0x19
 2116 00eb 03       		.uleb128 0x3
 2117 00ec 0E       		.uleb128 0xe
 2118 00ed 3A       		.uleb128 0x3a
 2119 00ee 0B       		.uleb128 0xb
 2120 00ef 3B       		.uleb128 0x3b
 2121 00f0 0B       		.uleb128 0xb
 2122 00f1 27       		.uleb128 0x27
 2123 00f2 19       		.uleb128 0x19
 2124 00f3 11       		.uleb128 0x11
 2125 00f4 01       		.uleb128 0x1
 2126 00f5 12       		.uleb128 0x12
GAS LISTING /tmp/ccju1a1D.s 			page 46


 2127 00f6 06       		.uleb128 0x6
 2128 00f7 40       		.uleb128 0x40
 2129 00f8 18       		.uleb128 0x18
 2130 00f9 9742     		.uleb128 0x2117
 2131 00fb 19       		.uleb128 0x19
 2132 00fc 01       		.uleb128 0x1
 2133 00fd 13       		.uleb128 0x13
 2134 00fe 00       		.byte	0
 2135 00ff 00       		.byte	0
 2136 0100 14       		.uleb128 0x14
 2137 0101 05       		.uleb128 0x5
 2138 0102 00       		.byte	0
 2139 0103 03       		.uleb128 0x3
 2140 0104 08       		.uleb128 0x8
 2141 0105 3A       		.uleb128 0x3a
 2142 0106 0B       		.uleb128 0xb
 2143 0107 3B       		.uleb128 0x3b
 2144 0108 0B       		.uleb128 0xb
 2145 0109 49       		.uleb128 0x49
 2146 010a 13       		.uleb128 0x13
 2147 010b 02       		.uleb128 0x2
 2148 010c 18       		.uleb128 0x18
 2149 010d 00       		.byte	0
 2150 010e 00       		.byte	0
 2151 010f 15       		.uleb128 0x15
 2152 0110 34       		.uleb128 0x34
 2153 0111 00       		.byte	0
 2154 0112 03       		.uleb128 0x3
 2155 0113 08       		.uleb128 0x8
 2156 0114 3A       		.uleb128 0x3a
 2157 0115 0B       		.uleb128 0xb
 2158 0116 3B       		.uleb128 0x3b
 2159 0117 0B       		.uleb128 0xb
 2160 0118 49       		.uleb128 0x49
 2161 0119 13       		.uleb128 0x13
 2162 011a 02       		.uleb128 0x2
 2163 011b 17       		.uleb128 0x17
 2164 011c 00       		.byte	0
 2165 011d 00       		.byte	0
 2166 011e 16       		.uleb128 0x16
 2167 011f 1D       		.uleb128 0x1d
 2168 0120 01       		.byte	0x1
 2169 0121 31       		.uleb128 0x31
 2170 0122 13       		.uleb128 0x13
 2171 0123 52       		.uleb128 0x52
 2172 0124 01       		.uleb128 0x1
 2173 0125 55       		.uleb128 0x55
 2174 0126 17       		.uleb128 0x17
 2175 0127 58       		.uleb128 0x58
 2176 0128 0B       		.uleb128 0xb
 2177 0129 59       		.uleb128 0x59
 2178 012a 0B       		.uleb128 0xb
 2179 012b 01       		.uleb128 0x1
 2180 012c 13       		.uleb128 0x13
 2181 012d 00       		.byte	0
 2182 012e 00       		.byte	0
 2183 012f 17       		.uleb128 0x17
GAS LISTING /tmp/ccju1a1D.s 			page 47


 2184 0130 05       		.uleb128 0x5
 2185 0131 00       		.byte	0
 2186 0132 31       		.uleb128 0x31
 2187 0133 13       		.uleb128 0x13
 2188 0134 02       		.uleb128 0x2
 2189 0135 17       		.uleb128 0x17
 2190 0136 00       		.byte	0
 2191 0137 00       		.byte	0
 2192 0138 18       		.uleb128 0x18
 2193 0139 0B       		.uleb128 0xb
 2194 013a 01       		.byte	0x1
 2195 013b 55       		.uleb128 0x55
 2196 013c 17       		.uleb128 0x17
 2197 013d 00       		.byte	0
 2198 013e 00       		.byte	0
 2199 013f 19       		.uleb128 0x19
 2200 0140 34       		.uleb128 0x34
 2201 0141 00       		.byte	0
 2202 0142 31       		.uleb128 0x31
 2203 0143 13       		.uleb128 0x13
 2204 0144 02       		.uleb128 0x2
 2205 0145 17       		.uleb128 0x17
 2206 0146 00       		.byte	0
 2207 0147 00       		.byte	0
 2208 0148 1A       		.uleb128 0x1a
 2209 0149 898201   		.uleb128 0x4109
 2210 014c 00       		.byte	0
 2211 014d 11       		.uleb128 0x11
 2212 014e 01       		.uleb128 0x1
 2213 014f 31       		.uleb128 0x31
 2214 0150 13       		.uleb128 0x13
 2215 0151 00       		.byte	0
 2216 0152 00       		.byte	0
 2217 0153 1B       		.uleb128 0x1b
 2218 0154 898201   		.uleb128 0x4109
 2219 0157 01       		.byte	0x1
 2220 0158 11       		.uleb128 0x11
 2221 0159 01       		.uleb128 0x1
 2222 015a 31       		.uleb128 0x31
 2223 015b 13       		.uleb128 0x13
 2224 015c 01       		.uleb128 0x1
 2225 015d 13       		.uleb128 0x13
 2226 015e 00       		.byte	0
 2227 015f 00       		.byte	0
 2228 0160 1C       		.uleb128 0x1c
 2229 0161 8A8201   		.uleb128 0x410a
 2230 0164 00       		.byte	0
 2231 0165 02       		.uleb128 0x2
 2232 0166 18       		.uleb128 0x18
 2233 0167 9142     		.uleb128 0x2111
 2234 0169 18       		.uleb128 0x18
 2235 016a 00       		.byte	0
 2236 016b 00       		.byte	0
 2237 016c 1D       		.uleb128 0x1d
 2238 016d 2E       		.uleb128 0x2e
 2239 016e 01       		.byte	0x1
 2240 016f 3F       		.uleb128 0x3f
GAS LISTING /tmp/ccju1a1D.s 			page 48


 2241 0170 19       		.uleb128 0x19
 2242 0171 03       		.uleb128 0x3
 2243 0172 0E       		.uleb128 0xe
 2244 0173 3A       		.uleb128 0x3a
 2245 0174 0B       		.uleb128 0xb
 2246 0175 3B       		.uleb128 0x3b
 2247 0176 0B       		.uleb128 0xb
 2248 0177 27       		.uleb128 0x27
 2249 0178 19       		.uleb128 0x19
 2250 0179 49       		.uleb128 0x49
 2251 017a 13       		.uleb128 0x13
 2252 017b 11       		.uleb128 0x11
 2253 017c 01       		.uleb128 0x1
 2254 017d 12       		.uleb128 0x12
 2255 017e 06       		.uleb128 0x6
 2256 017f 40       		.uleb128 0x40
 2257 0180 18       		.uleb128 0x18
 2258 0181 9742     		.uleb128 0x2117
 2259 0183 19       		.uleb128 0x19
 2260 0184 01       		.uleb128 0x1
 2261 0185 13       		.uleb128 0x13
 2262 0186 00       		.byte	0
 2263 0187 00       		.byte	0
 2264 0188 1E       		.uleb128 0x1e
 2265 0189 1D       		.uleb128 0x1d
 2266 018a 01       		.byte	0x1
 2267 018b 31       		.uleb128 0x31
 2268 018c 13       		.uleb128 0x13
 2269 018d 11       		.uleb128 0x11
 2270 018e 01       		.uleb128 0x1
 2271 018f 12       		.uleb128 0x12
 2272 0190 06       		.uleb128 0x6
 2273 0191 58       		.uleb128 0x58
 2274 0192 0B       		.uleb128 0xb
 2275 0193 59       		.uleb128 0x59
 2276 0194 0B       		.uleb128 0xb
 2277 0195 01       		.uleb128 0x1
 2278 0196 13       		.uleb128 0x13
 2279 0197 00       		.byte	0
 2280 0198 00       		.byte	0
 2281 0199 1F       		.uleb128 0x1f
 2282 019a 898201   		.uleb128 0x4109
 2283 019d 01       		.byte	0x1
 2284 019e 11       		.uleb128 0x11
 2285 019f 01       		.uleb128 0x1
 2286 01a0 31       		.uleb128 0x31
 2287 01a1 13       		.uleb128 0x13
 2288 01a2 00       		.byte	0
 2289 01a3 00       		.byte	0
 2290 01a4 20       		.uleb128 0x20
 2291 01a5 34       		.uleb128 0x34
 2292 01a6 00       		.byte	0
 2293 01a7 03       		.uleb128 0x3
 2294 01a8 08       		.uleb128 0x8
 2295 01a9 3A       		.uleb128 0x3a
 2296 01aa 0B       		.uleb128 0xb
 2297 01ab 3B       		.uleb128 0x3b
GAS LISTING /tmp/ccju1a1D.s 			page 49


 2298 01ac 0B       		.uleb128 0xb
 2299 01ad 49       		.uleb128 0x49
 2300 01ae 13       		.uleb128 0x13
 2301 01af 02       		.uleb128 0x2
 2302 01b0 18       		.uleb128 0x18
 2303 01b1 00       		.byte	0
 2304 01b2 00       		.byte	0
 2305 01b3 21       		.uleb128 0x21
 2306 01b4 05       		.uleb128 0x5
 2307 01b5 00       		.byte	0
 2308 01b6 03       		.uleb128 0x3
 2309 01b7 08       		.uleb128 0x8
 2310 01b8 3A       		.uleb128 0x3a
 2311 01b9 0B       		.uleb128 0xb
 2312 01ba 3B       		.uleb128 0x3b
 2313 01bb 0B       		.uleb128 0xb
 2314 01bc 49       		.uleb128 0x49
 2315 01bd 13       		.uleb128 0x13
 2316 01be 02       		.uleb128 0x2
 2317 01bf 17       		.uleb128 0x17
 2318 01c0 00       		.byte	0
 2319 01c1 00       		.byte	0
 2320 01c2 22       		.uleb128 0x22
 2321 01c3 05       		.uleb128 0x5
 2322 01c4 00       		.byte	0
 2323 01c5 03       		.uleb128 0x3
 2324 01c6 0E       		.uleb128 0xe
 2325 01c7 3A       		.uleb128 0x3a
 2326 01c8 0B       		.uleb128 0xb
 2327 01c9 3B       		.uleb128 0x3b
 2328 01ca 0B       		.uleb128 0xb
 2329 01cb 49       		.uleb128 0x49
 2330 01cc 13       		.uleb128 0x13
 2331 01cd 02       		.uleb128 0x2
 2332 01ce 17       		.uleb128 0x17
 2333 01cf 00       		.byte	0
 2334 01d0 00       		.byte	0
 2335 01d1 23       		.uleb128 0x23
 2336 01d2 1D       		.uleb128 0x1d
 2337 01d3 01       		.byte	0x1
 2338 01d4 31       		.uleb128 0x31
 2339 01d5 13       		.uleb128 0x13
 2340 01d6 11       		.uleb128 0x11
 2341 01d7 01       		.uleb128 0x1
 2342 01d8 12       		.uleb128 0x12
 2343 01d9 06       		.uleb128 0x6
 2344 01da 58       		.uleb128 0x58
 2345 01db 0B       		.uleb128 0xb
 2346 01dc 59       		.uleb128 0x59
 2347 01dd 05       		.uleb128 0x5
 2348 01de 01       		.uleb128 0x1
 2349 01df 13       		.uleb128 0x13
 2350 01e0 00       		.byte	0
 2351 01e1 00       		.byte	0
 2352 01e2 24       		.uleb128 0x24
 2353 01e3 898201   		.uleb128 0x4109
 2354 01e6 01       		.byte	0x1
GAS LISTING /tmp/ccju1a1D.s 			page 50


 2355 01e7 11       		.uleb128 0x11
 2356 01e8 01       		.uleb128 0x1
 2357 01e9 9542     		.uleb128 0x2115
 2358 01eb 19       		.uleb128 0x19
 2359 01ec 31       		.uleb128 0x31
 2360 01ed 13       		.uleb128 0x13
 2361 01ee 00       		.byte	0
 2362 01ef 00       		.byte	0
 2363 01f0 25       		.uleb128 0x25
 2364 01f1 05       		.uleb128 0x5
 2365 01f2 00       		.byte	0
 2366 01f3 03       		.uleb128 0x3
 2367 01f4 0E       		.uleb128 0xe
 2368 01f5 3A       		.uleb128 0x3a
 2369 01f6 0B       		.uleb128 0xb
 2370 01f7 3B       		.uleb128 0x3b
 2371 01f8 0B       		.uleb128 0xb
 2372 01f9 49       		.uleb128 0x49
 2373 01fa 13       		.uleb128 0x13
 2374 01fb 02       		.uleb128 0x2
 2375 01fc 18       		.uleb128 0x18
 2376 01fd 00       		.byte	0
 2377 01fe 00       		.byte	0
 2378 01ff 26       		.uleb128 0x26
 2379 0200 2E       		.uleb128 0x2e
 2380 0201 01       		.byte	0x1
 2381 0202 3F       		.uleb128 0x3f
 2382 0203 19       		.uleb128 0x19
 2383 0204 03       		.uleb128 0x3
 2384 0205 0E       		.uleb128 0xe
 2385 0206 3A       		.uleb128 0x3a
 2386 0207 0B       		.uleb128 0xb
 2387 0208 3B       		.uleb128 0x3b
 2388 0209 05       		.uleb128 0x5
 2389 020a 27       		.uleb128 0x27
 2390 020b 19       		.uleb128 0x19
 2391 020c 11       		.uleb128 0x11
 2392 020d 01       		.uleb128 0x1
 2393 020e 12       		.uleb128 0x12
 2394 020f 06       		.uleb128 0x6
 2395 0210 40       		.uleb128 0x40
 2396 0211 18       		.uleb128 0x18
 2397 0212 9742     		.uleb128 0x2117
 2398 0214 19       		.uleb128 0x19
 2399 0215 01       		.uleb128 0x1
 2400 0216 13       		.uleb128 0x13
 2401 0217 00       		.byte	0
 2402 0218 00       		.byte	0
 2403 0219 27       		.uleb128 0x27
 2404 021a 05       		.uleb128 0x5
 2405 021b 00       		.byte	0
 2406 021c 03       		.uleb128 0x3
 2407 021d 08       		.uleb128 0x8
 2408 021e 3A       		.uleb128 0x3a
 2409 021f 0B       		.uleb128 0xb
 2410 0220 3B       		.uleb128 0x3b
 2411 0221 05       		.uleb128 0x5
GAS LISTING /tmp/ccju1a1D.s 			page 51


 2412 0222 49       		.uleb128 0x49
 2413 0223 13       		.uleb128 0x13
 2414 0224 02       		.uleb128 0x2
 2415 0225 18       		.uleb128 0x18
 2416 0226 00       		.byte	0
 2417 0227 00       		.byte	0
 2418 0228 28       		.uleb128 0x28
 2419 0229 0B       		.uleb128 0xb
 2420 022a 01       		.byte	0x1
 2421 022b 11       		.uleb128 0x11
 2422 022c 01       		.uleb128 0x1
 2423 022d 12       		.uleb128 0x12
 2424 022e 06       		.uleb128 0x6
 2425 022f 00       		.byte	0
 2426 0230 00       		.byte	0
 2427 0231 29       		.uleb128 0x29
 2428 0232 05       		.uleb128 0x5
 2429 0233 00       		.byte	0
 2430 0234 03       		.uleb128 0x3
 2431 0235 08       		.uleb128 0x8
 2432 0236 3A       		.uleb128 0x3a
 2433 0237 0B       		.uleb128 0xb
 2434 0238 3B       		.uleb128 0x3b
 2435 0239 05       		.uleb128 0x5
 2436 023a 49       		.uleb128 0x49
 2437 023b 13       		.uleb128 0x13
 2438 023c 02       		.uleb128 0x2
 2439 023d 17       		.uleb128 0x17
 2440 023e 00       		.byte	0
 2441 023f 00       		.byte	0
 2442 0240 2A       		.uleb128 0x2a
 2443 0241 34       		.uleb128 0x34
 2444 0242 00       		.byte	0
 2445 0243 03       		.uleb128 0x3
 2446 0244 08       		.uleb128 0x8
 2447 0245 3A       		.uleb128 0x3a
 2448 0246 0B       		.uleb128 0xb
 2449 0247 3B       		.uleb128 0x3b
 2450 0248 05       		.uleb128 0x5
 2451 0249 49       		.uleb128 0x49
 2452 024a 13       		.uleb128 0x13
 2453 024b 02       		.uleb128 0x2
 2454 024c 18       		.uleb128 0x18
 2455 024d 00       		.byte	0
 2456 024e 00       		.byte	0
 2457 024f 2B       		.uleb128 0x2b
 2458 0250 898201   		.uleb128 0x4109
 2459 0253 00       		.byte	0
 2460 0254 11       		.uleb128 0x11
 2461 0255 01       		.uleb128 0x1
 2462 0256 9542     		.uleb128 0x2115
 2463 0258 19       		.uleb128 0x19
 2464 0259 31       		.uleb128 0x31
 2465 025a 13       		.uleb128 0x13
 2466 025b 00       		.byte	0
 2467 025c 00       		.byte	0
 2468 025d 2C       		.uleb128 0x2c
GAS LISTING /tmp/ccju1a1D.s 			page 52


 2469 025e 2E       		.uleb128 0x2e
 2470 025f 01       		.byte	0x1
 2471 0260 3F       		.uleb128 0x3f
 2472 0261 19       		.uleb128 0x19
 2473 0262 03       		.uleb128 0x3
 2474 0263 0E       		.uleb128 0xe
 2475 0264 3A       		.uleb128 0x3a
 2476 0265 0B       		.uleb128 0xb
 2477 0266 3B       		.uleb128 0x3b
 2478 0267 05       		.uleb128 0x5
 2479 0268 27       		.uleb128 0x27
 2480 0269 19       		.uleb128 0x19
 2481 026a 49       		.uleb128 0x49
 2482 026b 13       		.uleb128 0x13
 2483 026c 11       		.uleb128 0x11
 2484 026d 01       		.uleb128 0x1
 2485 026e 12       		.uleb128 0x12
 2486 026f 06       		.uleb128 0x6
 2487 0270 40       		.uleb128 0x40
 2488 0271 18       		.uleb128 0x18
 2489 0272 9742     		.uleb128 0x2117
 2490 0274 19       		.uleb128 0x19
 2491 0275 01       		.uleb128 0x1
 2492 0276 13       		.uleb128 0x13
 2493 0277 00       		.byte	0
 2494 0278 00       		.byte	0
 2495 0279 2D       		.uleb128 0x2d
 2496 027a 34       		.uleb128 0x34
 2497 027b 00       		.byte	0
 2498 027c 03       		.uleb128 0x3
 2499 027d 08       		.uleb128 0x8
 2500 027e 3A       		.uleb128 0x3a
 2501 027f 0B       		.uleb128 0xb
 2502 0280 3B       		.uleb128 0x3b
 2503 0281 05       		.uleb128 0x5
 2504 0282 49       		.uleb128 0x49
 2505 0283 13       		.uleb128 0x13
 2506 0284 02       		.uleb128 0x2
 2507 0285 17       		.uleb128 0x17
 2508 0286 00       		.byte	0
 2509 0287 00       		.byte	0
 2510 0288 2E       		.uleb128 0x2e
 2511 0289 0B       		.uleb128 0xb
 2512 028a 01       		.byte	0x1
 2513 028b 11       		.uleb128 0x11
 2514 028c 01       		.uleb128 0x1
 2515 028d 12       		.uleb128 0x12
 2516 028e 06       		.uleb128 0x6
 2517 028f 01       		.uleb128 0x1
 2518 0290 13       		.uleb128 0x13
 2519 0291 00       		.byte	0
 2520 0292 00       		.byte	0
 2521 0293 2F       		.uleb128 0x2f
 2522 0294 34       		.uleb128 0x34
 2523 0295 00       		.byte	0
 2524 0296 03       		.uleb128 0x3
 2525 0297 0E       		.uleb128 0xe
GAS LISTING /tmp/ccju1a1D.s 			page 53


 2526 0298 3A       		.uleb128 0x3a
 2527 0299 0B       		.uleb128 0xb
 2528 029a 3B       		.uleb128 0x3b
 2529 029b 0B       		.uleb128 0xb
 2530 029c 49       		.uleb128 0x49
 2531 029d 13       		.uleb128 0x13
 2532 029e 3F       		.uleb128 0x3f
 2533 029f 19       		.uleb128 0x19
 2534 02a0 3C       		.uleb128 0x3c
 2535 02a1 19       		.uleb128 0x19
 2536 02a2 00       		.byte	0
 2537 02a3 00       		.byte	0
 2538 02a4 30       		.uleb128 0x30
 2539 02a5 2E       		.uleb128 0x2e
 2540 02a6 01       		.byte	0x1
 2541 02a7 3F       		.uleb128 0x3f
 2542 02a8 19       		.uleb128 0x19
 2543 02a9 03       		.uleb128 0x3
 2544 02aa 0E       		.uleb128 0xe
 2545 02ab 3A       		.uleb128 0x3a
 2546 02ac 0B       		.uleb128 0xb
 2547 02ad 3B       		.uleb128 0x3b
 2548 02ae 0B       		.uleb128 0xb
 2549 02af 27       		.uleb128 0x27
 2550 02b0 19       		.uleb128 0x19
 2551 02b1 49       		.uleb128 0x49
 2552 02b2 13       		.uleb128 0x13
 2553 02b3 3C       		.uleb128 0x3c
 2554 02b4 19       		.uleb128 0x19
 2555 02b5 01       		.uleb128 0x1
 2556 02b6 13       		.uleb128 0x13
 2557 02b7 00       		.byte	0
 2558 02b8 00       		.byte	0
 2559 02b9 31       		.uleb128 0x31
 2560 02ba 05       		.uleb128 0x5
 2561 02bb 00       		.byte	0
 2562 02bc 49       		.uleb128 0x49
 2563 02bd 13       		.uleb128 0x13
 2564 02be 00       		.byte	0
 2565 02bf 00       		.byte	0
 2566 02c0 32       		.uleb128 0x32
 2567 02c1 2E       		.uleb128 0x2e
 2568 02c2 00       		.byte	0
 2569 02c3 3F       		.uleb128 0x3f
 2570 02c4 19       		.uleb128 0x19
 2571 02c5 03       		.uleb128 0x3
 2572 02c6 0E       		.uleb128 0xe
 2573 02c7 3A       		.uleb128 0x3a
 2574 02c8 0B       		.uleb128 0xb
 2575 02c9 3B       		.uleb128 0x3b
 2576 02ca 0B       		.uleb128 0xb
 2577 02cb 27       		.uleb128 0x27
 2578 02cc 19       		.uleb128 0x19
 2579 02cd 3C       		.uleb128 0x3c
 2580 02ce 19       		.uleb128 0x19
 2581 02cf 00       		.byte	0
 2582 02d0 00       		.byte	0
GAS LISTING /tmp/ccju1a1D.s 			page 54


 2583 02d1 33       		.uleb128 0x33
 2584 02d2 2E       		.uleb128 0x2e
 2585 02d3 01       		.byte	0x1
 2586 02d4 3F       		.uleb128 0x3f
 2587 02d5 19       		.uleb128 0x19
 2588 02d6 03       		.uleb128 0x3
 2589 02d7 0E       		.uleb128 0xe
 2590 02d8 3A       		.uleb128 0x3a
 2591 02d9 0B       		.uleb128 0xb
 2592 02da 3B       		.uleb128 0x3b
 2593 02db 0B       		.uleb128 0xb
 2594 02dc 27       		.uleb128 0x27
 2595 02dd 19       		.uleb128 0x19
 2596 02de 3C       		.uleb128 0x3c
 2597 02df 19       		.uleb128 0x19
 2598 02e0 01       		.uleb128 0x1
 2599 02e1 13       		.uleb128 0x13
 2600 02e2 00       		.byte	0
 2601 02e3 00       		.byte	0
 2602 02e4 34       		.uleb128 0x34
 2603 02e5 2E       		.uleb128 0x2e
 2604 02e6 01       		.byte	0x1
 2605 02e7 3F       		.uleb128 0x3f
 2606 02e8 19       		.uleb128 0x19
 2607 02e9 03       		.uleb128 0x3
 2608 02ea 0E       		.uleb128 0xe
 2609 02eb 3A       		.uleb128 0x3a
 2610 02ec 0B       		.uleb128 0xb
 2611 02ed 3B       		.uleb128 0x3b
 2612 02ee 0B       		.uleb128 0xb
 2613 02ef 27       		.uleb128 0x27
 2614 02f0 19       		.uleb128 0x19
 2615 02f1 3C       		.uleb128 0x3c
 2616 02f2 19       		.uleb128 0x19
 2617 02f3 00       		.byte	0
 2618 02f4 00       		.byte	0
 2619 02f5 00       		.byte	0
 2620              		.section	.debug_loc,"",@progbits
 2621              	.Ldebug_loc0:
 2622              	.LLST0:
 2623 0000 30000000 		.long	.LVL2-.Ltext0
 2624 0004 46000000 		.long	.LVL6-.Ltext0
 2625 0008 0100     		.value	0x1
 2626 000a 56       		.byte	0x56
 2627 000b 46000000 		.long	.LVL6-.Ltext0
 2628 000f 60000000 		.long	.LVL8-.Ltext0
 2629 0013 0300     		.value	0x3
 2630 0015 76       		.byte	0x76
 2631 0016 7F       		.sleb128 -1
 2632 0017 9F       		.byte	0x9f
 2633 0018 60000000 		.long	.LVL8-.Ltext0
 2634 001c 67000000 		.long	.LVL10-.Ltext0
 2635 0020 0100     		.value	0x1
 2636 0022 56       		.byte	0x56
 2637 0023 00000000 		.long	0
 2638 0027 00000000 		.long	0
 2639              	.LLST1:
GAS LISTING /tmp/ccju1a1D.s 			page 55


 2640 002b 40000000 		.long	.LVL4-.Ltext0
 2641 002f 62000000 		.long	.LVL9-.Ltext0
 2642 0033 0100     		.value	0x1
 2643 0035 53       		.byte	0x53
 2644 0036 00000000 		.long	0
 2645 003a 00000000 		.long	0
 2646              	.LLST2:
 2647 003e 43000000 		.long	.LVL5-.Ltext0
 2648 0042 55000000 		.long	.LVL7-1-.Ltext0
 2649 0046 0100     		.value	0x1
 2650 0048 50       		.byte	0x50
 2651 0049 00000000 		.long	0
 2652 004d 00000000 		.long	0
 2653              	.LLST3:
 2654 0051 C8000000 		.long	.LVL15-.Ltext0
 2655 0055 D3000000 		.long	.LVL16-.Ltext0
 2656 0059 0200     		.value	0x2
 2657 005b 70       		.byte	0x70
 2658 005c 24       		.sleb128 36
 2659 005d D3000000 		.long	.LVL16-.Ltext0
 2660 0061 D5000000 		.long	.LVL17-.Ltext0
 2661 0065 0200     		.value	0x2
 2662 0067 70       		.byte	0x70
 2663 0068 00       		.sleb128 0
 2664 0069 D5000000 		.long	.LVL17-.Ltext0
 2665 006d E0000000 		.long	.LVL18-1-.Ltext0
 2666 0071 0100     		.value	0x1
 2667 0073 52       		.byte	0x52
 2668 0074 E0000000 		.long	.LVL18-1-.Ltext0
 2669 0078 ED000000 		.long	.LFE11-.Ltext0
 2670 007c 0200     		.value	0x2
 2671 007e 91       		.byte	0x91
 2672 007f 00       		.sleb128 0
 2673 0080 00000000 		.long	0
 2674 0084 00000000 		.long	0
 2675              	.LLST4:
 2676 0088 C8000000 		.long	.LVL15-.Ltext0
 2677 008c E0000000 		.long	.LVL18-1-.Ltext0
 2678 0090 0100     		.value	0x1
 2679 0092 50       		.byte	0x50
 2680 0093 00000000 		.long	0
 2681 0097 00000000 		.long	0
 2682              	.LLST5:
 2683 009b 10010000 		.long	.LVL21-.Ltext0
 2684 009f 55010000 		.long	.LVL26-.Ltext0
 2685 00a3 0200     		.value	0x2
 2686 00a5 91       		.byte	0x91
 2687 00a6 00       		.sleb128 0
 2688 00a7 55010000 		.long	.LVL26-.Ltext0
 2689 00ab 5B010000 		.long	.LVL28-1-.Ltext0
 2690 00af 0100     		.value	0x1
 2691 00b1 52       		.byte	0x52
 2692 00b2 5C010000 		.long	.LVL28-.Ltext0
 2693 00b6 6A010000 		.long	.LFE13-.Ltext0
 2694 00ba 0100     		.value	0x1
 2695 00bc 52       		.byte	0x52
 2696 00bd 00000000 		.long	0
GAS LISTING /tmp/ccju1a1D.s 			page 56


 2697 00c1 00000000 		.long	0
 2698              	.LLST6:
 2699 00c5 10010000 		.long	.LVL21-.Ltext0
 2700 00c9 2C010000 		.long	.LVL22-.Ltext0
 2701 00cd 0200     		.value	0x2
 2702 00cf 91       		.byte	0x91
 2703 00d0 04       		.sleb128 4
 2704 00d1 2C010000 		.long	.LVL22-.Ltext0
 2705 00d5 57010000 		.long	.LVL27-.Ltext0
 2706 00d9 0100     		.value	0x1
 2707 00db 56       		.byte	0x56
 2708 00dc 57010000 		.long	.LVL27-.Ltext0
 2709 00e0 5B010000 		.long	.LVL28-1-.Ltext0
 2710 00e4 0200     		.value	0x2
 2711 00e6 91       		.byte	0x91
 2712 00e7 04       		.sleb128 4
 2713 00e8 5C010000 		.long	.LVL28-.Ltext0
 2714 00ec 6A010000 		.long	.LFE13-.Ltext0
 2715 00f0 0100     		.value	0x1
 2716 00f2 56       		.byte	0x56
 2717 00f3 00000000 		.long	0
 2718 00f7 00000000 		.long	0
 2719              	.LLST7:
 2720 00fb 3C010000 		.long	.LVL23-.Ltext0
 2721 00ff 47010000 		.long	.LVL24-.Ltext0
 2722 0103 0200     		.value	0x2
 2723 0105 70       		.byte	0x70
 2724 0106 24       		.sleb128 36
 2725 0107 47010000 		.long	.LVL24-.Ltext0
 2726 010b 49010000 		.long	.LVL25-.Ltext0
 2727 010f 0200     		.value	0x2
 2728 0111 70       		.byte	0x70
 2729 0112 00       		.sleb128 0
 2730 0113 49010000 		.long	.LVL25-.Ltext0
 2731 0117 55010000 		.long	.LVL26-.Ltext0
 2732 011b 0200     		.value	0x2
 2733 011d 91       		.byte	0x91
 2734 011e 00       		.sleb128 0
 2735 011f 55010000 		.long	.LVL26-.Ltext0
 2736 0123 5B010000 		.long	.LVL28-1-.Ltext0
 2737 0127 0100     		.value	0x1
 2738 0129 52       		.byte	0x52
 2739 012a 00000000 		.long	0
 2740 012e 00000000 		.long	0
 2741              	.LLST8:
 2742 0132 3C010000 		.long	.LVL23-.Ltext0
 2743 0136 5B010000 		.long	.LVL28-1-.Ltext0
 2744 013a 0100     		.value	0x1
 2745 013c 50       		.byte	0x50
 2746 013d 00000000 		.long	0
 2747 0141 00000000 		.long	0
 2748              	.LLST9:
 2749 0145 B0010000 		.long	.LVL32-.Ltext0
 2750 0149 C8010000 		.long	.LVL34-1-.Ltext0
 2751 014d 0100     		.value	0x1
 2752 014f 50       		.byte	0x50
 2753 0150 C8010000 		.long	.LVL34-1-.Ltext0
GAS LISTING /tmp/ccju1a1D.s 			page 57


 2754 0154 CB010000 		.long	.LFE14-.Ltext0
 2755 0158 0200     		.value	0x2
 2756 015a 91       		.byte	0x91
 2757 015b 00       		.sleb128 0
 2758 015c 00000000 		.long	0
 2759 0160 00000000 		.long	0
 2760              	.LLST10:
 2761 0164 B2010000 		.long	.LVL33-.Ltext0
 2762 0168 C8010000 		.long	.LVL34-1-.Ltext0
 2763 016c 0100     		.value	0x1
 2764 016e 52       		.byte	0x52
 2765 016f 00000000 		.long	0
 2766 0173 00000000 		.long	0
 2767              	.LLST11:
 2768 0177 D0010000 		.long	.LVL35-.Ltext0
 2769 017b FC010000 		.long	.LVL38-.Ltext0
 2770 017f 0200     		.value	0x2
 2771 0181 91       		.byte	0x91
 2772 0182 00       		.sleb128 0
 2773 0183 FC010000 		.long	.LVL38-.Ltext0
 2774 0187 00020000 		.long	.LVL39-1-.Ltext0
 2775 018b 0100     		.value	0x1
 2776 018d 50       		.byte	0x50
 2777 018e 00000000 		.long	0
 2778 0192 00000000 		.long	0
 2779              	.LLST12:
 2780 0196 E8010000 		.long	.LVL36-.Ltext0
 2781 019a FC010000 		.long	.LVL38-.Ltext0
 2782 019e 0200     		.value	0x2
 2783 01a0 91       		.byte	0x91
 2784 01a1 00       		.sleb128 0
 2785 01a2 FC010000 		.long	.LVL38-.Ltext0
 2786 01a6 00020000 		.long	.LVL39-1-.Ltext0
 2787 01aa 0100     		.value	0x1
 2788 01ac 50       		.byte	0x50
 2789 01ad 00000000 		.long	0
 2790 01b1 00000000 		.long	0
 2791              	.LLST13:
 2792 01b5 EA010000 		.long	.LVL37-.Ltext0
 2793 01b9 00020000 		.long	.LVL39-1-.Ltext0
 2794 01bd 0100     		.value	0x1
 2795 01bf 52       		.byte	0x52
 2796 01c0 00000000 		.long	0
 2797 01c4 00000000 		.long	0
 2798              	.LLST14:
 2799 01c8 10020000 		.long	.LVL40-.Ltext0
 2800 01cc 19020000 		.long	.LVL41-.Ltext0
 2801 01d0 0200     		.value	0x2
 2802 01d2 91       		.byte	0x91
 2803 01d3 04       		.sleb128 4
 2804 01d4 19020000 		.long	.LVL41-.Ltext0
 2805 01d8 28020000 		.long	.LVL42-.Ltext0
 2806 01dc 0100     		.value	0x1
 2807 01de 53       		.byte	0x53
 2808 01df 28020000 		.long	.LVL42-.Ltext0
 2809 01e3 2B020000 		.long	.LVL43-.Ltext0
 2810 01e7 0300     		.value	0x3
GAS LISTING /tmp/ccju1a1D.s 			page 58


 2811 01e9 73       		.byte	0x73
 2812 01ea 7F       		.sleb128 -1
 2813 01eb 9F       		.byte	0x9f
 2814 01ec 2B020000 		.long	.LVL43-.Ltext0
 2815 01f0 4E020000 		.long	.LVL48-.Ltext0
 2816 01f4 0100     		.value	0x1
 2817 01f6 53       		.byte	0x53
 2818 01f7 4E020000 		.long	.LVL48-.Ltext0
 2819 01fb 55020000 		.long	.LVL49-.Ltext0
 2820 01ff 0300     		.value	0x3
 2821 0201 73       		.byte	0x73
 2822 0202 01       		.sleb128 1
 2823 0203 9F       		.byte	0x9f
 2824 0204 00000000 		.long	0
 2825 0208 00000000 		.long	0
 2826              	.LLST15:
 2827 020c 3A020000 		.long	.LVL45-.Ltext0
 2828 0210 57020000 		.long	.LVL50-.Ltext0
 2829 0214 0100     		.value	0x1
 2830 0216 56       		.byte	0x56
 2831 0217 00000000 		.long	0
 2832 021b 00000000 		.long	0
 2833              	.LLST16:
 2834 021f 3C020000 		.long	.LVL46-.Ltext0
 2835 0223 4A020000 		.long	.LVL47-1-.Ltext0
 2836 0227 0100     		.value	0x1
 2837 0229 50       		.byte	0x50
 2838 022a 00000000 		.long	0
 2839 022e 00000000 		.long	0
 2840              	.LLST17:
 2841 0232 86020000 		.long	.LVL52-.Ltext0
 2842 0236 88020000 		.long	.LVL53-.Ltext0
 2843 023a 0200     		.value	0x2
 2844 023c 30       		.byte	0x30
 2845 023d 9F       		.byte	0x9f
 2846 023e 88020000 		.long	.LVL53-.Ltext0
 2847 0242 8F020000 		.long	.LVL54-.Ltext0
 2848 0246 0100     		.value	0x1
 2849 0248 50       		.byte	0x50
 2850 0249 B5020000 		.long	.LVL57-.Ltext0
 2851 024d B7020000 		.long	.LVL58-.Ltext0
 2852 0251 0100     		.value	0x1
 2853 0253 50       		.byte	0x50
 2854 0254 00000000 		.long	0
 2855 0258 00000000 		.long	0
 2856              	.LLST18:
 2857 025c 96020000 		.long	.LVL55-.Ltext0
 2858 0260 B7020000 		.long	.LVL58-.Ltext0
 2859 0264 0100     		.value	0x1
 2860 0266 56       		.byte	0x56
 2861 0267 00000000 		.long	0
 2862 026b 00000000 		.long	0
 2863              	.LLST19:
 2864 026f 96020000 		.long	.LVL55-.Ltext0
 2865 0273 B7020000 		.long	.LVL58-.Ltext0
 2866 0277 0100     		.value	0x1
 2867 0279 53       		.byte	0x53
GAS LISTING /tmp/ccju1a1D.s 			page 59


 2868 027a 00000000 		.long	0
 2869 027e 00000000 		.long	0
 2870              	.LLST21:
 2871 0282 B7020000 		.long	.LVL58-.Ltext0
 2872 0286 C8020000 		.long	.LVL60-1-.Ltext0
 2873 028a 0100     		.value	0x1
 2874 028c 50       		.byte	0x50
 2875 028d C8020000 		.long	.LVL60-1-.Ltext0
 2876 0291 D2020000 		.long	.LFE17-.Ltext0
 2877 0295 0200     		.value	0x2
 2878 0297 91       		.byte	0x91
 2879 0298 00       		.sleb128 0
 2880 0299 00000000 		.long	0
 2881 029d 00000000 		.long	0
 2882              	.LLST22:
 2883 02a1 BA020000 		.long	.LVL59-.Ltext0
 2884 02a5 C8020000 		.long	.LVL60-1-.Ltext0
 2885 02a9 0100     		.value	0x1
 2886 02ab 52       		.byte	0x52
 2887 02ac 00000000 		.long	0
 2888 02b0 00000000 		.long	0
 2889              		.section	.debug_aranges,"",@progbits
 2890 0000 1C000000 		.long	0x1c
 2891 0004 0200     		.value	0x2
 2892 0006 00000000 		.long	.Ldebug_info0
 2893 000a 04       		.byte	0x4
 2894 000b 00       		.byte	0
 2895 000c 0000     		.value	0
 2896 000e 0000     		.value	0
 2897 0010 00000000 		.long	.Ltext0
 2898 0014 D2020000 		.long	.Letext0-.Ltext0
 2899 0018 00000000 		.long	0
 2900 001c 00000000 		.long	0
 2901              		.section	.debug_ranges,"",@progbits
 2902              	.Ldebug_ranges0:
 2903 0000 40000000 		.long	.LBB20-.Ltext0
 2904 0004 43000000 		.long	.LBE20-.Ltext0
 2905 0008 46000000 		.long	.LBB23-.Ltext0
 2906 000c 4E000000 		.long	.LBE23-.Ltext0
 2907 0010 00000000 		.long	0
 2908 0014 00000000 		.long	0
 2909              		.section	.debug_line,"",@progbits
 2910              	.Ldebug_line0:
 2911 0000 03020000 		.section	.debug_str,"MS",@progbits,1
 2911      0200EC00 
 2911      00000101 
 2911      FB0E0D00 
 2911      01010101 
 2912              	.LASF36:
 2913 0000 705F6D73 		.string	"p_msg"
 2913      6700
 2914              	.LASF60:
 2915 0006 6D5F6E65 		.string	"m_next"
 2915      787400
 2916              	.LASF85:
 2917 000d 71756575 		.string	"queue_insert"
 2917      655F696E 
GAS LISTING /tmp/ccju1a1D.s 			page 60


 2917      73657274 
 2917      00
 2918              	.LASF77:
 2919 001a 63685365 		.string	"chSemSignalI"
 2919      6D536967 
 2919      6E616C49 
 2919      00
 2920              	.LASF61:
 2921 0027 7264796D 		.string	"rdymsg"
 2921      736700
 2922              	.LASF10:
 2923 002e 6C6F6E67 		.string	"long long unsigned int"
 2923      206C6F6E 
 2923      6720756E 
 2923      7369676E 
 2923      65642069 
 2924              	.LASF62:
 2925 0045 65786974 		.string	"exitcode"
 2925      636F6465 
 2925      00
 2926              	.LASF78:
 2927 004e 63685365 		.string	"chSemAddCounterI"
 2927      6D416464 
 2927      436F756E 
 2927      74657249 
 2927      00
 2928              	.LASF24:
 2929 005f 705F7072 		.string	"p_prio"
 2929      696F00
 2930              	.LASF4:
 2931 0066 6C6F6E67 		.string	"long long int"
 2931      206C6F6E 
 2931      6720696E 
 2931      7400
 2932              	.LASF2:
 2933 0074 7369676E 		.string	"signed char"
 2933      65642063 
 2933      68617200 
 2934              	.LASF79:
 2935 0080 63685365 		.string	"chSemSignalWait"
 2935      6D536967 
 2935      6E616C57 
 2935      61697400 
 2936              	.LASF40:
 2937 0090 705F6D70 		.string	"p_mpool"
 2937      6F6F6C00 
 2938              	.LASF58:
 2939 0098 6D5F7175 		.string	"m_queue"
 2939      65756500 
 2940              	.LASF84:
 2941 00a0 2F686F6D 		.string	"/home/tony/ChibiOS-RT/testhal/Posix/EXT"
 2941      652F746F 
 2941      6E792F43 
 2941      68696269 
 2941      4F532D52 
 2942              	.LASF15:
 2943 00c8 74736C69 		.string	"tslices_t"
GAS LISTING /tmp/ccju1a1D.s 			page 61


 2943      6365735F 
 2943      7400
 2944              	.LASF1:
 2945 00d2 6C6F6E67 		.string	"long int"
 2945      20696E74 
 2945      00
 2946              	.LASF13:
 2947 00db 74737461 		.string	"tstate_t"
 2947      74655F74 
 2947      00
 2948              	.LASF76:
 2949 00e4 63685365 		.string	"chSemSignal"
 2949      6D536967 
 2949      6E616C00 
 2950              	.LASF26:
 2951 00f0 705F6E65 		.string	"p_newer"
 2951      77657200 
 2952              	.LASF55:
 2953 00f8 735F7175 		.string	"s_queue"
 2953      65756500 
 2954              	.LASF87:
 2955 0100 63685363 		.string	"chSchRescheduleS"
 2955      68526573 
 2955      63686564 
 2955      756C6553 
 2955      00
 2956              	.LASF50:
 2957 0111 725F6E65 		.string	"r_newer"
 2957      77657200 
 2958              	.LASF20:
 2959 0119 636E745F 		.string	"cnt_t"
 2959      7400
 2960              	.LASF0:
 2961 011f 756E7369 		.string	"unsigned int"
 2961      676E6564 
 2961      20696E74 
 2961      00
 2962              	.LASF75:
 2963 012c 63685365 		.string	"chSemWaitTimeout"
 2963      6D576169 
 2963      7454696D 
 2963      656F7574 
 2963      00
 2964              	.LASF35:
 2965 013d 705F6D73 		.string	"p_msgqueue"
 2965      67717565 
 2965      756500
 2966              	.LASF56:
 2967 0148 735F636E 		.string	"s_cnt"
 2967      7400
 2968              	.LASF46:
 2969 014e 636F6E74 		.string	"context"
 2969      65787400 
 2970              	.LASF8:
 2971 0156 73686F72 		.string	"short unsigned int"
 2971      7420756E 
 2971      7369676E 
GAS LISTING /tmp/ccju1a1D.s 			page 62


 2971      65642069 
 2971      6E7400
 2972              	.LASF70:
 2973 0169 63685365 		.string	"chSemReset"
 2973      6D526573 
 2973      657400
 2974              	.LASF17:
 2975 0174 6D73675F 		.string	"msg_t"
 2975      7400
 2976              	.LASF83:
 2977 017a 2E2E2F2E 		.string	"../../../os/kernel/src/chsem.c"
 2977      2E2F2E2E 
 2977      2F6F732F 
 2977      6B65726E 
 2977      656C2F73 
 2978              	.LASF12:
 2979 0199 746D6F64 		.string	"tmode_t"
 2979      655F7400 
 2980              	.LASF42:
 2981 01a1 54687265 		.string	"ThreadsList"
 2981      6164734C 
 2981      69737400 
 2982              	.LASF18:
 2983 01ad 6576656E 		.string	"eventmask_t"
 2983      746D6173 
 2983      6B5F7400 
 2984              	.LASF57:
 2985 01b9 4D757465 		.string	"Mutex"
 2985      7800
 2986              	.LASF69:
 2987 01bf 63685365 		.string	"chSemResetI"
 2987      6D526573 
 2987      65744900 
 2988              	.LASF43:
 2989 01cb 73697A65 		.string	"sizetype"
 2989      74797065 
 2989      00
 2990              	.LASF27:
 2991 01d4 705F6F6C 		.string	"p_older"
 2991      64657200 
 2992              	.LASF49:
 2993 01dc 725F6374 		.string	"r_ctx"
 2993      7800
 2994              	.LASF41:
 2995 01e2 54687265 		.string	"ThreadsQueue"
 2995      61647351 
 2995      75657565 
 2995      00
 2996              	.LASF74:
 2997 01ef 74696D65 		.string	"time"
 2997      00
 2998              	.LASF52:
 2999 01f4 725F6375 		.string	"r_current"
 2999      7272656E 
 2999      7400
 3000              	.LASF51:
 3001 01fe 725F6F6C 		.string	"r_older"
GAS LISTING /tmp/ccju1a1D.s 			page 63


 3001      64657200 
 3002              	.LASF14:
 3003 0206 74726566 		.string	"trefs_t"
 3003      735F7400 
 3004              	.LASF23:
 3005 020e 705F7072 		.string	"p_prev"
 3005      657600
 3006              	.LASF16:
 3007 0215 74707269 		.string	"tprio_t"
 3007      6F5F7400 
 3008              	.LASF11:
 3009 021d 5F426F6F 		.string	"_Bool"
 3009      6C00
 3010              	.LASF5:
 3011 0223 696E7433 		.string	"int32_t"
 3011      325F7400 
 3012              	.LASF7:
 3013 022b 756E7369 		.string	"unsigned char"
 3013      676E6564 
 3013      20636861 
 3013      7200
 3014              	.LASF82:
 3015 0239 474E5520 		.string	"GNU C 4.8.2 -m32 -mtune=generic -march=i686 -ggdb -O2 -fomit-frame-pointer -fstack-protec
 3015      4320342E 
 3015      382E3220 
 3015      2D6D3332 
 3015      202D6D74 
 3016              	.LASF38:
 3017 0296 705F6D74 		.string	"p_mtxlist"
 3017      786C6973 
 3017      7400
 3018              	.LASF3:
 3019 02a0 73686F72 		.string	"short int"
 3019      7420696E 
 3019      7400
 3020              	.LASF29:
 3021 02aa 705F7374 		.string	"p_state"
 3021      61746500 
 3022              	.LASF32:
 3023 02b2 705F7072 		.string	"p_preempt"
 3023      65656D70 
 3023      7400
 3024              	.LASF48:
 3025 02bc 725F7072 		.string	"r_prio"
 3025      696F00
 3026              	.LASF64:
 3027 02c3 65776D61 		.string	"ewmask"
 3027      736B00
 3028              	.LASF22:
 3029 02ca 705F6E65 		.string	"p_next"
 3029      787400
 3030              	.LASF30:
 3031 02d1 705F666C 		.string	"p_flags"
 3031      61677300 
 3032              	.LASF71:
 3033 02d9 63685365 		.string	"chSemWaitS"
 3033      6D576169 
GAS LISTING /tmp/ccju1a1D.s 			page 64


 3033      745300
 3034              	.LASF21:
 3035 02e4 54687265 		.string	"Thread"
 3035      616400
 3036              	.LASF88:
 3037 02eb 63685363 		.string	"chSchGoSleepS"
 3037      68476F53 
 3037      6C656570 
 3037      5300
 3038              	.LASF37:
 3039 02f9 705F6570 		.string	"p_epending"
 3039      656E6469 
 3039      6E6700
 3040              	.LASF9:
 3041 0304 75696E74 		.string	"uint32_t"
 3041      33325F74 
 3041      00
 3042              	.LASF47:
 3043 030d 725F7175 		.string	"r_queue"
 3043      65756500 
 3044              	.LASF80:
 3045 0315 63685363 		.string	"chSchReadyI"
 3045      68526561 
 3045      64794900 
 3046              	.LASF65:
 3047 0321 63686172 		.string	"char"
 3047      00
 3048              	.LASF67:
 3049 0326 6669666F 		.string	"fifo_remove"
 3049      5F72656D 
 3049      6F766500 
 3050              	.LASF73:
 3051 0332 63685365 		.string	"chSemWaitTimeoutS"
 3051      6D576169 
 3051      7454696D 
 3051      656F7574 
 3051      5300
 3052              	.LASF19:
 3053 0344 73797374 		.string	"systime_t"
 3053      696D655F 
 3053      7400
 3054              	.LASF39:
 3055 034e 705F7265 		.string	"p_realprio"
 3055      616C7072 
 3055      696F00
 3056              	.LASF72:
 3057 0359 63685365 		.string	"chSemWait"
 3057      6D576169 
 3057      7400
 3058              	.LASF33:
 3059 0363 705F7469 		.string	"p_time"
 3059      6D6500
 3060              	.LASF66:
 3061 036a 6C69666F 		.string	"lifo_remove"
 3061      5F72656D 
 3061      6F766500 
 3062              	.LASF45:
GAS LISTING /tmp/ccju1a1D.s 			page 65


 3063 0376 696E7463 		.string	"intctx"
 3063      747800
 3064              	.LASF89:
 3065 037d 63685363 		.string	"chSchWakeupS"
 3065      6857616B 
 3065      65757053 
 3065      00
 3066              	.LASF54:
 3067 038a 53656D61 		.string	"Semaphore"
 3067      70686F72 
 3067      6500
 3068              	.LASF31:
 3069 0394 705F7265 		.string	"p_refs"
 3069      667300
 3070              	.LASF53:
 3071 039b 52656164 		.string	"ReadyList"
 3071      794C6973 
 3071      7400
 3072              	.LASF86:
 3073 03a5 726C6973 		.string	"rlist"
 3073      7400
 3074              	.LASF6:
 3075 03ab 75696E74 		.string	"uint8_t"
 3075      385F7400 
 3076              	.LASF63:
 3077 03b3 77746F62 		.string	"wtobjp"
 3077      6A7000
 3078              	.LASF28:
 3079 03ba 705F6E61 		.string	"p_name"
 3079      6D6500
 3080              	.LASF81:
 3081 03c1 63685363 		.string	"chSchGoSleepTimeoutS"
 3081      68476F53 
 3081      6C656570 
 3081      54696D65 
 3081      6F757453 
 3082              	.LASF44:
 3083 03d6 72656778 		.string	"regx86"
 3083      383600
 3084              	.LASF59:
 3085 03dd 6D5F6F77 		.string	"m_owner"
 3085      6E657200 
 3086              	.LASF25:
 3087 03e5 705F6374 		.string	"p_ctx"
 3087      7800
 3088              	.LASF34:
 3089 03eb 705F7761 		.string	"p_waiting"
 3089      6974696E 
 3089      6700
 3090              	.LASF68:
 3091 03f5 63685365 		.string	"chSemInit"
 3091      6D496E69 
 3091      7400
 3092              		.ident	"GCC: (Ubuntu 4.8.2-19ubuntu1) 4.8.2"
 3093              		.section	.note.GNU-stack,"",@progbits
GAS LISTING /tmp/ccju1a1D.s 			page 66


DEFINED SYMBOLS
                            *ABS*:0000000000000000 chsem.c
     /tmp/ccju1a1D.s:60     .text:0000000000000000 chSemInit
     /tmp/ccju1a1D.s:82     .text:0000000000000020 chSemResetI
     /tmp/ccju1a1D.s:162    .text:0000000000000070 chSemReset
     /tmp/ccju1a1D.s:201    .text:00000000000000a0 chSemWaitS
     /tmp/ccju1a1D.s:264    .text:00000000000000f0 chSemWait
     /tmp/ccju1a1D.s:298    .text:0000000000000110 chSemWaitTimeoutS
     /tmp/ccju1a1D.s:390    .text:0000000000000170 chSemWaitTimeout
     /tmp/ccju1a1D.s:426    .text:0000000000000190 chSemSignal
     /tmp/ccju1a1D.s:487    .text:00000000000001d0 chSemSignalI
     /tmp/ccju1a1D.s:531    .text:0000000000000210 chSemAddCounterI
     /tmp/ccju1a1D.s:611    .text:0000000000000260 chSemSignalWait

UNDEFINED SYMBOLS
chSchReadyI
chSchRescheduleS
rlist
chSchGoSleepS
chSchGoSleepTimeoutS
chSchWakeupS
