GAS LISTING /tmp/cc5QdqNh.s 			page 1


   1              		.file	"chsys.c"
   2              	# GNU C (Ubuntu 4.8.2-19ubuntu1) version 4.8.2 (x86_64-linux-gnu)
   3              	#	compiled by GNU C version 4.8.2, GMP version 5.1.3, MPFR version 3.1.2-p3, MPC version 1.0.1
   4              	# GGC heuristics: --param ggc-min-expand=97 --param ggc-min-heapsize=126309
   5              	# options passed:  -I . -I ../../../os/ports/GCC/SIMIA32
   6              	# -I ../../../os/kernel/include -I ../../../test -I ../../../os/hal/include
   7              	# -I ../../../os/hal/platforms/Posix -I ../../../boards/simulator
   8              	# -I ../../../os/various -imultilib 32 -imultiarch i386-linux-gnu
   9              	# -MD ../../../os/kernel/src/chsys.d -MF .dep/chsys.o.d -MP
  10              	# -MQ ../../../os/kernel/src/chsys.o -D SIMULATOR
  11              	# -D SHELL_USE_IPRINTF=FALSE ../../../os/kernel/src/chsys.c -m32
  12              	# -mtune=generic -march=i686 -auxbase-strip ../../../os/kernel/src/chsys.o
  13              	# -ggdb -O2 -Wall -Wextra -Wstrict-prototypes -fomit-frame-pointer
  14              	# -fverbose-asm -fstack-protector -Wformat -Wformat-security
  15              	# options enabled:  -faggressive-loop-optimizations
  16              	# -fasynchronous-unwind-tables -fauto-inc-dec -fbranch-count-reg
  17              	# -fcaller-saves -fcombine-stack-adjustments -fcommon -fcompare-elim
  18              	# -fcprop-registers -fcrossjumping -fcse-follow-jumps -fdefer-pop
  19              	# -fdelete-null-pointer-checks -fdevirtualize -fdwarf2-cfi-asm
  20              	# -fearly-inlining -feliminate-unused-debug-types -fexpensive-optimizations
  21              	# -fforward-propagate -ffunction-cse -fgcse -fgcse-lm -fgnu-runtime
  22              	# -fguess-branch-probability -fhoist-adjacent-loads -fident -fif-conversion
  23              	# -fif-conversion2 -findirect-inlining -finline -finline-atomics
  24              	# -finline-functions-called-once -finline-small-functions -fipa-cp
  25              	# -fipa-profile -fipa-pure-const -fipa-reference -fipa-sra
  26              	# -fira-hoist-pressure -fira-share-save-slots -fira-share-spill-slots
  27              	# -fivopts -fkeep-static-consts -fleading-underscore -fmath-errno
  28              	# -fmerge-constants -fmerge-debug-strings -fmove-loop-invariants
  29              	# -fomit-frame-pointer -foptimize-register-move -foptimize-sibling-calls
  30              	# -foptimize-strlen -fpartial-inlining -fpcc-struct-return -fpeephole
  31              	# -fpeephole2 -fprefetch-loop-arrays -free -fregmove -freorder-blocks
  32              	# -freorder-functions -frerun-cse-after-loop
  33              	# -fsched-critical-path-heuristic -fsched-dep-count-heuristic
  34              	# -fsched-group-heuristic -fsched-interblock -fsched-last-insn-heuristic
  35              	# -fsched-rank-heuristic -fsched-spec -fsched-spec-insn-heuristic
  36              	# -fsched-stalled-insns-dep -fschedule-insns2 -fshow-column -fshrink-wrap
  37              	# -fsigned-zeros -fsplit-ivs-in-unroller -fsplit-wide-types
  38              	# -fstack-protector -fstrict-aliasing -fstrict-overflow
  39              	# -fstrict-volatile-bitfields -fsync-libcalls -fthread-jumps
  40              	# -ftoplevel-reorder -ftrapping-math -ftree-bit-ccp -ftree-builtin-call-dce
  41              	# -ftree-ccp -ftree-ch -ftree-coalesce-vars -ftree-copy-prop
  42              	# -ftree-copyrename -ftree-cselim -ftree-dce -ftree-dominator-opts
  43              	# -ftree-dse -ftree-forwprop -ftree-fre -ftree-loop-if-convert
  44              	# -ftree-loop-im -ftree-loop-ivcanon -ftree-loop-optimize
  45              	# -ftree-parallelize-loops= -ftree-phiprop -ftree-pre -ftree-pta
  46              	# -ftree-reassoc -ftree-scev-cprop -ftree-sink -ftree-slp-vectorize
  47              	# -ftree-slsr -ftree-sra -ftree-switch-conversion -ftree-tail-merge
  48              	# -ftree-ter -ftree-vect-loop-version -ftree-vrp -funit-at-a-time
  49              	# -funwind-tables -fvar-tracking -fvar-tracking-assignments -fverbose-asm
  50              	# -fzero-initialized-in-bss -m32 -m80387 -m96bit-long-double
  51              	# -maccumulate-outgoing-args -malign-stringops -mfancy-math-387
  52              	# -mfp-ret-in-387 -mglibc -mieee-fp -mlong-double-80 -mno-red-zone
  53              	# -mno-sse4 -mpush-args -msahf -mtls-direct-seg-refs
  54              	
  55              		.text
  56              	.Ltext0:
  57              		.section	.rodata.str1.1,"aMS",@progbits,1
GAS LISTING /tmp/cc5QdqNh.s 			page 2


  58              	.LC0:
  59 0000 69646C65 		.string	"idle"
  59      00
  60              		.text
  61              		.p2align 4,,15
  62              		.globl	_idle_thread
  63              		.type	_idle_thread, @function
  64              	_idle_thread:
  65              	.LFB7:
  66              		.file 1 "../../../os/kernel/src/chsys.c"
  67              		.loc 1 61 0
  68              		.cfi_startproc
  69              	.LVL0:
  70 0000 83EC0C   		subl	$12, %esp	#,
  71              		.cfi_def_cfa_offset 16
  72              		.loc 1 64 0
  73 0003 A1180000 		movl	rlist+24, %eax	# rlist.r_current, rlist.r_current
  73      00
  74 0008 C7401800 		movl	$.LC0, 24(%eax)	#, _3->p_name
  74      000000
  75 000f 90       		.p2align 4,,7
  76              		.p2align 3
  77              	.L2:
  78              		.loc 1 66 0 discriminator 1
  79 0010 E8FCFFFF 		call	ChkIntSources	#
  79      FF
  80              	.LVL1:
  81 0015 EBF9     		jmp	.L2	#
  82              		.cfi_endproc
  83              	.LFE7:
  84              		.size	_idle_thread, .-_idle_thread
  85 0017 89F68DBC 		.p2align 4,,15
  85      27000000 
  85      00
  86              		.globl	chSysInit
  87              		.type	chSysInit, @function
  88              	chSysInit:
  89              	.LFB8:
  90              		.loc 1 84 0
  91              		.cfi_startproc
  92 0020 83EC2C   		subl	$44, %esp	#,
  93              		.cfi_def_cfa_offset 48
  94              		.loc 1 91 0
  95 0023 E8FCFFFF 		call	_scheduler_init	#
  95      FF
  96              	.LVL2:
  97              		.loc 1 92 0
  98 0028 E8FCFFFF 		call	_vt_init	#
  98      FF
  99              	.LVL3:
 100              		.loc 1 94 0
 101 002d E8FCFFFF 		call	_core_init	#
 101      FF
 102              	.LVL4:
 103              		.loc 1 97 0
 104              		.p2align 4,,5
 105 0032 E8FCFFFF 		call	_heap_init	#
GAS LISTING /tmp/cc5QdqNh.s 			page 3


 105      FF
 106              	.LVL5:
 107              		.loc 1 104 0
 108 0037 C7442404 		movl	$64, 4(%esp)	#,
 108      40000000 
 109 003f C7042400 		movl	$mainthread.1997, (%esp)	#,
 109      000000
 110 0046 E8FCFFFF 		call	_thread_init	#
 110      FF
 111              	.LVL6:
 112              		.loc 1 105 0
 113 004b C6401C01 		movb	$1, 28(%eax)	#, _7->p_state
 114              		.loc 1 104 0
 115 004f A3180000 		movl	%eax, rlist+24	# D.2040, rlist.r_current
 115      00
 116              		.loc 1 115 0
 117 0054 C7401800 		movl	$ch_debug, 24(%eax)	#, _7->p_name
 117      000000
 118              		.loc 1 121 0
 119 005b C7442410 		movl	$0, 16(%esp)	#,
 119      00000000 
 120 0063 C744240C 		movl	$_idle_thread, 12(%esp)	#,
 120      00000000 
 121 006b C7442408 		movl	$1, 8(%esp)	#,
 121      01000000 
 122 0073 C7442404 		movl	$16752, 4(%esp)	#,
 122      70410000 
 123 007b C7042400 		movl	$_idle_thread_wa, (%esp)	#,
 123      000000
 124 0082 E8FCFFFF 		call	chThdCreateStatic	#
 124      FF
 125              	.LVL7:
 126              		.loc 1 124 0
 127 0087 83C42C   		addl	$44, %esp	#,
 128              		.cfi_def_cfa_offset 4
 129 008a C3       		ret
 130              		.cfi_endproc
 131              	.LFE8:
 132              		.size	chSysInit, .-chSysInit
 133 008b 908D7426 		.p2align 4,,15
 133      00
 134              		.globl	chSysTimerHandlerI
 135              		.type	chSysTimerHandlerI, @function
 136              	chSysTimerHandlerI:
 137              	.LFB9:
 138              		.loc 1 137 0
 139              		.cfi_startproc
 140              		.loc 1 143 0
 141 0090 A1180000 		movl	rlist+24, %eax	# rlist.r_current, D.2043
 141      00
 142 0095 0FB6501F 		movzbl	31(%eax), %edx	# _5->p_preempt, D.2044
 143 0099 84D2     		testb	%dl, %dl	# D.2044
 144 009b 7406     		je	.L8	#,
 145              		.loc 1 145 0
 146 009d 83EA01   		subl	$1, %edx	#, tmp74
 147 00a0 88501F   		movb	%dl, 31(%eax)	# tmp74, _5->p_preempt
 148              	.L8:
GAS LISTING /tmp/cc5QdqNh.s 			page 4


 149              		.loc 1 148 0
 150 00a3 8B5020   		movl	32(%eax), %edx	# _5->p_time, D.2045
 151 00a6 83C201   		addl	$1, %edx	#, D.2045
 152 00a9 895020   		movl	%edx, 32(%eax)	# D.2045, _5->p_time
 153              		.loc 1 150 0
 154 00ac A10C0000 		movl	vtlist+12, %eax	# vtlist.vt_systime, D.2045
 154      00
 155 00b1 83C001   		addl	$1, %eax	#, D.2045
 156 00b4 A30C0000 		movl	%eax, vtlist+12	# D.2045, vtlist.vt_systime
 156      00
 157 00b9 A1000000 		movl	vtlist, %eax	# vtlist.vt_next, vtp
 157      00
 158 00be 3D000000 		cmpl	$vtlist, %eax	#, vtp
 158      00
 159 00c3 7443     		je	.L17	#,
 160              	.LBB2:
 161              		.loc 1 150 0 is_stmt 0 discriminator 1
 162 00c5 8B4808   		movl	8(%eax), %ecx	# vtp_15->vt_time, tmp82
 163 00c8 8D51FF   		leal	-1(%ecx), %edx	#, D.2045
 164 00cb 85D2     		testl	%edx, %edx	# D.2045
 165 00cd 895008   		movl	%edx, 8(%eax)	# D.2045, vtp_15->vt_time
 166              	.LVL8:
 167 00d0 7536     		jne	.L17	#,
 168              	.LBE2:
 169              		.loc 1 137 0 is_stmt 1
 170 00d2 83EC1C   		subl	$28, %esp	#,
 171              		.cfi_def_cfa_offset 32
 172              		.p2align 4,,7
 173 00d5 8D7600   		.p2align 3
 174              	.L11:
 175              	.LBB4:
 176              	.LBB3:
 177              		.loc 1 150 0 discriminator 2
 178 00d8 8B10     		movl	(%eax), %edx	# vtp_29->vt_next, D.2046
 179 00da 8B480C   		movl	12(%eax), %ecx	# vtp_29->vt_func, fn
 180              	.LVL9:
 181 00dd C7400C00 		movl	$0, 12(%eax)	#, vtp_29->vt_func
 181      000000
 182 00e4 8B4010   		movl	16(%eax), %eax	# vtp_29->vt_par, vtp_29->vt_par
 183              	.LVL10:
 184 00e7 C7420400 		movl	$vtlist, 4(%edx)	#, _23->vt_prev
 184      000000
 185              	.LVL11:
 186 00ee 89150000 		movl	%edx, vtlist	# D.2046, vtlist.vt_next
 186      0000
 187              	.LVL12:
 188 00f4 890424   		movl	%eax, (%esp)	# vtp_29->vt_par,
 189 00f7 FFD1     		call	*%ecx	# fn
 190              	.LVL13:
 191              	.LBE3:
 192 00f9 A1000000 		movl	vtlist, %eax	# vtlist.vt_next, vtp
 192      00
 193              	.LVL14:
 194 00fe 8B5008   		movl	8(%eax), %edx	# vtp_19->vt_time,
 195 0101 85D2     		testl	%edx, %edx	#
 196 0103 74D3     		je	.L11	#,
 197              	.LBE4:
GAS LISTING /tmp/cc5QdqNh.s 			page 5


 198              		.loc 1 154 0
 199 0105 83C41C   		addl	$28, %esp	#,
 200              		.cfi_def_cfa_offset 4
 201              	.LVL15:
 202              	.L17:
 203 0108 F3C3     		rep ret
 204              		.cfi_endproc
 205              	.LFE9:
 206              		.size	chSysTimerHandlerI, .-chSysTimerHandlerI
 207              		.local	mainthread.1997
 208              		.comm	mainthread.1997,72,32
 209              		.comm	_idle_thread_wa,16752,32
 210              	.Letext0:
 211              		.file 2 "/usr/lib/gcc/x86_64-linux-gnu/4.8/include/stddef.h"
 212              		.file 3 "/usr/include/stdint.h"
 213              		.file 4 "../../../os/ports/GCC/SIMIA32/chtypes.h"
 214              		.file 5 "../../../os/kernel/include/chlists.h"
 215              		.file 6 "../../../os/kernel/include/chthreads.h"
 216              		.file 7 "../../../os/ports/GCC/SIMIA32/chcore.h"
 217              		.file 8 "../../../os/kernel/include/chvt.h"
 218              		.file 9 "../../../os/kernel/include/chschd.h"
 219              		.file 10 "../../../os/kernel/include/chmtx.h"
 220              		.file 11 "../../../os/kernel/include/chregistry.h"
 221              		.file 12 "../../../os/kernel/include/chmemcore.h"
 222              		.file 13 "../../../os/kernel/include/chheap.h"
 1915              		.section	.note.GNU-stack,"",@progbits
GAS LISTING /tmp/cc5QdqNh.s 			page 39

