GAS LISTING /tmp/ccjCrBZq.s 			page 1


   1              		.file	"chvt.c"
   2              	# GNU C (Ubuntu 4.8.2-19ubuntu1) version 4.8.2 (x86_64-linux-gnu)
   3              	#	compiled by GNU C version 4.8.2, GMP version 5.1.3, MPFR version 3.1.2-p3, MPC version 1.0.1
   4              	# GGC heuristics: --param ggc-min-expand=97 --param ggc-min-heapsize=126309
   5              	# options passed:  -I . -I ../../../os/ports/GCC/SIMIA32
   6              	# -I ../../../os/kernel/include -I ../../../test -I ../../../os/hal/include
   7              	# -I ../../../os/hal/platforms/Posix -I ../../../boards/simulator
   8              	# -I ../../../os/various -imultilib 32 -imultiarch i386-linux-gnu
   9              	# -MD ../../../os/kernel/src/chvt.d -MF .dep/chvt.o.d -MP
  10              	# -MQ ../../../os/kernel/src/chvt.o -D SIMULATOR -D SHELL_USE_IPRINTF=FALSE
  11              	# ../../../os/kernel/src/chvt.c -m32 -mtune=generic -march=i686
  12              	# -auxbase-strip ../../../os/kernel/src/chvt.o -ggdb -O2 -Wall -Wextra
  13              	# -Wstrict-prototypes -fomit-frame-pointer -fverbose-asm -fstack-protector
  14              	# -Wformat -Wformat-security
  15              	# options enabled:  -faggressive-loop-optimizations
  16              	# -fasynchronous-unwind-tables -fauto-inc-dec -fbranch-count-reg
  17              	# -fcaller-saves -fcombine-stack-adjustments -fcommon -fcompare-elim
  18              	# -fcprop-registers -fcrossjumping -fcse-follow-jumps -fdefer-pop
  19              	# -fdelete-null-pointer-checks -fdevirtualize -fdwarf2-cfi-asm
  20              	# -fearly-inlining -feliminate-unused-debug-types -fexpensive-optimizations
  21              	# -fforward-propagate -ffunction-cse -fgcse -fgcse-lm -fgnu-runtime
  22              	# -fguess-branch-probability -fhoist-adjacent-loads -fident -fif-conversion
  23              	# -fif-conversion2 -findirect-inlining -finline -finline-atomics
  24              	# -finline-functions-called-once -finline-small-functions -fipa-cp
  25              	# -fipa-profile -fipa-pure-const -fipa-reference -fipa-sra
  26              	# -fira-hoist-pressure -fira-share-save-slots -fira-share-spill-slots
  27              	# -fivopts -fkeep-static-consts -fleading-underscore -fmath-errno
  28              	# -fmerge-constants -fmerge-debug-strings -fmove-loop-invariants
  29              	# -fomit-frame-pointer -foptimize-register-move -foptimize-sibling-calls
  30              	# -foptimize-strlen -fpartial-inlining -fpcc-struct-return -fpeephole
  31              	# -fpeephole2 -fprefetch-loop-arrays -free -fregmove -freorder-blocks
  32              	# -freorder-functions -frerun-cse-after-loop
  33              	# -fsched-critical-path-heuristic -fsched-dep-count-heuristic
  34              	# -fsched-group-heuristic -fsched-interblock -fsched-last-insn-heuristic
  35              	# -fsched-rank-heuristic -fsched-spec -fsched-spec-insn-heuristic
  36              	# -fsched-stalled-insns-dep -fschedule-insns2 -fshow-column -fshrink-wrap
  37              	# -fsigned-zeros -fsplit-ivs-in-unroller -fsplit-wide-types
  38              	# -fstack-protector -fstrict-aliasing -fstrict-overflow
  39              	# -fstrict-volatile-bitfields -fsync-libcalls -fthread-jumps
  40              	# -ftoplevel-reorder -ftrapping-math -ftree-bit-ccp -ftree-builtin-call-dce
  41              	# -ftree-ccp -ftree-ch -ftree-coalesce-vars -ftree-copy-prop
  42              	# -ftree-copyrename -ftree-cselim -ftree-dce -ftree-dominator-opts
  43              	# -ftree-dse -ftree-forwprop -ftree-fre -ftree-loop-if-convert
  44              	# -ftree-loop-im -ftree-loop-ivcanon -ftree-loop-optimize
  45              	# -ftree-parallelize-loops= -ftree-phiprop -ftree-pre -ftree-pta
  46              	# -ftree-reassoc -ftree-scev-cprop -ftree-sink -ftree-slp-vectorize
  47              	# -ftree-slsr -ftree-sra -ftree-switch-conversion -ftree-tail-merge
  48              	# -ftree-ter -ftree-vect-loop-version -ftree-vrp -funit-at-a-time
  49              	# -funwind-tables -fvar-tracking -fvar-tracking-assignments -fverbose-asm
  50              	# -fzero-initialized-in-bss -m32 -m80387 -m96bit-long-double
  51              	# -maccumulate-outgoing-args -malign-stringops -mfancy-math-387
  52              	# -mfp-ret-in-387 -mglibc -mieee-fp -mlong-double-80 -mno-red-zone
  53              	# -mno-sse4 -mpush-args -msahf -mtls-direct-seg-refs
  54              	
  55              		.text
  56              	.Ltext0:
  57              		.p2align 4,,15
GAS LISTING /tmp/ccjCrBZq.s 			page 2


  58              		.globl	_vt_init
  59              		.type	_vt_init, @function
  60              	_vt_init:
  61              	.LFB7:
  62              		.file 1 "../../../os/kernel/src/chvt.c"
  63              		.loc 1 50 0
  64              		.cfi_startproc
  65              		.loc 1 52 0
  66 0000 C7050400 		movl	$vtlist, vtlist+4	#, vtlist.vt_prev
  66      00000000 
  66      0000
  67 000a C7050000 		movl	$vtlist, vtlist	#, vtlist.vt_next
  67      00000000 
  67      0000
  68              		.loc 1 53 0
  69 0014 C7050800 		movl	$-1, vtlist+8	#, vtlist.vt_time
  69      0000FFFF 
  69      FFFF
  70              		.loc 1 54 0
  71 001e C7050C00 		movl	$0, vtlist+12	#, vtlist.vt_systime
  71      00000000 
  71      0000
  72 0028 C3       		ret
  73              		.cfi_endproc
  74              	.LFE7:
  75              		.size	_vt_init, .-_vt_init
  76 0029 8DB42600 		.p2align 4,,15
  76      000000
  77              		.globl	chVTSetI
  78              		.type	chVTSetI, @function
  79              	chVTSetI:
  80              	.LFB8:
  81              		.loc 1 76 0
  82              		.cfi_startproc
  83              	.LVL0:
  84 0030 53       		pushl	%ebx	#
  85              		.cfi_def_cfa_offset 8
  86              		.cfi_offset 3, -8
  87              		.loc 1 76 0
  88 0031 8B5C2408 		movl	8(%esp), %ebx	# vtp, vtp
  89              		.loc 1 83 0
  90 0035 8B442414 		movl	20(%esp), %eax	# par, par
  91              		.loc 1 76 0
  92 0039 8B54240C 		movl	12(%esp), %edx	# time, time
  93              		.loc 1 83 0
  94 003d 894310   		movl	%eax, 16(%ebx)	# par, vtp_4(D)->vt_par
  95              		.loc 1 84 0
  96 0040 8B442410 		movl	16(%esp), %eax	# vtfunc, vtfunc
  97 0044 89430C   		movl	%eax, 12(%ebx)	# vtfunc, vtp_4(D)->vt_func
  98              		.loc 1 85 0
  99 0047 A1000000 		movl	vtlist, %eax	# vtlist.vt_next, p
  99      00
 100              	.LVL1:
 101              		.loc 1 86 0
 102 004c 8B4808   		movl	8(%eax), %ecx	# p_11->vt_time, D.2042
 103 004f 39CA     		cmpl	%ecx, %edx	# D.2042, time
 104 0051 7610     		jbe	.L3	#,
GAS LISTING /tmp/ccjCrBZq.s 			page 3


 105              	.LVL2:
 106              		.p2align 4,,7
 107 0053 908D7426 		.p2align 3
 107      00
 108              	.L4:
 109              		.loc 1 88 0
 110 0058 8B00     		movl	(%eax), %eax	# p_30->vt_next, p
 111              	.LVL3:
 112              		.loc 1 87 0
 113 005a 29CA     		subl	%ecx, %edx	# D.2042, time
 114              	.LVL4:
 115              		.loc 1 86 0
 116 005c 8B4808   		movl	8(%eax), %ecx	# p_14->vt_time, D.2042
 117 005f 39D1     		cmpl	%edx, %ecx	# time, D.2042
 118 0061 72F5     		jb	.L4	#,
 119              	.L3:
 120              		.loc 1 91 0
 121 0063 8B4804   		movl	4(%eax), %ecx	# p_25->vt_prev, D.2043
 122              		.loc 1 94 0
 123 0066 3D000000 		cmpl	$vtlist, %eax	#, p
 123      00
 124              		.loc 1 91 0
 125 006b 8903     		movl	%eax, (%ebx)	# p, vtp_4(D)->vt_next
 126 006d 894B04   		movl	%ecx, 4(%ebx)	# D.2043, vtp_4(D)->vt_prev
 127              		.loc 1 92 0
 128 0070 895804   		movl	%ebx, 4(%eax)	# vtp, p_25->vt_prev
 129 0073 8919     		movl	%ebx, (%ecx)	# vtp, _16->vt_next
 130              		.loc 1 93 0
 131 0075 895308   		movl	%edx, 8(%ebx)	# time, vtp_4(D)->vt_time
 132              		.loc 1 94 0
 133 0078 7403     		je	.L2	#,
 134              	.LVL5:
 135              		.loc 1 95 0
 136 007a 295008   		subl	%edx, 8(%eax)	# time, p_25->vt_time
 137              	.L2:
 138              		.loc 1 96 0
 139 007d 5B       		popl	%ebx	#
 140              		.cfi_restore 3
 141              		.cfi_def_cfa_offset 4
 142              	.LVL6:
 143 007e C3       		ret
 144              		.cfi_endproc
 145              	.LFE8:
 146              		.size	chVTSetI, .-chVTSetI
 147 007f 90       		.p2align 4,,15
 148              		.globl	chVTResetI
 149              		.type	chVTResetI, @function
 150              	chVTResetI:
 151              	.LFB9:
 152              		.loc 1 106 0
 153              		.cfi_startproc
 154              	.LVL7:
 155              		.loc 1 106 0
 156 0080 8B442404 		movl	4(%esp), %eax	# vtp, vtp
 157              		.loc 1 114 0
 158 0084 8B10     		movl	(%eax), %edx	# vtp_3(D)->vt_next, D.2046
 159 0086 81FA0000 		cmpl	$vtlist, %edx	#, D.2046
GAS LISTING /tmp/ccjCrBZq.s 			page 4


 159      0000
 160 008c 7406     		je	.L12	#,
 161              		.loc 1 115 0
 162 008e 8B4808   		movl	8(%eax), %ecx	# vtp_3(D)->vt_time, vtp_3(D)->vt_time
 163 0091 014A08   		addl	%ecx, 8(%edx)	# vtp_3(D)->vt_time, _4->vt_time
 164              	.L12:
 165              		.loc 1 116 0
 166 0094 8B4804   		movl	4(%eax), %ecx	# vtp_3(D)->vt_prev, D.2046
 167 0097 8911     		movl	%edx, (%ecx)	# D.2046, _9->vt_next
 168              		.loc 1 117 0
 169 0099 8B10     		movl	(%eax), %edx	# vtp_3(D)->vt_next, vtp_3(D)->vt_next
 170 009b 894A04   		movl	%ecx, 4(%edx)	# D.2046, _11->vt_prev
 171              		.loc 1 118 0
 172 009e C7400C00 		movl	$0, 12(%eax)	#, vtp_3(D)->vt_func
 172      000000
 173 00a5 C3       		ret
 174              		.cfi_endproc
 175              	.LFE9:
 176              		.size	chVTResetI, .-chVTResetI
 177              		.comm	vtlist,16,4
 178              	.Letext0:
 179              		.file 2 "/usr/include/stdint.h"
 180              		.file 3 "../../../os/ports/GCC/SIMIA32/chtypes.h"
 181              		.file 4 "../../../os/kernel/include/chvt.h"
 182              		.section	.debug_info,"",@progbits
 183              	.Ldebug_info0:
 184 0000 F0010000 		.long	0x1f0
 185 0004 0400     		.value	0x4
 186 0006 00000000 		.long	.Ldebug_abbrev0
 187 000a 04       		.byte	0x4
 188 000b 01       		.uleb128 0x1
 189 000c E5000000 		.long	.LASF26
 190 0010 01       		.byte	0x1
 191 0011 88000000 		.long	.LASF27
 192 0015 53000000 		.long	.LASF28
 193 0019 00000000 		.long	.Ltext0
 194 001d A6000000 		.long	.Letext0-.Ltext0
 195 0021 00000000 		.long	.Ldebug_line0
 196 0025 02       		.uleb128 0x2
 197 0026 04       		.byte	0x4
 198 0027 05       		.byte	0x5
 199 0028 696E7400 		.string	"int"
 200 002c 03       		.uleb128 0x3
 201 002d 04       		.byte	0x4
 202 002e 07       		.byte	0x7
 203 002f 7B000000 		.long	.LASF0
 204 0033 03       		.uleb128 0x3
 205 0034 04       		.byte	0x4
 206 0035 05       		.byte	0x5
 207 0036 86010000 		.long	.LASF1
 208 003a 03       		.uleb128 0x3
 209 003b 01       		.byte	0x1
 210 003c 06       		.byte	0x6
 211 003d 8F010000 		.long	.LASF2
 212 0041 03       		.uleb128 0x3
 213 0042 02       		.byte	0x2
 214 0043 05       		.byte	0x5
GAS LISTING /tmp/ccjCrBZq.s 			page 5


 215 0044 6B010000 		.long	.LASF3
 216 0048 03       		.uleb128 0x3
 217 0049 08       		.byte	0x8
 218 004a 05       		.byte	0x5
 219 004b 42010000 		.long	.LASF4
 220 004f 03       		.uleb128 0x3
 221 0050 01       		.byte	0x1
 222 0051 08       		.byte	0x8
 223 0052 3C000000 		.long	.LASF5
 224 0056 03       		.uleb128 0x3
 225 0057 02       		.byte	0x2
 226 0058 07       		.byte	0x7
 227 0059 1C000000 		.long	.LASF6
 228 005d 04       		.uleb128 0x4
 229 005e 7D010000 		.long	.LASF9
 230 0062 02       		.byte	0x2
 231 0063 33       		.byte	0x33
 232 0064 2C000000 		.long	0x2c
 233 0068 03       		.uleb128 0x3
 234 0069 08       		.byte	0x8
 235 006a 07       		.byte	0x7
 236 006b A6000000 		.long	.LASF7
 237 006f 03       		.uleb128 0x3
 238 0070 01       		.byte	0x1
 239 0071 02       		.byte	0x2
 240 0072 B5010000 		.long	.LASF8
 241 0076 04       		.uleb128 0x4
 242 0077 09000000 		.long	.LASF10
 243 007b 03       		.byte	0x3
 244 007c 2D       		.byte	0x2d
 245 007d 5D000000 		.long	0x5d
 246 0081 03       		.uleb128 0x3
 247 0082 04       		.byte	0x4
 248 0083 07       		.byte	0x7
 249 0084 D1000000 		.long	.LASF11
 250 0088 05       		.uleb128 0x5
 251 0089 04       		.byte	0x4
 252 008a 04       		.uleb128 0x4
 253 008b 13000000 		.long	.LASF12
 254 008f 04       		.byte	0x4
 255 0090 58       		.byte	0x58
 256 0091 95000000 		.long	0x95
 257 0095 06       		.uleb128 0x6
 258 0096 04       		.byte	0x4
 259 0097 9B000000 		.long	0x9b
 260 009b 07       		.uleb128 0x7
 261 009c A6000000 		.long	0xa6
 262 00a0 08       		.uleb128 0x8
 263 00a1 88000000 		.long	0x88
 264 00a5 00       		.byte	0
 265 00a6 04       		.uleb128 0x4
 266 00a7 2F000000 		.long	.LASF13
 267 00ab 04       		.byte	0x4
 268 00ac 5D       		.byte	0x5d
 269 00ad B1000000 		.long	0xb1
 270 00b1 09       		.uleb128 0x9
 271 00b2 2F000000 		.long	.LASF13
GAS LISTING /tmp/ccjCrBZq.s 			page 6


 272 00b6 14       		.byte	0x14
 273 00b7 04       		.byte	0x4
 274 00b8 64       		.byte	0x64
 275 00b9 FA000000 		.long	0xfa
 276 00bd 0A       		.uleb128 0xa
 277 00be A2010000 		.long	.LASF14
 278 00c2 04       		.byte	0x4
 279 00c3 65       		.byte	0x65
 280 00c4 FA000000 		.long	0xfa
 281 00c8 00       		.byte	0
 282 00c9 0A       		.uleb128 0xa
 283 00ca 75010000 		.long	.LASF15
 284 00ce 04       		.byte	0x4
 285 00cf 67       		.byte	0x67
 286 00d0 FA000000 		.long	0xfa
 287 00d4 04       		.byte	0x4
 288 00d5 0A       		.uleb128 0xa
 289 00d6 C9000000 		.long	.LASF16
 290 00da 04       		.byte	0x4
 291 00db 69       		.byte	0x69
 292 00dc 76000000 		.long	0x76
 293 00e0 08       		.byte	0x8
 294 00e1 0A       		.uleb128 0xa
 295 00e2 50010000 		.long	.LASF17
 296 00e6 04       		.byte	0x4
 297 00e7 6A       		.byte	0x6a
 298 00e8 8A000000 		.long	0x8a
 299 00ec 0C       		.byte	0xc
 300 00ed 0A       		.uleb128 0xa
 301 00ee 64010000 		.long	.LASF18
 302 00f2 04       		.byte	0x4
 303 00f3 6C       		.byte	0x6c
 304 00f4 88000000 		.long	0x88
 305 00f8 10       		.byte	0x10
 306 00f9 00       		.byte	0
 307 00fa 06       		.uleb128 0x6
 308 00fb 04       		.byte	0x4
 309 00fc A6000000 		.long	0xa6
 310 0100 0B       		.uleb128 0xb
 311 0101 10       		.byte	0x10
 312 0102 04       		.byte	0x4
 313 0103 76       		.byte	0x76
 314 0104 39010000 		.long	0x139
 315 0108 0A       		.uleb128 0xa
 316 0109 A2010000 		.long	.LASF14
 317 010d 04       		.byte	0x4
 318 010e 77       		.byte	0x77
 319 010f FA000000 		.long	0xfa
 320 0113 00       		.byte	0
 321 0114 0A       		.uleb128 0xa
 322 0115 75010000 		.long	.LASF15
 323 0119 04       		.byte	0x4
 324 011a 79       		.byte	0x79
 325 011b FA000000 		.long	0xfa
 326 011f 04       		.byte	0x4
 327 0120 0A       		.uleb128 0xa
 328 0121 C9000000 		.long	.LASF16
GAS LISTING /tmp/ccjCrBZq.s 			page 7


 329 0125 04       		.byte	0x4
 330 0126 7B       		.byte	0x7b
 331 0127 76000000 		.long	0x76
 332 012b 08       		.byte	0x8
 333 012c 0A       		.uleb128 0xa
 334 012d DA000000 		.long	.LASF19
 335 0131 04       		.byte	0x4
 336 0132 7C       		.byte	0x7c
 337 0133 39010000 		.long	0x139
 338 0137 0C       		.byte	0xc
 339 0138 00       		.byte	0
 340 0139 0C       		.uleb128 0xc
 341 013a 76000000 		.long	0x76
 342 013e 04       		.uleb128 0x4
 343 013f 9B010000 		.long	.LASF20
 344 0143 04       		.byte	0x4
 345 0144 7D       		.byte	0x7d
 346 0145 00010000 		.long	0x100
 347 0149 03       		.uleb128 0x3
 348 014a 01       		.byte	0x1
 349 014b 06       		.byte	0x6
 350 014c 5F010000 		.long	.LASF21
 351 0150 0D       		.uleb128 0xd
 352 0151 4A000000 		.long	.LASF29
 353 0155 01       		.byte	0x1
 354 0156 32       		.byte	0x32
 355 0157 00000000 		.long	.LFB7
 356 015b 29000000 		.long	.LFE7-.LFB7
 357 015f 01       		.uleb128 0x1
 358 0160 9C       		.byte	0x9c
 359 0161 0E       		.uleb128 0xe
 360 0162 00000000 		.long	.LASF24
 361 0166 01       		.byte	0x1
 362 0167 4C       		.byte	0x4c
 363 0168 30000000 		.long	.LFB8
 364 016c 4F000000 		.long	.LFE8-.LFB8
 365 0170 01       		.uleb128 0x1
 366 0171 9C       		.byte	0x9c
 367 0172 BE010000 		.long	0x1be
 368 0176 0F       		.uleb128 0xf
 369 0177 76747000 		.string	"vtp"
 370 017b 01       		.byte	0x1
 371 017c 4C       		.byte	0x4c
 372 017d FA000000 		.long	0xfa
 373 0181 00000000 		.long	.LLST0
 374 0185 10       		.uleb128 0x10
 375 0186 C4000000 		.long	.LASF22
 376 018a 01       		.byte	0x1
 377 018b 4C       		.byte	0x4c
 378 018c 76000000 		.long	0x76
 379 0190 2B000000 		.long	.LLST1
 380 0194 11       		.uleb128 0x11
 381 0195 58010000 		.long	.LASF23
 382 0199 01       		.byte	0x1
 383 019a 4C       		.byte	0x4c
 384 019b 8A000000 		.long	0x8a
 385 019f 02       		.uleb128 0x2
GAS LISTING /tmp/ccjCrBZq.s 			page 8


 386 01a0 91       		.byte	0x91
 387 01a1 08       		.sleb128 8
 388 01a2 12       		.uleb128 0x12
 389 01a3 70617200 		.string	"par"
 390 01a7 01       		.byte	0x1
 391 01a8 4C       		.byte	0x4c
 392 01a9 88000000 		.long	0x88
 393 01ad 02       		.uleb128 0x2
 394 01ae 91       		.byte	0x91
 395 01af 0C       		.sleb128 12
 396 01b0 13       		.uleb128 0x13
 397 01b1 7000     		.string	"p"
 398 01b3 01       		.byte	0x1
 399 01b4 4D       		.byte	0x4d
 400 01b5 FA000000 		.long	0xfa
 401 01b9 4A000000 		.long	.LLST2
 402 01bd 00       		.byte	0
 403 01be 0E       		.uleb128 0xe
 404 01bf AA010000 		.long	.LASF25
 405 01c3 01       		.byte	0x1
 406 01c4 6A       		.byte	0x6a
 407 01c5 80000000 		.long	.LFB9
 408 01c9 26000000 		.long	.LFE9-.LFB9
 409 01cd 01       		.uleb128 0x1
 410 01ce 9C       		.byte	0x9c
 411 01cf E2010000 		.long	0x1e2
 412 01d3 12       		.uleb128 0x12
 413 01d4 76747000 		.string	"vtp"
 414 01d8 01       		.byte	0x1
 415 01d9 6A       		.byte	0x6a
 416 01da FA000000 		.long	0xfa
 417 01de 02       		.uleb128 0x2
 418 01df 91       		.byte	0x91
 419 01e0 00       		.sleb128 0
 420 01e1 00       		.byte	0
 421 01e2 14       		.uleb128 0x14
 422 01e3 BD000000 		.long	.LASF30
 423 01e7 01       		.byte	0x1
 424 01e8 2A       		.byte	0x2a
 425 01e9 3E010000 		.long	0x13e
 426 01ed 05       		.uleb128 0x5
 427 01ee 03       		.byte	0x3
 428 01ef 00000000 		.long	vtlist
 429 01f3 00       		.byte	0
 430              		.section	.debug_abbrev,"",@progbits
 431              	.Ldebug_abbrev0:
 432 0000 01       		.uleb128 0x1
 433 0001 11       		.uleb128 0x11
 434 0002 01       		.byte	0x1
 435 0003 25       		.uleb128 0x25
 436 0004 0E       		.uleb128 0xe
 437 0005 13       		.uleb128 0x13
 438 0006 0B       		.uleb128 0xb
 439 0007 03       		.uleb128 0x3
 440 0008 0E       		.uleb128 0xe
 441 0009 1B       		.uleb128 0x1b
 442 000a 0E       		.uleb128 0xe
GAS LISTING /tmp/ccjCrBZq.s 			page 9


 443 000b 11       		.uleb128 0x11
 444 000c 01       		.uleb128 0x1
 445 000d 12       		.uleb128 0x12
 446 000e 06       		.uleb128 0x6
 447 000f 10       		.uleb128 0x10
 448 0010 17       		.uleb128 0x17
 449 0011 00       		.byte	0
 450 0012 00       		.byte	0
 451 0013 02       		.uleb128 0x2
 452 0014 24       		.uleb128 0x24
 453 0015 00       		.byte	0
 454 0016 0B       		.uleb128 0xb
 455 0017 0B       		.uleb128 0xb
 456 0018 3E       		.uleb128 0x3e
 457 0019 0B       		.uleb128 0xb
 458 001a 03       		.uleb128 0x3
 459 001b 08       		.uleb128 0x8
 460 001c 00       		.byte	0
 461 001d 00       		.byte	0
 462 001e 03       		.uleb128 0x3
 463 001f 24       		.uleb128 0x24
 464 0020 00       		.byte	0
 465 0021 0B       		.uleb128 0xb
 466 0022 0B       		.uleb128 0xb
 467 0023 3E       		.uleb128 0x3e
 468 0024 0B       		.uleb128 0xb
 469 0025 03       		.uleb128 0x3
 470 0026 0E       		.uleb128 0xe
 471 0027 00       		.byte	0
 472 0028 00       		.byte	0
 473 0029 04       		.uleb128 0x4
 474 002a 16       		.uleb128 0x16
 475 002b 00       		.byte	0
 476 002c 03       		.uleb128 0x3
 477 002d 0E       		.uleb128 0xe
 478 002e 3A       		.uleb128 0x3a
 479 002f 0B       		.uleb128 0xb
 480 0030 3B       		.uleb128 0x3b
 481 0031 0B       		.uleb128 0xb
 482 0032 49       		.uleb128 0x49
 483 0033 13       		.uleb128 0x13
 484 0034 00       		.byte	0
 485 0035 00       		.byte	0
 486 0036 05       		.uleb128 0x5
 487 0037 0F       		.uleb128 0xf
 488 0038 00       		.byte	0
 489 0039 0B       		.uleb128 0xb
 490 003a 0B       		.uleb128 0xb
 491 003b 00       		.byte	0
 492 003c 00       		.byte	0
 493 003d 06       		.uleb128 0x6
 494 003e 0F       		.uleb128 0xf
 495 003f 00       		.byte	0
 496 0040 0B       		.uleb128 0xb
 497 0041 0B       		.uleb128 0xb
 498 0042 49       		.uleb128 0x49
 499 0043 13       		.uleb128 0x13
GAS LISTING /tmp/ccjCrBZq.s 			page 10


 500 0044 00       		.byte	0
 501 0045 00       		.byte	0
 502 0046 07       		.uleb128 0x7
 503 0047 15       		.uleb128 0x15
 504 0048 01       		.byte	0x1
 505 0049 27       		.uleb128 0x27
 506 004a 19       		.uleb128 0x19
 507 004b 01       		.uleb128 0x1
 508 004c 13       		.uleb128 0x13
 509 004d 00       		.byte	0
 510 004e 00       		.byte	0
 511 004f 08       		.uleb128 0x8
 512 0050 05       		.uleb128 0x5
 513 0051 00       		.byte	0
 514 0052 49       		.uleb128 0x49
 515 0053 13       		.uleb128 0x13
 516 0054 00       		.byte	0
 517 0055 00       		.byte	0
 518 0056 09       		.uleb128 0x9
 519 0057 13       		.uleb128 0x13
 520 0058 01       		.byte	0x1
 521 0059 03       		.uleb128 0x3
 522 005a 0E       		.uleb128 0xe
 523 005b 0B       		.uleb128 0xb
 524 005c 0B       		.uleb128 0xb
 525 005d 3A       		.uleb128 0x3a
 526 005e 0B       		.uleb128 0xb
 527 005f 3B       		.uleb128 0x3b
 528 0060 0B       		.uleb128 0xb
 529 0061 01       		.uleb128 0x1
 530 0062 13       		.uleb128 0x13
 531 0063 00       		.byte	0
 532 0064 00       		.byte	0
 533 0065 0A       		.uleb128 0xa
 534 0066 0D       		.uleb128 0xd
 535 0067 00       		.byte	0
 536 0068 03       		.uleb128 0x3
 537 0069 0E       		.uleb128 0xe
 538 006a 3A       		.uleb128 0x3a
 539 006b 0B       		.uleb128 0xb
 540 006c 3B       		.uleb128 0x3b
 541 006d 0B       		.uleb128 0xb
 542 006e 49       		.uleb128 0x49
 543 006f 13       		.uleb128 0x13
 544 0070 38       		.uleb128 0x38
 545 0071 0B       		.uleb128 0xb
 546 0072 00       		.byte	0
 547 0073 00       		.byte	0
 548 0074 0B       		.uleb128 0xb
 549 0075 13       		.uleb128 0x13
 550 0076 01       		.byte	0x1
 551 0077 0B       		.uleb128 0xb
 552 0078 0B       		.uleb128 0xb
 553 0079 3A       		.uleb128 0x3a
 554 007a 0B       		.uleb128 0xb
 555 007b 3B       		.uleb128 0x3b
 556 007c 0B       		.uleb128 0xb
GAS LISTING /tmp/ccjCrBZq.s 			page 11


 557 007d 01       		.uleb128 0x1
 558 007e 13       		.uleb128 0x13
 559 007f 00       		.byte	0
 560 0080 00       		.byte	0
 561 0081 0C       		.uleb128 0xc
 562 0082 35       		.uleb128 0x35
 563 0083 00       		.byte	0
 564 0084 49       		.uleb128 0x49
 565 0085 13       		.uleb128 0x13
 566 0086 00       		.byte	0
 567 0087 00       		.byte	0
 568 0088 0D       		.uleb128 0xd
 569 0089 2E       		.uleb128 0x2e
 570 008a 00       		.byte	0
 571 008b 3F       		.uleb128 0x3f
 572 008c 19       		.uleb128 0x19
 573 008d 03       		.uleb128 0x3
 574 008e 0E       		.uleb128 0xe
 575 008f 3A       		.uleb128 0x3a
 576 0090 0B       		.uleb128 0xb
 577 0091 3B       		.uleb128 0x3b
 578 0092 0B       		.uleb128 0xb
 579 0093 27       		.uleb128 0x27
 580 0094 19       		.uleb128 0x19
 581 0095 11       		.uleb128 0x11
 582 0096 01       		.uleb128 0x1
 583 0097 12       		.uleb128 0x12
 584 0098 06       		.uleb128 0x6
 585 0099 40       		.uleb128 0x40
 586 009a 18       		.uleb128 0x18
 587 009b 9742     		.uleb128 0x2117
 588 009d 19       		.uleb128 0x19
 589 009e 00       		.byte	0
 590 009f 00       		.byte	0
 591 00a0 0E       		.uleb128 0xe
 592 00a1 2E       		.uleb128 0x2e
 593 00a2 01       		.byte	0x1
 594 00a3 3F       		.uleb128 0x3f
 595 00a4 19       		.uleb128 0x19
 596 00a5 03       		.uleb128 0x3
 597 00a6 0E       		.uleb128 0xe
 598 00a7 3A       		.uleb128 0x3a
 599 00a8 0B       		.uleb128 0xb
 600 00a9 3B       		.uleb128 0x3b
 601 00aa 0B       		.uleb128 0xb
 602 00ab 27       		.uleb128 0x27
 603 00ac 19       		.uleb128 0x19
 604 00ad 11       		.uleb128 0x11
 605 00ae 01       		.uleb128 0x1
 606 00af 12       		.uleb128 0x12
 607 00b0 06       		.uleb128 0x6
 608 00b1 40       		.uleb128 0x40
 609 00b2 18       		.uleb128 0x18
 610 00b3 9742     		.uleb128 0x2117
 611 00b5 19       		.uleb128 0x19
 612 00b6 01       		.uleb128 0x1
 613 00b7 13       		.uleb128 0x13
GAS LISTING /tmp/ccjCrBZq.s 			page 12


 614 00b8 00       		.byte	0
 615 00b9 00       		.byte	0
 616 00ba 0F       		.uleb128 0xf
 617 00bb 05       		.uleb128 0x5
 618 00bc 00       		.byte	0
 619 00bd 03       		.uleb128 0x3
 620 00be 08       		.uleb128 0x8
 621 00bf 3A       		.uleb128 0x3a
 622 00c0 0B       		.uleb128 0xb
 623 00c1 3B       		.uleb128 0x3b
 624 00c2 0B       		.uleb128 0xb
 625 00c3 49       		.uleb128 0x49
 626 00c4 13       		.uleb128 0x13
 627 00c5 02       		.uleb128 0x2
 628 00c6 17       		.uleb128 0x17
 629 00c7 00       		.byte	0
 630 00c8 00       		.byte	0
 631 00c9 10       		.uleb128 0x10
 632 00ca 05       		.uleb128 0x5
 633 00cb 00       		.byte	0
 634 00cc 03       		.uleb128 0x3
 635 00cd 0E       		.uleb128 0xe
 636 00ce 3A       		.uleb128 0x3a
 637 00cf 0B       		.uleb128 0xb
 638 00d0 3B       		.uleb128 0x3b
 639 00d1 0B       		.uleb128 0xb
 640 00d2 49       		.uleb128 0x49
 641 00d3 13       		.uleb128 0x13
 642 00d4 02       		.uleb128 0x2
 643 00d5 17       		.uleb128 0x17
 644 00d6 00       		.byte	0
 645 00d7 00       		.byte	0
 646 00d8 11       		.uleb128 0x11
 647 00d9 05       		.uleb128 0x5
 648 00da 00       		.byte	0
 649 00db 03       		.uleb128 0x3
 650 00dc 0E       		.uleb128 0xe
 651 00dd 3A       		.uleb128 0x3a
 652 00de 0B       		.uleb128 0xb
 653 00df 3B       		.uleb128 0x3b
 654 00e0 0B       		.uleb128 0xb
 655 00e1 49       		.uleb128 0x49
 656 00e2 13       		.uleb128 0x13
 657 00e3 02       		.uleb128 0x2
 658 00e4 18       		.uleb128 0x18
 659 00e5 00       		.byte	0
 660 00e6 00       		.byte	0
 661 00e7 12       		.uleb128 0x12
 662 00e8 05       		.uleb128 0x5
 663 00e9 00       		.byte	0
 664 00ea 03       		.uleb128 0x3
 665 00eb 08       		.uleb128 0x8
 666 00ec 3A       		.uleb128 0x3a
 667 00ed 0B       		.uleb128 0xb
 668 00ee 3B       		.uleb128 0x3b
 669 00ef 0B       		.uleb128 0xb
 670 00f0 49       		.uleb128 0x49
GAS LISTING /tmp/ccjCrBZq.s 			page 13


 671 00f1 13       		.uleb128 0x13
 672 00f2 02       		.uleb128 0x2
 673 00f3 18       		.uleb128 0x18
 674 00f4 00       		.byte	0
 675 00f5 00       		.byte	0
 676 00f6 13       		.uleb128 0x13
 677 00f7 34       		.uleb128 0x34
 678 00f8 00       		.byte	0
 679 00f9 03       		.uleb128 0x3
 680 00fa 08       		.uleb128 0x8
 681 00fb 3A       		.uleb128 0x3a
 682 00fc 0B       		.uleb128 0xb
 683 00fd 3B       		.uleb128 0x3b
 684 00fe 0B       		.uleb128 0xb
 685 00ff 49       		.uleb128 0x49
 686 0100 13       		.uleb128 0x13
 687 0101 02       		.uleb128 0x2
 688 0102 17       		.uleb128 0x17
 689 0103 00       		.byte	0
 690 0104 00       		.byte	0
 691 0105 14       		.uleb128 0x14
 692 0106 34       		.uleb128 0x34
 693 0107 00       		.byte	0
 694 0108 03       		.uleb128 0x3
 695 0109 0E       		.uleb128 0xe
 696 010a 3A       		.uleb128 0x3a
 697 010b 0B       		.uleb128 0xb
 698 010c 3B       		.uleb128 0x3b
 699 010d 0B       		.uleb128 0xb
 700 010e 49       		.uleb128 0x49
 701 010f 13       		.uleb128 0x13
 702 0110 3F       		.uleb128 0x3f
 703 0111 19       		.uleb128 0x19
 704 0112 02       		.uleb128 0x2
 705 0113 18       		.uleb128 0x18
 706 0114 00       		.byte	0
 707 0115 00       		.byte	0
 708 0116 00       		.byte	0
 709              		.section	.debug_loc,"",@progbits
 710              	.Ldebug_loc0:
 711              	.LLST0:
 712 0000 30000000 		.long	.LVL0-.Ltext0
 713 0004 7A000000 		.long	.LVL5-.Ltext0
 714 0008 0200     		.value	0x2
 715 000a 91       		.byte	0x91
 716 000b 00       		.sleb128 0
 717 000c 7A000000 		.long	.LVL5-.Ltext0
 718 0010 7E000000 		.long	.LVL6-.Ltext0
 719 0014 0100     		.value	0x1
 720 0016 53       		.byte	0x53
 721 0017 7E000000 		.long	.LVL6-.Ltext0
 722 001b 7F000000 		.long	.LFE8-.Ltext0
 723 001f 0200     		.value	0x2
 724 0021 91       		.byte	0x91
 725 0022 00       		.sleb128 0
 726 0023 00000000 		.long	0
 727 0027 00000000 		.long	0
GAS LISTING /tmp/ccjCrBZq.s 			page 14


 728              	.LLST1:
 729 002b 30000000 		.long	.LVL0-.Ltext0
 730 002f 53000000 		.long	.LVL2-.Ltext0
 731 0033 0200     		.value	0x2
 732 0035 91       		.byte	0x91
 733 0036 04       		.sleb128 4
 734 0037 53000000 		.long	.LVL2-.Ltext0
 735 003b 7F000000 		.long	.LFE8-.Ltext0
 736 003f 0100     		.value	0x1
 737 0041 52       		.byte	0x52
 738 0042 00000000 		.long	0
 739 0046 00000000 		.long	0
 740              	.LLST2:
 741 004a 4C000000 		.long	.LVL1-.Ltext0
 742 004e 5A000000 		.long	.LVL3-.Ltext0
 743 0052 0100     		.value	0x1
 744 0054 50       		.byte	0x50
 745 0055 5C000000 		.long	.LVL4-.Ltext0
 746 0059 7F000000 		.long	.LFE8-.Ltext0
 747 005d 0100     		.value	0x1
 748 005f 50       		.byte	0x50
 749 0060 00000000 		.long	0
 750 0064 00000000 		.long	0
 751              		.section	.debug_aranges,"",@progbits
 752 0000 1C000000 		.long	0x1c
 753 0004 0200     		.value	0x2
 754 0006 00000000 		.long	.Ldebug_info0
 755 000a 04       		.byte	0x4
 756 000b 00       		.byte	0
 757 000c 0000     		.value	0
 758 000e 0000     		.value	0
 759 0010 00000000 		.long	.Ltext0
 760 0014 A6000000 		.long	.Letext0-.Ltext0
 761 0018 00000000 		.long	0
 762 001c 00000000 		.long	0
 763              		.section	.debug_line,"",@progbits
 764              	.Ldebug_line0:
 765 0000 D7000000 		.section	.debug_str,"MS",@progbits,1
 765      02009D00 
 765      00000101 
 765      FB0E0D00 
 765      01010101 
 766              	.LASF24:
 767 0000 63685654 		.string	"chVTSetI"
 767      53657449 
 767      00
 768              	.LASF10:
 769 0009 73797374 		.string	"systime_t"
 769      696D655F 
 769      7400
 770              	.LASF12:
 771 0013 76746675 		.string	"vtfunc_t"
 771      6E635F74 
 771      00
 772              	.LASF6:
 773 001c 73686F72 		.string	"short unsigned int"
 773      7420756E 
GAS LISTING /tmp/ccjCrBZq.s 			page 15


 773      7369676E 
 773      65642069 
 773      6E7400
 774              	.LASF13:
 775 002f 56697274 		.string	"VirtualTimer"
 775      75616C54 
 775      696D6572 
 775      00
 776              	.LASF5:
 777 003c 756E7369 		.string	"unsigned char"
 777      676E6564 
 777      20636861 
 777      7200
 778              	.LASF29:
 779 004a 5F76745F 		.string	"_vt_init"
 779      696E6974 
 779      00
 780              	.LASF28:
 781 0053 2F686F6D 		.string	"/home/tony/ChibiOS-RT/testhal/Posix/EXT"
 781      652F746F 
 781      6E792F43 
 781      68696269 
 781      4F532D52 
 782              	.LASF0:
 783 007b 756E7369 		.string	"unsigned int"
 783      676E6564 
 783      20696E74 
 783      00
 784              	.LASF27:
 785 0088 2E2E2F2E 		.string	"../../../os/kernel/src/chvt.c"
 785      2E2F2E2E 
 785      2F6F732F 
 785      6B65726E 
 785      656C2F73 
 786              	.LASF7:
 787 00a6 6C6F6E67 		.string	"long long unsigned int"
 787      206C6F6E 
 787      6720756E 
 787      7369676E 
 787      65642069 
 788              	.LASF30:
 789 00bd 76746C69 		.string	"vtlist"
 789      737400
 790              	.LASF22:
 791 00c4 74696D65 		.string	"time"
 791      00
 792              	.LASF16:
 793 00c9 76745F74 		.string	"vt_time"
 793      696D6500 
 794              	.LASF11:
 795 00d1 73697A65 		.string	"sizetype"
 795      74797065 
 795      00
 796              	.LASF19:
 797 00da 76745F73 		.string	"vt_systime"
 797      79737469 
 797      6D6500
GAS LISTING /tmp/ccjCrBZq.s 			page 16


 798              	.LASF26:
 799 00e5 474E5520 		.string	"GNU C 4.8.2 -m32 -mtune=generic -march=i686 -ggdb -O2 -fomit-frame-pointer -fstack-protec
 799      4320342E 
 799      382E3220 
 799      2D6D3332 
 799      202D6D74 
 800              	.LASF4:
 801 0142 6C6F6E67 		.string	"long long int"
 801      206C6F6E 
 801      6720696E 
 801      7400
 802              	.LASF17:
 803 0150 76745F66 		.string	"vt_func"
 803      756E6300 
 804              	.LASF23:
 805 0158 76746675 		.string	"vtfunc"
 805      6E6300
 806              	.LASF21:
 807 015f 63686172 		.string	"char"
 807      00
 808              	.LASF18:
 809 0164 76745F70 		.string	"vt_par"
 809      617200
 810              	.LASF3:
 811 016b 73686F72 		.string	"short int"
 811      7420696E 
 811      7400
 812              	.LASF15:
 813 0175 76745F70 		.string	"vt_prev"
 813      72657600 
 814              	.LASF9:
 815 017d 75696E74 		.string	"uint32_t"
 815      33325F74 
 815      00
 816              	.LASF1:
 817 0186 6C6F6E67 		.string	"long int"
 817      20696E74 
 817      00
 818              	.LASF2:
 819 018f 7369676E 		.string	"signed char"
 819      65642063 
 819      68617200 
 820              	.LASF20:
 821 019b 56544C69 		.string	"VTList"
 821      737400
 822              	.LASF14:
 823 01a2 76745F6E 		.string	"vt_next"
 823      65787400 
 824              	.LASF25:
 825 01aa 63685654 		.string	"chVTResetI"
 825      52657365 
 825      744900
 826              	.LASF8:
 827 01b5 5F426F6F 		.string	"_Bool"
 827      6C00
 828              		.ident	"GCC: (Ubuntu 4.8.2-19ubuntu1) 4.8.2"
 829              		.section	.note.GNU-stack,"",@progbits
GAS LISTING /tmp/ccjCrBZq.s 			page 17


GAS LISTING /tmp/ccjCrBZq.s 			page 18


DEFINED SYMBOLS
                            *ABS*:0000000000000000 chvt.c
     /tmp/ccjCrBZq.s:60     .text:0000000000000000 _vt_init
                            *COM*:0000000000000010 vtlist
     /tmp/ccjCrBZq.s:79     .text:0000000000000030 chVTSetI
     /tmp/ccjCrBZq.s:150    .text:0000000000000080 chVTResetI

NO UNDEFINED SYMBOLS
