GAS LISTING /tmp/ccZVqXSw.s 			page 1


   1              		.file	"hal.c"
   2              	# GNU C (Ubuntu 4.8.2-19ubuntu1) version 4.8.2 (x86_64-linux-gnu)
   3              	#	compiled by GNU C version 4.8.2, GMP version 5.1.3, MPFR version 3.1.2-p3, MPC version 1.0.1
   4              	# GGC heuristics: --param ggc-min-expand=97 --param ggc-min-heapsize=126309
   5              	# options passed:  -I . -I ../../../os/ports/GCC/SIMIA32
   6              	# -I ../../../os/kernel/include -I ../../../test -I ../../../os/hal/include
   7              	# -I ../../../os/hal/platforms/Posix -I ../../../boards/simulator
   8              	# -I ../../../os/various -imultilib 32 -imultiarch i386-linux-gnu
   9              	# -MD ../../../os/hal/src/hal.d -MF .dep/hal.o.d -MP
  10              	# -MQ ../../../os/hal/src/hal.o -D SIMULATOR -D SHELL_USE_IPRINTF=FALSE
  11              	# ../../../os/hal/src/hal.c -m32 -mtune=generic -march=i686
  12              	# -auxbase-strip ../../../os/hal/src/hal.o -ggdb -O2 -Wall -Wextra
  13              	# -Wstrict-prototypes -fomit-frame-pointer -fverbose-asm -fstack-protector
  14              	# -Wformat -Wformat-security
  15              	# options enabled:  -faggressive-loop-optimizations
  16              	# -fasynchronous-unwind-tables -fauto-inc-dec -fbranch-count-reg
  17              	# -fcaller-saves -fcombine-stack-adjustments -fcommon -fcompare-elim
  18              	# -fcprop-registers -fcrossjumping -fcse-follow-jumps -fdefer-pop
  19              	# -fdelete-null-pointer-checks -fdevirtualize -fdwarf2-cfi-asm
  20              	# -fearly-inlining -feliminate-unused-debug-types -fexpensive-optimizations
  21              	# -fforward-propagate -ffunction-cse -fgcse -fgcse-lm -fgnu-runtime
  22              	# -fguess-branch-probability -fhoist-adjacent-loads -fident -fif-conversion
  23              	# -fif-conversion2 -findirect-inlining -finline -finline-atomics
  24              	# -finline-functions-called-once -finline-small-functions -fipa-cp
  25              	# -fipa-profile -fipa-pure-const -fipa-reference -fipa-sra
  26              	# -fira-hoist-pressure -fira-share-save-slots -fira-share-spill-slots
  27              	# -fivopts -fkeep-static-consts -fleading-underscore -fmath-errno
  28              	# -fmerge-constants -fmerge-debug-strings -fmove-loop-invariants
  29              	# -fomit-frame-pointer -foptimize-register-move -foptimize-sibling-calls
  30              	# -foptimize-strlen -fpartial-inlining -fpcc-struct-return -fpeephole
  31              	# -fpeephole2 -fprefetch-loop-arrays -free -fregmove -freorder-blocks
  32              	# -freorder-functions -frerun-cse-after-loop
  33              	# -fsched-critical-path-heuristic -fsched-dep-count-heuristic
  34              	# -fsched-group-heuristic -fsched-interblock -fsched-last-insn-heuristic
  35              	# -fsched-rank-heuristic -fsched-spec -fsched-spec-insn-heuristic
  36              	# -fsched-stalled-insns-dep -fschedule-insns2 -fshow-column -fshrink-wrap
  37              	# -fsigned-zeros -fsplit-ivs-in-unroller -fsplit-wide-types
  38              	# -fstack-protector -fstrict-aliasing -fstrict-overflow
  39              	# -fstrict-volatile-bitfields -fsync-libcalls -fthread-jumps
  40              	# -ftoplevel-reorder -ftrapping-math -ftree-bit-ccp -ftree-builtin-call-dce
  41              	# -ftree-ccp -ftree-ch -ftree-coalesce-vars -ftree-copy-prop
  42              	# -ftree-copyrename -ftree-cselim -ftree-dce -ftree-dominator-opts
  43              	# -ftree-dse -ftree-forwprop -ftree-fre -ftree-loop-if-convert
  44              	# -ftree-loop-im -ftree-loop-ivcanon -ftree-loop-optimize
  45              	# -ftree-parallelize-loops= -ftree-phiprop -ftree-pre -ftree-pta
  46              	# -ftree-reassoc -ftree-scev-cprop -ftree-sink -ftree-slp-vectorize
  47              	# -ftree-slsr -ftree-sra -ftree-switch-conversion -ftree-tail-merge
  48              	# -ftree-ter -ftree-vect-loop-version -ftree-vrp -funit-at-a-time
  49              	# -funwind-tables -fvar-tracking -fvar-tracking-assignments -fverbose-asm
  50              	# -fzero-initialized-in-bss -m32 -m80387 -m96bit-long-double
  51              	# -maccumulate-outgoing-args -malign-stringops -mfancy-math-387
  52              	# -mfp-ret-in-387 -mglibc -mieee-fp -mlong-double-80 -mno-red-zone
  53              	# -mno-sse4 -mpush-args -msahf -mtls-direct-seg-refs
  54              	
  55              		.text
  56              	.Ltext0:
  57              		.p2align 4,,15
GAS LISTING /tmp/ccZVqXSw.s 			page 2


  58              		.globl	halInit
  59              		.type	halInit, @function
  60              	halInit:
  61              	.LFB15:
  62              		.file 1 "../../../os/hal/src/hal.c"
  63              		.loc 1 68 0
  64              		.cfi_startproc
  65 0000 83EC0C   		subl	$12, %esp	#,
  66              		.cfi_def_cfa_offset 16
  67              		.loc 1 70 0
  68 0003 E8FCFFFF 		call	hal_lld_init	#
  68      FF
  69              	.LVL0:
  70              		.loc 1 76 0
  71 0008 A1000000 		movl	pal_default_config, %eax	# pal_default_config.VP1Data, pal_default_config.VP1Data
  71      00
  72 000d A3000000 		movl	%eax, vio_port_1	# pal_default_config.VP1Data, vio_port_1
  72      00
  73 0012 A1040000 		movl	pal_default_config+4, %eax	# pal_default_config.VP1Data, pal_default_config.VP1Data
  73      00
  74 0017 A3040000 		movl	%eax, vio_port_1+4	# pal_default_config.VP1Data, vio_port_1
  74      00
  75 001c A1080000 		movl	pal_default_config+8, %eax	# pal_default_config.VP1Data, pal_default_config.VP1Data
  75      00
  76 0021 A3080000 		movl	%eax, vio_port_1+8	# pal_default_config.VP1Data, vio_port_1
  76      00
  77 0026 A10C0000 		movl	pal_default_config+12, %eax	# pal_default_config.VP2Data, pal_default_config.VP2Data
  77      00
  78 002b A3000000 		movl	%eax, vio_port_2	# pal_default_config.VP2Data, vio_port_2
  78      00
  79 0030 A1100000 		movl	pal_default_config+16, %eax	# pal_default_config.VP2Data, pal_default_config.VP2Data
  79      00
  80 0035 A3040000 		movl	%eax, vio_port_2+4	# pal_default_config.VP2Data, vio_port_2
  80      00
  81 003a A1140000 		movl	pal_default_config+20, %eax	# pal_default_config.VP2Data, pal_default_config.VP2Data
  81      00
  82 003f A3080000 		movl	%eax, vio_port_2+8	# pal_default_config.VP2Data, vio_port_2
  82      00
  83              		.loc 1 85 0
  84 0044 E8FCFFFF 		call	extInit	#
  84      FF
  85              	.LVL1:
  86              		.loc 1 103 0
  87 0049 E8FCFFFF 		call	sdInit	#
  87      FF
  88              	.LVL2:
  89              		.loc 1 128 0
  90 004e 83C40C   		addl	$12, %esp	#,
  91              		.cfi_def_cfa_offset 4
  92              		.loc 1 127 0
  93 0051 E9FCFFFF 		jmp	boardInit	#
  93      FF
  94              	.LVL3:
  95              		.cfi_endproc
  96              	.LFE15:
  97              		.size	halInit, .-halInit
  98              	.Letext0:
GAS LISTING /tmp/ccZVqXSw.s 			page 3


  99              		.file 2 "../../../os/hal/platforms/Posix/pal_lld.h"
 100              		.file 3 "/usr/include/stdint.h"
 101              		.file 4 "../../../os/hal/platforms/Posix/hal_lld.h"
 102              		.file 5 "../../../os/hal/include/ext.h"
 103              		.file 6 "../../../os/hal/include/serial.h"
 104              		.file 7 "../../../boards/simulator/board.h"
 105              		.section	.debug_info,"",@progbits
 106              	.Ldebug_info0:
 107 0000 69010000 		.long	0x169
 108 0004 0400     		.value	0x4
 109 0006 00000000 		.long	.Ldebug_abbrev0
 110 000a 04       		.byte	0x4
 111 000b 01       		.uleb128 0x1
 112 000c 21010000 		.long	.LASF25
 113 0010 01       		.byte	0x1
 114 0011 00000000 		.long	.LASF26
 115 0015 B7000000 		.long	.LASF27
 116 0019 00000000 		.long	.Ltext0
 117 001d 56000000 		.long	.Letext0-.Ltext0
 118 0021 00000000 		.long	.Ldebug_line0
 119 0025 02       		.uleb128 0x2
 120 0026 04       		.byte	0x4
 121 0027 05       		.byte	0x5
 122 0028 696E7400 		.string	"int"
 123 002c 03       		.uleb128 0x3
 124 002d 04       		.byte	0x4
 125 002e 07       		.byte	0x7
 126 002f DF000000 		.long	.LASF0
 127 0033 03       		.uleb128 0x3
 128 0034 04       		.byte	0x4
 129 0035 05       		.byte	0x5
 130 0036 AB010000 		.long	.LASF1
 131 003a 03       		.uleb128 0x3
 132 003b 01       		.byte	0x1
 133 003c 06       		.byte	0x6
 134 003d B4010000 		.long	.LASF2
 135 0041 03       		.uleb128 0x3
 136 0042 02       		.byte	0x2
 137 0043 05       		.byte	0x5
 138 0044 98010000 		.long	.LASF3
 139 0048 03       		.uleb128 0x3
 140 0049 08       		.byte	0x8
 141 004a 05       		.byte	0x5
 142 004b 7E010000 		.long	.LASF4
 143 004f 03       		.uleb128 0x3
 144 0050 01       		.byte	0x1
 145 0051 08       		.byte	0x8
 146 0052 40000000 		.long	.LASF5
 147 0056 03       		.uleb128 0x3
 148 0057 02       		.byte	0x2
 149 0058 07       		.byte	0x7
 150 0059 6D000000 		.long	.LASF6
 151 005d 04       		.uleb128 0x4
 152 005e A2010000 		.long	.LASF13
 153 0062 03       		.byte	0x3
 154 0063 33       		.byte	0x33
 155 0064 2C000000 		.long	0x2c
GAS LISTING /tmp/ccZVqXSw.s 			page 4


 156 0068 03       		.uleb128 0x3
 157 0069 08       		.byte	0x8
 158 006a 07       		.byte	0x7
 159 006b EC000000 		.long	.LASF7
 160 006f 03       		.uleb128 0x3
 161 0070 01       		.byte	0x1
 162 0071 02       		.byte	0x2
 163 0072 C0010000 		.long	.LASF8
 164 0076 03       		.uleb128 0x3
 165 0077 04       		.byte	0x4
 166 0078 07       		.byte	0x7
 167 0079 18010000 		.long	.LASF9
 168 007d 03       		.uleb128 0x3
 169 007e 01       		.byte	0x1
 170 007f 06       		.byte	0x6
 171 0080 8C010000 		.long	.LASF10
 172 0084 03       		.uleb128 0x3
 173 0085 04       		.byte	0x4
 174 0086 07       		.byte	0x7
 175 0087 4E000000 		.long	.LASF11
 176 008b 05       		.uleb128 0x5
 177 008c 0C       		.byte	0xc
 178 008d 02       		.byte	0x2
 179 008e 2E       		.byte	0x2e
 180 008f B8000000 		.long	0xb8
 181 0093 06       		.uleb128 0x6
 182 0094 1A000000 		.long	.LASF12
 183 0098 02       		.byte	0x2
 184 0099 33       		.byte	0x33
 185 009a 5D000000 		.long	0x5d
 186 009e 00       		.byte	0
 187 009f 07       		.uleb128 0x7
 188 00a0 70696E00 		.string	"pin"
 189 00a4 02       		.byte	0x2
 190 00a5 39       		.byte	0x39
 191 00a6 5D000000 		.long	0x5d
 192 00aa 04       		.byte	0x4
 193 00ab 07       		.uleb128 0x7
 194 00ac 64697200 		.string	"dir"
 195 00b0 02       		.byte	0x2
 196 00b1 3E       		.byte	0x3e
 197 00b2 5D000000 		.long	0x5d
 198 00b6 08       		.byte	0x8
 199 00b7 00       		.byte	0
 200 00b8 04       		.uleb128 0x4
 201 00b9 A8000000 		.long	.LASF14
 202 00bd 02       		.byte	0x2
 203 00be 3F       		.byte	0x3f
 204 00bf 8B000000 		.long	0x8b
 205 00c3 05       		.uleb128 0x5
 206 00c4 18       		.byte	0x18
 207 00c5 02       		.byte	0x2
 208 00c6 48       		.byte	0x48
 209 00c7 E4000000 		.long	0xe4
 210 00cb 06       		.uleb128 0x6
 211 00cc 20000000 		.long	.LASF15
 212 00d0 02       		.byte	0x2
GAS LISTING /tmp/ccZVqXSw.s 			page 5


 213 00d1 4C       		.byte	0x4c
 214 00d2 B8000000 		.long	0xb8
 215 00d6 00       		.byte	0
 216 00d7 06       		.uleb128 0x6
 217 00d8 30000000 		.long	.LASF16
 218 00dc 02       		.byte	0x2
 219 00dd 50       		.byte	0x50
 220 00de B8000000 		.long	0xb8
 221 00e2 0C       		.byte	0xc
 222 00e3 00       		.byte	0
 223 00e4 04       		.uleb128 0x4
 224 00e5 8B000000 		.long	.LASF17
 225 00e9 02       		.byte	0x2
 226 00ea 51       		.byte	0x51
 227 00eb C3000000 		.long	0xc3
 228 00ef 08       		.uleb128 0x8
 229 00f0 38000000 		.long	.LASF28
 230 00f4 01       		.byte	0x1
 231 00f5 44       		.byte	0x44
 232 00f6 00000000 		.long	.LFB15
 233 00fa 56000000 		.long	.LFE15-.LFB15
 234 00fe 01       		.uleb128 0x1
 235 00ff 9C       		.byte	0x9c
 236 0100 29010000 		.long	0x129
 237 0104 09       		.uleb128 0x9
 238 0105 08000000 		.long	.LVL0
 239 0109 4F010000 		.long	0x14f
 240 010d 09       		.uleb128 0x9
 241 010e 49000000 		.long	.LVL1
 242 0112 56010000 		.long	0x156
 243 0116 09       		.uleb128 0x9
 244 0117 4E000000 		.long	.LVL2
 245 011b 5D010000 		.long	0x15d
 246 011f 0A       		.uleb128 0xa
 247 0120 56000000 		.long	.LVL3
 248 0124 65010000 		.long	0x165
 249 0128 00       		.byte	0
 250 0129 0B       		.uleb128 0xb
 251 012a 80000000 		.long	.LASF18
 252 012e 02       		.byte	0x2
 253 012f BB       		.byte	0xbb
 254 0130 B8000000 		.long	0xb8
 255 0134 0B       		.uleb128 0xb
 256 0135 03010000 		.long	.LASF19
 257 0139 02       		.byte	0x2
 258 013a BC       		.byte	0xbc
 259 013b B8000000 		.long	0xb8
 260 013f 0B       		.uleb128 0xb
 261 0140 95000000 		.long	.LASF20
 262 0144 02       		.byte	0x2
 263 0145 BD       		.byte	0xbd
 264 0146 4A010000 		.long	0x14a
 265 014a 0C       		.uleb128 0xc
 266 014b E4000000 		.long	0xe4
 267 014f 0D       		.uleb128 0xd
 268 0150 60000000 		.long	.LASF21
 269 0154 04       		.byte	0x4
GAS LISTING /tmp/ccZVqXSw.s 			page 6


 270 0155 48       		.byte	0x48
 271 0156 0D       		.uleb128 0xd
 272 0157 28000000 		.long	.LASF22
 273 015b 05       		.byte	0x5
 274 015c 90       		.byte	0x90
 275 015d 0E       		.uleb128 0xe
 276 015e 91010000 		.long	.LASF23
 277 0162 06       		.byte	0x6
 278 0163 3501     		.value	0x135
 279 0165 0D       		.uleb128 0xd
 280 0166 0E010000 		.long	.LASF24
 281 016a 07       		.byte	0x7
 282 016b 18       		.byte	0x18
 283 016c 00       		.byte	0
 284              		.section	.debug_abbrev,"",@progbits
 285              	.Ldebug_abbrev0:
 286 0000 01       		.uleb128 0x1
 287 0001 11       		.uleb128 0x11
 288 0002 01       		.byte	0x1
 289 0003 25       		.uleb128 0x25
 290 0004 0E       		.uleb128 0xe
 291 0005 13       		.uleb128 0x13
 292 0006 0B       		.uleb128 0xb
 293 0007 03       		.uleb128 0x3
 294 0008 0E       		.uleb128 0xe
 295 0009 1B       		.uleb128 0x1b
 296 000a 0E       		.uleb128 0xe
 297 000b 11       		.uleb128 0x11
 298 000c 01       		.uleb128 0x1
 299 000d 12       		.uleb128 0x12
 300 000e 06       		.uleb128 0x6
 301 000f 10       		.uleb128 0x10
 302 0010 17       		.uleb128 0x17
 303 0011 00       		.byte	0
 304 0012 00       		.byte	0
 305 0013 02       		.uleb128 0x2
 306 0014 24       		.uleb128 0x24
 307 0015 00       		.byte	0
 308 0016 0B       		.uleb128 0xb
 309 0017 0B       		.uleb128 0xb
 310 0018 3E       		.uleb128 0x3e
 311 0019 0B       		.uleb128 0xb
 312 001a 03       		.uleb128 0x3
 313 001b 08       		.uleb128 0x8
 314 001c 00       		.byte	0
 315 001d 00       		.byte	0
 316 001e 03       		.uleb128 0x3
 317 001f 24       		.uleb128 0x24
 318 0020 00       		.byte	0
 319 0021 0B       		.uleb128 0xb
 320 0022 0B       		.uleb128 0xb
 321 0023 3E       		.uleb128 0x3e
 322 0024 0B       		.uleb128 0xb
 323 0025 03       		.uleb128 0x3
 324 0026 0E       		.uleb128 0xe
 325 0027 00       		.byte	0
 326 0028 00       		.byte	0
GAS LISTING /tmp/ccZVqXSw.s 			page 7


 327 0029 04       		.uleb128 0x4
 328 002a 16       		.uleb128 0x16
 329 002b 00       		.byte	0
 330 002c 03       		.uleb128 0x3
 331 002d 0E       		.uleb128 0xe
 332 002e 3A       		.uleb128 0x3a
 333 002f 0B       		.uleb128 0xb
 334 0030 3B       		.uleb128 0x3b
 335 0031 0B       		.uleb128 0xb
 336 0032 49       		.uleb128 0x49
 337 0033 13       		.uleb128 0x13
 338 0034 00       		.byte	0
 339 0035 00       		.byte	0
 340 0036 05       		.uleb128 0x5
 341 0037 13       		.uleb128 0x13
 342 0038 01       		.byte	0x1
 343 0039 0B       		.uleb128 0xb
 344 003a 0B       		.uleb128 0xb
 345 003b 3A       		.uleb128 0x3a
 346 003c 0B       		.uleb128 0xb
 347 003d 3B       		.uleb128 0x3b
 348 003e 0B       		.uleb128 0xb
 349 003f 01       		.uleb128 0x1
 350 0040 13       		.uleb128 0x13
 351 0041 00       		.byte	0
 352 0042 00       		.byte	0
 353 0043 06       		.uleb128 0x6
 354 0044 0D       		.uleb128 0xd
 355 0045 00       		.byte	0
 356 0046 03       		.uleb128 0x3
 357 0047 0E       		.uleb128 0xe
 358 0048 3A       		.uleb128 0x3a
 359 0049 0B       		.uleb128 0xb
 360 004a 3B       		.uleb128 0x3b
 361 004b 0B       		.uleb128 0xb
 362 004c 49       		.uleb128 0x49
 363 004d 13       		.uleb128 0x13
 364 004e 38       		.uleb128 0x38
 365 004f 0B       		.uleb128 0xb
 366 0050 00       		.byte	0
 367 0051 00       		.byte	0
 368 0052 07       		.uleb128 0x7
 369 0053 0D       		.uleb128 0xd
 370 0054 00       		.byte	0
 371 0055 03       		.uleb128 0x3
 372 0056 08       		.uleb128 0x8
 373 0057 3A       		.uleb128 0x3a
 374 0058 0B       		.uleb128 0xb
 375 0059 3B       		.uleb128 0x3b
 376 005a 0B       		.uleb128 0xb
 377 005b 49       		.uleb128 0x49
 378 005c 13       		.uleb128 0x13
 379 005d 38       		.uleb128 0x38
 380 005e 0B       		.uleb128 0xb
 381 005f 00       		.byte	0
 382 0060 00       		.byte	0
 383 0061 08       		.uleb128 0x8
GAS LISTING /tmp/ccZVqXSw.s 			page 8


 384 0062 2E       		.uleb128 0x2e
 385 0063 01       		.byte	0x1
 386 0064 3F       		.uleb128 0x3f
 387 0065 19       		.uleb128 0x19
 388 0066 03       		.uleb128 0x3
 389 0067 0E       		.uleb128 0xe
 390 0068 3A       		.uleb128 0x3a
 391 0069 0B       		.uleb128 0xb
 392 006a 3B       		.uleb128 0x3b
 393 006b 0B       		.uleb128 0xb
 394 006c 27       		.uleb128 0x27
 395 006d 19       		.uleb128 0x19
 396 006e 11       		.uleb128 0x11
 397 006f 01       		.uleb128 0x1
 398 0070 12       		.uleb128 0x12
 399 0071 06       		.uleb128 0x6
 400 0072 40       		.uleb128 0x40
 401 0073 18       		.uleb128 0x18
 402 0074 9742     		.uleb128 0x2117
 403 0076 19       		.uleb128 0x19
 404 0077 01       		.uleb128 0x1
 405 0078 13       		.uleb128 0x13
 406 0079 00       		.byte	0
 407 007a 00       		.byte	0
 408 007b 09       		.uleb128 0x9
 409 007c 898201   		.uleb128 0x4109
 410 007f 00       		.byte	0
 411 0080 11       		.uleb128 0x11
 412 0081 01       		.uleb128 0x1
 413 0082 31       		.uleb128 0x31
 414 0083 13       		.uleb128 0x13
 415 0084 00       		.byte	0
 416 0085 00       		.byte	0
 417 0086 0A       		.uleb128 0xa
 418 0087 898201   		.uleb128 0x4109
 419 008a 00       		.byte	0
 420 008b 11       		.uleb128 0x11
 421 008c 01       		.uleb128 0x1
 422 008d 9542     		.uleb128 0x2115
 423 008f 19       		.uleb128 0x19
 424 0090 31       		.uleb128 0x31
 425 0091 13       		.uleb128 0x13
 426 0092 00       		.byte	0
 427 0093 00       		.byte	0
 428 0094 0B       		.uleb128 0xb
 429 0095 34       		.uleb128 0x34
 430 0096 00       		.byte	0
 431 0097 03       		.uleb128 0x3
 432 0098 0E       		.uleb128 0xe
 433 0099 3A       		.uleb128 0x3a
 434 009a 0B       		.uleb128 0xb
 435 009b 3B       		.uleb128 0x3b
 436 009c 0B       		.uleb128 0xb
 437 009d 49       		.uleb128 0x49
 438 009e 13       		.uleb128 0x13
 439 009f 3F       		.uleb128 0x3f
 440 00a0 19       		.uleb128 0x19
GAS LISTING /tmp/ccZVqXSw.s 			page 9


 441 00a1 3C       		.uleb128 0x3c
 442 00a2 19       		.uleb128 0x19
 443 00a3 00       		.byte	0
 444 00a4 00       		.byte	0
 445 00a5 0C       		.uleb128 0xc
 446 00a6 26       		.uleb128 0x26
 447 00a7 00       		.byte	0
 448 00a8 49       		.uleb128 0x49
 449 00a9 13       		.uleb128 0x13
 450 00aa 00       		.byte	0
 451 00ab 00       		.byte	0
 452 00ac 0D       		.uleb128 0xd
 453 00ad 2E       		.uleb128 0x2e
 454 00ae 00       		.byte	0
 455 00af 3F       		.uleb128 0x3f
 456 00b0 19       		.uleb128 0x19
 457 00b1 03       		.uleb128 0x3
 458 00b2 0E       		.uleb128 0xe
 459 00b3 3A       		.uleb128 0x3a
 460 00b4 0B       		.uleb128 0xb
 461 00b5 3B       		.uleb128 0x3b
 462 00b6 0B       		.uleb128 0xb
 463 00b7 27       		.uleb128 0x27
 464 00b8 19       		.uleb128 0x19
 465 00b9 3C       		.uleb128 0x3c
 466 00ba 19       		.uleb128 0x19
 467 00bb 00       		.byte	0
 468 00bc 00       		.byte	0
 469 00bd 0E       		.uleb128 0xe
 470 00be 2E       		.uleb128 0x2e
 471 00bf 00       		.byte	0
 472 00c0 3F       		.uleb128 0x3f
 473 00c1 19       		.uleb128 0x19
 474 00c2 03       		.uleb128 0x3
 475 00c3 0E       		.uleb128 0xe
 476 00c4 3A       		.uleb128 0x3a
 477 00c5 0B       		.uleb128 0xb
 478 00c6 3B       		.uleb128 0x3b
 479 00c7 05       		.uleb128 0x5
 480 00c8 27       		.uleb128 0x27
 481 00c9 19       		.uleb128 0x19
 482 00ca 3C       		.uleb128 0x3c
 483 00cb 19       		.uleb128 0x19
 484 00cc 00       		.byte	0
 485 00cd 00       		.byte	0
 486 00ce 00       		.byte	0
 487              		.section	.debug_aranges,"",@progbits
 488 0000 1C000000 		.long	0x1c
 489 0004 0200     		.value	0x2
 490 0006 00000000 		.long	.Ldebug_info0
 491 000a 04       		.byte	0x4
 492 000b 00       		.byte	0
 493 000c 0000     		.value	0
 494 000e 0000     		.value	0
 495 0010 00000000 		.long	.Ltext0
 496 0014 56000000 		.long	.Letext0-.Ltext0
 497 0018 00000000 		.long	0
GAS LISTING /tmp/ccZVqXSw.s 			page 10


 498 001c 00000000 		.long	0
 499              		.section	.debug_line,"",@progbits
 500              	.Ldebug_line0:
 501 0000 F9000000 		.section	.debug_str,"MS",@progbits,1
 501      0200D500 
 501      00000101 
 501      FB0E0D00 
 501      01010101 
 502              	.LASF26:
 503 0000 2E2E2F2E 		.string	"../../../os/hal/src/hal.c"
 503      2E2F2E2E 
 503      2F6F732F 
 503      68616C2F 
 503      7372632F 
 504              	.LASF12:
 505 001a 6C617463 		.string	"latch"
 505      6800
 506              	.LASF15:
 507 0020 56503144 		.string	"VP1Data"
 507      61746100 
 508              	.LASF22:
 509 0028 65787449 		.string	"extInit"
 509      6E697400 
 510              	.LASF16:
 511 0030 56503244 		.string	"VP2Data"
 511      61746100 
 512              	.LASF28:
 513 0038 68616C49 		.string	"halInit"
 513      6E697400 
 514              	.LASF5:
 515 0040 756E7369 		.string	"unsigned char"
 515      676E6564 
 515      20636861 
 515      7200
 516              	.LASF11:
 517 004e 6C6F6E67 		.string	"long unsigned int"
 517      20756E73 
 517      69676E65 
 517      6420696E 
 517      7400
 518              	.LASF21:
 519 0060 68616C5F 		.string	"hal_lld_init"
 519      6C6C645F 
 519      696E6974 
 519      00
 520              	.LASF6:
 521 006d 73686F72 		.string	"short unsigned int"
 521      7420756E 
 521      7369676E 
 521      65642069 
 521      6E7400
 522              	.LASF18:
 523 0080 76696F5F 		.string	"vio_port_1"
 523      706F7274 
 523      5F3100
 524              	.LASF17:
 525 008b 50414C43 		.string	"PALConfig"
GAS LISTING /tmp/ccZVqXSw.s 			page 11


 525      6F6E6669 
 525      6700
 526              	.LASF20:
 527 0095 70616C5F 		.string	"pal_default_config"
 527      64656661 
 527      756C745F 
 527      636F6E66 
 527      696700
 528              	.LASF14:
 529 00a8 73696D5F 		.string	"sim_vio_port_t"
 529      76696F5F 
 529      706F7274 
 529      5F7400
 530              	.LASF27:
 531 00b7 2F686F6D 		.string	"/home/tony/ChibiOS-RT/testhal/Posix/EXT"
 531      652F746F 
 531      6E792F43 
 531      68696269 
 531      4F532D52 
 532              	.LASF0:
 533 00df 756E7369 		.string	"unsigned int"
 533      676E6564 
 533      20696E74 
 533      00
 534              	.LASF7:
 535 00ec 6C6F6E67 		.string	"long long unsigned int"
 535      206C6F6E 
 535      6720756E 
 535      7369676E 
 535      65642069 
 536              	.LASF19:
 537 0103 76696F5F 		.string	"vio_port_2"
 537      706F7274 
 537      5F3200
 538              	.LASF24:
 539 010e 626F6172 		.string	"boardInit"
 539      64496E69 
 539      7400
 540              	.LASF9:
 541 0118 73697A65 		.string	"sizetype"
 541      74797065 
 541      00
 542              	.LASF25:
 543 0121 474E5520 		.string	"GNU C 4.8.2 -m32 -mtune=generic -march=i686 -ggdb -O2 -fomit-frame-pointer -fstack-protec
 543      4320342E 
 543      382E3220 
 543      2D6D3332 
 543      202D6D74 
 544              	.LASF4:
 545 017e 6C6F6E67 		.string	"long long int"
 545      206C6F6E 
 545      6720696E 
 545      7400
 546              	.LASF10:
 547 018c 63686172 		.string	"char"
 547      00
 548              	.LASF23:
GAS LISTING /tmp/ccZVqXSw.s 			page 12


 549 0191 7364496E 		.string	"sdInit"
 549      697400
 550              	.LASF3:
 551 0198 73686F72 		.string	"short int"
 551      7420696E 
 551      7400
 552              	.LASF13:
 553 01a2 75696E74 		.string	"uint32_t"
 553      33325F74 
 553      00
 554              	.LASF1:
 555 01ab 6C6F6E67 		.string	"long int"
 555      20696E74 
 555      00
 556              	.LASF2:
 557 01b4 7369676E 		.string	"signed char"
 557      65642063 
 557      68617200 
 558              	.LASF8:
 559 01c0 5F426F6F 		.string	"_Bool"
 559      6C00
 560              		.ident	"GCC: (Ubuntu 4.8.2-19ubuntu1) 4.8.2"
 561              		.section	.note.GNU-stack,"",@progbits
GAS LISTING /tmp/ccZVqXSw.s 			page 13


DEFINED SYMBOLS
                            *ABS*:0000000000000000 hal.c
     /tmp/ccZVqXSw.s:60     .text:0000000000000000 halInit

UNDEFINED SYMBOLS
hal_lld_init
pal_default_config
vio_port_1
vio_port_2
extInit
sdInit
boardInit
