GAS LISTING /tmp/ccm1t5nR.s 			page 1


   1              		.file	"pal.c"
   2              	# GNU C (Ubuntu 4.8.2-19ubuntu1) version 4.8.2 (x86_64-linux-gnu)
   3              	#	compiled by GNU C version 4.8.2, GMP version 5.1.3, MPFR version 3.1.2-p3, MPC version 1.0.1
   4              	# GGC heuristics: --param ggc-min-expand=97 --param ggc-min-heapsize=126309
   5              	# options passed:  -I . -I ../../../os/ports/GCC/SIMIA32
   6              	# -I ../../../os/kernel/include -I ../../../test -I ../../../os/hal/include
   7              	# -I ../../../os/hal/platforms/Posix -I ../../../boards/simulator
   8              	# -I ../../../os/various -imultilib 32 -imultiarch i386-linux-gnu
   9              	# -MD ../../../os/hal/src/pal.d -MF .dep/pal.o.d -MP
  10              	# -MQ ../../../os/hal/src/pal.o -D SIMULATOR -D SHELL_USE_IPRINTF=FALSE
  11              	# ../../../os/hal/src/pal.c -m32 -mtune=generic -march=i686
  12              	# -auxbase-strip ../../../os/hal/src/pal.o -ggdb -O2 -Wall -Wextra
  13              	# -Wstrict-prototypes -fomit-frame-pointer -fverbose-asm -fstack-protector
  14              	# -Wformat -Wformat-security
  15              	# options enabled:  -faggressive-loop-optimizations
  16              	# -fasynchronous-unwind-tables -fauto-inc-dec -fbranch-count-reg
  17              	# -fcaller-saves -fcombine-stack-adjustments -fcommon -fcompare-elim
  18              	# -fcprop-registers -fcrossjumping -fcse-follow-jumps -fdefer-pop
  19              	# -fdelete-null-pointer-checks -fdevirtualize -fdwarf2-cfi-asm
  20              	# -fearly-inlining -feliminate-unused-debug-types -fexpensive-optimizations
  21              	# -fforward-propagate -ffunction-cse -fgcse -fgcse-lm -fgnu-runtime
  22              	# -fguess-branch-probability -fhoist-adjacent-loads -fident -fif-conversion
  23              	# -fif-conversion2 -findirect-inlining -finline -finline-atomics
  24              	# -finline-functions-called-once -finline-small-functions -fipa-cp
  25              	# -fipa-profile -fipa-pure-const -fipa-reference -fipa-sra
  26              	# -fira-hoist-pressure -fira-share-save-slots -fira-share-spill-slots
  27              	# -fivopts -fkeep-static-consts -fleading-underscore -fmath-errno
  28              	# -fmerge-constants -fmerge-debug-strings -fmove-loop-invariants
  29              	# -fomit-frame-pointer -foptimize-register-move -foptimize-sibling-calls
  30              	# -foptimize-strlen -fpartial-inlining -fpcc-struct-return -fpeephole
  31              	# -fpeephole2 -fprefetch-loop-arrays -free -fregmove -freorder-blocks
  32              	# -freorder-functions -frerun-cse-after-loop
  33              	# -fsched-critical-path-heuristic -fsched-dep-count-heuristic
  34              	# -fsched-group-heuristic -fsched-interblock -fsched-last-insn-heuristic
  35              	# -fsched-rank-heuristic -fsched-spec -fsched-spec-insn-heuristic
  36              	# -fsched-stalled-insns-dep -fschedule-insns2 -fshow-column -fshrink-wrap
  37              	# -fsigned-zeros -fsplit-ivs-in-unroller -fsplit-wide-types
  38              	# -fstack-protector -fstrict-aliasing -fstrict-overflow
  39              	# -fstrict-volatile-bitfields -fsync-libcalls -fthread-jumps
  40              	# -ftoplevel-reorder -ftrapping-math -ftree-bit-ccp -ftree-builtin-call-dce
  41              	# -ftree-ccp -ftree-ch -ftree-coalesce-vars -ftree-copy-prop
  42              	# -ftree-copyrename -ftree-cselim -ftree-dce -ftree-dominator-opts
  43              	# -ftree-dse -ftree-forwprop -ftree-fre -ftree-loop-if-convert
  44              	# -ftree-loop-im -ftree-loop-ivcanon -ftree-loop-optimize
  45              	# -ftree-parallelize-loops= -ftree-phiprop -ftree-pre -ftree-pta
  46              	# -ftree-reassoc -ftree-scev-cprop -ftree-sink -ftree-slp-vectorize
  47              	# -ftree-slsr -ftree-sra -ftree-switch-conversion -ftree-tail-merge
  48              	# -ftree-ter -ftree-vect-loop-version -ftree-vrp -funit-at-a-time
  49              	# -funwind-tables -fvar-tracking -fvar-tracking-assignments -fverbose-asm
  50              	# -fzero-initialized-in-bss -m32 -m80387 -m96bit-long-double
  51              	# -maccumulate-outgoing-args -malign-stringops -mfancy-math-387
  52              	# -mfp-ret-in-387 -mglibc -mieee-fp -mlong-double-80 -mno-red-zone
  53              	# -mno-sse4 -mpush-args -msahf -mtls-direct-seg-refs
  54              	
  55              		.text
  56              	.Ltext0:
  57              		.p2align 4,,15
GAS LISTING /tmp/ccm1t5nR.s 			page 2


  58              		.globl	palReadBus
  59              		.type	palReadBus, @function
  60              	palReadBus:
  61              	.LFB15:
  62              		.file 1 "../../../os/hal/src/pal.c"
  63              		.loc 1 77 0
  64              		.cfi_startproc
  65              	.LVL0:
  66              		.loc 1 77 0
  67 0000 8B542404 		movl	4(%esp), %edx	# bus, bus
  68              		.loc 1 82 0
  69 0004 8B02     		movl	(%edx), %eax	# bus_1(D)->portid, bus_1(D)->portid
  70 0006 0FB64A08 		movzbl	8(%edx), %ecx	# bus_1(D)->offset, D.3222
  71 000a 8B4004   		movl	4(%eax), %eax	# _3->pin, D.3223
  72 000d D3E8     		shrl	%cl, %eax	# D.3222, D.3223
  73 000f 234204   		andl	4(%edx), %eax	# bus_1(D)->mask, D.3223
  74              		.loc 1 83 0
  75 0012 C3       		ret
  76              		.cfi_endproc
  77              	.LFE15:
  78              		.size	palReadBus, .-palReadBus
  79 0013 8DB60000 		.p2align 4,,15
  79      00008DBC 
  79      27000000 
  79      00
  80              		.globl	palWriteBus
  81              		.type	palWriteBus, @function
  82              	palWriteBus:
  83              	.LFB16:
  84              		.loc 1 103 0
  85              		.cfi_startproc
  86              	.LVL1:
  87 0020 53       		pushl	%ebx	#
  88              		.cfi_def_cfa_offset 8
  89              		.cfi_offset 3, -8
  90              		.loc 1 103 0
  91 0021 8B442408 		movl	8(%esp), %eax	# bus, bus
  92              		.loc 1 108 0
  93 0025 0FB64808 		movzbl	8(%eax), %ecx	# bus_1(D)->offset, D.3229
  94 0029 8B5804   		movl	4(%eax), %ebx	# bus_1(D)->mask, D.3227
  95 002c 8B10     		movl	(%eax), %edx	# bus_1(D)->portid, D.3226
  96 002e 8B44240C 		movl	12(%esp), %eax	# bits, tmp77
  97 0032 21D8     		andl	%ebx, %eax	# D.3227, tmp77
  98 0034 D3E3     		sall	%cl, %ebx	# D.3229, D.3227
  99 0036 D3E0     		sall	%cl, %eax	# D.3229, tmp77
 100 0038 89D9     		movl	%ebx, %ecx	# D.3227, D.3227
 101 003a F7D1     		notl	%ecx	# D.3227
 102 003c 230A     		andl	(%edx), %ecx	# _3->latch, D.3227
 103 003e 09C8     		orl	%ecx, %eax	# D.3227, tmp77
 104 0040 8902     		movl	%eax, (%edx)	# tmp77, _3->latch
 105              		.loc 1 109 0
 106 0042 5B       		popl	%ebx	#
 107              		.cfi_restore 3
 108              		.cfi_def_cfa_offset 4
 109 0043 C3       		ret
 110              		.cfi_endproc
 111              	.LFE16:
GAS LISTING /tmp/ccm1t5nR.s 			page 3


 112              		.size	palWriteBus, .-palWriteBus
 113 0044 8DB60000 		.p2align 4,,15
 113      00008DBF 
 113      00000000 
 114              		.globl	palSetBusMode
 115              		.type	palSetBusMode, @function
 116              	palSetBusMode:
 117              	.LFB17:
 118              		.loc 1 127 0
 119              		.cfi_startproc
 120              	.LVL2:
 121 0050 83EC1C   		subl	$28, %esp	#,
 122              		.cfi_def_cfa_offset 32
 123              		.loc 1 127 0
 124 0053 8B442420 		movl	32(%esp), %eax	# bus, bus
 125              		.loc 1 132 0
 126 0057 8B542424 		movl	36(%esp), %edx	# mode, mode
 127 005b 89542408 		movl	%edx, 8(%esp)	# mode,
 128 005f 0FB64808 		movzbl	8(%eax), %ecx	# bus_1(D)->offset, D.3234
 129 0063 8B5004   		movl	4(%eax), %edx	# bus_1(D)->mask, D.3232
 130 0066 D3E2     		sall	%cl, %edx	# D.3234, D.3232
 131 0068 89542404 		movl	%edx, 4(%esp)	# D.3232,
 132 006c 8B00     		movl	(%eax), %eax	# bus_1(D)->portid, bus_1(D)->portid
 133 006e 890424   		movl	%eax, (%esp)	# bus_1(D)->portid,
 134 0071 E8FCFFFF 		call	_pal_lld_setgroupmode	#
 134      FF
 135              	.LVL3:
 136              		.loc 1 133 0
 137 0076 83C41C   		addl	$28, %esp	#,
 138              		.cfi_def_cfa_offset 4
 139 0079 C3       		ret
 140              		.cfi_endproc
 141              	.LFE17:
 142              		.size	palSetBusMode, .-palSetBusMode
 143              	.Letext0:
 144              		.file 2 "/usr/include/stdint.h"
 145              		.file 3 "../../../os/hal/platforms/Posix/pal_lld.h"
 146              		.file 4 "../../../os/hal/include/pal.h"
 710              		.section	.note.GNU-stack,"",@progbits
GAS LISTING /tmp/ccm1t5nR.s 			page 15

