GAS LISTING /tmp/cc8J0g7T.s 			page 1


   1              		.file	"main.c"
   2              	# GNU C (Ubuntu 4.8.2-19ubuntu1) version 4.8.2 (x86_64-linux-gnu)
   3              	#	compiled by GNU C version 4.8.2, GMP version 5.1.3, MPFR version 3.1.2-p3, MPC version 1.0.1
   4              	# GGC heuristics: --param ggc-min-expand=97 --param ggc-min-heapsize=126309
   5              	# options passed:  -I . -I ../../os/ports/GCC/SIMIA32
   6              	# -I ../../os/kernel/include -I ../../test -I ../../os/hal/include
   7              	# -I ../../os/hal/platforms/Posix -I ../../boards/simulator
   8              	# -I ../../os/various -imultilib 32 -imultiarch i386-linux-gnu -MD main.d
   9              	# -MF .dep/main.o.d -MP -MQ main.o -D SIMULATOR -D SHELL_USE_IPRINTF=FALSE
  10              	# main.c -m32 -mtune=generic -march=i686 -auxbase-strip main.o -ggdb -O2
  11              	# -Wall -Wextra -Wstrict-prototypes -fomit-frame-pointer -fverbose-asm
  12              	# -fstack-protector -Wformat -Wformat-security
  13              	# options enabled:  -faggressive-loop-optimizations
  14              	# -fasynchronous-unwind-tables -fauto-inc-dec -fbranch-count-reg
  15              	# -fcaller-saves -fcombine-stack-adjustments -fcommon -fcompare-elim
  16              	# -fcprop-registers -fcrossjumping -fcse-follow-jumps -fdefer-pop
  17              	# -fdelete-null-pointer-checks -fdevirtualize -fdwarf2-cfi-asm
  18              	# -fearly-inlining -feliminate-unused-debug-types -fexpensive-optimizations
  19              	# -fforward-propagate -ffunction-cse -fgcse -fgcse-lm -fgnu-runtime
  20              	# -fguess-branch-probability -fhoist-adjacent-loads -fident -fif-conversion
  21              	# -fif-conversion2 -findirect-inlining -finline -finline-atomics
  22              	# -finline-functions-called-once -finline-small-functions -fipa-cp
  23              	# -fipa-profile -fipa-pure-const -fipa-reference -fipa-sra
  24              	# -fira-hoist-pressure -fira-share-save-slots -fira-share-spill-slots
  25              	# -fivopts -fkeep-static-consts -fleading-underscore -fmath-errno
  26              	# -fmerge-constants -fmerge-debug-strings -fmove-loop-invariants
  27              	# -fomit-frame-pointer -foptimize-register-move -foptimize-sibling-calls
  28              	# -foptimize-strlen -fpartial-inlining -fpcc-struct-return -fpeephole
  29              	# -fpeephole2 -fprefetch-loop-arrays -free -fregmove -freorder-blocks
  30              	# -freorder-functions -frerun-cse-after-loop
  31              	# -fsched-critical-path-heuristic -fsched-dep-count-heuristic
  32              	# -fsched-group-heuristic -fsched-interblock -fsched-last-insn-heuristic
  33              	# -fsched-rank-heuristic -fsched-spec -fsched-spec-insn-heuristic
  34              	# -fsched-stalled-insns-dep -fschedule-insns2 -fshow-column -fshrink-wrap
  35              	# -fsigned-zeros -fsplit-ivs-in-unroller -fsplit-wide-types
  36              	# -fstack-protector -fstrict-aliasing -fstrict-overflow
  37              	# -fstrict-volatile-bitfields -fsync-libcalls -fthread-jumps
  38              	# -ftoplevel-reorder -ftrapping-math -ftree-bit-ccp -ftree-builtin-call-dce
  39              	# -ftree-ccp -ftree-ch -ftree-coalesce-vars -ftree-copy-prop
  40              	# -ftree-copyrename -ftree-cselim -ftree-dce -ftree-dominator-opts
  41              	# -ftree-dse -ftree-forwprop -ftree-fre -ftree-loop-if-convert
  42              	# -ftree-loop-im -ftree-loop-ivcanon -ftree-loop-optimize
  43              	# -ftree-parallelize-loops= -ftree-phiprop -ftree-pre -ftree-pta
  44              	# -ftree-reassoc -ftree-scev-cprop -ftree-sink -ftree-slp-vectorize
  45              	# -ftree-slsr -ftree-sra -ftree-switch-conversion -ftree-tail-merge
  46              	# -ftree-ter -ftree-vect-loop-version -ftree-vrp -funit-at-a-time
  47              	# -funwind-tables -fvar-tracking -fvar-tracking-assignments -fverbose-asm
  48              	# -fzero-initialized-in-bss -m32 -m80387 -m96bit-long-double
  49              	# -maccumulate-outgoing-args -malign-stringops -mfancy-math-387
  50              	# -mfp-ret-in-387 -mglibc -mieee-fp -mlong-double-80 -mno-red-zone
  51              	# -mno-sse4 -mpush-args -msahf -mtls-direct-seg-refs
  52              	
  53              		.text
  54              	.Ltext0:
  55              		.p2align 4,,15
  56              		.type	chprintf, @function
  57              	chprintf:
GAS LISTING /tmp/cc8J0g7T.s 			page 2


  58              	.LFB39:
  59              		.file 1 "../../os/various/chprintf.h"
  60              		.loc 1 69 0
  61              		.cfi_startproc
  62              	.LVL0:
  63 0000 83EC1C   		subl	$28, %esp	#,
  64              		.cfi_def_cfa_offset 32
  65              		.loc 1 72 0
  66 0003 8D442428 		leal	40(%esp), %eax	#, tmp62
  67              	.LVL1:
  68              		.loc 1 73 0
  69 0007 89442408 		movl	%eax, 8(%esp)	# tmp62,
  70 000b 8B442424 		movl	36(%esp), %eax	# fmt, fmt
  71              	.LVL2:
  72 000f 89442404 		movl	%eax, 4(%esp)	# fmt,
  73 0013 8B442420 		movl	32(%esp), %eax	# chp, chp
  74 0017 890424   		movl	%eax, (%esp)	# chp,
  75 001a E8FCFFFF 		call	chvprintf	#
  75      FF
  76              	.LVL3:
  77              		.loc 1 75 0
  78 001f 83C41C   		addl	$28, %esp	#,
  79              		.cfi_def_cfa_offset 4
  80 0022 C3       		ret
  81              		.cfi_endproc
  82              	.LFE39:
  83              		.size	chprintf, .-chprintf
  84              		.section	.rodata.str1.1,"aMS",@progbits,1
  85              	.LC0:
  86 0000 496E6974 		.string	"Init: shell on SD1 terminated"
  86      3A207368 
  86      656C6C20 
  86      6F6E2053 
  86      44312074 
  87              	.LC1:
  88 001e 496E6974 		.string	"Init: shell on SD2 terminated"
  88      3A207368 
  88      656C6C20 
  88      6F6E2053 
  88      44322074 
  89              		.text
  90 0023 8DB60000 		.p2align 4,,15
  90      00008DBC 
  90      27000000 
  90      00
  91              		.type	termination_handler, @function
  92              	termination_handler:
  93              	.LFB44:
  94              		.file 2 "main.c"
  95              		.loc 2 125 0
  96              		.cfi_startproc
  97              	.LVL4:
  98 0030 83EC1C   		subl	$28, %esp	#,
  99              		.cfi_def_cfa_offset 32
 100              		.loc 2 128 0
 101 0033 A1240000 		movl	shelltp1, %eax	# shelltp1, shelltp1.11
 101      00
GAS LISTING /tmp/cc8J0g7T.s 			page 3


 102 0038 85C0     		testl	%eax, %eax	# shelltp1.11
 103 003a 7406     		je	.L4	#,
 104              		.loc 2 128 0 is_stmt 0 discriminator 1
 105 003c 80781C0E 		cmpb	$14, 28(%eax)	#, shelltp1.11_4->p_state
 106 0040 745E     		je	.L14	#,
 107              	.L4:
 108              		.loc 2 137 0 is_stmt 1
 109 0042 A1200000 		movl	shelltp2, %eax	# shelltp2, shelltp2.13
 109      00
 110 0047 85C0     		testl	%eax, %eax	# shelltp2.13
 111 0049 7406     		je	.L3	#,
 112              		.loc 2 137 0 is_stmt 0 discriminator 1
 113 004b 80781C0E 		cmpb	$14, 28(%eax)	#, shelltp2.13_13->p_state
 114 004f 7407     		je	.L15	#,
 115              	.L3:
 116              		.loc 2 146 0 is_stmt 1
 117 0051 83C41C   		addl	$28, %esp	#,
 118              		.cfi_remember_state
 119              		.cfi_def_cfa_offset 4
 120 0054 C3       		ret
 121              		.p2align 4,,7
 122 0055 8D7600   		.p2align 3
 123              	.L15:
 124              		.cfi_restore_state
 125              		.loc 2 138 0
 126 0058 890424   		movl	%eax, (%esp)	# shelltp2.13,
 127 005b E8FCFFFF 		call	chThdWait	#
 127      FF
 128              	.LVL5:
 129              		.loc 2 140 0
 130 0060 C704240A 		movl	$10, (%esp)	#,
 130      000000
 131              		.loc 2 139 0
 132 0067 C7052000 		movl	$0, shelltp2	#, shelltp2
 132      00000000 
 132      0000
 133              		.loc 2 140 0
 134 0071 E8FCFFFF 		call	chThdSleep	#
 134      FF
 135              	.LVL6:
 136              		.loc 2 141 0
 137 0076 A1280000 		movl	cdtp, %eax	# cdtp, cdtp
 137      00
 138 007b C7442404 		movl	$.LC1, 4(%esp)	#,
 138      1E000000 
 139 0083 890424   		movl	%eax, (%esp)	# cdtp,
 140 0086 E8FCFFFF 		call	chMsgSend	#
 140      FF
 141              	.LVL7:
 142              		.loc 2 142 0
 143              	#APP
 144              	# 142 "main.c" 1
   1              	/*
   2              	    ChibiOS/RT - Copyright (C) 2006-2013 Giovanni Di Sirio
   3              	
   4              	    Licensed under the Apache License, Version 2.0 (the "License");
   5              	    you may not use this file except in compliance with the License.
GAS LISTING /tmp/cc8J0g7T.s 			page 4


   6              	    You may obtain a copy of the License at
   7              	
   8              	        http://www.apache.org/licenses/LICENSE-2.0
   9              	
  10              	    Unless required by applicable law or agreed to in writing, software
  11              	    distributed under the License is distributed on an "AS IS" BASIS,
  12              	    WITHOUT WARRANTIES OR CONDITIONS OF ANY KIND, either express or implied.
  13              	    See the License for the specific language governing permissions and
  14              	    limitations under the License.
  15              	*/
  16              	
  17              	#include <stdio.h>
  18              	
  19              	#include "ch.h"
  20              	#include "hal.h"
  21              	#include "test.h"
  22              	#include "shell.h"
  23              	#include "chprintf.h"
  24              	
  25              	#define SHELL_WA_SIZE       THD_WA_SIZE(4096)
  26              	#define CONSOLE_WA_SIZE     THD_WA_SIZE(4096)
  27              	#define TEST_WA_SIZE        THD_WA_SIZE(4096)
  28              	
  29              	#define cputs(msg) chMsgSend(cdtp, (msg_t)msg)
  30              	
  31              	static Thread *cdtp;
  32              	static Thread *shelltp1;
  33              	static Thread *shelltp2;
  34              	
  35              	static void cmd_mem(BaseSequentialStream *chp, int argc, char *argv[]) {
  36              	  size_t n, size;
  37              	
  38              	  (void)argv;
  39              	  if (argc > 0) {
  40              	    chprintf(chp, "Usage: mem\r\n");
  41              	    return;
  42              	  }
  43              	  n = chHeapStatus(NULL, &size);
  44              	  chprintf(chp, "core free memory : %u bytes\r\n", chCoreStatus());
  45              	  chprintf(chp, "heap fragments   : %u\r\n", n);
  46              	  chprintf(chp, "heap free total  : %u bytes\r\n", size);
  47              	}
  48              	
  49              	static void cmd_threads(BaseSequentialStream *chp, int argc, char *argv[]) {
  50              	  static const char *states[] = {THD_STATE_NAMES};
  51              	  Thread *tp;
  52              	
  53              	  (void)argv;
  54              	  if (argc > 0) {
  55              	    chprintf(chp, "Usage: threads\r\n");
  56              	    return;
  57              	  }
  58              	  chprintf(chp, "    addr    stack prio refs     state time\r\n");
  59              	  tp = chRegFirstThread();
  60              	  do {
  61              	    chprintf(chp, "%.8lx %.8lx %4lu %4lu %9s %lu\r\n",
  62              	            (uint32_t)tp, (uint32_t)tp->p_ctx.esp,
GAS LISTING /tmp/cc8J0g7T.s 			page 5


  63              	            (uint32_t)tp->p_prio, (uint32_t)(tp->p_refs - 1),
  64              	            states[tp->p_state], (uint32_t)tp->p_time);
  65              	    tp = chRegNextThread(tp);
  66              	  } while (tp != NULL);
  67              	}
  68              	
  69              	static void cmd_test(BaseSequentialStream *chp, int argc, char *argv[]) {
  70              	  Thread *tp;
  71              	
  72              	  (void)argv;
  73              	  if (argc > 0) {
  74              	    chprintf(chp, "Usage: test\r\n");
  75              	    return;
  76              	  }
  77              	  tp = chThdCreateFromHeap(NULL, TEST_WA_SIZE, chThdGetPriority(),
  78              	                           TestThread, chp);
  79              	  if (tp == NULL) {
  80              	    chprintf(chp, "out of memory\r\n");
  81              	    return;
  82              	  }
  83              	  chThdWait(tp);
  84              	}
  85              	
  86              	static const ShellCommand commands[] = {
  87              	  {"mem", cmd_mem},
  88              	  {"threads", cmd_threads},
  89              	  {"test", cmd_test},
  90              	  {NULL, NULL}
  91              	};
  92              	
  93              	static const ShellConfig shell_cfg1 = {
  94              	  (BaseSequentialStream *)&SD1,
  95              	  commands
  96              	};
  97              	
  98              	static const ShellConfig shell_cfg2 = {
  99              	  (BaseSequentialStream *)&SD2,
 100              	  commands
 101              	};
 102              	
 103              	/*
 104              	 * Console print server done using synchronous messages. This makes the access
 105              	 * to the C printf() thread safe and the print operation atomic among threads.
 106              	 * In this example the message is the zero terminated string itself.
 107              	 */
 108              	static msg_t console_thread(void *arg) {
 109              	
 110              	  (void)arg;
 111              	  while (!chThdShouldTerminate()) {
 112              	    Thread *tp = chMsgWait();
 113              	    puts((char *)chMsgGet(tp));
 114              	    fflush(stdout);
 115              	    chMsgRelease(tp, RDY_OK);
 116              	  }
 117              	  return 0;
 118              	}
 119              	
GAS LISTING /tmp/cc8J0g7T.s 			page 6


 120              	/**
 121              	 * @brief Shell termination handler.
 122              	 *
 123              	 * @param[in] id event id.
 124              	 */
 125              	static void termination_handler(eventid_t id) {
 126              	
 127              	  (void)id;
 128              	  if (shelltp1 && chThdTerminated(shelltp1)) {
 129              	    chThdWait(shelltp1);
 130              	    shelltp1 = NULL;
 131              	    chThdSleepMilliseconds(10);
 132              	    cputs("Init: shell on SD1 terminated");
 133              	    chSysLock();
 134              	    chOQResetI(&SD1.oqueue);
 135              	    chSysUnlock();
 136              	  }
 137              	  if (shelltp2 && chThdTerminated(shelltp2)) {
 138              	    chThdWait(shelltp2);
 139              	    shelltp2 = NULL;
 140              	    chThdSleepMilliseconds(10);
 141              	    cputs("Init: shell on SD2 terminated");
 142 008b 90       	    chSysLock();
 143              	    chOQResetI(&SD2.oqueue);
 145              		nop
 146              	# 0 "" 2
 147              		.loc 2 143 0
 148              	#NO_APP
 149 008c C7042430 		movl	$SD2+48, (%esp)	#,
 149      000000
 150 0093 E8FCFFFF 		call	chOQResetI	#
 150      FF
 151              	.LVL8:
 152              		.loc 2 144 0
 153              	#APP
 154              	# 144 "main.c" 1
 144 0098 90       	    chSysUnlock();
 145              	  }
 155              		nop
 156              	# 0 "" 2
 157              		.loc 2 146 0
 158              	#NO_APP
 159 0099 83C41C   		addl	$28, %esp	#,
 160              		.cfi_remember_state
 161              		.cfi_def_cfa_offset 4
 162 009c C3       		ret
 163 009d 8D7600   		.p2align 4,,7
 164              		.p2align 3
 165              	.L14:
 166              		.cfi_restore_state
 167              		.loc 2 129 0
 168 00a0 890424   		movl	%eax, (%esp)	# shelltp1.11,
 169 00a3 E8FCFFFF 		call	chThdWait	#
 169      FF
 170              	.LVL9:
 171              		.loc 2 131 0
 172 00a8 C704240A 		movl	$10, (%esp)	#,
GAS LISTING /tmp/cc8J0g7T.s 			page 7


 172      000000
 173              		.loc 2 130 0
 174 00af C7052400 		movl	$0, shelltp1	#, shelltp1
 174      00000000 
 174      0000
 175              		.loc 2 131 0
 176 00b9 E8FCFFFF 		call	chThdSleep	#
 176      FF
 177              	.LVL10:
 178              		.loc 2 132 0
 179 00be A1280000 		movl	cdtp, %eax	# cdtp, cdtp
 179      00
 180 00c3 C7442404 		movl	$.LC0, 4(%esp)	#,
 180      00000000 
 181 00cb 890424   		movl	%eax, (%esp)	# cdtp,
 182 00ce E8FCFFFF 		call	chMsgSend	#
 182      FF
 183              	.LVL11:
 184              		.loc 2 133 0
 185              	#APP
 186              	# 133 "main.c" 1
 187              		nop
 188              	# 0 "" 2
 189              		.loc 2 134 0
 190              	#NO_APP
 191 00d4 C7042430 		movl	$SD1+48, (%esp)	#,
 191      000000
 192 00db E8FCFFFF 		call	chOQResetI	#
 192      FF
 193              	.LVL12:
 194              		.loc 2 135 0
 195              	#APP
 196              	# 135 "main.c" 1
 197              		nop
 198              	# 0 "" 2
 199              	#NO_APP
 200 00e1 E95CFFFF 		jmp	.L4	#
 200      FF
 201              		.cfi_endproc
 202              	.LFE44:
 203              		.size	termination_handler, .-termination_handler
 204 00e6 8D76008D 		.p2align 4,,15
 204      BC270000 
 204      0000
 205              		.type	console_thread, @function
 206              	console_thread:
 207              	.LFB43:
 208              		.loc 2 108 0
 209              		.cfi_startproc
 210              		.loc 2 111 0
 211 00f0 A1180000 		movl	rlist+24, %eax	# rlist.r_current, rlist.r_current
 211      00
 212 00f5 F6401D04 		testb	$4, 29(%eax)	#, _15->p_flags
 213 00f9 7546     		jne	.L24	#,
 214              		.loc 2 108 0
 215 00fb 53       		pushl	%ebx	#
 216              		.cfi_def_cfa_offset 8
GAS LISTING /tmp/cc8J0g7T.s 			page 8


 217              		.cfi_offset 3, -8
 218 00fc 83EC18   		subl	$24, %esp	#,
 219              		.cfi_def_cfa_offset 32
 220 00ff 90       		.p2align 4,,7
 221              		.p2align 3
 222              	.L21:
 223              	.LBB2:
 224              		.loc 2 112 0
 225 0100 E8FCFFFF 		call	chMsgWait	#
 225      FF
 226 0105 89C3     		movl	%eax, %ebx	#, tp
 227              		.loc 2 113 0
 228 0107 8B4034   		movl	52(%eax), %eax	# tp_6->p_msg, tp_6->p_msg
 229 010a 890424   		movl	%eax, (%esp)	# tp_6->p_msg,
 230 010d E8FCFFFF 		call	puts	#
 230      FF
 231              		.loc 2 114 0
 232 0112 A1000000 		movl	stdout, %eax	# stdout, stdout
 232      00
 233 0117 890424   		movl	%eax, (%esp)	# stdout,
 234 011a E8FCFFFF 		call	fflush	#
 234      FF
 235              		.loc 2 115 0
 236 011f C7442404 		movl	$0, 4(%esp)	#,
 236      00000000 
 237 0127 891C24   		movl	%ebx, (%esp)	# tp,
 238 012a E8FCFFFF 		call	chMsgRelease	#
 238      FF
 239              	.LBE2:
 240              		.loc 2 111 0
 241 012f A1180000 		movl	rlist+24, %eax	# rlist.r_current, rlist.r_current
 241      00
 242 0134 F6401D04 		testb	$4, 29(%eax)	#, _3->p_flags
 243 0138 74C6     		je	.L21	#,
 244              		.loc 2 118 0
 245 013a 83C418   		addl	$24, %esp	#,
 246              		.cfi_def_cfa_offset 8
 247 013d 31C0     		xorl	%eax, %eax	#
 248 013f 5B       		popl	%ebx	#
 249              		.cfi_restore 3
 250              		.cfi_def_cfa_offset 4
 251 0140 C3       		ret
 252              	.L24:
 253 0141 31C0     		xorl	%eax, %eax	#
 254 0143 C3       		ret
 255              		.cfi_endproc
 256              	.LFE43:
 257              		.size	console_thread, .-console_thread
 258              		.section	.rodata.str1.1
 259              	.LC2:
 260 003c 496E6974 		.string	"Init: connection on SD2"
 260      3A20636F 
 260      6E6E6563 
 260      74696F6E 
 260      206F6E20 
 261              	.LC3:
 262 0054 496E6974 		.string	"Init: disconnection on SD2"
GAS LISTING /tmp/cc8J0g7T.s 			page 9


 262      3A206469 
 262      73636F6E 
 262      6E656374 
 262      696F6E20 
 263              		.text
 264 0144 8DB60000 		.p2align 4,,15
 264      00008DBF 
 264      00000000 
 265              		.type	sd2_handler, @function
 266              	sd2_handler:
 267              	.LFB46:
 268              		.loc 2 177 0
 269              		.cfi_startproc
 270              	.LVL13:
 271 0150 53       		pushl	%ebx	#
 272              		.cfi_def_cfa_offset 8
 273              		.cfi_offset 3, -8
 274 0151 83EC18   		subl	$24, %esp	#,
 275              		.cfi_def_cfa_offset 32
 276              		.loc 2 181 0
 277 0154 C7042400 		movl	$sd2fel, (%esp)	#,
 277      000000
 278 015b E8FCFFFF 		call	chEvtGetAndClearFlags	#
 278      FF
 279              	.LVL14:
 280              		.loc 2 182 0
 281 0160 A801     		testb	$1, %al	#, flags
 282              		.loc 2 181 0
 283 0162 89C3     		movl	%eax, %ebx	#, flags
 284              	.LVL15:
 285              		.loc 2 182 0
 286 0164 7409     		je	.L26	#,
 287              		.loc 2 182 0 is_stmt 0 discriminator 1
 288 0166 A1200000 		movl	shelltp2, %eax	# shelltp2,
 288      00
 289              	.LVL16:
 290 016b 85C0     		testl	%eax, %eax	#
 291 016d 7431     		je	.L35	#,
 292              	.L26:
 293              		.loc 2 186 0 is_stmt 1
 294 016f 83E302   		andl	$2, %ebx	#, flags
 295              	.LVL17:
 296 0172 7423     		je	.L25	#,
 297              	.LVL18:
 298              	.LBB5:
 299              	.LBB6:
 300              		.loc 2 187 0
 301 0174 A1280000 		movl	cdtp, %eax	# cdtp, cdtp
 301      00
 302 0179 C7442404 		movl	$.LC3, 4(%esp)	#,
 302      54000000 
 303 0181 890424   		movl	%eax, (%esp)	# cdtp,
 304 0184 E8FCFFFF 		call	chMsgSend	#
 304      FF
 305              	.LVL19:
 306              		.loc 2 188 0
 307              	#APP
GAS LISTING /tmp/cc8J0g7T.s 			page 10


 308              	# 188 "main.c" 1
 146              	}
 147              	
 148              	static EventListener sd1fel, sd2fel;
 149              	
 150              	/**
 151              	 * @brief SD1 status change handler.
 152              	 *
 153              	 * @param[in] id event id.
 154              	 */
 155              	static void sd1_handler(eventid_t id) {
 156              	  flagsmask_t flags;
 157              	
 158              	  (void)id;
 159              	  flags = chEvtGetAndClearFlags(&sd1fel);
 160              	  if ((flags & CHN_CONNECTED) && (shelltp1 == NULL)) {
 161              	    cputs("Init: connection on SD1");
 162              	    shelltp1 = shellCreate(&shell_cfg1, SHELL_WA_SIZE, NORMALPRIO + 1);
 163              	  }
 164              	  if (flags & CHN_DISCONNECTED) {
 165              	    cputs("Init: disconnection on SD1");
 166              	    chSysLock();
 167              	    chIQResetI(&SD1.iqueue);
 168              	    chSysUnlock();
 169              	  }
 170              	}
 171              	
 172              	/**
 173              	 * @brief SD2 status change handler.
 174              	 *
 175              	 * @param[in] id event id.
 176              	 */
 177              	static void sd2_handler(eventid_t id) {
 178              	  flagsmask_t flags;
 179              	
 180              	  (void)id;
 181              	  flags = chEvtGetAndClearFlags(&sd2fel);
 182              	  if ((flags & CHN_CONNECTED) && (shelltp2 == NULL)) {
 183              	    cputs("Init: connection on SD2");
 184              	    shelltp2 = shellCreate(&shell_cfg2, SHELL_WA_SIZE, NORMALPRIO + 10);
 185              	  }
 186              	  if (flags & CHN_DISCONNECTED) {
 187              	    cputs("Init: disconnection on SD2");
 188 0189 90       	    chSysLock();
 189              	    chIQResetI(&SD2.iqueue);
 309              		nop
 310              	# 0 "" 2
 311              		.loc 2 189 0
 312              	#NO_APP
 313 018a C704240C 		movl	$SD2+12, (%esp)	#,
 313      000000
 314 0191 E8FCFFFF 		call	chIQResetI	#
 314      FF
 315              	.LVL20:
 316              		.loc 2 190 0
 317              	#APP
 318              	# 190 "main.c" 1
GAS LISTING /tmp/cc8J0g7T.s 			page 11


 190 0196 90       	    chSysUnlock();
 191              	  }
 319              		nop
 320              	# 0 "" 2
 321              	.LVL21:
 322              	#NO_APP
 323              	.L25:
 324              	.LBE6:
 325              	.LBE5:
 326              		.loc 2 192 0
 327 0197 83C418   		addl	$24, %esp	#,
 328              		.cfi_remember_state
 329              		.cfi_def_cfa_offset 8
 330 019a 5B       		popl	%ebx	#
 331              		.cfi_restore 3
 332              		.cfi_def_cfa_offset 4
 333 019b C3       		ret
 334              	.LVL22:
 335 019c 8D742600 		.p2align 4,,7
 336              		.p2align 3
 337              	.L35:
 338              		.cfi_restore_state
 339              		.loc 2 183 0
 340 01a0 A1280000 		movl	cdtp, %eax	# cdtp, cdtp
 340      00
 341 01a5 C7442404 		movl	$.LC2, 4(%esp)	#,
 341      3C000000 
 342 01ad 890424   		movl	%eax, (%esp)	# cdtp,
 343 01b0 E8FCFFFF 		call	chMsgSend	#
 343      FF
 344              	.LVL23:
 345              		.loc 2 184 0
 346 01b5 C7442408 		movl	$74, 8(%esp)	#,
 346      4A000000 
 347 01bd C7442404 		movl	$20592, 4(%esp)	#,
 347      70500000 
 348 01c5 C704243C 		movl	$shell_cfg2, (%esp)	#,
 348      000000
 349 01cc E8FCFFFF 		call	shellCreate	#
 349      FF
 350              	.LVL24:
 351 01d1 A3200000 		movl	%eax, shelltp2	# shelltp2.4, shelltp2
 351      00
 352 01d6 EB97     		jmp	.L26	#
 353              		.cfi_endproc
 354              	.LFE46:
 355              		.size	sd2_handler, .-sd2_handler
 356              		.section	.rodata.str1.1
 357              	.LC4:
 358 006f 496E6974 		.string	"Init: connection on SD1"
 358      3A20636F 
 358      6E6E6563 
 358      74696F6E 
 358      206F6E20 
 359              	.LC5:
 360 0087 496E6974 		.string	"Init: disconnection on SD1"
 360      3A206469 
GAS LISTING /tmp/cc8J0g7T.s 			page 12


 360      73636F6E 
 360      6E656374 
 360      696F6E20 
 361              		.text
 362 01d8 908DB426 		.p2align 4,,15
 362      00000000 
 363              		.type	sd1_handler, @function
 364              	sd1_handler:
 365              	.LFB45:
 366              		.loc 2 155 0
 367              		.cfi_startproc
 368              	.LVL25:
 369 01e0 53       		pushl	%ebx	#
 370              		.cfi_def_cfa_offset 8
 371              		.cfi_offset 3, -8
 372 01e1 83EC18   		subl	$24, %esp	#,
 373              		.cfi_def_cfa_offset 32
 374              		.loc 2 159 0
 375 01e4 C7042410 		movl	$sd1fel, (%esp)	#,
 375      000000
 376 01eb E8FCFFFF 		call	chEvtGetAndClearFlags	#
 376      FF
 377              	.LVL26:
 378              		.loc 2 160 0
 379 01f0 A801     		testb	$1, %al	#, flags
 380              		.loc 2 159 0
 381 01f2 89C3     		movl	%eax, %ebx	#, flags
 382              	.LVL27:
 383              		.loc 2 160 0
 384 01f4 7409     		je	.L37	#,
 385              		.loc 2 160 0 is_stmt 0 discriminator 1
 386 01f6 A1240000 		movl	shelltp1, %eax	# shelltp1,
 386      00
 387              	.LVL28:
 388 01fb 85C0     		testl	%eax, %eax	#
 389 01fd 7431     		je	.L46	#,
 390              	.L37:
 391              		.loc 2 164 0 is_stmt 1
 392 01ff 83E302   		andl	$2, %ebx	#, flags
 393              	.LVL29:
 394 0202 7423     		je	.L36	#,
 395              	.LVL30:
 396              	.LBB9:
 397              	.LBB10:
 398              		.loc 2 165 0
 399 0204 A1280000 		movl	cdtp, %eax	# cdtp, cdtp
 399      00
 400 0209 C7442404 		movl	$.LC5, 4(%esp)	#,
 400      87000000 
 401 0211 890424   		movl	%eax, (%esp)	# cdtp,
 402 0214 E8FCFFFF 		call	chMsgSend	#
 402      FF
 403              	.LVL31:
 404              		.loc 2 166 0
 405              	#APP
 406              	# 166 "main.c" 1
 407              		nop
GAS LISTING /tmp/cc8J0g7T.s 			page 13


 408              	# 0 "" 2
 409              		.loc 2 167 0
 410              	#NO_APP
 411 021a C704240C 		movl	$SD1+12, (%esp)	#,
 411      000000
 412 0221 E8FCFFFF 		call	chIQResetI	#
 412      FF
 413              	.LVL32:
 414              		.loc 2 168 0
 415              	#APP
 416              	# 168 "main.c" 1
 417              		nop
 418              	# 0 "" 2
 419              	.LVL33:
 420              	#NO_APP
 421              	.L36:
 422              	.LBE10:
 423              	.LBE9:
 424              		.loc 2 170 0
 425 0227 83C418   		addl	$24, %esp	#,
 426              		.cfi_remember_state
 427              		.cfi_def_cfa_offset 8
 428 022a 5B       		popl	%ebx	#
 429              		.cfi_restore 3
 430              		.cfi_def_cfa_offset 4
 431 022b C3       		ret
 432              	.LVL34:
 433 022c 8D742600 		.p2align 4,,7
 434              		.p2align 3
 435              	.L46:
 436              		.cfi_restore_state
 437              		.loc 2 161 0
 438 0230 A1280000 		movl	cdtp, %eax	# cdtp, cdtp
 438      00
 439 0235 C7442404 		movl	$.LC4, 4(%esp)	#,
 439      6F000000 
 440 023d 890424   		movl	%eax, (%esp)	# cdtp,
 441 0240 E8FCFFFF 		call	chMsgSend	#
 441      FF
 442              	.LVL35:
 443              		.loc 2 162 0
 444 0245 C7442408 		movl	$65, 8(%esp)	#,
 444      41000000 
 445 024d C7442404 		movl	$20592, 4(%esp)	#,
 445      70500000 
 446 0255 C7042444 		movl	$shell_cfg1, (%esp)	#,
 446      000000
 447 025c E8FCFFFF 		call	shellCreate	#
 447      FF
 448              	.LVL36:
 449 0261 A3240000 		movl	%eax, shelltp1	# shelltp1.10, shelltp1
 449      00
 450 0266 EB97     		jmp	.L37	#
 451              		.cfi_endproc
 452              	.LFE45:
 453              		.size	sd1_handler, .-sd1_handler
 454              		.section	.rodata.str1.1
GAS LISTING /tmp/cc8J0g7T.s 			page 14


 455              	.LC6:
 456 00a2 55736167 		.string	"Usage: test\r\n"
 456      653A2074 
 456      6573740D 
 456      0A00
 457              	.LC7:
 458 00b0 6F757420 		.string	"out of memory\r\n"
 458      6F66206D 
 458      656D6F72 
 458      790D0A00 
 459              		.text
 460 0268 908DB426 		.p2align 4,,15
 460      00000000 
 461              		.type	cmd_test, @function
 462              	cmd_test:
 463              	.LFB42:
 464              		.loc 2 69 0
 465              		.cfi_startproc
 466              	.LVL37:
 467 0270 53       		pushl	%ebx	#
 468              		.cfi_def_cfa_offset 8
 469              		.cfi_offset 3, -8
 470 0271 83EC28   		subl	$40, %esp	#,
 471              		.cfi_def_cfa_offset 48
 472              		.loc 2 73 0
 473 0274 8B442434 		movl	52(%esp), %eax	# argc,
 474              		.loc 2 69 0
 475 0278 8B5C2430 		movl	48(%esp), %ebx	# chp, chp
 476              		.loc 2 73 0
 477 027c 85C0     		testl	%eax, %eax	#
 478 027e 7E18     		jle	.L48	#,
 479              		.loc 2 74 0
 480 0280 C7442434 		movl	$.LC6, 52(%esp)	#,
 480      A2000000 
 481              	.LVL38:
 482              		.loc 2 84 0
 483 0288 83C428   		addl	$40, %esp	#,
 484              		.cfi_remember_state
 485              		.cfi_def_cfa_offset 8
 486 028b 5B       		popl	%ebx	#
 487              		.cfi_restore 3
 488              		.cfi_def_cfa_offset 4
 489              		.loc 2 74 0
 490 028c E96FFDFF 		jmp	chprintf	#
 490      FF
 491              	.LVL39:
 492              		.p2align 4,,7
 493 0291 8DB42600 		.p2align 3
 493      000000
 494              	.L48:
 495              		.cfi_restore_state
 496              	.LBB13:
 497              	.LBB14:
 498              		.loc 2 77 0
 499 0298 A1180000 		movl	rlist+24, %eax	# rlist.r_current, rlist.r_current
 499      00
 500              	.LVL40:
GAS LISTING /tmp/cc8J0g7T.s 			page 15


 501 029d 895C2410 		movl	%ebx, 16(%esp)	# chp,
 502 02a1 C744240C 		movl	$TestThread, 12(%esp)	#,
 502      00000000 
 503 02a9 8B4008   		movl	8(%eax), %eax	# _8->p_prio, _8->p_prio
 504 02ac C7442404 		movl	$20592, 4(%esp)	#,
 504      70500000 
 505 02b4 C7042400 		movl	$0, (%esp)	#,
 505      000000
 506 02bb 89442408 		movl	%eax, 8(%esp)	# _8->p_prio,
 507 02bf E8FCFFFF 		call	chThdCreateFromHeap	#
 507      FF
 508              	.LVL41:
 509              		.loc 2 79 0
 510 02c4 85C0     		testl	%eax, %eax	# tp
 511 02c6 7410     		je	.L51	#,
 512              		.loc 2 83 0
 513 02c8 89442430 		movl	%eax, 48(%esp)	# tp,
 514              	.LBE14:
 515              	.LBE13:
 516              		.loc 2 84 0
 517 02cc 83C428   		addl	$40, %esp	#,
 518              		.cfi_remember_state
 519              		.cfi_def_cfa_offset 8
 520 02cf 5B       		popl	%ebx	#
 521              		.cfi_restore 3
 522              		.cfi_def_cfa_offset 4
 523              	.LVL42:
 524              	.LBB17:
 525              	.LBB15:
 526              		.loc 2 83 0
 527 02d0 E9FCFFFF 		jmp	chThdWait	#
 527      FF
 528              	.LVL43:
 529              		.p2align 4,,7
 530 02d5 8D7600   		.p2align 3
 531              	.L51:
 532              		.cfi_restore_state
 533              		.loc 2 80 0
 534 02d8 895C2430 		movl	%ebx, 48(%esp)	# chp,
 535 02dc C7442434 		movl	$.LC7, 52(%esp)	#,
 535      B0000000 
 536              	.LVL44:
 537              	.LBE15:
 538              	.LBE17:
 539              		.loc 2 84 0
 540 02e4 83C428   		addl	$40, %esp	#,
 541              		.cfi_def_cfa_offset 8
 542 02e7 5B       		popl	%ebx	#
 543              		.cfi_restore 3
 544              		.cfi_def_cfa_offset 4
 545              	.LVL45:
 546              	.LBB18:
 547              	.LBB16:
 548              		.loc 2 80 0
 549 02e8 E913FDFF 		jmp	chprintf	#
 549      FF
 550              	.LVL46:
GAS LISTING /tmp/cc8J0g7T.s 			page 16


 551              	.LBE16:
 552              	.LBE18:
 553              		.cfi_endproc
 554              	.LFE42:
 555              		.size	cmd_test, .-cmd_test
 556              		.section	.rodata.str1.1
 557              	.LC8:
 558 00c0 55736167 		.string	"Usage: threads\r\n"
 558      653A2074 
 558      68726561 
 558      64730D0A 
 558      00
 559              		.section	.rodata.str1.4,"aMS",@progbits,1
 560              		.align 4
 561              	.LC9:
 562 0000 20202020 		.string	"    addr    stack prio refs     state time\r\n"
 562      61646472 
 562      20202020 
 562      73746163 
 562      6B207072 
 563 002d 000000   		.align 4
 564              	.LC10:
 565 0030 252E386C 		.string	"%.8lx %.8lx %4lu %4lu %9s %lu\r\n"
 565      7820252E 
 565      386C7820 
 565      25346C75 
 565      2025346C 
 566              		.text
 567 02ed 8D7600   		.p2align 4,,15
 568              		.type	cmd_threads, @function
 569              	cmd_threads:
 570              	.LFB41:
 571              		.loc 2 49 0
 572              		.cfi_startproc
 573              	.LVL47:
 574 02f0 56       		pushl	%esi	#
 575              		.cfi_def_cfa_offset 8
 576              		.cfi_offset 6, -8
 577 02f1 53       		pushl	%ebx	#
 578              		.cfi_def_cfa_offset 12
 579              		.cfi_offset 3, -12
 580 02f2 83EC24   		subl	$36, %esp	#,
 581              		.cfi_def_cfa_offset 48
 582              		.loc 2 54 0
 583 02f5 8B442434 		movl	52(%esp), %eax	# argc,
 584              		.loc 2 49 0
 585 02f9 8B742430 		movl	48(%esp), %esi	# chp, chp
 586              		.loc 2 54 0
 587 02fd 85C0     		testl	%eax, %eax	#
 588 02ff 7E17     		jle	.L53	#,
 589              		.loc 2 55 0
 590 0301 C7442434 		movl	$.LC8, 52(%esp)	#,
 590      C0000000 
 591              	.LVL48:
 592              		.loc 2 67 0
 593 0309 83C424   		addl	$36, %esp	#,
 594              		.cfi_remember_state
GAS LISTING /tmp/cc8J0g7T.s 			page 17


 595              		.cfi_def_cfa_offset 12
 596 030c 5B       		popl	%ebx	#
 597              		.cfi_restore 3
 598              		.cfi_def_cfa_offset 8
 599 030d 5E       		popl	%esi	#
 600              		.cfi_restore 6
 601              		.cfi_def_cfa_offset 4
 602              		.loc 2 55 0
 603 030e E9EDFCFF 		jmp	chprintf	#
 603      FF
 604              	.LVL49:
 605              		.p2align 4,,7
 606 0313 908D7426 		.p2align 3
 606      00
 607              	.L53:
 608              		.cfi_restore_state
 609              	.LBB21:
 610              	.LBB22:
 611              		.loc 2 58 0
 612 0318 C7442404 		movl	$.LC9, 4(%esp)	#,
 612      00000000 
 613 0320 893424   		movl	%esi, (%esp)	# chp,
 614 0323 E8D8FCFF 		call	chprintf	#
 614      FF
 615              	.LVL50:
 616              		.loc 2 59 0
 617 0328 E8FCFFFF 		call	chRegFirstThread	#
 617      FF
 618              	.LVL51:
 619 032d 89C3     		movl	%eax, %ebx	#, tp
 620              	.LVL52:
 621 032f 90       		.p2align 4,,7
 622              		.p2align 3
 623              	.L55:
 624              		.loc 2 61 0
 625 0330 8B4320   		movl	32(%ebx), %eax	# tp_9->p_time, D.4068
 626              	.LVL53:
 627 0333 8944241C 		movl	%eax, 28(%esp)	# D.4068,
 628 0337 0FB6431C 		movzbl	28(%ebx), %eax	# tp_9->p_state, D.4070
 629 033b 8B048500 		movl	states.3822(,%eax,4), %eax	# states, tmp77
 629      000000
 630 0342 89442418 		movl	%eax, 24(%esp)	# tmp77,
 631              		.loc 2 63 0
 632 0346 0FB6431E 		movzbl	30(%ebx), %eax	# tp_9->p_refs, D.4070
 633 034a 83E801   		subl	$1, %eax	#, D.4070
 634              		.loc 2 61 0
 635 034d 89442414 		movl	%eax, 20(%esp)	# D.4070,
 636 0351 8B4308   		movl	8(%ebx), %eax	# tp_9->p_prio, tp_9->p_prio
 637 0354 89442410 		movl	%eax, 16(%esp)	# tp_9->p_prio,
 638 0358 8B430C   		movl	12(%ebx), %eax	# tp_9->p_ctx.esp, tp_9->p_ctx.esp
 639 035b 895C2408 		movl	%ebx, 8(%esp)	# tp,
 640 035f C7442404 		movl	$.LC10, 4(%esp)	#,
 640      30000000 
 641 0367 893424   		movl	%esi, (%esp)	# chp,
 642 036a 8944240C 		movl	%eax, 12(%esp)	# tp_9->p_ctx.esp,
 643 036e E88DFCFF 		call	chprintf	#
 643      FF
GAS LISTING /tmp/cc8J0g7T.s 			page 18


 644              	.LVL54:
 645              		.loc 2 65 0
 646 0373 891C24   		movl	%ebx, (%esp)	# tp,
 647 0376 E8FCFFFF 		call	chRegNextThread	#
 647      FF
 648              	.LVL55:
 649              		.loc 2 66 0
 650 037b 85C0     		testl	%eax, %eax	# tp
 651              		.loc 2 65 0
 652 037d 89C3     		movl	%eax, %ebx	#, tp
 653              	.LVL56:
 654              		.loc 2 66 0
 655 037f 75AF     		jne	.L55	#,
 656              	.LBE22:
 657              	.LBE21:
 658              		.loc 2 67 0
 659 0381 83C424   		addl	$36, %esp	#,
 660              		.cfi_def_cfa_offset 12
 661 0384 5B       		popl	%ebx	#
 662              		.cfi_restore 3
 663              		.cfi_def_cfa_offset 8
 664 0385 5E       		popl	%esi	#
 665              		.cfi_restore 6
 666              		.cfi_def_cfa_offset 4
 667              	.LVL57:
 668 0386 C3       		ret
 669              		.cfi_endproc
 670              	.LFE41:
 671              		.size	cmd_threads, .-cmd_threads
 672              		.section	.rodata.str1.1
 673              	.LC11:
 674 00d1 55736167 		.string	"Usage: mem\r\n"
 674      653A206D 
 674      656D0D0A 
 674      00
 675              	.LC12:
 676 00de 636F7265 		.string	"core free memory : %u bytes\r\n"
 676      20667265 
 676      65206D65 
 676      6D6F7279 
 676      203A2025 
 677              	.LC13:
 678 00fc 68656170 		.string	"heap fragments   : %u\r\n"
 678      20667261 
 678      676D656E 
 678      74732020 
 678      203A2025 
 679              	.LC14:
 680 0114 68656170 		.string	"heap free total  : %u bytes\r\n"
 680      20667265 
 680      6520746F 
 680      74616C20 
 680      203A2025 
 681              		.text
 682 0387 89F68DBC 		.p2align 4,,15
 682      27000000 
 682      00
GAS LISTING /tmp/cc8J0g7T.s 			page 19


 683              		.type	cmd_mem, @function
 684              	cmd_mem:
 685              	.LFB40:
 686              		.loc 2 35 0
 687              		.cfi_startproc
 688              	.LVL58:
 689 0390 56       		pushl	%esi	#
 690              		.cfi_def_cfa_offset 8
 691              		.cfi_offset 6, -8
 692 0391 53       		pushl	%ebx	#
 693              		.cfi_def_cfa_offset 12
 694              		.cfi_offset 3, -12
 695 0392 83EC24   		subl	$36, %esp	#,
 696              		.cfi_def_cfa_offset 48
 697              		.loc 2 39 0
 698 0395 8B442434 		movl	52(%esp), %eax	# argc,
 699              		.loc 2 35 0
 700 0399 8B5C2430 		movl	48(%esp), %ebx	# chp, chp
 701              		.loc 2 39 0
 702 039d 85C0     		testl	%eax, %eax	#
 703 039f 7E17     		jle	.L58	#,
 704              		.loc 2 40 0
 705 03a1 891C24   		movl	%ebx, (%esp)	# chp,
 706 03a4 C7442404 		movl	$.LC11, 4(%esp)	#,
 706      D1000000 
 707 03ac E84FFCFF 		call	chprintf	#
 707      FF
 708              	.LVL59:
 709              		.loc 2 47 0
 710 03b1 83C424   		addl	$36, %esp	#,
 711              		.cfi_remember_state
 712              		.cfi_def_cfa_offset 12
 713 03b4 5B       		popl	%ebx	#
 714              		.cfi_restore 3
 715              		.cfi_def_cfa_offset 8
 716 03b5 5E       		popl	%esi	#
 717              		.cfi_restore 6
 718              		.cfi_def_cfa_offset 4
 719 03b6 C3       		ret
 720              		.p2align 4,,7
 721 03b7 90       		.p2align 3
 722              	.L58:
 723              		.cfi_restore_state
 724              	.LVL60:
 725              	.LBB25:
 726              	.LBB26:
 727              		.loc 2 43 0
 728 03b8 8D44241C 		leal	28(%esp), %eax	#, tmp65
 729              	.LVL61:
 730 03bc 89442404 		movl	%eax, 4(%esp)	# tmp65,
 731 03c0 C7042400 		movl	$0, (%esp)	#,
 731      000000
 732 03c7 E8FCFFFF 		call	chHeapStatus	#
 732      FF
 733              	.LVL62:
 734 03cc 89C6     		movl	%eax, %esi	#, n
 735              	.LVL63:
GAS LISTING /tmp/cc8J0g7T.s 			page 20


 736              		.loc 2 44 0
 737 03ce E8FCFFFF 		call	chCoreStatus	#
 737      FF
 738              	.LVL64:
 739 03d3 891C24   		movl	%ebx, (%esp)	# chp,
 740 03d6 C7442404 		movl	$.LC12, 4(%esp)	#,
 740      DE000000 
 741 03de 89442408 		movl	%eax, 8(%esp)	# D.4084,
 742 03e2 E819FCFF 		call	chprintf	#
 742      FF
 743              	.LVL65:
 744              		.loc 2 45 0
 745 03e7 89742408 		movl	%esi, 8(%esp)	# n,
 746 03eb 891C24   		movl	%ebx, (%esp)	# chp,
 747 03ee C7442404 		movl	$.LC13, 4(%esp)	#,
 747      FC000000 
 748 03f6 E805FCFF 		call	chprintf	#
 748      FF
 749              	.LVL66:
 750              		.loc 2 46 0
 751 03fb 8B44241C 		movl	28(%esp), %eax	# size, size
 752 03ff 891C24   		movl	%ebx, (%esp)	# chp,
 753 0402 C7442404 		movl	$.LC14, 4(%esp)	#,
 753      14010000 
 754 040a 89442408 		movl	%eax, 8(%esp)	# size,
 755 040e E8EDFBFF 		call	chprintf	#
 755      FF
 756              	.LVL67:
 757              	.LBE26:
 758              	.LBE25:
 759              		.loc 2 47 0
 760 0413 83C424   		addl	$36, %esp	#,
 761              		.cfi_def_cfa_offset 12
 762 0416 5B       		popl	%ebx	#
 763              		.cfi_restore 3
 764              		.cfi_def_cfa_offset 8
 765              	.LVL68:
 766 0417 5E       		popl	%esi	#
 767              		.cfi_restore 6
 768              		.cfi_def_cfa_offset 4
 769              	.LVL69:
 770 0418 C3       		ret
 771              		.cfi_endproc
 772              	.LFE40:
 773              		.size	cmd_mem, .-cmd_mem
 774              		.section	.rodata.str1.4
 775              		.align 4
 776              	.LC15:
 777 0050 5368656C 		.string	"Shell service started on SD1, SD2"
 777      6C207365 
 777      72766963 
 777      65207374 
 777      61727465 
 778 0072 0000     		.align 4
 779              	.LC16:
 780 0074 20202D20 		.string	"  - Listening for connections on SD1"
 780      4C697374 
GAS LISTING /tmp/cc8J0g7T.s 			page 21


 780      656E696E 
 780      6720666F 
 780      7220636F 
 781 0099 000000   		.align 4
 782              	.LC17:
 783 009c 20202D20 		.string	"  - Listening for connections on SD2"
 783      4C697374 
 783      656E696E 
 783      6720666F 
 783      7220636F 
 784              		.section	.text.startup,"ax",@progbits
 785              		.p2align 4,,15
 786              		.globl	main
 787              		.type	main, @function
 788              	main:
 789              	.LFB47:
 790              		.loc 2 203 0
 791              		.cfi_startproc
 792 0000 55       		pushl	%ebp	#
 793              		.cfi_def_cfa_offset 8
 794              		.cfi_offset 5, -8
 795 0001 89E5     		movl	%esp, %ebp	#,
 796              		.cfi_def_cfa_register 5
 797 0003 83E4F0   		andl	$-16, %esp	#,
 798 0006 83EC30   		subl	$48, %esp	#,
 799              		.loc 2 213 0
 800 0009 E8FCFFFF 		call	halInit	#
 800      FF
 801              	.LVL70:
 802              		.loc 2 214 0
 803 000e E8FCFFFF 		call	chSysInit	#
 803      FF
 804              	.LVL71:
 805              		.loc 2 219 0
 806 0013 C7442404 		movl	$0, 4(%esp)	#,
 806      00000000 
 807 001b C7042400 		movl	$SD1, (%esp)	#,
 807      000000
 808 0022 E8FCFFFF 		call	sdStart	#
 808      FF
 809              	.LVL72:
 810              		.loc 2 220 0
 811 0027 C7442404 		movl	$0, 4(%esp)	#,
 811      00000000 
 812 002f C7042400 		movl	$SD2, (%esp)	#,
 812      000000
 813 0036 E8FCFFFF 		call	sdStart	#
 813      FF
 814              	.LVL73:
 815              		.loc 2 225 0
 816 003b E8FCFFFF 		call	shellInit	#
 816      FF
 817              	.LVL74:
 818              		.loc 2 226 0
 819 0040 8D442420 		leal	32(%esp), %eax	#, tmp73
 820 0044 89442404 		movl	%eax, 4(%esp)	# tmp73,
 821 0048 C7442408 		movl	$1, 8(%esp)	#,
GAS LISTING /tmp/cc8J0g7T.s 			page 22


 821      01000000 
 822 0050 C7042400 		movl	$shell_terminated, (%esp)	#,
 822      000000
 823 0057 E8FCFFFF 		call	chEvtRegisterMask	#
 823      FF
 824              	.LVL75:
 825              		.loc 2 231 0
 826 005c C7442410 		movl	$0, 16(%esp)	#,
 826      00000000 
 827 0064 C744240C 		movl	$console_thread, 12(%esp)	#,
 827      F0000000 
 828 006c C7442408 		movl	$65, 8(%esp)	#,
 828      41000000 
 829 0074 C7442404 		movl	$20592, 4(%esp)	#,
 829      70500000 
 830 007c C7042400 		movl	$0, (%esp)	#,
 830      000000
 831 0083 E8FCFFFF 		call	chThdCreateFromHeap	#
 831      FF
 832              	.LVL76:
 833              		.loc 2 237 0
 834 0088 C7442404 		movl	$.LC15, 4(%esp)	#,
 834      50000000 
 835 0090 890424   		movl	%eax, (%esp)	# cdtp.0,
 836              		.loc 2 231 0
 837 0093 A3280000 		movl	%eax, cdtp	# cdtp.0, cdtp
 837      00
 838              		.loc 2 237 0
 839 0098 E8FCFFFF 		call	chMsgSend	#
 839      FF
 840              	.LVL77:
 841              		.loc 2 238 0
 842 009d A1280000 		movl	cdtp, %eax	# cdtp, cdtp
 842      00
 843 00a2 C7442404 		movl	$.LC16, 4(%esp)	#,
 843      74000000 
 844 00aa 890424   		movl	%eax, (%esp)	# cdtp,
 845 00ad E8FCFFFF 		call	chMsgSend	#
 845      FF
 846              	.LVL78:
 847              		.loc 2 239 0
 848 00b2 C7442408 		movl	$2, 8(%esp)	#,
 848      02000000 
 849 00ba C7442404 		movl	$sd1fel, 4(%esp)	#,
 849      10000000 
 850 00c2 C7042404 		movl	$SD1+4, (%esp)	#,
 850      000000
 851 00c9 E8FCFFFF 		call	chEvtRegisterMask	#
 851      FF
 852              	.LVL79:
 853              		.loc 2 240 0
 854 00ce A1280000 		movl	cdtp, %eax	# cdtp, cdtp
 854      00
 855 00d3 C7442404 		movl	$.LC17, 4(%esp)	#,
 855      9C000000 
 856 00db 890424   		movl	%eax, (%esp)	# cdtp,
 857 00de E8FCFFFF 		call	chMsgSend	#
GAS LISTING /tmp/cc8J0g7T.s 			page 23


 857      FF
 858              	.LVL80:
 859              		.loc 2 241 0
 860 00e3 C7442408 		movl	$4, 8(%esp)	#,
 860      04000000 
 861 00eb C7442404 		movl	$sd2fel, 4(%esp)	#,
 861      00000000 
 862 00f3 C7042404 		movl	$SD2+4, (%esp)	#,
 862      000000
 863 00fa E8FCFFFF 		call	chEvtRegisterMask	#
 863      FF
 864              	.LVL81:
 865              		.loc 2 246 0
 866 00ff A1180000 		movl	rlist+24, %eax	# rlist.r_current, rlist.r_current
 866      00
 867 0104 F6401D04 		testb	$4, 29(%eax)	#,
 868 0108 752D     		jne	.L63	#,
 869 010a 8DB60000 		.p2align 4,,7
 869      0000
 870              		.p2align 3
 871              	.L65:
 872              		.loc 2 247 0
 873 0110 C70424FF 		movl	$-1, (%esp)	#,
 873      FFFFFF
 874 0117 E8FCFFFF 		call	chEvtWaitOne	#
 874      FF
 875              	.LVL82:
 876 011c C7042400 		movl	$fhandlers, (%esp)	#,
 876      000000
 877 0123 89442404 		movl	%eax, 4(%esp)	# D.4094,
 878 0127 E8FCFFFF 		call	chEvtDispatch	#
 878      FF
 879              	.LVL83:
 880              		.loc 2 246 0
 881 012c A1180000 		movl	rlist+24, %eax	# rlist.r_current, rlist.r_current
 881      00
 882 0131 F6401D04 		testb	$4, 29(%eax)	#,
 883 0135 74D9     		je	.L65	#,
 884              	.L63:
 885              		.loc 2 252 0
 886 0137 C7442404 		movl	$sd1fel, 4(%esp)	#,
 886      10000000 
 887 013f C7042404 		movl	$SD1+4, (%esp)	#,
 887      000000
 888 0146 E8FCFFFF 		call	chEvtUnregister	#
 888      FF
 889              	.LVL84:
 890              		.loc 2 253 0
 891 014b C7442404 		movl	$sd2fel, 4(%esp)	#,
 891      00000000 
 892 0153 C7042404 		movl	$SD2+4, (%esp)	#,
 892      000000
 893 015a E8FCFFFF 		call	chEvtUnregister	#
 893      FF
 894              	.LVL85:
 895              		.loc 2 255 0
 896 015f 31C0     		xorl	%eax, %eax	#
GAS LISTING /tmp/cc8J0g7T.s 			page 24


 897 0161 C9       		leave
 898              		.cfi_restore 5
 899              		.cfi_def_cfa 4, 4
 900 0162 C3       		ret
 901              		.cfi_endproc
 902              	.LFE47:
 903              		.size	main, .-main
 904              		.section	.rodata.str1.1
 905              	.LC18:
 906 0132 52454144 		.string	"READY"
 906      5900
 907              	.LC19:
 908 0138 43555252 		.string	"CURRENT"
 908      454E5400 
 909              	.LC20:
 910 0140 53555350 		.string	"SUSPENDED"
 910      454E4445 
 910      4400
 911              	.LC21:
 912 014a 57545345 		.string	"WTSEM"
 912      4D00
 913              	.LC22:
 914 0150 57544D54 		.string	"WTMTX"
 914      5800
 915              	.LC23:
 916 0156 5754434F 		.string	"WTCOND"
 916      4E4400
 917              	.LC24:
 918 015d 534C4545 		.string	"SLEEPING"
 918      50494E47 
 918      00
 919              	.LC25:
 920 0166 57544558 		.string	"WTEXIT"
 920      495400
 921              	.LC26:
 922 016d 57544F52 		.string	"WTOREVT"
 922      45565400 
 923              	.LC27:
 924 0175 5754414E 		.string	"WTANDEVT"
 924      44455654 
 924      00
 925              	.LC28:
 926 017e 534E444D 		.string	"SNDMSGQ"
 926      53475100 
 927              	.LC29:
 928 0186 534E444D 		.string	"SNDMSG"
 928      534700
 929              	.LC30:
 930 018d 57544D53 		.string	"WTMSG"
 930      4700
 931              	.LC31:
 932 0193 57545155 		.string	"WTQUEUE"
 932      45554500 
 933              	.LC32:
 934 019b 46494E41 		.string	"FINAL"
 934      4C00
 935              		.section	.rodata
GAS LISTING /tmp/cc8J0g7T.s 			page 25


 936              		.align 32
 937              		.type	states.3822, @object
 938              		.size	states.3822, 60
 939              	states.3822:
 940 0000 32010000 		.long	.LC18
 941 0004 38010000 		.long	.LC19
 942 0008 40010000 		.long	.LC20
 943 000c 4A010000 		.long	.LC21
 944 0010 50010000 		.long	.LC22
 945 0014 56010000 		.long	.LC23
 946 0018 5D010000 		.long	.LC24
 947 001c 66010000 		.long	.LC25
 948 0020 6D010000 		.long	.LC26
 949 0024 75010000 		.long	.LC27
 950 0028 7E010000 		.long	.LC28
 951 002c 86010000 		.long	.LC29
 952 0030 8D010000 		.long	.LC30
 953 0034 93010000 		.long	.LC31
 954 0038 9B010000 		.long	.LC32
 955              		.data
 956              		.align 4
 957              		.type	fhandlers, @object
 958              		.size	fhandlers, 12
 959              	fhandlers:
 960 0000 30000000 		.long	termination_handler
 961 0004 E0010000 		.long	sd1_handler
 962 0008 50010000 		.long	sd2_handler
 963              		.local	sd2fel
 964              		.comm	sd2fel,16,4
 965              		.local	sd1fel
 966              		.comm	sd1fel,16,4
 967              		.section	.rodata
 968              		.align 4
 969              		.type	shell_cfg2, @object
 970              		.size	shell_cfg2, 8
 971              	shell_cfg2:
 972              	# sc_channel:
 973 003c 00000000 		.long	SD2
 974              	# sc_commands:
 975 0040 60000000 		.long	commands
 976              		.align 4
 977              		.type	shell_cfg1, @object
 978              		.size	shell_cfg1, 8
 979              	shell_cfg1:
 980              	# sc_channel:
 981 0044 00000000 		.long	SD1
 982              	# sc_commands:
 983 0048 60000000 		.long	commands
 984              		.section	.rodata.str1.1
 985              	.LC33:
 986 01a1 6D656D00 		.string	"mem"
 987              	.LC34:
 988 01a5 74687265 		.string	"threads"
 988      61647300 
 989              	.LC35:
 990 01ad 74657374 		.string	"test"
 990      00
GAS LISTING /tmp/cc8J0g7T.s 			page 26


 991              		.section	.rodata
 992 004c 00000000 		.align 32
 992      00000000 
 992      00000000 
 992      00000000 
 992      00000000 
 993              		.type	commands, @object
 994              		.size	commands, 32
 995              	commands:
 996              	# sc_name:
 997 0060 A1010000 		.long	.LC33
 998              	# sc_function:
 999 0064 90030000 		.long	cmd_mem
 1000              	# sc_name:
 1001 0068 A5010000 		.long	.LC34
 1002              	# sc_function:
 1003 006c F0020000 		.long	cmd_threads
 1004              	# sc_name:
 1005 0070 AD010000 		.long	.LC35
 1006              	# sc_function:
 1007 0074 70020000 		.long	cmd_test
 1008              	# sc_name:
 1009 0078 00000000 		.long	0
 1010              	# sc_function:
 1011 007c 00000000 		.long	0
 1012              		.local	shelltp2
 1013              		.comm	shelltp2,4,4
 1014              		.local	shelltp1
 1015              		.comm	shelltp1,4,4
 1016              		.local	cdtp
 1017              		.comm	cdtp,4,4
 1018              		.text
 1019              	.Letext0:
 1020              		.file 3 "/usr/lib/gcc/x86_64-linux-gnu/4.8/include/stddef.h"
 1021              		.file 4 "/usr/include/bits/types.h"
 1022              		.file 5 "/usr/include/libio.h"
 1023              		.file 6 "/usr/lib/gcc/x86_64-linux-gnu/4.8/include/stdarg.h"
 1024              		.file 7 "/usr/include/stdio.h"
 1025              		.file 8 "/usr/include/stdint.h"
 1026              		.file 9 "../../os/ports/GCC/SIMIA32/chtypes.h"
 1027              		.file 10 "../../os/kernel/include/chlists.h"
 1028              		.file 11 "../../os/kernel/include/chthreads.h"
 1029              		.file 12 "../../os/ports/GCC/SIMIA32/chcore.h"
 1030              		.file 13 "../../os/kernel/include/chschd.h"
 1031              		.file 14 "../../os/kernel/include/chmtx.h"
 1032              		.file 15 "../../os/kernel/include/chevents.h"
 1033              		.file 16 "../../os/kernel/include/chmemcore.h"
 1034              		.file 17 "../../os/kernel/include/chheap.h"
 1035              		.file 18 "../../os/kernel/include/chqueues.h"
 1036              		.file 19 "../../os/kernel/include/chstreams.h"
 1037              		.file 20 "../../os/hal/include/serial.h"
 1038              		.file 21 "../../os/hal/platforms/Posix/serial_lld.h"
 1039              		.file 22 "../../os/various/shell.h"
 1040              		.file 23 "../../os/kernel/include/chmsg.h"
 1041              		.file 24 "../../os/kernel/include/chdynamic.h"
 1042              		.file 25 "../../os/kernel/include/chregistry.h"
 1043              		.file 26 "../../os/hal/include/hal.h"
GAS LISTING /tmp/cc8J0g7T.s 			page 27


 1044              		.file 27 "../../os/kernel/include/chsys.h"
 5400              		.section	.note.GNU-stack,"",@progbits
GAS LISTING /tmp/cc8J0g7T.s 			page 111

