GAS LISTING /tmp/ccolVoYc.s 			page 1


   1              		.file	"chcore.c"
   2              	# GNU C (Ubuntu 4.8.2-19ubuntu1) version 4.8.2 (x86_64-linux-gnu)
   3              	#	compiled by GNU C version 4.8.2, GMP version 5.1.3, MPFR version 3.1.2-p3, MPC version 1.0.1
   4              	# GGC heuristics: --param ggc-min-expand=97 --param ggc-min-heapsize=126309
   5              	# options passed:  -I . -I ../../../os/ports/GCC/SIMIA32
   6              	# -I ../../../os/kernel/include -I ../../../test -I ../../../os/hal/include
   7              	# -I ../../../os/hal/platforms/Posix -I ../../../boards/simulator
   8              	# -I ../../../os/various -imultilib 32 -imultiarch i386-linux-gnu
   9              	# -MD ../../../os/ports/GCC/SIMIA32/chcore.d -MF .dep/chcore.o.d -MP
  10              	# -MQ ../../../os/ports/GCC/SIMIA32/chcore.o -D SIMULATOR
  11              	# -D SHELL_USE_IPRINTF=FALSE ../../../os/ports/GCC/SIMIA32/chcore.c -m32
  12              	# -mtune=generic -march=i686
  13              	# -auxbase-strip ../../../os/ports/GCC/SIMIA32/chcore.o -ggdb -O2 -Wall
  14              	# -Wextra -Wstrict-prototypes -fomit-frame-pointer -fverbose-asm
  15              	# -fstack-protector -Wformat -Wformat-security
  16              	# options enabled:  -faggressive-loop-optimizations
  17              	# -fasynchronous-unwind-tables -fauto-inc-dec -fbranch-count-reg
  18              	# -fcaller-saves -fcombine-stack-adjustments -fcommon -fcompare-elim
  19              	# -fcprop-registers -fcrossjumping -fcse-follow-jumps -fdefer-pop
  20              	# -fdelete-null-pointer-checks -fdevirtualize -fdwarf2-cfi-asm
  21              	# -fearly-inlining -feliminate-unused-debug-types -fexpensive-optimizations
  22              	# -fforward-propagate -ffunction-cse -fgcse -fgcse-lm -fgnu-runtime
  23              	# -fguess-branch-probability -fhoist-adjacent-loads -fident -fif-conversion
  24              	# -fif-conversion2 -findirect-inlining -finline -finline-atomics
  25              	# -finline-functions-called-once -finline-small-functions -fipa-cp
  26              	# -fipa-profile -fipa-pure-const -fipa-reference -fipa-sra
  27              	# -fira-hoist-pressure -fira-share-save-slots -fira-share-spill-slots
  28              	# -fivopts -fkeep-static-consts -fleading-underscore -fmath-errno
  29              	# -fmerge-constants -fmerge-debug-strings -fmove-loop-invariants
  30              	# -fomit-frame-pointer -foptimize-register-move -foptimize-sibling-calls
  31              	# -foptimize-strlen -fpartial-inlining -fpcc-struct-return -fpeephole
  32              	# -fpeephole2 -fprefetch-loop-arrays -free -fregmove -freorder-blocks
  33              	# -freorder-functions -frerun-cse-after-loop
  34              	# -fsched-critical-path-heuristic -fsched-dep-count-heuristic
  35              	# -fsched-group-heuristic -fsched-interblock -fsched-last-insn-heuristic
  36              	# -fsched-rank-heuristic -fsched-spec -fsched-spec-insn-heuristic
  37              	# -fsched-stalled-insns-dep -fschedule-insns2 -fshow-column -fshrink-wrap
  38              	# -fsigned-zeros -fsplit-ivs-in-unroller -fsplit-wide-types
  39              	# -fstack-protector -fstrict-aliasing -fstrict-overflow
  40              	# -fstrict-volatile-bitfields -fsync-libcalls -fthread-jumps
  41              	# -ftoplevel-reorder -ftrapping-math -ftree-bit-ccp -ftree-builtin-call-dce
  42              	# -ftree-ccp -ftree-ch -ftree-coalesce-vars -ftree-copy-prop
  43              	# -ftree-copyrename -ftree-cselim -ftree-dce -ftree-dominator-opts
  44              	# -ftree-dse -ftree-forwprop -ftree-fre -ftree-loop-if-convert
  45              	# -ftree-loop-im -ftree-loop-ivcanon -ftree-loop-optimize
  46              	# -ftree-parallelize-loops= -ftree-phiprop -ftree-pre -ftree-pta
  47              	# -ftree-reassoc -ftree-scev-cprop -ftree-sink -ftree-slp-vectorize
  48              	# -ftree-slsr -ftree-sra -ftree-switch-conversion -ftree-tail-merge
  49              	# -ftree-ter -ftree-vect-loop-version -ftree-vrp -funit-at-a-time
  50              	# -funwind-tables -fvar-tracking -fvar-tracking-assignments -fverbose-asm
  51              	# -fzero-initialized-in-bss -m32 -m80387 -m96bit-long-double
  52              	# -maccumulate-outgoing-args -malign-stringops -mfancy-math-387
  53              	# -mfp-ret-in-387 -mglibc -mieee-fp -mlong-double-80 -mno-red-zone
  54              	# -mno-sse4 -mpush-args -msahf -mtls-direct-seg-refs
  55              	
  56              		.text
  57              	.Ltext0:
GAS LISTING /tmp/ccolVoYc.s 			page 2


  58              		.p2align 4,,15
  59              		.type	__dummy, @function
  60              	__dummy:
  61              	.LFB25:
  62              		.file 1 "../../../os/ports/GCC/SIMIA32/chcore.c"
  63              		.loc 1 44 0
  64              		.cfi_startproc
  65              	.LVL0:
  66              		.loc 1 47 0
  67              	#APP
  68              	# 47 "../../../os/ports/GCC/SIMIA32/chcore.c" 1
   1              	/*
   2              	    ChibiOS/RT - Copyright (C) 2006,2007,2008,2009,2010,
   3              	                 2011,2012,2013 Giovanni Di Sirio.
   4              	
   5              	    This file is part of ChibiOS/RT.
   6              	
   7              	    ChibiOS/RT is free software; you can redistribute it and/or modify
   8              	    it under the terms of the GNU General Public License as published by
   9              	    the Free Software Foundation; either version 3 of the License, or
  10              	    (at your option) any later version.
  11              	
  12              	    ChibiOS/RT is distributed in the hope that it will be useful,
  13              	    but WITHOUT ANY WARRANTY; without even the implied warranty of
  14              	    MERCHANTABILITY or FITNESS FOR A PARTICULAR PURPOSE.  See the
  15              	    GNU General Public License for more details.
  16              	
  17              	    You should have received a copy of the GNU General Public License
  18              	    along with this program.  If not, see <http://www.gnu.org/licenses/>.
  19              	
  20              	                                      ---
  21              	
  22              	    A special exception to the GPL can be applied should you wish to distribute
  23              	    a combined work that includes ChibiOS/RT, without being obliged to provide
  24              	    the source code for any proprietary components. See the file exception.txt
  25              	    for full details of how and when the exception can be applied.
  26              	*/
  27              	
  28              	/**
  29              	 * @addtogroup SIMIA32_CORE
  30              	 * @{
  31              	 */
  32              	
  33              	#include <stdlib.h>
  34              	
  35              	#include "ch.h"
  36              	#include "hal.h"
  37              	
  38              	/**
  39              	 * Performs a context switch between two threads.
  40              	 * @param otp the thread to be switched out
  41              	 * @param ntp the thread to be switched in
  42              	 */
  43              	__attribute__((used))
  44              	static void __dummy(Thread *ntp, Thread *otp) {
  45              	  (void)ntp; (void)otp;
  46              	
GAS LISTING /tmp/ccolVoYc.s 			page 3


  47              	  asm volatile (
  48 0000 55       	#if defined(WIN32)
  49 0001 56       	                ".globl @port_switch@8                          \n\t"
  50 0002 57       	                "@port_switch@8:"
  51 0003 53       	#elif defined(__APPLE__)
  52 0004 89620C   	                ".globl _port_switch                            \n\t"
  53 0007 8B610C   	                "_port_switch:"
  54 000a 5B       	#else
  55 000b 5F       	                ".globl port_switch                             \n\t"
  56 000c 5E       	                "port_switch:"
  57 000d 5D       	#endif
  58 000e C3       	                "push    %ebp                                   \n\t"
  59              	                "push    %esi                                   \n\t"
  69              		.globl port_switch                             
  70              		port_switch:push    %ebp                                   
  71              		push    %esi                                   
  72              		push    %edi                                   
  73              		push    %ebx                                   
  74              		movl    %esp, 12(%edx)                         
  75              		movl    12(%ecx), %esp                         
  76              		pop     %ebx                                   
  77              		pop     %edi                                   
  78              		pop     %esi                                   
  79              		pop     %ebp                                   
  80              		ret
  81              	# 0 "" 2
  82              	#NO_APP
  83 000f C3       		ret
  84              		.cfi_endproc
  85              	.LFE25:
  86              		.size	__dummy, .-__dummy
  87              		.p2align 4,,15
  88              		.globl	port_halt
  89              		.type	port_halt, @function
  90              	port_halt:
  91              	.LFB26:
  92              		.loc 1 75 0
  93              		.cfi_startproc
  94 0010 83EC1C   		subl	$28, %esp	#,
  95              		.cfi_def_cfa_offset 32
  96              		.loc 1 77 0
  97 0013 C7042402 		movl	$2, (%esp)	#,
  97      000000
  98 001a E8FCFFFF 		call	exit	#
  98      FF
  99              	.LVL1:
 100              		.cfi_endproc
 101              	.LFE26:
 102              		.size	port_halt, .-port_halt
 103 001f 90       		.p2align 4,,15
 104              		.globl	_port_thread_start
 105              		.type	_port_thread_start, @function
 106              	_port_thread_start:
 107              	.LFB27:
 108              		.loc 1 86 0
 109              		.cfi_startproc
 110              	.LVL2:
GAS LISTING /tmp/ccolVoYc.s 			page 4


 111 0020 83EC1C   		subl	$28, %esp	#,
 112              		.cfi_def_cfa_offset 32
 113              		.loc 1 88 0
 114              	#APP
 115              	# 88 "../../../os/ports/GCC/SIMIA32/chcore.c" 1
  60              	                "push    %edi                                   \n\t"
  61              	                "push    %ebx                                   \n\t"
  62              	                "movl    %esp, 12(%edx)                         \n\t"
  63              	                "movl    12(%ecx), %esp                         \n\t"
  64              	                "pop     %ebx                                   \n\t"
  65              	                "pop     %edi                                   \n\t"
  66              	                "pop     %esi                                   \n\t"
  67              	                "pop     %ebp                                   \n\t"
  68              	                "ret");
  69              	}
  70              	
  71              	/**
  72              	 * Halts the system. In this implementation it just exits the simulation.
  73              	 */
  74              	__attribute__((fastcall))
  75              	void port_halt(void) {
  76              	
  77              	  exit(2);
  78              	}
  79              	
  80              	/**
  81              	 * @brief   Start a thread by invoking its work function.
  82              	 * @details If the work function returns @p chThdExit() is automatically
  83              	 *          invoked.
  84              	 */
  85              	__attribute__((cdecl, noreturn))
  86              	void _port_thread_start(msg_t (*pf)(void *), void *p) {
  87              	
  88 0023 90       	  chSysUnlock();
  89              	  chThdExit(pf(p));
 116              		nop
 117              	# 0 "" 2
 118              		.loc 1 89 0
 119              	#NO_APP
 120 0024 8B442424 		movl	36(%esp), %eax	# p, p
 121 0028 890424   		movl	%eax, (%esp)	# p,
 122 002b FF542420 		call	*32(%esp)	# pf
 123              	.LVL3:
 124 002f 890424   		movl	%eax, (%esp)	# D.3647,
 125 0032 E8FCFFFF 		call	chThdExit	#
 125      FF
 126              	.LVL4:
 127              	.L5:
 128 0037 EBFE     		jmp	.L5	#
 129              		.cfi_endproc
 130              	.LFE27:
 131              		.size	_port_thread_start, .-_port_thread_start
 132              	.Letext0:
 133              		.file 2 "/usr/include/sys/types.h"
 134              		.file 3 "/usr/include/stdint.h"
 135              		.file 4 "../../../os/ports/GCC/SIMIA32/chtypes.h"
 136              		.file 5 "../../../os/kernel/include/chlists.h"
GAS LISTING /tmp/ccolVoYc.s 			page 5


 137              		.file 6 "../../../os/kernel/include/chthreads.h"
 138              		.file 7 "../../../os/ports/GCC/SIMIA32/chcore.h"
 139              		.file 8 "../../../os/kernel/include/chmtx.h"
 140              		.file 9 "/usr/include/stdlib.h"
 141              		.section	.debug_info,"",@progbits
 142              	.Ldebug_info0:
 143 0000 2E040000 		.long	0x42e
 144 0004 0400     		.value	0x4
 145 0006 00000000 		.long	.Ldebug_abbrev0
 146 000a 04       		.byte	0x4
 147 000b 01       		.uleb128 0x1
 148 000c 9D010000 		.long	.LASF58
 149 0010 01       		.byte	0x1
 150 0011 3A020000 		.long	.LASF59
 151 0015 40000000 		.long	.LASF60
 152 0019 00000000 		.long	.Ltext0
 153 001d 39000000 		.long	.Letext0-.Ltext0
 154 0021 00000000 		.long	.Ldebug_line0
 155 0025 02       		.uleb128 0x2
 156 0026 04       		.byte	0x4
 157 0027 07       		.byte	0x7
 158 0028 6D010000 		.long	.LASF0
 159 002c 02       		.uleb128 0x2
 160 002d 04       		.byte	0x4
 161 002e 05       		.byte	0x5
 162 002f F9000000 		.long	.LASF1
 163 0033 02       		.uleb128 0x2
 164 0034 01       		.byte	0x1
 165 0035 08       		.byte	0x8
 166 0036 1C010000 		.long	.LASF2
 167 003a 02       		.uleb128 0x2
 168 003b 02       		.byte	0x2
 169 003c 07       		.byte	0x7
 170 003d 8A010000 		.long	.LASF3
 171 0041 02       		.uleb128 0x2
 172 0042 04       		.byte	0x4
 173 0043 07       		.byte	0x7
 174 0044 82020000 		.long	.LASF4
 175 0048 02       		.uleb128 0x2
 176 0049 01       		.byte	0x1
 177 004a 06       		.byte	0x6
 178 004b 31010000 		.long	.LASF5
 179 004f 02       		.uleb128 0x2
 180 0050 02       		.byte	0x2
 181 0051 05       		.byte	0x5
 182 0052 26000000 		.long	.LASF6
 183 0056 03       		.uleb128 0x3
 184 0057 04       		.byte	0x4
 185 0058 05       		.byte	0x5
 186 0059 696E7400 		.string	"int"
 187 005d 02       		.uleb128 0x2
 188 005e 08       		.byte	0x8
 189 005f 05       		.byte	0x5
 190 0060 D3000000 		.long	.LASF7
 191 0064 02       		.uleb128 0x2
 192 0065 08       		.byte	0x8
 193 0066 07       		.byte	0x7
GAS LISTING /tmp/ccolVoYc.s 			page 6


 194 0067 45010000 		.long	.LASF8
 195 006b 02       		.uleb128 0x2
 196 006c 04       		.byte	0x4
 197 006d 07       		.byte	0x7
 198 006e 30000000 		.long	.LASF9
 199 0072 04       		.uleb128 0x4
 200 0073 04       		.byte	0x4
 201 0074 02       		.uleb128 0x2
 202 0075 01       		.byte	0x1
 203 0076 06       		.byte	0x6
 204 0077 19020000 		.long	.LASF10
 205 007b 05       		.uleb128 0x5
 206 007c A9000000 		.long	.LASF11
 207 0080 02       		.byte	0x2
 208 0081 C4       		.byte	0xc4
 209 0082 56000000 		.long	0x56
 210 0086 05       		.uleb128 0x5
 211 0087 97000000 		.long	.LASF12
 212 008b 03       		.byte	0x3
 213 008c 30       		.byte	0x30
 214 008d 33000000 		.long	0x33
 215 0091 05       		.uleb128 0x5
 216 0092 5C010000 		.long	.LASF13
 217 0096 03       		.byte	0x3
 218 0097 33       		.byte	0x33
 219 0098 25000000 		.long	0x25
 220 009c 02       		.uleb128 0x2
 221 009d 01       		.byte	0x1
 222 009e 02       		.byte	0x2
 223 009f 61020000 		.long	.LASF14
 224 00a3 05       		.uleb128 0x5
 225 00a4 CB000000 		.long	.LASF15
 226 00a8 04       		.byte	0x4
 227 00a9 24       		.byte	0x24
 228 00aa 86000000 		.long	0x86
 229 00ae 05       		.uleb128 0x5
 230 00af A3020000 		.long	.LASF16
 231 00b3 04       		.byte	0x4
 232 00b4 25       		.byte	0x25
 233 00b5 86000000 		.long	0x86
 234 00b9 05       		.uleb128 0x5
 235 00ba 12000000 		.long	.LASF17
 236 00be 04       		.byte	0x4
 237 00bf 26       		.byte	0x26
 238 00c0 86000000 		.long	0x86
 239 00c4 05       		.uleb128 0x5
 240 00c5 9F000000 		.long	.LASF18
 241 00c9 04       		.byte	0x4
 242 00ca 27       		.byte	0x27
 243 00cb 86000000 		.long	0x86
 244 00cf 05       		.uleb128 0x5
 245 00d0 E1000000 		.long	.LASF19
 246 00d4 04       		.byte	0x4
 247 00d5 28       		.byte	0x28
 248 00d6 91000000 		.long	0x91
 249 00da 05       		.uleb128 0x5
 250 00db E0020000 		.long	.LASF20
GAS LISTING /tmp/ccolVoYc.s 			page 7


 251 00df 04       		.byte	0x4
 252 00e0 29       		.byte	0x29
 253 00e1 7B000000 		.long	0x7b
 254 00e5 05       		.uleb128 0x5
 255 00e6 68000000 		.long	.LASF21
 256 00ea 04       		.byte	0x4
 257 00eb 2B       		.byte	0x2b
 258 00ec 91000000 		.long	0x91
 259 00f0 05       		.uleb128 0x5
 260 00f1 0F020000 		.long	.LASF22
 261 00f5 04       		.byte	0x4
 262 00f6 2D       		.byte	0x2d
 263 00f7 91000000 		.long	0x91
 264 00fb 05       		.uleb128 0x5
 265 00fc AC020000 		.long	.LASF23
 266 0100 05       		.byte	0x5
 267 0101 2A       		.byte	0x2a
 268 0102 06010000 		.long	0x106
 269 0106 06       		.uleb128 0x6
 270 0107 AC020000 		.long	.LASF23
 271 010b 48       		.byte	0x48
 272 010c 06       		.byte	0x6
 273 010d 5E       		.byte	0x5e
 274 010e 03020000 		.long	0x203
 275 0112 07       		.uleb128 0x7
 276 0113 00000000 		.long	.LASF24
 277 0117 06       		.byte	0x6
 278 0118 5F       		.byte	0x5f
 279 0119 24020000 		.long	0x224
 280 011d 00       		.byte	0
 281 011e 07       		.uleb128 0x7
 282 011f 39000000 		.long	.LASF25
 283 0123 06       		.byte	0x6
 284 0124 61       		.byte	0x61
 285 0125 24020000 		.long	0x224
 286 0129 04       		.byte	0x4
 287 012a 07       		.uleb128 0x7
 288 012b 7F000000 		.long	.LASF26
 289 012f 06       		.byte	0x6
 290 0130 63       		.byte	0x63
 291 0131 CF000000 		.long	0xcf
 292 0135 08       		.byte	0x8
 293 0136 07       		.uleb128 0x7
 294 0137 CB020000 		.long	.LASF27
 295 013b 06       		.byte	0x6
 296 013c 64       		.byte	0x64
 297 013d A9020000 		.long	0x2a9
 298 0141 0C       		.byte	0xc
 299 0142 07       		.uleb128 0x7
 300 0143 3D010000 		.long	.LASF28
 301 0147 06       		.byte	0x6
 302 0148 66       		.byte	0x66
 303 0149 24020000 		.long	0x224
 304 014d 10       		.byte	0x10
 305 014e 07       		.uleb128 0x7
 306 014f BC020000 		.long	.LASF29
 307 0153 06       		.byte	0x6
GAS LISTING /tmp/ccolVoYc.s 			page 8


 308 0154 67       		.byte	0x67
 309 0155 24020000 		.long	0x224
 310 0159 14       		.byte	0x14
 311 015a 07       		.uleb128 0x7
 312 015b 1E020000 		.long	.LASF30
 313 015f 06       		.byte	0x6
 314 0160 6E       		.byte	0x6e
 315 0161 49030000 		.long	0x349
 316 0165 18       		.byte	0x18
 317 0166 07       		.uleb128 0x7
 318 0167 25020000 		.long	.LASF31
 319 016b 06       		.byte	0x6
 320 016c 79       		.byte	0x79
 321 016d AE000000 		.long	0xae
 322 0171 1C       		.byte	0x1c
 323 0172 07       		.uleb128 0x7
 324 0173 65010000 		.long	.LASF32
 325 0177 06       		.byte	0x6
 326 0178 7D       		.byte	0x7d
 327 0179 A3000000 		.long	0xa3
 328 017d 1D       		.byte	0x1d
 329 017e 07       		.uleb128 0x7
 330 017f C4020000 		.long	.LASF33
 331 0183 06       		.byte	0x6
 332 0184 82       		.byte	0x82
 333 0185 B9000000 		.long	0xb9
 334 0189 1E       		.byte	0x1e
 335 018a 07       		.uleb128 0x7
 336 018b FA010000 		.long	.LASF34
 337 018f 06       		.byte	0x6
 338 0190 88       		.byte	0x88
 339 0191 C4000000 		.long	0xc4
 340 0195 1F       		.byte	0x1f
 341 0196 07       		.uleb128 0x7
 342 0197 B1000000 		.long	.LASF35
 343 019b 06       		.byte	0x6
 344 019c 8F       		.byte	0x8f
 345 019d CD020000 		.long	0x2cd
 346 01a1 20       		.byte	0x20
 347 01a2 08       		.uleb128 0x8
 348 01a3 705F7500 		.string	"p_u"
 349 01a7 06       		.byte	0x6
 350 01a8 B4       		.byte	0xb4
 351 01a9 14030000 		.long	0x314
 352 01ad 24       		.byte	0x24
 353 01ae 07       		.uleb128 0x7
 354 01af 67020000 		.long	.LASF36
 355 01b3 06       		.byte	0x6
 356 01b4 B9       		.byte	0xb9
 357 01b5 4A020000 		.long	0x24a
 358 01b9 28       		.byte	0x28
 359 01ba 07       		.uleb128 0x7
 360 01bb 74000000 		.long	.LASF37
 361 01bf 06       		.byte	0x6
 362 01c0 BF       		.byte	0xbf
 363 01c1 2A020000 		.long	0x22a
 364 01c5 2C       		.byte	0x2c
GAS LISTING /tmp/ccolVoYc.s 			page 9


 365 01c6 07       		.uleb128 0x7
 366 01c7 F3000000 		.long	.LASF38
 367 01cb 06       		.byte	0x6
 368 01cc C3       		.byte	0xc3
 369 01cd DA000000 		.long	0xda
 370 01d1 34       		.byte	0x34
 371 01d2 07       		.uleb128 0x7
 372 01d3 07000000 		.long	.LASF39
 373 01d7 06       		.byte	0x6
 374 01d8 C9       		.byte	0xc9
 375 01d9 E5000000 		.long	0xe5
 376 01dd 38       		.byte	0x38
 377 01de 07       		.uleb128 0x7
 378 01df 71020000 		.long	.LASF40
 379 01e3 06       		.byte	0x6
 380 01e4 D0       		.byte	0xd0
 381 01e5 54030000 		.long	0x354
 382 01e9 3C       		.byte	0x3c
 383 01ea 07       		.uleb128 0x7
 384 01eb 04020000 		.long	.LASF41
 385 01ef 06       		.byte	0x6
 386 01f0 D4       		.byte	0xd4
 387 01f1 CF000000 		.long	0xcf
 388 01f5 40       		.byte	0x40
 389 01f6 07       		.uleb128 0x7
 390 01f7 82010000 		.long	.LASF42
 391 01fb 06       		.byte	0x6
 392 01fc DA       		.byte	0xda
 393 01fd 72000000 		.long	0x72
 394 0201 44       		.byte	0x44
 395 0202 00       		.byte	0
 396 0203 09       		.uleb128 0x9
 397 0204 08       		.byte	0x8
 398 0205 05       		.byte	0x5
 399 0206 61       		.byte	0x61
 400 0207 24020000 		.long	0x224
 401 020b 07       		.uleb128 0x7
 402 020c 00000000 		.long	.LASF24
 403 0210 05       		.byte	0x5
 404 0211 62       		.byte	0x62
 405 0212 24020000 		.long	0x224
 406 0216 00       		.byte	0
 407 0217 07       		.uleb128 0x7
 408 0218 39000000 		.long	.LASF25
 409 021c 05       		.byte	0x5
 410 021d 64       		.byte	0x64
 411 021e 24020000 		.long	0x224
 412 0222 04       		.byte	0x4
 413 0223 00       		.byte	0
 414 0224 0A       		.uleb128 0xa
 415 0225 04       		.byte	0x4
 416 0226 FB000000 		.long	0xfb
 417 022a 05       		.uleb128 0x5
 418 022b 2D020000 		.long	.LASF43
 419 022f 05       		.byte	0x5
 420 0230 66       		.byte	0x66
 421 0231 03020000 		.long	0x203
GAS LISTING /tmp/ccolVoYc.s 			page 10


 422 0235 09       		.uleb128 0x9
 423 0236 04       		.byte	0x4
 424 0237 05       		.byte	0x5
 425 0238 6B       		.byte	0x6b
 426 0239 4A020000 		.long	0x24a
 427 023d 07       		.uleb128 0x7
 428 023e 00000000 		.long	.LASF24
 429 0242 05       		.byte	0x5
 430 0243 6D       		.byte	0x6d
 431 0244 24020000 		.long	0x224
 432 0248 00       		.byte	0
 433 0249 00       		.byte	0
 434 024a 05       		.uleb128 0x5
 435 024b 1A000000 		.long	.LASF44
 436 024f 05       		.byte	0x5
 437 0250 70       		.byte	0x70
 438 0251 35020000 		.long	0x235
 439 0255 05       		.uleb128 0x5
 440 0256 10010000 		.long	.LASF45
 441 025a 07       		.byte	0x7
 442 025b 4B       		.byte	0x4b
 443 025c 72000000 		.long	0x72
 444 0260 06       		.uleb128 0x6
 445 0261 7B020000 		.long	.LASF46
 446 0265 14       		.byte	0x14
 447 0266 07       		.byte	0x7
 448 0267 59       		.byte	0x59
 449 0268 A9020000 		.long	0x2a9
 450 026c 08       		.uleb128 0x8
 451 026d 65627800 		.string	"ebx"
 452 0271 07       		.byte	0x7
 453 0272 5A       		.byte	0x5a
 454 0273 55020000 		.long	0x255
 455 0277 00       		.byte	0
 456 0278 08       		.uleb128 0x8
 457 0279 65646900 		.string	"edi"
 458 027d 07       		.byte	0x7
 459 027e 5B       		.byte	0x5b
 460 027f 55020000 		.long	0x255
 461 0283 04       		.byte	0x4
 462 0284 08       		.uleb128 0x8
 463 0285 65736900 		.string	"esi"
 464 0289 07       		.byte	0x7
 465 028a 5C       		.byte	0x5c
 466 028b 55020000 		.long	0x255
 467 028f 08       		.byte	0x8
 468 0290 08       		.uleb128 0x8
 469 0291 65627000 		.string	"ebp"
 470 0295 07       		.byte	0x7
 471 0296 5D       		.byte	0x5d
 472 0297 55020000 		.long	0x255
 473 029b 0C       		.byte	0xc
 474 029c 08       		.uleb128 0x8
 475 029d 65697000 		.string	"eip"
 476 02a1 07       		.byte	0x7
 477 02a2 5E       		.byte	0x5e
 478 02a3 55020000 		.long	0x255
GAS LISTING /tmp/ccolVoYc.s 			page 11


 479 02a7 10       		.byte	0x10
 480 02a8 00       		.byte	0
 481 02a9 06       		.uleb128 0x6
 482 02aa 7A010000 		.long	.LASF47
 483 02ae 04       		.byte	0x4
 484 02af 07       		.byte	0x7
 485 02b0 66       		.byte	0x66
 486 02b1 C2020000 		.long	0x2c2
 487 02b5 08       		.uleb128 0x8
 488 02b6 65737000 		.string	"esp"
 489 02ba 07       		.byte	0x7
 490 02bb 67       		.byte	0x67
 491 02bc C2020000 		.long	0x2c2
 492 02c0 00       		.byte	0
 493 02c1 00       		.byte	0
 494 02c2 0A       		.uleb128 0xa
 495 02c3 04       		.byte	0x4
 496 02c4 C8020000 		.long	0x2c8
 497 02c8 0B       		.uleb128 0xb
 498 02c9 60020000 		.long	0x260
 499 02cd 0B       		.uleb128 0xb
 500 02ce F0000000 		.long	0xf0
 501 02d2 06       		.uleb128 0x6
 502 02d3 02010000 		.long	.LASF48
 503 02d7 10       		.byte	0x10
 504 02d8 08       		.byte	0x8
 505 02d9 2C       		.byte	0x2c
 506 02da 03030000 		.long	0x303
 507 02de 07       		.uleb128 0x7
 508 02df 08010000 		.long	.LASF49
 509 02e3 08       		.byte	0x8
 510 02e4 2D       		.byte	0x2d
 511 02e5 2A020000 		.long	0x22a
 512 02e9 00       		.byte	0
 513 02ea 07       		.uleb128 0x7
 514 02eb D1020000 		.long	.LASF50
 515 02ef 08       		.byte	0x8
 516 02f0 2F       		.byte	0x2f
 517 02f1 24020000 		.long	0x224
 518 02f5 08       		.byte	0x8
 519 02f6 07       		.uleb128 0x7
 520 02f7 90000000 		.long	.LASF51
 521 02fb 08       		.byte	0x8
 522 02fc 31       		.byte	0x31
 523 02fd 03030000 		.long	0x303
 524 0301 0C       		.byte	0xc
 525 0302 00       		.byte	0
 526 0303 0A       		.uleb128 0xa
 527 0304 04       		.byte	0x4
 528 0305 D2020000 		.long	0x2d2
 529 0309 05       		.uleb128 0x5
 530 030a 02010000 		.long	.LASF48
 531 030e 08       		.byte	0x8
 532 030f 33       		.byte	0x33
 533 0310 D2020000 		.long	0x2d2
 534 0314 0C       		.uleb128 0xc
 535 0315 04       		.byte	0x4
GAS LISTING /tmp/ccolVoYc.s 			page 12


 536 0316 06       		.byte	0x6
 537 0317 96       		.byte	0x96
 538 0318 49030000 		.long	0x349
 539 031c 0D       		.uleb128 0xd
 540 031d D9020000 		.long	.LASF52
 541 0321 06       		.byte	0x6
 542 0322 9D       		.byte	0x9d
 543 0323 DA000000 		.long	0xda
 544 0327 0D       		.uleb128 0xd
 545 0328 B3020000 		.long	.LASF53
 546 032c 06       		.byte	0x6
 547 032d A4       		.byte	0xa4
 548 032e DA000000 		.long	0xda
 549 0332 0D       		.uleb128 0xd
 550 0333 9C020000 		.long	.LASF54
 551 0337 06       		.byte	0x6
 552 0338 AB       		.byte	0xab
 553 0339 72000000 		.long	0x72
 554 033d 0D       		.uleb128 0xd
 555 033e 2A010000 		.long	.LASF55
 556 0342 06       		.byte	0x6
 557 0343 B2       		.byte	0xb2
 558 0344 E5000000 		.long	0xe5
 559 0348 00       		.byte	0
 560 0349 0A       		.uleb128 0xa
 561 034a 04       		.byte	0x4
 562 034b 4F030000 		.long	0x34f
 563 034f 0E       		.uleb128 0xe
 564 0350 74000000 		.long	0x74
 565 0354 0A       		.uleb128 0xa
 566 0355 04       		.byte	0x4
 567 0356 09030000 		.long	0x309
 568 035a 0A       		.uleb128 0xa
 569 035b 04       		.byte	0x4
 570 035c 60030000 		.long	0x360
 571 0360 0F       		.uleb128 0xf
 572 0361 DA000000 		.long	0xda
 573 0365 6F030000 		.long	0x36f
 574 0369 10       		.uleb128 0x10
 575 036a 72000000 		.long	0x72
 576 036e 00       		.byte	0
 577 036f 11       		.uleb128 0x11
 578 0370 94020000 		.long	.LASF61
 579 0374 01       		.byte	0x1
 580 0375 2C       		.byte	0x2c
 581 0376 00000000 		.long	.LFB25
 582 037a 10000000 		.long	.LFE25-.LFB25
 583 037e 01       		.uleb128 0x1
 584 037f 9C       		.byte	0x9c
 585 0380 A1030000 		.long	0x3a1
 586 0384 12       		.uleb128 0x12
 587 0385 6E747000 		.string	"ntp"
 588 0389 01       		.byte	0x1
 589 038a 2C       		.byte	0x2c
 590 038b 24020000 		.long	0x224
 591 038f 02       		.uleb128 0x2
 592 0390 91       		.byte	0x91
GAS LISTING /tmp/ccolVoYc.s 			page 13


 593 0391 00       		.sleb128 0
 594 0392 12       		.uleb128 0x12
 595 0393 6F747000 		.string	"otp"
 596 0397 01       		.byte	0x1
 597 0398 2C       		.byte	0x2c
 598 0399 24020000 		.long	0x224
 599 039d 02       		.uleb128 0x2
 600 039e 91       		.byte	0x91
 601 039f 04       		.sleb128 4
 602 03a0 00       		.byte	0
 603 03a1 13       		.uleb128 0x13
 604 03a2 86000000 		.long	.LASF56
 605 03a6 01       		.byte	0x1
 606 03a7 4B       		.byte	0x4b
 607 03a8 10000000 		.long	.LFB26
 608 03ac 0F000000 		.long	.LFE26-.LFB26
 609 03b0 01       		.uleb128 0x1
 610 03b1 9C       		.byte	0x9c
 611 03b2 C7030000 		.long	0x3c7
 612 03b6 14       		.uleb128 0x14
 613 03b7 1F000000 		.long	.LVL1
 614 03bb 11040000 		.long	0x411
 615 03bf 15       		.uleb128 0x15
 616 03c0 02       		.uleb128 0x2
 617 03c1 74       		.byte	0x74
 618 03c2 00       		.sleb128 0
 619 03c3 01       		.uleb128 0x1
 620 03c4 32       		.byte	0x32
 621 03c5 00       		.byte	0
 622 03c6 00       		.byte	0
 623 03c7 13       		.uleb128 0x13
 624 03c8 B8000000 		.long	.LASF57
 625 03cc 01       		.byte	0x1
 626 03cd 56       		.byte	0x56
 627 03ce 20000000 		.long	.LFB27
 628 03d2 19000000 		.long	.LFE27-.LFB27
 629 03d6 01       		.uleb128 0x1
 630 03d7 9C       		.byte	0x9c
 631 03d8 11040000 		.long	0x411
 632 03dc 12       		.uleb128 0x12
 633 03dd 706600   		.string	"pf"
 634 03e0 01       		.byte	0x1
 635 03e1 56       		.byte	0x56
 636 03e2 5A030000 		.long	0x35a
 637 03e6 02       		.uleb128 0x2
 638 03e7 91       		.byte	0x91
 639 03e8 00       		.sleb128 0
 640 03e9 12       		.uleb128 0x12
 641 03ea 7000     		.string	"p"
 642 03ec 01       		.byte	0x1
 643 03ed 56       		.byte	0x56
 644 03ee 72000000 		.long	0x72
 645 03f2 02       		.uleb128 0x2
 646 03f3 91       		.byte	0x91
 647 03f4 04       		.sleb128 4
 648 03f5 16       		.uleb128 0x16
 649 03f6 2F000000 		.long	.LVL3
GAS LISTING /tmp/ccolVoYc.s 			page 14


 650 03fa 07040000 		.long	0x407
 651 03fe 15       		.uleb128 0x15
 652 03ff 02       		.uleb128 0x2
 653 0400 74       		.byte	0x74
 654 0401 00       		.sleb128 0
 655 0402 03       		.uleb128 0x3
 656 0403 91       		.byte	0x91
 657 0404 04       		.sleb128 4
 658 0405 06       		.byte	0x6
 659 0406 00       		.byte	0
 660 0407 17       		.uleb128 0x17
 661 0408 37000000 		.long	.LVL4
 662 040c 23040000 		.long	0x423
 663 0410 00       		.byte	0
 664 0411 18       		.uleb128 0x18
 665 0412 17010000 		.long	.LASF62
 666 0416 09       		.byte	0x9
 667 0417 1F02     		.value	0x21f
 668 0419 23040000 		.long	0x423
 669 041d 10       		.uleb128 0x10
 670 041e 56000000 		.long	0x56
 671 0422 00       		.byte	0
 672 0423 19       		.uleb128 0x19
 673 0424 E9000000 		.long	.LASF63
 674 0428 06       		.byte	0x6
 675 0429 7801     		.value	0x178
 676 042b 10       		.uleb128 0x10
 677 042c DA000000 		.long	0xda
 678 0430 00       		.byte	0
 679 0431 00       		.byte	0
 680              		.section	.debug_abbrev,"",@progbits
 681              	.Ldebug_abbrev0:
 682 0000 01       		.uleb128 0x1
 683 0001 11       		.uleb128 0x11
 684 0002 01       		.byte	0x1
 685 0003 25       		.uleb128 0x25
 686 0004 0E       		.uleb128 0xe
 687 0005 13       		.uleb128 0x13
 688 0006 0B       		.uleb128 0xb
 689 0007 03       		.uleb128 0x3
 690 0008 0E       		.uleb128 0xe
 691 0009 1B       		.uleb128 0x1b
 692 000a 0E       		.uleb128 0xe
 693 000b 11       		.uleb128 0x11
 694 000c 01       		.uleb128 0x1
 695 000d 12       		.uleb128 0x12
 696 000e 06       		.uleb128 0x6
 697 000f 10       		.uleb128 0x10
 698 0010 17       		.uleb128 0x17
 699 0011 00       		.byte	0
 700 0012 00       		.byte	0
 701 0013 02       		.uleb128 0x2
 702 0014 24       		.uleb128 0x24
 703 0015 00       		.byte	0
 704 0016 0B       		.uleb128 0xb
 705 0017 0B       		.uleb128 0xb
 706 0018 3E       		.uleb128 0x3e
GAS LISTING /tmp/ccolVoYc.s 			page 15


 707 0019 0B       		.uleb128 0xb
 708 001a 03       		.uleb128 0x3
 709 001b 0E       		.uleb128 0xe
 710 001c 00       		.byte	0
 711 001d 00       		.byte	0
 712 001e 03       		.uleb128 0x3
 713 001f 24       		.uleb128 0x24
 714 0020 00       		.byte	0
 715 0021 0B       		.uleb128 0xb
 716 0022 0B       		.uleb128 0xb
 717 0023 3E       		.uleb128 0x3e
 718 0024 0B       		.uleb128 0xb
 719 0025 03       		.uleb128 0x3
 720 0026 08       		.uleb128 0x8
 721 0027 00       		.byte	0
 722 0028 00       		.byte	0
 723 0029 04       		.uleb128 0x4
 724 002a 0F       		.uleb128 0xf
 725 002b 00       		.byte	0
 726 002c 0B       		.uleb128 0xb
 727 002d 0B       		.uleb128 0xb
 728 002e 00       		.byte	0
 729 002f 00       		.byte	0
 730 0030 05       		.uleb128 0x5
 731 0031 16       		.uleb128 0x16
 732 0032 00       		.byte	0
 733 0033 03       		.uleb128 0x3
 734 0034 0E       		.uleb128 0xe
 735 0035 3A       		.uleb128 0x3a
 736 0036 0B       		.uleb128 0xb
 737 0037 3B       		.uleb128 0x3b
 738 0038 0B       		.uleb128 0xb
 739 0039 49       		.uleb128 0x49
 740 003a 13       		.uleb128 0x13
 741 003b 00       		.byte	0
 742 003c 00       		.byte	0
 743 003d 06       		.uleb128 0x6
 744 003e 13       		.uleb128 0x13
 745 003f 01       		.byte	0x1
 746 0040 03       		.uleb128 0x3
 747 0041 0E       		.uleb128 0xe
 748 0042 0B       		.uleb128 0xb
 749 0043 0B       		.uleb128 0xb
 750 0044 3A       		.uleb128 0x3a
 751 0045 0B       		.uleb128 0xb
 752 0046 3B       		.uleb128 0x3b
 753 0047 0B       		.uleb128 0xb
 754 0048 01       		.uleb128 0x1
 755 0049 13       		.uleb128 0x13
 756 004a 00       		.byte	0
 757 004b 00       		.byte	0
 758 004c 07       		.uleb128 0x7
 759 004d 0D       		.uleb128 0xd
 760 004e 00       		.byte	0
 761 004f 03       		.uleb128 0x3
 762 0050 0E       		.uleb128 0xe
 763 0051 3A       		.uleb128 0x3a
GAS LISTING /tmp/ccolVoYc.s 			page 16


 764 0052 0B       		.uleb128 0xb
 765 0053 3B       		.uleb128 0x3b
 766 0054 0B       		.uleb128 0xb
 767 0055 49       		.uleb128 0x49
 768 0056 13       		.uleb128 0x13
 769 0057 38       		.uleb128 0x38
 770 0058 0B       		.uleb128 0xb
 771 0059 00       		.byte	0
 772 005a 00       		.byte	0
 773 005b 08       		.uleb128 0x8
 774 005c 0D       		.uleb128 0xd
 775 005d 00       		.byte	0
 776 005e 03       		.uleb128 0x3
 777 005f 08       		.uleb128 0x8
 778 0060 3A       		.uleb128 0x3a
 779 0061 0B       		.uleb128 0xb
 780 0062 3B       		.uleb128 0x3b
 781 0063 0B       		.uleb128 0xb
 782 0064 49       		.uleb128 0x49
 783 0065 13       		.uleb128 0x13
 784 0066 38       		.uleb128 0x38
 785 0067 0B       		.uleb128 0xb
 786 0068 00       		.byte	0
 787 0069 00       		.byte	0
 788 006a 09       		.uleb128 0x9
 789 006b 13       		.uleb128 0x13
 790 006c 01       		.byte	0x1
 791 006d 0B       		.uleb128 0xb
 792 006e 0B       		.uleb128 0xb
 793 006f 3A       		.uleb128 0x3a
 794 0070 0B       		.uleb128 0xb
 795 0071 3B       		.uleb128 0x3b
 796 0072 0B       		.uleb128 0xb
 797 0073 01       		.uleb128 0x1
 798 0074 13       		.uleb128 0x13
 799 0075 00       		.byte	0
 800 0076 00       		.byte	0
 801 0077 0A       		.uleb128 0xa
 802 0078 0F       		.uleb128 0xf
 803 0079 00       		.byte	0
 804 007a 0B       		.uleb128 0xb
 805 007b 0B       		.uleb128 0xb
 806 007c 49       		.uleb128 0x49
 807 007d 13       		.uleb128 0x13
 808 007e 00       		.byte	0
 809 007f 00       		.byte	0
 810 0080 0B       		.uleb128 0xb
 811 0081 35       		.uleb128 0x35
 812 0082 00       		.byte	0
 813 0083 49       		.uleb128 0x49
 814 0084 13       		.uleb128 0x13
 815 0085 00       		.byte	0
 816 0086 00       		.byte	0
 817 0087 0C       		.uleb128 0xc
 818 0088 17       		.uleb128 0x17
 819 0089 01       		.byte	0x1
 820 008a 0B       		.uleb128 0xb
GAS LISTING /tmp/ccolVoYc.s 			page 17


 821 008b 0B       		.uleb128 0xb
 822 008c 3A       		.uleb128 0x3a
 823 008d 0B       		.uleb128 0xb
 824 008e 3B       		.uleb128 0x3b
 825 008f 0B       		.uleb128 0xb
 826 0090 01       		.uleb128 0x1
 827 0091 13       		.uleb128 0x13
 828 0092 00       		.byte	0
 829 0093 00       		.byte	0
 830 0094 0D       		.uleb128 0xd
 831 0095 0D       		.uleb128 0xd
 832 0096 00       		.byte	0
 833 0097 03       		.uleb128 0x3
 834 0098 0E       		.uleb128 0xe
 835 0099 3A       		.uleb128 0x3a
 836 009a 0B       		.uleb128 0xb
 837 009b 3B       		.uleb128 0x3b
 838 009c 0B       		.uleb128 0xb
 839 009d 49       		.uleb128 0x49
 840 009e 13       		.uleb128 0x13
 841 009f 00       		.byte	0
 842 00a0 00       		.byte	0
 843 00a1 0E       		.uleb128 0xe
 844 00a2 26       		.uleb128 0x26
 845 00a3 00       		.byte	0
 846 00a4 49       		.uleb128 0x49
 847 00a5 13       		.uleb128 0x13
 848 00a6 00       		.byte	0
 849 00a7 00       		.byte	0
 850 00a8 0F       		.uleb128 0xf
 851 00a9 15       		.uleb128 0x15
 852 00aa 01       		.byte	0x1
 853 00ab 27       		.uleb128 0x27
 854 00ac 19       		.uleb128 0x19
 855 00ad 49       		.uleb128 0x49
 856 00ae 13       		.uleb128 0x13
 857 00af 01       		.uleb128 0x1
 858 00b0 13       		.uleb128 0x13
 859 00b1 00       		.byte	0
 860 00b2 00       		.byte	0
 861 00b3 10       		.uleb128 0x10
 862 00b4 05       		.uleb128 0x5
 863 00b5 00       		.byte	0
 864 00b6 49       		.uleb128 0x49
 865 00b7 13       		.uleb128 0x13
 866 00b8 00       		.byte	0
 867 00b9 00       		.byte	0
 868 00ba 11       		.uleb128 0x11
 869 00bb 2E       		.uleb128 0x2e
 870 00bc 01       		.byte	0x1
 871 00bd 03       		.uleb128 0x3
 872 00be 0E       		.uleb128 0xe
 873 00bf 3A       		.uleb128 0x3a
 874 00c0 0B       		.uleb128 0xb
 875 00c1 3B       		.uleb128 0x3b
 876 00c2 0B       		.uleb128 0xb
 877 00c3 27       		.uleb128 0x27
GAS LISTING /tmp/ccolVoYc.s 			page 18


 878 00c4 19       		.uleb128 0x19
 879 00c5 11       		.uleb128 0x11
 880 00c6 01       		.uleb128 0x1
 881 00c7 12       		.uleb128 0x12
 882 00c8 06       		.uleb128 0x6
 883 00c9 40       		.uleb128 0x40
 884 00ca 18       		.uleb128 0x18
 885 00cb 9742     		.uleb128 0x2117
 886 00cd 19       		.uleb128 0x19
 887 00ce 01       		.uleb128 0x1
 888 00cf 13       		.uleb128 0x13
 889 00d0 00       		.byte	0
 890 00d1 00       		.byte	0
 891 00d2 12       		.uleb128 0x12
 892 00d3 05       		.uleb128 0x5
 893 00d4 00       		.byte	0
 894 00d5 03       		.uleb128 0x3
 895 00d6 08       		.uleb128 0x8
 896 00d7 3A       		.uleb128 0x3a
 897 00d8 0B       		.uleb128 0xb
 898 00d9 3B       		.uleb128 0x3b
 899 00da 0B       		.uleb128 0xb
 900 00db 49       		.uleb128 0x49
 901 00dc 13       		.uleb128 0x13
 902 00dd 02       		.uleb128 0x2
 903 00de 18       		.uleb128 0x18
 904 00df 00       		.byte	0
 905 00e0 00       		.byte	0
 906 00e1 13       		.uleb128 0x13
 907 00e2 2E       		.uleb128 0x2e
 908 00e3 01       		.byte	0x1
 909 00e4 3F       		.uleb128 0x3f
 910 00e5 19       		.uleb128 0x19
 911 00e6 03       		.uleb128 0x3
 912 00e7 0E       		.uleb128 0xe
 913 00e8 3A       		.uleb128 0x3a
 914 00e9 0B       		.uleb128 0xb
 915 00ea 3B       		.uleb128 0x3b
 916 00eb 0B       		.uleb128 0xb
 917 00ec 27       		.uleb128 0x27
 918 00ed 19       		.uleb128 0x19
 919 00ee 11       		.uleb128 0x11
 920 00ef 01       		.uleb128 0x1
 921 00f0 12       		.uleb128 0x12
 922 00f1 06       		.uleb128 0x6
 923 00f2 40       		.uleb128 0x40
 924 00f3 18       		.uleb128 0x18
 925 00f4 9742     		.uleb128 0x2117
 926 00f6 19       		.uleb128 0x19
 927 00f7 01       		.uleb128 0x1
 928 00f8 13       		.uleb128 0x13
 929 00f9 00       		.byte	0
 930 00fa 00       		.byte	0
 931 00fb 14       		.uleb128 0x14
 932 00fc 898201   		.uleb128 0x4109
 933 00ff 01       		.byte	0x1
 934 0100 11       		.uleb128 0x11
GAS LISTING /tmp/ccolVoYc.s 			page 19


 935 0101 01       		.uleb128 0x1
 936 0102 31       		.uleb128 0x31
 937 0103 13       		.uleb128 0x13
 938 0104 00       		.byte	0
 939 0105 00       		.byte	0
 940 0106 15       		.uleb128 0x15
 941 0107 8A8201   		.uleb128 0x410a
 942 010a 00       		.byte	0
 943 010b 02       		.uleb128 0x2
 944 010c 18       		.uleb128 0x18
 945 010d 9142     		.uleb128 0x2111
 946 010f 18       		.uleb128 0x18
 947 0110 00       		.byte	0
 948 0111 00       		.byte	0
 949 0112 16       		.uleb128 0x16
 950 0113 898201   		.uleb128 0x4109
 951 0116 01       		.byte	0x1
 952 0117 11       		.uleb128 0x11
 953 0118 01       		.uleb128 0x1
 954 0119 01       		.uleb128 0x1
 955 011a 13       		.uleb128 0x13
 956 011b 00       		.byte	0
 957 011c 00       		.byte	0
 958 011d 17       		.uleb128 0x17
 959 011e 898201   		.uleb128 0x4109
 960 0121 00       		.byte	0
 961 0122 11       		.uleb128 0x11
 962 0123 01       		.uleb128 0x1
 963 0124 31       		.uleb128 0x31
 964 0125 13       		.uleb128 0x13
 965 0126 00       		.byte	0
 966 0127 00       		.byte	0
 967 0128 18       		.uleb128 0x18
 968 0129 2E       		.uleb128 0x2e
 969 012a 01       		.byte	0x1
 970 012b 3F       		.uleb128 0x3f
 971 012c 19       		.uleb128 0x19
 972 012d 03       		.uleb128 0x3
 973 012e 0E       		.uleb128 0xe
 974 012f 3A       		.uleb128 0x3a
 975 0130 0B       		.uleb128 0xb
 976 0131 3B       		.uleb128 0x3b
 977 0132 05       		.uleb128 0x5
 978 0133 27       		.uleb128 0x27
 979 0134 19       		.uleb128 0x19
 980 0135 3C       		.uleb128 0x3c
 981 0136 19       		.uleb128 0x19
 982 0137 01       		.uleb128 0x1
 983 0138 13       		.uleb128 0x13
 984 0139 00       		.byte	0
 985 013a 00       		.byte	0
 986 013b 19       		.uleb128 0x19
 987 013c 2E       		.uleb128 0x2e
 988 013d 01       		.byte	0x1
 989 013e 3F       		.uleb128 0x3f
 990 013f 19       		.uleb128 0x19
 991 0140 03       		.uleb128 0x3
GAS LISTING /tmp/ccolVoYc.s 			page 20


 992 0141 0E       		.uleb128 0xe
 993 0142 3A       		.uleb128 0x3a
 994 0143 0B       		.uleb128 0xb
 995 0144 3B       		.uleb128 0x3b
 996 0145 05       		.uleb128 0x5
 997 0146 27       		.uleb128 0x27
 998 0147 19       		.uleb128 0x19
 999 0148 3C       		.uleb128 0x3c
 1000 0149 19       		.uleb128 0x19
 1001 014a 00       		.byte	0
 1002 014b 00       		.byte	0
 1003 014c 00       		.byte	0
 1004              		.section	.debug_aranges,"",@progbits
 1005 0000 1C000000 		.long	0x1c
 1006 0004 0200     		.value	0x2
 1007 0006 00000000 		.long	.Ldebug_info0
 1008 000a 04       		.byte	0x4
 1009 000b 00       		.byte	0
 1010 000c 0000     		.value	0
 1011 000e 0000     		.value	0
 1012 0010 00000000 		.long	.Ltext0
 1013 0014 39000000 		.long	.Letext0-.Ltext0
 1014 0018 00000000 		.long	0
 1015 001c 00000000 		.long	0
 1016              		.section	.debug_line,"",@progbits
 1017              	.Ldebug_line0:
 1018 0000 F8000000 		.section	.debug_str,"MS",@progbits,1
 1018      0200D900 
 1018      00000101 
 1018      FB0E0D00 
 1018      01010101 
 1019              	.LASF24:
 1020 0000 705F6E65 		.string	"p_next"
 1020      787400
 1021              	.LASF39:
 1022 0007 705F6570 		.string	"p_epending"
 1022      656E6469 
 1022      6E6700
 1023              	.LASF17:
 1024 0012 74726566 		.string	"trefs_t"
 1024      735F7400 
 1025              	.LASF44:
 1026 001a 54687265 		.string	"ThreadsList"
 1026      6164734C 
 1026      69737400 
 1027              	.LASF6:
 1028 0026 73686F72 		.string	"short int"
 1028      7420696E 
 1028      7400
 1029              	.LASF9:
 1030 0030 73697A65 		.string	"sizetype"
 1030      74797065 
 1030      00
 1031              	.LASF25:
 1032 0039 705F7072 		.string	"p_prev"
 1032      657600
 1033              	.LASF60:
GAS LISTING /tmp/ccolVoYc.s 			page 21


 1034 0040 2F686F6D 		.string	"/home/tony/ChibiOS-RT/testhal/Posix/EXT"
 1034      652F746F 
 1034      6E792F43 
 1034      68696269 
 1034      4F532D52 
 1035              	.LASF21:
 1036 0068 6576656E 		.string	"eventmask_t"
 1036      746D6173 
 1036      6B5F7400 
 1037              	.LASF37:
 1038 0074 705F6D73 		.string	"p_msgqueue"
 1038      67717565 
 1038      756500
 1039              	.LASF26:
 1040 007f 705F7072 		.string	"p_prio"
 1040      696F00
 1041              	.LASF56:
 1042 0086 706F7274 		.string	"port_halt"
 1042      5F68616C 
 1042      7400
 1043              	.LASF51:
 1044 0090 6D5F6E65 		.string	"m_next"
 1044      787400
 1045              	.LASF12:
 1046 0097 75696E74 		.string	"uint8_t"
 1046      385F7400 
 1047              	.LASF18:
 1048 009f 74736C69 		.string	"tslices_t"
 1048      6365735F 
 1048      7400
 1049              	.LASF11:
 1050 00a9 696E7433 		.string	"int32_t"
 1050      325F7400 
 1051              	.LASF35:
 1052 00b1 705F7469 		.string	"p_time"
 1052      6D6500
 1053              	.LASF57:
 1054 00b8 5F706F72 		.string	"_port_thread_start"
 1054      745F7468 
 1054      72656164 
 1054      5F737461 
 1054      727400
 1055              	.LASF15:
 1056 00cb 746D6F64 		.string	"tmode_t"
 1056      655F7400 
 1057              	.LASF7:
 1058 00d3 6C6F6E67 		.string	"long long int"
 1058      206C6F6E 
 1058      6720696E 
 1058      7400
 1059              	.LASF19:
 1060 00e1 74707269 		.string	"tprio_t"
 1060      6F5F7400 
 1061              	.LASF63:
 1062 00e9 63685468 		.string	"chThdExit"
 1062      64457869 
 1062      7400
GAS LISTING /tmp/ccolVoYc.s 			page 22


 1063              	.LASF38:
 1064 00f3 705F6D73 		.string	"p_msg"
 1064      6700
 1065              	.LASF1:
 1066 00f9 6C6F6E67 		.string	"long int"
 1066      20696E74 
 1066      00
 1067              	.LASF48:
 1068 0102 4D757465 		.string	"Mutex"
 1068      7800
 1069              	.LASF49:
 1070 0108 6D5F7175 		.string	"m_queue"
 1070      65756500 
 1071              	.LASF45:
 1072 0110 72656778 		.string	"regx86"
 1072      383600
 1073              	.LASF62:
 1074 0117 65786974 		.string	"exit"
 1074      00
 1075              	.LASF2:
 1076 011c 756E7369 		.string	"unsigned char"
 1076      676E6564 
 1076      20636861 
 1076      7200
 1077              	.LASF55:
 1078 012a 65776D61 		.string	"ewmask"
 1078      736B00
 1079              	.LASF5:
 1080 0131 7369676E 		.string	"signed char"
 1080      65642063 
 1080      68617200 
 1081              	.LASF28:
 1082 013d 705F6E65 		.string	"p_newer"
 1082      77657200 
 1083              	.LASF8:
 1084 0145 6C6F6E67 		.string	"long long unsigned int"
 1084      206C6F6E 
 1084      6720756E 
 1084      7369676E 
 1084      65642069 
 1085              	.LASF13:
 1086 015c 75696E74 		.string	"uint32_t"
 1086      33325F74 
 1086      00
 1087              	.LASF32:
 1088 0165 705F666C 		.string	"p_flags"
 1088      61677300 
 1089              	.LASF0:
 1090 016d 756E7369 		.string	"unsigned int"
 1090      676E6564 
 1090      20696E74 
 1090      00
 1091              	.LASF47:
 1092 017a 636F6E74 		.string	"context"
 1092      65787400 
 1093              	.LASF42:
 1094 0182 705F6D70 		.string	"p_mpool"
GAS LISTING /tmp/ccolVoYc.s 			page 23


 1094      6F6F6C00 
 1095              	.LASF3:
 1096 018a 73686F72 		.string	"short unsigned int"
 1096      7420756E 
 1096      7369676E 
 1096      65642069 
 1096      6E7400
 1097              	.LASF58:
 1098 019d 474E5520 		.string	"GNU C 4.8.2 -m32 -mtune=generic -march=i686 -ggdb -O2 -fomit-frame-pointer -fstack-protec
 1098      4320342E 
 1098      382E3220 
 1098      2D6D3332 
 1098      202D6D74 
 1099              	.LASF34:
 1100 01fa 705F7072 		.string	"p_preempt"
 1100      65656D70 
 1100      7400
 1101              	.LASF41:
 1102 0204 705F7265 		.string	"p_realprio"
 1102      616C7072 
 1102      696F00
 1103              	.LASF22:
 1104 020f 73797374 		.string	"systime_t"
 1104      696D655F 
 1104      7400
 1105              	.LASF10:
 1106 0219 63686172 		.string	"char"
 1106      00
 1107              	.LASF30:
 1108 021e 705F6E61 		.string	"p_name"
 1108      6D6500
 1109              	.LASF31:
 1110 0225 705F7374 		.string	"p_state"
 1110      61746500 
 1111              	.LASF43:
 1112 022d 54687265 		.string	"ThreadsQueue"
 1112      61647351 
 1112      75657565 
 1112      00
 1113              	.LASF59:
 1114 023a 2E2E2F2E 		.string	"../../../os/ports/GCC/SIMIA32/chcore.c"
 1114      2E2F2E2E 
 1114      2F6F732F 
 1114      706F7274 
 1114      732F4743 
 1115              	.LASF14:
 1116 0261 5F426F6F 		.string	"_Bool"
 1116      6C00
 1117              	.LASF36:
 1118 0267 705F7761 		.string	"p_waiting"
 1118      6974696E 
 1118      6700
 1119              	.LASF40:
 1120 0271 705F6D74 		.string	"p_mtxlist"
 1120      786C6973 
 1120      7400
 1121              	.LASF46:
GAS LISTING /tmp/ccolVoYc.s 			page 24


 1122 027b 696E7463 		.string	"intctx"
 1122      747800
 1123              	.LASF4:
 1124 0282 6C6F6E67 		.string	"long unsigned int"
 1124      20756E73 
 1124      69676E65 
 1124      6420696E 
 1124      7400
 1125              	.LASF61:
 1126 0294 5F5F6475 		.string	"__dummy"
 1126      6D6D7900 
 1127              	.LASF54:
 1128 029c 77746F62 		.string	"wtobjp"
 1128      6A7000
 1129              	.LASF16:
 1130 02a3 74737461 		.string	"tstate_t"
 1130      74655F74 
 1130      00
 1131              	.LASF23:
 1132 02ac 54687265 		.string	"Thread"
 1132      616400
 1133              	.LASF53:
 1134 02b3 65786974 		.string	"exitcode"
 1134      636F6465 
 1134      00
 1135              	.LASF29:
 1136 02bc 705F6F6C 		.string	"p_older"
 1136      64657200 
 1137              	.LASF33:
 1138 02c4 705F7265 		.string	"p_refs"
 1138      667300
 1139              	.LASF27:
 1140 02cb 705F6374 		.string	"p_ctx"
 1140      7800
 1141              	.LASF50:
 1142 02d1 6D5F6F77 		.string	"m_owner"
 1142      6E657200 
 1143              	.LASF52:
 1144 02d9 7264796D 		.string	"rdymsg"
 1144      736700
 1145              	.LASF20:
 1146 02e0 6D73675F 		.string	"msg_t"
 1146      7400
 1147              		.ident	"GCC: (Ubuntu 4.8.2-19ubuntu1) 4.8.2"
 1148              		.section	.note.GNU-stack,"",@progbits
GAS LISTING /tmp/ccolVoYc.s 			page 25


DEFINED SYMBOLS
                            *ABS*:0000000000000000 chcore.c
     /tmp/ccolVoYc.s:60     .text:0000000000000000 __dummy
../../../os/ports/GCC/SIMIA32/chcore.c:48     .text:0000000000000000 port_switch
     /tmp/ccolVoYc.s:90     .text:0000000000000010 port_halt
     /tmp/ccolVoYc.s:106    .text:0000000000000020 _port_thread_start

UNDEFINED SYMBOLS
exit
chThdExit
