GAS LISTING /tmp/ccb8mAkQ.s 			page 1


   1              		.file	"chprintf.c"
   2              	# GNU C (Ubuntu 4.8.2-19ubuntu1) version 4.8.2 (x86_64-linux-gnu)
   3              	#	compiled by GNU C version 4.8.2, GMP version 5.1.3, MPFR version 3.1.2-p3, MPC version 1.0.1
   4              	# GGC heuristics: --param ggc-min-expand=97 --param ggc-min-heapsize=126309
   5              	# options passed:  -I . -I ../../../os/ports/GCC/SIMIA32
   6              	# -I ../../../os/kernel/include -I ../../../test -I ../../../os/hal/include
   7              	# -I ../../../os/hal/platforms/Posix -I ../../../boards/simulator
   8              	# -I ../../../os/various -imultilib 32 -imultiarch i386-linux-gnu
   9              	# -MD ../../../os/various/chprintf.d -MF .dep/chprintf.o.d -MP
  10              	# -MQ ../../../os/various/chprintf.o -D SIMULATOR
  11              	# -D SHELL_USE_IPRINTF=FALSE ../../../os/various/chprintf.c -m32
  12              	# -mtune=generic -march=i686 -auxbase-strip ../../../os/various/chprintf.o
  13              	# -ggdb -O2 -Wall -Wextra -Wstrict-prototypes -fomit-frame-pointer
  14              	# -fverbose-asm -fstack-protector -Wformat -Wformat-security
  15              	# options enabled:  -faggressive-loop-optimizations
  16              	# -fasynchronous-unwind-tables -fauto-inc-dec -fbranch-count-reg
  17              	# -fcaller-saves -fcombine-stack-adjustments -fcommon -fcompare-elim
  18              	# -fcprop-registers -fcrossjumping -fcse-follow-jumps -fdefer-pop
  19              	# -fdelete-null-pointer-checks -fdevirtualize -fdwarf2-cfi-asm
  20              	# -fearly-inlining -feliminate-unused-debug-types -fexpensive-optimizations
  21              	# -fforward-propagate -ffunction-cse -fgcse -fgcse-lm -fgnu-runtime
  22              	# -fguess-branch-probability -fhoist-adjacent-loads -fident -fif-conversion
  23              	# -fif-conversion2 -findirect-inlining -finline -finline-atomics
  24              	# -finline-functions-called-once -finline-small-functions -fipa-cp
  25              	# -fipa-profile -fipa-pure-const -fipa-reference -fipa-sra
  26              	# -fira-hoist-pressure -fira-share-save-slots -fira-share-spill-slots
  27              	# -fivopts -fkeep-static-consts -fleading-underscore -fmath-errno
  28              	# -fmerge-constants -fmerge-debug-strings -fmove-loop-invariants
  29              	# -fomit-frame-pointer -foptimize-register-move -foptimize-sibling-calls
  30              	# -foptimize-strlen -fpartial-inlining -fpcc-struct-return -fpeephole
  31              	# -fpeephole2 -fprefetch-loop-arrays -free -fregmove -freorder-blocks
  32              	# -freorder-functions -frerun-cse-after-loop
  33              	# -fsched-critical-path-heuristic -fsched-dep-count-heuristic
  34              	# -fsched-group-heuristic -fsched-interblock -fsched-last-insn-heuristic
  35              	# -fsched-rank-heuristic -fsched-spec -fsched-spec-insn-heuristic
  36              	# -fsched-stalled-insns-dep -fschedule-insns2 -fshow-column -fshrink-wrap
  37              	# -fsigned-zeros -fsplit-ivs-in-unroller -fsplit-wide-types
  38              	# -fstack-protector -fstrict-aliasing -fstrict-overflow
  39              	# -fstrict-volatile-bitfields -fsync-libcalls -fthread-jumps
  40              	# -ftoplevel-reorder -ftrapping-math -ftree-bit-ccp -ftree-builtin-call-dce
  41              	# -ftree-ccp -ftree-ch -ftree-coalesce-vars -ftree-copy-prop
  42              	# -ftree-copyrename -ftree-cselim -ftree-dce -ftree-dominator-opts
  43              	# -ftree-dse -ftree-forwprop -ftree-fre -ftree-loop-if-convert
  44              	# -ftree-loop-im -ftree-loop-ivcanon -ftree-loop-optimize
  45              	# -ftree-parallelize-loops= -ftree-phiprop -ftree-pre -ftree-pta
  46              	# -ftree-reassoc -ftree-scev-cprop -ftree-sink -ftree-slp-vectorize
  47              	# -ftree-slsr -ftree-sra -ftree-switch-conversion -ftree-tail-merge
  48              	# -ftree-ter -ftree-vect-loop-version -ftree-vrp -funit-at-a-time
  49              	# -funwind-tables -fvar-tracking -fvar-tracking-assignments -fverbose-asm
  50              	# -fzero-initialized-in-bss -m32 -m80387 -m96bit-long-double
  51              	# -maccumulate-outgoing-args -malign-stringops -mfancy-math-387
  52              	# -mfp-ret-in-387 -mglibc -mieee-fp -mlong-double-80 -mno-red-zone
  53              	# -mno-sse4 -mpush-args -msahf -mtls-direct-seg-refs
  54              	
  55              		.text
  56              	.Ltext0:
  57              		.p2align 4,,15
GAS LISTING /tmp/ccb8mAkQ.s 			page 2


  58              		.type	long_to_string_with_divisor.constprop.0, @function
  59              	long_to_string_with_divisor.constprop.0:
  60              	.LFB12:
  61              		.file 1 "../../../os/various/chprintf.c"
  62              		.loc 1 37 0
  63              		.cfi_startproc
  64              	.LVL0:
  65 0000 55       		pushl	%ebp	#
  66              		.cfi_def_cfa_offset 8
  67              		.cfi_offset 5, -8
  68              		.loc 1 52 0
  69 0001 89CD     		movl	%ecx, %ebp	# radix, radix
  70              		.loc 1 37 0
  71 0003 57       		pushl	%edi	#
  72              		.cfi_def_cfa_offset 12
  73              		.cfi_offset 7, -12
  74              		.loc 1 52 0
  75 0004 89D1     		movl	%edx, %ecx	# num, num
  76              	.LVL1:
  77              		.loc 1 37 0
  78 0006 56       		pushl	%esi	#
  79              		.cfi_def_cfa_offset 16
  80              		.cfi_offset 6, -16
  81              		.loc 1 52 0
  82 0007 89D6     		movl	%edx, %esi	# num, num
  83              		.loc 1 37 0
  84 0009 53       		pushl	%ebx	#
  85              		.cfi_def_cfa_offset 20
  86              		.cfi_offset 3, -20
  87 000a 83EC08   		subl	$8, %esp	#,
  88              		.cfi_def_cfa_offset 28
  89              		.loc 1 37 0
  90 000d 890424   		movl	%eax, (%esp)	# p, %sfp
  91              		.loc 1 52 0
  92 0010 83C00B   		addl	$11, %eax	#, q
  93              	.LVL2:
  94 0013 89442404 		movl	%eax, 4(%esp)	# q, %sfp
  95              	.LVL3:
  96 0017 89C3     		movl	%eax, %ebx	# q, q
  97              	.LVL4:
  98 0019 8DB42600 		.p2align 4,,7
  98      000000
  99              		.p2align 3
 100              	.L4:
 101              		.loc 1 54 0
 102 0020 89C8     		movl	%ecx, %eax	# num, tmp83
 103 0022 31D2     		xorl	%edx, %edx	# D.2292
 104 0024 F7F5     		divl	%ebp	# radix
 105              	.LVL5:
 106              		.loc 1 55 0
 107 0026 8D4A30   		leal	48(%edx), %ecx	#, i
 108              	.LVL6:
 109              		.loc 1 57 0
 110 0029 83C237   		addl	$55, %edx	#, tmp89
 111 002c 83F93A   		cmpl	$58, %ecx	#, i
 112 002f 0F4DCA   		cmovge	%edx, %ecx	# tmp89,, i
 113              	.LVL7:
GAS LISTING /tmp/ccb8mAkQ.s 			page 3


 114              		.loc 1 58 0
 115 0032 83EB01   		subl	$1, %ebx	#, q
 116              	.LVL8:
 117              		.loc 1 60 0
 118 0035 31D2     		xorl	%edx, %edx	# tmp87
 119              		.loc 1 58 0
 120 0037 89CF     		movl	%ecx, %edi	# i, D.2296
 121 0039 880B     		movb	%cl, (%ebx)	# i, MEM[base: q_11, offset: 0B]
 122              		.loc 1 59 0
 123 003b 89C1     		movl	%eax, %ecx	# tmp83, num
 124              	.LVL9:
 125              		.loc 1 60 0
 126 003d 89F0     		movl	%esi, %eax	# num, num
 127              	.LVL10:
 128 003f F7F5     		divl	%ebp	# radix
 129 0041 85C0     		testl	%eax, %eax	# num
 130 0043 89C6     		movl	%eax, %esi	# num, num
 131              	.LVL11:
 132 0045 75D9     		jne	.L4	#,
 133              	.LVL12:
 134              		.loc 1 62 0
 135 0047 8B442404 		movl	4(%esp), %eax	# %sfp, D.2295
 136              	.LVL13:
 137 004b 8B1424   		movl	(%esp), %edx	# %sfp, p
 138 004e 29D8     		subl	%ebx, %eax	# q, D.2295
 139              	.LVL14:
 140 0050 8D0C03   		leal	(%ebx,%eax), %ecx	#, D.2294
 141              	.LVL15:
 142 0053 89CE     		movl	%ecx, %esi	# D.2294, D.2294
 143              	.LVL16:
 144 0055 89F9     		movl	%edi, %ecx	# D.2296, D.2296
 145 0057 EB0A     		jmp	.L6	#
 146              	.LVL17:
 147 0059 8DB42600 		.p2align 4,,7
 147      000000
 148              		.p2align 3
 149              	.L9:
 150 0060 0FB60B   		movzbl	(%ebx), %ecx	# MEM[base: q_26, offset: 0B], D.2296
 151              	.LVL18:
 152              	.L6:
 153              		.loc 1 64 0
 154 0063 83C301   		addl	$1, %ebx	#, q
 155              	.LVL19:
 156 0066 83C201   		addl	$1, %edx	#, p
 157              	.LVL20:
 158              		.loc 1 65 0
 159 0069 39F3     		cmpl	%esi, %ebx	# D.2294, q
 160              		.loc 1 64 0
 161 006b 884AFF   		movb	%cl, -1(%edx)	# D.2296, MEM[base: p_24, offset: 4294967295B]
 162              	.LVL21:
 163              		.loc 1 65 0
 164 006e 75F0     		jne	.L9	#,
 165 0070 030424   		addl	(%esp), %eax	# %sfp, p
 166              	.LVL22:
 167              		.loc 1 68 0
 168 0073 83C408   		addl	$8, %esp	#,
 169              		.cfi_def_cfa_offset 20
GAS LISTING /tmp/ccb8mAkQ.s 			page 4


 170 0076 5B       		popl	%ebx	#
 171              		.cfi_restore 3
 172              		.cfi_def_cfa_offset 16
 173              	.LVL23:
 174 0077 5E       		popl	%esi	#
 175              		.cfi_restore 6
 176              		.cfi_def_cfa_offset 12
 177 0078 5F       		popl	%edi	#
 178              		.cfi_restore 7
 179              		.cfi_def_cfa_offset 8
 180 0079 5D       		popl	%ebp	#
 181              		.cfi_restore 5
 182              		.cfi_def_cfa_offset 4
 183              	.LVL24:
 184 007a C3       		ret
 185              		.cfi_endproc
 186              	.LFE12:
 187              		.size	long_to_string_with_divisor.constprop.0, .-long_to_string_with_divisor.constprop.0
 188              		.section	.rodata.str1.1,"aMS",@progbits,1
 189              	.LC0:
 190 0000 286E756C 		.string	"(null)"
 190      6C2900
 191              		.text
 192 007b 908D7426 		.p2align 4,,15
 192      00
 193              		.globl	chvprintf
 194              		.type	chvprintf, @function
 195              	chvprintf:
 196              	.LFB10:
 197              		.loc 1 112 0
 198              		.cfi_startproc
 199              	.LVL25:
 200 0080 55       		pushl	%ebp	#
 201              		.cfi_def_cfa_offset 8
 202              		.cfi_offset 5, -8
 203 0081 57       		pushl	%edi	#
 204              		.cfi_def_cfa_offset 12
 205              		.cfi_offset 7, -12
 206 0082 56       		pushl	%esi	#
 207              		.cfi_def_cfa_offset 16
 208              		.cfi_offset 6, -16
 209 0083 53       		pushl	%ebx	#
 210              		.cfi_def_cfa_offset 20
 211              		.cfi_offset 3, -20
 212 0084 83EC3C   		subl	$60, %esp	#,
 213              		.cfi_def_cfa_offset 80
 214              		.loc 1 112 0
 215 0087 65A11400 		movl	%gs:20, %eax	#, tmp244
 215      0000
 216 008d 8944242C 		movl	%eax, 44(%esp)	# tmp244, D.2342
 217 0091 31C0     		xorl	%eax, %eax	# tmp244
 218 0093 8B742450 		movl	80(%esp), %esi	# chp, chp
 219 0097 8B7C2454 		movl	84(%esp), %edi	# fmt, fmt
 220 009b 8B6C2458 		movl	88(%esp), %ebp	# ap, ap
 221              	.LVL26:
 222 009f 90       		.p2align 4,,7
 223              		.p2align 3
GAS LISTING /tmp/ccb8mAkQ.s 			page 5


 224              	.L11:
 225              		.loc 1 125 0
 226 00a0 0FB607   		movzbl	(%edi), %eax	# *fmt_1,
 227 00a3 8D5F01   		leal	1(%edi), %ebx	#, fmt
 228              	.LVL27:
 229              		.loc 1 126 0
 230 00a6 84C0     		testb	%al, %al	# c
 231 00a8 741C     		je	.L10	#,
 232              	.L87:
 233              		.loc 1 128 0
 234 00aa 3C25     		cmpb	$37, %al	#, c
 235 00ac 7432     		je	.L13	#,
 236              		.loc 1 129 0
 237 00ae 8B16     		movl	(%esi), %edx	# chp_59(D)->vmt, chp_59(D)->vmt
 238              		.loc 1 125 0
 239 00b0 89DF     		movl	%ebx, %edi	# fmt, fmt
 240              		.loc 1 129 0
 241 00b2 89442404 		movl	%eax, 4(%esp)	# c,
 242              		.loc 1 125 0
 243 00b6 8D5F01   		leal	1(%edi), %ebx	#, fmt
 244              	.LVL28:
 245              		.loc 1 129 0
 246 00b9 893424   		movl	%esi, (%esp)	# chp,
 247 00bc FF5208   		call	*8(%edx)	# _60->put
 248              	.LVL29:
 249              		.loc 1 125 0
 250 00bf 0FB607   		movzbl	(%edi), %eax	# *fmt_1,
 251              	.LVL30:
 252              		.loc 1 126 0
 253 00c2 84C0     		testb	%al, %al	# c
 254 00c4 75E4     		jne	.L87	#,
 255              	.L10:
 256              		.loc 1 261 0
 257 00c6 8B44242C 		movl	44(%esp), %eax	# D.2342, tmp245
 258 00ca 65330514 		xorl	%gs:20, %eax	#, tmp245
 258      000000
 259              	.LVL31:
 260 00d1 0F85F202 		jne	.L88	#,
 260      0000
 261 00d7 83C43C   		addl	$60, %esp	#,
 262              		.cfi_remember_state
 263              		.cfi_def_cfa_offset 20
 264 00da 5B       		popl	%ebx	#
 265              		.cfi_restore 3
 266              		.cfi_def_cfa_offset 16
 267              	.LVL32:
 268 00db 5E       		popl	%esi	#
 269              		.cfi_restore 6
 270              		.cfi_def_cfa_offset 12
 271 00dc 5F       		popl	%edi	#
 272              		.cfi_restore 7
 273              		.cfi_def_cfa_offset 8
 274 00dd 5D       		popl	%ebp	#
 275              		.cfi_restore 5
 276              		.cfi_def_cfa_offset 4
 277              	.LVL33:
 278 00de C3       		ret
GAS LISTING /tmp/ccb8mAkQ.s 			page 6


 279              	.LVL34:
 280 00df 90       		.p2align 4,,7
 281              		.p2align 3
 282              	.L13:
 283              		.cfi_restore_state
 284              		.loc 1 135 0
 285 00e0 0FB64701 		movzbl	1(%edi), %eax	# MEM[(const char *)fmt_1 + 1B], D.2341
 286              	.LVL35:
 287              		.loc 1 134 0
 288 00e4 C6442414 		movb	$0, 20(%esp)	#, %sfp
 288      00
 289              		.loc 1 135 0
 290 00e9 3C2D     		cmpb	$45, %al	#, D.2341
 291 00eb 0F846F02 		je	.L89	#,
 291      0000
 292              	.LVL36:
 293              	.L15:
 294              		.loc 1 140 0
 295 00f1 3C30     		cmpb	$48, %al	#, D.2341
 296 00f3 7409     		je	.L66	#,
 297 00f5 3C2E     		cmpb	$46, %al	#, D.2341
 298              		.loc 1 139 0
 299 00f7 C6442410 		movb	$32, 16(%esp)	#, %sfp
 299      20
 300              		.loc 1 140 0
 301 00fc 750C     		jne	.L16	#,
 302              	.L66:
 303              	.LVL37:
 304 00fe 0FB64301 		movzbl	1(%ebx), %eax	# MEM[(const char *)fmt_2 + 1B], D.2341
 305              		.loc 1 141 0
 306 0102 83C301   		addl	$1, %ebx	#, fmt
 307              	.LVL38:
 308              		.loc 1 142 0
 309 0105 C6442410 		movb	$48, 16(%esp)	#, %sfp
 309      30
 310              	.LVL39:
 311              	.L16:
 312 010a 89DF     		movl	%ebx, %edi	# fmt, fmt
 313              		.loc 1 144 0
 314 010c 31DB     		xorl	%ebx, %ebx	# width
 315              	.LVL40:
 316 010e EB13     		jmp	.L21	#
 317              	.LVL41:
 318              		.p2align 4,,7
 319              		.p2align 3
 320              	.L90:
 321              		.loc 1 150 0
 322 0110 0FB65500 		movzbl	0(%ebp), %edx	# MEM[(int *)ap_9], c
 323              	.LVL42:
 324 0114 83C504   		addl	$4, %ebp	#, ap
 325              	.LVL43:
 326              	.L19:
 327              		.loc 1 153 0
 328 0117 8D049B   		leal	(%ebx,%ebx,4), %eax	#, tmp166
 329 011a 0FBED2   		movsbl	%dl, %edx	# c, D.2333
 330 011d 8D1C42   		leal	(%edx,%eax,2), %ebx	#, width
 331              	.LVL44:
GAS LISTING /tmp/ccb8mAkQ.s 			page 7


 332 0120 0FB607   		movzbl	(%edi), %eax	# MEM[base: fmt_72, offset: 0B], c
 333              	.LVL45:
 334              	.L21:
 335              		.loc 1 147 0
 336 0123 8D50D0   		leal	-48(%eax), %edx	#, D.2336
 337              		.loc 1 146 0
 338 0126 83C701   		addl	$1, %edi	#, fmt
 339              	.LVL46:
 340              		.loc 1 147 0
 341 0129 80FA09   		cmpb	$9, %dl	#, D.2336
 342 012c 76E9     		jbe	.L19	#,
 343              		.loc 1 149 0
 344 012e 3C2A     		cmpb	$42, %al	#, c
 345 0130 74DE     		je	.L90	#,
 346              	.LVL47:
 347              		.loc 1 155 0
 348 0132 31D2     		xorl	%edx, %edx	# precision
 349              		.loc 1 156 0
 350 0134 3C2E     		cmpb	$46, %al	#, c
 351 0136 7440     		je	.L25	#,
 352              	.LVL48:
 353              		.loc 1 170 0
 354 0138 89C1     		movl	%eax, %ecx	# c, D.2330
 355 013a 83E1DF   		andl	$-33, %ecx	#, D.2330
 356 013d 80F94C   		cmpb	$76, %cl	#, D.2330
 357 0140 7553     		jne	.L26	#,
 358              	.L92:
 359              	.LVL49:
 360              		.loc 1 172 0
 361 0142 0FB60F   		movzbl	(%edi), %ecx	# *fmt_6, c
 362              		.loc 1 171 0
 363 0145 C644240C 		movb	$1, 12(%esp)	#, %sfp
 363      01
 364              		.loc 1 172 0
 365 014a 84C9     		testb	%cl, %cl	# c
 366 014c 7405     		je	.L27	#,
 367              		.loc 1 173 0
 368 014e 83C701   		addl	$1, %edi	#, fmt
 369              	.LVL50:
 370 0151 89C8     		movl	%ecx, %eax	# c, c
 371              	.LVL51:
 372              	.L27:
 373              		.loc 1 179 0
 374 0153 8D48BC   		leal	-68(%eax), %ecx	#, tmp178
 375 0156 80F934   		cmpb	$52, %cl	#, tmp178
 376 0159 774D     		ja	.L28	#,
 377              	.L93:
 378 015b 0FB6C9   		movzbl	%cl, %ecx	# tmp178, tmp179
 379 015e FF248D00 		jmp	*.L30(,%ecx,4)	#
 379      000000
 380              		.section	.rodata
 381              		.align 4
 382              		.align 4
 383              	.L30:
 384 0000 AE020000 		.long	.L29
 385 0004 A8010000 		.long	.L28
 386 0008 A8010000 		.long	.L28
GAS LISTING /tmp/ccb8mAkQ.s 			page 8


 387 000c A8010000 		.long	.L28
 388 0010 A8010000 		.long	.L28
 389 0014 AE020000 		.long	.L29
 390 0018 A8010000 		.long	.L28
 391 001c A8010000 		.long	.L28
 392 0020 A8010000 		.long	.L28
 393 0024 A8010000 		.long	.L28
 394 0028 A8010000 		.long	.L28
 395 002c A4020000 		.long	.L31
 396 0030 A8010000 		.long	.L28
 397 0034 A8010000 		.long	.L28
 398 0038 A8010000 		.long	.L28
 399 003c A8010000 		.long	.L28
 400 0040 A8010000 		.long	.L28
 401 0044 B2010000 		.long	.L60
 402 0048 A8010000 		.long	.L28
 403 004c A8010000 		.long	.L28
 404 0050 54030000 		.long	.L33
 405 0054 A8010000 		.long	.L28
 406 0058 A8010000 		.long	.L28
 407 005c A8010000 		.long	.L28
 408 0060 A8010000 		.long	.L28
 409 0064 A8010000 		.long	.L28
 410 0068 A8010000 		.long	.L28
 411 006c A8010000 		.long	.L28
 412 0070 A8010000 		.long	.L28
 413 0074 A8010000 		.long	.L28
 414 0078 A8010000 		.long	.L28
 415 007c 2B030000 		.long	.L34
 416 0080 AE020000 		.long	.L29
 417 0084 A8010000 		.long	.L28
 418 0088 A8010000 		.long	.L28
 419 008c A8010000 		.long	.L28
 420 0090 A8010000 		.long	.L28
 421 0094 AE020000 		.long	.L29
 422 0098 A8010000 		.long	.L28
 423 009c A8010000 		.long	.L28
 424 00a0 A8010000 		.long	.L28
 425 00a4 A8010000 		.long	.L28
 426 00a8 A8010000 		.long	.L28
 427 00ac A4020000 		.long	.L31
 428 00b0 A8010000 		.long	.L28
 429 00b4 A8010000 		.long	.L28
 430 00b8 A8010000 		.long	.L28
 431 00bc CF020000 		.long	.L35
 432 00c0 A8010000 		.long	.L28
 433 00c4 B2010000 		.long	.L60
 434 00c8 A8010000 		.long	.L28
 435 00cc A8010000 		.long	.L28
 436 00d0 54030000 		.long	.L33
 437              		.text
 438              	.LVL52:
 439              		.p2align 4,,7
 440 0165 8D7600   		.p2align 3
 441              	.L91:
 442              		.loc 1 162 0
 443 0168 0FB64D00 		movzbl	0(%ebp), %ecx	# MEM[(int *)ap_11], c
GAS LISTING /tmp/ccb8mAkQ.s 			page 9


 444              	.LVL53:
 445 016c 83C504   		addl	$4, %ebp	#, ap
 446              	.LVL54:
 447              	.L24:
 448              		.loc 1 165 0
 449 016f 8D0492   		leal	(%edx,%edx,4), %eax	#, tmp172
 450              	.LVL55:
 451              		.loc 1 166 0
 452 0172 0FBEC9   		movsbl	%cl, %ecx	# c, D.2333
 453 0175 8D1441   		leal	(%ecx,%eax,2), %edx	#, precision
 454              	.LVL56:
 455              	.L25:
 456              		.loc 1 158 0
 457 0178 83C701   		addl	$1, %edi	#, fmt
 458              	.LVL57:
 459 017b 0FB647FF 		movzbl	-1(%edi), %eax	# MEM[base: fmt_80, offset: 4294967295B], c
 460              	.LVL58:
 461              		.loc 1 159 0
 462 017f 8D48D0   		leal	-48(%eax), %ecx	#, D.2336
 463 0182 80F909   		cmpb	$9, %cl	#, D.2336
 464 0185 76E8     		jbe	.L24	#,
 465              		.loc 1 161 0
 466 0187 3C2A     		cmpb	$42, %al	#, c
 467 0189 74DD     		je	.L91	#,
 468              		.loc 1 170 0
 469 018b 89C1     		movl	%eax, %ecx	# c, D.2330
 470 018d 83E1DF   		andl	$-33, %ecx	#, D.2330
 471 0190 80F94C   		cmpb	$76, %cl	#, D.2330
 472 0193 74AD     		je	.L92	#,
 473              	.L26:
 474              		.loc 1 176 0
 475 0195 8D48BF   		leal	-65(%eax), %ecx	#, D.2336
 476 0198 80F919   		cmpb	$25, %cl	#, D.2336
 477              		.loc 1 179 0
 478 019b 8D48BC   		leal	-68(%eax), %ecx	#, tmp178
 479              		.loc 1 176 0
 480 019e 0F964424 		setbe	12(%esp)	#, %sfp
 480      0C
 481              	.LVL59:
 482              		.loc 1 179 0
 483 01a3 80F934   		cmpb	$52, %cl	#, tmp178
 484 01a6 76B3     		jbe	.L93	#,
 485              	.L28:
 486              	.LVL60:
 487              		.loc 1 236 0
 488 01a8 88442420 		movb	%al, 32(%esp)	# c, MEM[(char *)&tmpbuf]
 489 01ac 8D442421 		leal	33(%esp), %eax	#, D.2333
 490              	.LVL61:
 491 01b0 EB14     		jmp	.L85	#
 492              	.LVL62:
 493              	.L60:
 494              		.loc 1 179 0
 495 01b2 B90A0000 		movl	$10, %ecx	#, D.2338
 495      00
 496              	.LVL63:
 497              	.L32:
 498              		.loc 1 230 0
GAS LISTING /tmp/ccb8mAkQ.s 			page 10


 499 01b7 8B5500   		movl	0(%ebp), %edx	#* ap, l
 500              	.LVL64:
 501              	.LBB6:
 502              	.LBB7:
 503              		.loc 1 72 0
 504 01ba 8D442420 		leal	32(%esp), %eax	#, tmp259
 505              	.LVL65:
 506              	.LBE7:
 507              	.LBE6:
 508              		.loc 1 230 0
 509 01be 83C504   		addl	$4, %ebp	#, ap
 510              	.LVL66:
 511              	.LBB9:
 512              	.LBB8:
 513              		.loc 1 72 0
 514 01c1 E83AFEFF 		call	long_to_string_with_divisor.constprop.0	#
 514      FF
 515              	.LVL67:
 516              	.L85:
 517 01c6 8D4C2420 		leal	32(%esp), %ecx	#, tmp264
 518              	.LVL68:
 519 01ca 29C8     		subl	%ecx, %eax	# tmp264, D.2333
 520 01cc 8D48FF   		leal	-1(%eax), %ecx	#, D.2333
 521              	.LVL69:
 522 01cf 894C2418 		movl	%ecx, 24(%esp)	# D.2333, %sfp
 523              	.LBE8:
 524              	.LBE9:
 525              		.loc 1 133 0
 526 01d3 8D4C2420 		leal	32(%esp), %ecx	#, tmp266
 527              	.LVL70:
 528              	.L36:
 529 01d7 31D2     		xorl	%edx, %edx	# width
 530 01d9 29C3     		subl	%eax, %ebx	# D.2333, width
 531              	.LVL71:
 532 01db 0F48DA   		cmovs	%edx, %ebx	# width,, width, width
 533              	.LVL72:
 534              		.loc 1 242 0
 535 01de 807C2414 		cmpb	$0, 20(%esp)	#, %sfp
 535      00
 536 01e3 895C240C 		movl	%ebx, 12(%esp)	# width, %sfp
 537              	.LVL73:
 538 01e7 7546     		jne	.L47	#,
 539              	.LVL74:
 540              		.loc 1 244 0
 541 01e9 F75C240C 		negl	12(%esp)	# %sfp
 542              	.LVL75:
 543 01ed 7440     		je	.L47	#,
 544              		.loc 1 245 0
 545 01ef 80392D   		cmpb	$45, (%ecx)	#, *s_21
 546 01f2 0F847901 		je	.L94	#,
 546      0000
 547              	.LVL76:
 548              	.L48:
 549 01f8 0FBE5C24 		movsbl	16(%esp), %ebx	# %sfp, D.2333
 549      10
 550 01fd 897C241C 		movl	%edi, 28(%esp)	# fmt, %sfp
 551 0201 89F7     		movl	%esi, %edi	# chp, chp
GAS LISTING /tmp/ccb8mAkQ.s 			page 11


 552              	.LVL77:
 553 0203 894C2414 		movl	%ecx, 20(%esp)	# s, %sfp
 554 0207 89DE     		movl	%ebx, %esi	# D.2333, D.2333
 555 0209 8B5C240C 		movl	12(%esp), %ebx	# %sfp, width
 556              	.LVL78:
 557 020d 8D7600   		.p2align 4,,7
 558              		.p2align 3
 559              	.L49:
 560              		.loc 1 250 0 discriminator 1
 561 0210 8B07     		movl	(%edi), %eax	# chp_59(D)->vmt, chp_59(D)->vmt
 562 0212 89742404 		movl	%esi, 4(%esp)	# D.2333,
 563 0216 893C24   		movl	%edi, (%esp)	# chp,
 564 0219 FF5008   		call	*8(%eax)	# _149->put
 565              	.LVL79:
 566              		.loc 1 251 0 discriminator 1
 567 021c 83C301   		addl	$1, %ebx	#, width
 568              	.LVL80:
 569 021f 75EF     		jne	.L49	#,
 570 0221 89FE     		movl	%edi, %esi	# chp, chp
 571 0223 8B4C2414 		movl	20(%esp), %ecx	# %sfp, s
 572 0227 8B7C241C 		movl	28(%esp), %edi	# %sfp, fmt
 573 022b 895C240C 		movl	%ebx, 12(%esp)	# width, %sfp
 574              	.LVL81:
 575              	.L47:
 576 022f 8B442418 		movl	24(%esp), %eax	# %sfp, D.2333
 577              		.loc 1 253 0 discriminator 1
 578 0233 85C0     		testl	%eax, %eax	# D.2333
 579 0235 8D5C0101 		leal	1(%ecx,%eax), %ebx	#, D.2339
 580 0239 782A     		js	.L52	#,
 581 023b 897C2414 		movl	%edi, 20(%esp)	# fmt, %sfp
 582 023f 89F7     		movl	%esi, %edi	# chp, chp
 583 0241 89DE     		movl	%ebx, %esi	# D.2339, D.2339
 584 0243 89CB     		movl	%ecx, %ebx	# s, s
 585              	.LVL82:
 586              		.p2align 4,,7
 587 0245 8D7600   		.p2align 3
 588              	.L73:
 589              		.loc 1 254 0
 590 0248 83C301   		addl	$1, %ebx	#, s
 591              	.LVL83:
 592 024b 8B07     		movl	(%edi), %eax	# chp_59(D)->vmt, chp_59(D)->vmt
 593 024d 0FB64BFF 		movzbl	-1(%ebx), %ecx	# MEM[base: s_159, offset: 4294967295B], MEM[base: s_159, offset: 4294967295
 594 0251 893C24   		movl	%edi, (%esp)	# chp,
 595 0254 894C2404 		movl	%ecx, 4(%esp)	# MEM[base: s_159, offset: 4294967295B],
 596 0258 FF5008   		call	*8(%eax)	# _156->put
 597              	.LVL84:
 598              		.loc 1 253 0
 599 025b 39F3     		cmpl	%esi, %ebx	# D.2339, s
 600 025d 75E9     		jne	.L73	#,
 601 025f 89FE     		movl	%edi, %esi	# chp, chp
 602 0261 8B7C2414 		movl	20(%esp), %edi	# %sfp, fmt
 603              	.LVL85:
 604              	.L52:
 605              		.loc 1 256 0
 606 0265 8B44240C 		movl	12(%esp), %eax	# %sfp,
 607 0269 0FBE5C24 		movsbl	16(%esp), %ebx	# %sfp, D.2333
 607      10
GAS LISTING /tmp/ccb8mAkQ.s 			page 12


 608 026e 85C0     		testl	%eax, %eax	#
 609 0270 0F842AFE 		je	.L11	#,
 609      FFFF
 610 0276 897C2410 		movl	%edi, 16(%esp)	# fmt, %sfp
 611              	.LVL86:
 612 027a 89F7     		movl	%esi, %edi	# chp, chp
 613 027c 89DE     		movl	%ebx, %esi	# D.2333, D.2333
 614 027e 8B5C240C 		movl	12(%esp), %ebx	# %sfp, width
 615              	.LVL87:
 616              		.p2align 4,,7
 617 0282 8DB60000 		.p2align 3
 617      0000
 618              	.L74:
 619              		.loc 1 257 0
 620 0288 8B07     		movl	(%edi), %eax	# chp_59(D)->vmt, chp_59(D)->vmt
 621 028a 89742404 		movl	%esi, 4(%esp)	# D.2333,
 622 028e 893C24   		movl	%edi, (%esp)	# chp,
 623 0291 FF5008   		call	*8(%eax)	# _164->put
 624              	.LVL88:
 625              		.loc 1 256 0
 626 0294 83EB01   		subl	$1, %ebx	#, width
 627              	.LVL89:
 628 0297 75EF     		jne	.L74	#,
 629 0299 89FE     		movl	%edi, %esi	# chp, chp
 630 029b 8B7C2410 		movl	16(%esp), %edi	# %sfp, fmt
 631 029f E9FCFDFF 		jmp	.L11	#
 631      FF
 632              	.LVL90:
 633              	.L31:
 634 02a4 B9080000 		movl	$8, %ecx	#, D.2338
 634      00
 635 02a9 E909FFFF 		jmp	.L32	#
 635      FF
 636              	.LVL91:
 637              	.L29:
 638              		.loc 1 198 0
 639 02ae 8B5500   		movl	0(%ebp), %edx	#* ap, l
 640              	.LVL92:
 641 02b1 83C504   		addl	$4, %ebp	#, ap
 642              	.LVL93:
 643              		.loc 1 132 0
 644 02b4 8D442420 		leal	32(%esp), %eax	#, tmp254
 645              	.LVL94:
 646              		.loc 1 201 0
 647 02b8 85D2     		testl	%edx, %edx	# l
 648 02ba 0F88E100 		js	.L95	#,
 648      0000
 649              	.LVL95:
 650              	.L44:
 651              	.LBB10:
 652              	.LBB11:
 653              		.loc 1 72 0
 654 02c0 B90A0000 		movl	$10, %ecx	#,
 654      00
 655 02c5 E836FDFF 		call	long_to_string_with_divisor.constprop.0	#
 655      FF
 656              	.LVL96:
GAS LISTING /tmp/ccb8mAkQ.s 			page 13


 657 02ca E9F7FEFF 		jmp	.L85	#
 657      FF
 658              	.LVL97:
 659              	.L35:
 660              	.LBE11:
 661              	.LBE10:
 662              		.loc 1 186 0
 663 02cf 8B4D00   		movl	0(%ebp), %ecx	# MEM[(char * *)ap_13], s
 664 02d2 8D4504   		leal	4(%ebp), %eax	#, ap
 665              	.LVL98:
 666 02d5 8944240C 		movl	%eax, 12(%esp)	# ap, %sfp
 667              	.LVL99:
 668              		.loc 1 187 0
 669 02d9 B8000000 		movl	$.LC0, %eax	#, tmp204
 669      00
 670              	.LVL100:
 671 02de 85C9     		testl	%ecx, %ecx	# s
 672 02e0 0F44C8   		cmove	%eax, %ecx	# s,, tmp204, s
 673              	.LVL101:
 674              		.loc 1 189 0
 675 02e3 85D2     		testl	%edx, %edx	# precision
 676 02e5 B8FF7F00 		movl	$32767, %eax	#, tmp205
 676      00
 677 02ea 0F44D0   		cmove	%eax, %edx	# precision,, tmp205, precision
 678              	.LVL102:
 679              		.loc 1 190 0
 680 02ed 803900   		cmpb	$0, (%ecx)	#, *s_20
 681 02f0 0F84BB00 		je	.L64	#,
 681      0000
 682 02f6 85D2     		testl	%edx, %edx	# precision
 683 02f8 0F8EB300 		jle	.L64	#,
 683      0000
 684 02fe 01CA     		addl	%ecx, %edx	# s, D.2339
 685 0300 89C8     		movl	%ecx, %eax	# s, s
 686 0302 EB08     		jmp	.L41	#
 687              	.LVL103:
 688              		.p2align 4,,7
 689 0304 8D742600 		.p2align 3
 690              	.L39:
 691              		.loc 1 190 0 is_stmt 0 discriminator 2
 692 0308 39D0     		cmpl	%edx, %eax	# D.2339, s
 693 030a 7408     		je	.L84	#,
 694              	.L41:
 695              		.loc 1 190 0 discriminator 1
 696 030c 83C001   		addl	$1, %eax	#, s
 697              	.LVL104:
 698 030f 803800   		cmpb	$0, (%eax)	#, MEM[base: s_108, offset: 0B]
 699 0312 75F4     		jne	.L39	#,
 700              	.L84:
 701 0314 29C8     		subl	%ecx, %eax	# s, D.2333
 702              	.LVL105:
 703              		.loc 1 186 0 is_stmt 1
 704 0316 8B6C240C 		movl	12(%esp), %ebp	# %sfp, ap
 705 031a 8D50FF   		leal	-1(%eax), %edx	#, D.2333
 706 031d 89542418 		movl	%edx, 24(%esp)	# D.2333, %sfp
 707              		.loc 1 185 0
 708 0321 C6442410 		movb	$32, 16(%esp)	#, %sfp
GAS LISTING /tmp/ccb8mAkQ.s 			page 14


 708      20
 709 0326 E9ACFEFF 		jmp	.L36	#
 709      FF
 710              	.LVL106:
 711              	.L34:
 712              		.loc 1 182 0
 713 032b 8B4500   		movl	0(%ebp), %eax	# MEM[(int *)ap_13], MEM[(int *)ap_13]
 714              	.LVL107:
 715 032e 8D4C2420 		leal	32(%esp), %ecx	#, tmp248
 716              	.LVL108:
 717 0332 83C504   		addl	$4, %ebp	#, ap
 718              	.LVL109:
 719              		.loc 1 181 0
 720 0335 C6442410 		movb	$32, 16(%esp)	#, %sfp
 720      20
 721              		.loc 1 182 0
 722 033a 88442420 		movb	%al, 32(%esp)	# MEM[(int *)ap_13], MEM[(char *)&tmpbuf]
 723 033e 8D442421 		leal	33(%esp), %eax	#, D.2333
 724              	.LVL110:
 725 0342 29C8     		subl	%ecx, %eax	# tmp248, D.2333
 726              	.LVL111:
 727 0344 8D48FF   		leal	-1(%eax), %ecx	#, D.2333
 728              	.LVL112:
 729 0347 894C2418 		movl	%ecx, 24(%esp)	# D.2333, %sfp
 730              		.loc 1 133 0
 731 034b 8D4C2420 		leal	32(%esp), %ecx	#, tmp250
 732              	.LVL113:
 733              		.loc 1 183 0
 734 034f E983FEFF 		jmp	.L36	#
 734      FF
 735              	.LVL114:
 736              	.L33:
 737              		.loc 1 179 0
 738 0354 B9100000 		movl	$16, %ecx	#, D.2338
 738      00
 739 0359 E959FEFF 		jmp	.L32	#
 739      FF
 740              	.LVL115:
 741 035e 6690     		.p2align 4,,7
 742              		.p2align 3
 743              	.L89:
 744              		.loc 1 136 0
 745 0360 8D5F02   		leal	2(%edi), %ebx	#, fmt
 746              	.LVL116:
 747 0363 0FB64702 		movzbl	2(%edi), %eax	# MEM[(const char *)fmt_1 + 2B], D.2341
 748              		.loc 1 137 0
 749 0367 C6442414 		movb	$1, 20(%esp)	#, %sfp
 749      01
 750 036c E980FDFF 		jmp	.L15	#
 750      FF
 751              	.LVL117:
 752              	.L94:
 753              		.loc 1 245 0 discriminator 1
 754 0371 807C2410 		cmpb	$48, 16(%esp)	#, %sfp
 754      30
 755 0376 0F857CFE 		jne	.L48	#,
 755      FFFF
GAS LISTING /tmp/ccb8mAkQ.s 			page 15


 756              		.loc 1 246 0
 757 037c 8B06     		movl	(%esi), %eax	# chp_59(D)->vmt, chp_59(D)->vmt
 758              	.LVL118:
 759 037e 83C101   		addl	$1, %ecx	#, s
 760              	.LVL119:
 761 0381 894C2414 		movl	%ecx, 20(%esp)	# s, %sfp
 762              	.LVL120:
 763 0385 C7442404 		movl	$45, 4(%esp)	#,
 763      2D000000 
 764 038d 893424   		movl	%esi, (%esp)	# chp,
 765 0390 FF5008   		call	*8(%eax)	# _140->put
 766              	.LVL121:
 767 0393 8B4C2414 		movl	20(%esp), %ecx	# %sfp, s
 768 0397 836C2418 		subl	$1, 24(%esp)	#, %sfp
 768      01
 769              	.LVL122:
 770 039c E957FEFF 		jmp	.L48	#
 770      FF
 771              	.LVL123:
 772              	.L95:
 773              		.loc 1 202 0
 774 03a1 C6442420 		movb	$45, 32(%esp)	#, MEM[(char *)&tmpbuf]
 774      2D
 775              		.loc 1 203 0
 776 03a6 F7DA     		negl	%edx	# l
 777              	.LVL124:
 778              		.loc 1 202 0
 779 03a8 8D442421 		leal	33(%esp), %eax	#, tmp255
 780              	.LVL125:
 781 03ac E90FFFFF 		jmp	.L44	#
 781      FF
 782              	.LVL126:
 783              	.L64:
 784              		.loc 1 186 0
 785 03b1 8B6C240C 		movl	12(%esp), %ebp	# %sfp, ap
 786              		.loc 1 190 0
 787 03b5 31C0     		xorl	%eax, %eax	# D.2333
 788 03b7 C7442418 		movl	$-1, 24(%esp)	#, %sfp
 788      FFFFFFFF 
 789              		.loc 1 185 0
 790 03bf C6442410 		movb	$32, 16(%esp)	#, %sfp
 790      20
 791 03c4 E90EFEFF 		jmp	.L36	#
 791      FF
 792              	.LVL127:
 793              	.L88:
 794              		.loc 1 261 0
 795 03c9 E8FCFFFF 		call	__stack_chk_fail	#
 795      FF
 796              	.LVL128:
 797              		.cfi_endproc
 798              	.LFE10:
 799              		.size	chvprintf, .-chvprintf
 800 03ce 6690     		.p2align 4,,15
 801              		.globl	chsnprintf
 802              		.type	chsnprintf, @function
 803              	chsnprintf:
GAS LISTING /tmp/ccb8mAkQ.s 			page 16


 804              	.LFB11:
 805              		.loc 1 288 0
 806              		.cfi_startproc
 807              	.LVL129:
 808 03d0 53       		pushl	%ebx	#
 809              		.cfi_def_cfa_offset 8
 810              		.cfi_offset 3, -8
 811 03d1 83EC38   		subl	$56, %esp	#,
 812              		.cfi_def_cfa_offset 64
 813              		.loc 1 294 0
 814 03d4 8B442444 		movl	68(%esp), %eax	# size, size
 815 03d8 8D5C241C 		leal	28(%esp), %ebx	#, tmp69
 816 03dc 891C24   		movl	%ebx, (%esp)	# tmp69,
 817 03df C744240C 		movl	$0, 12(%esp)	#,
 817      00000000 
 818 03e7 89442408 		movl	%eax, 8(%esp)	# size,
 819 03eb 8B442440 		movl	64(%esp), %eax	# str, str
 820 03ef 89442404 		movl	%eax, 4(%esp)	# str,
 821 03f3 E8FCFFFF 		call	msObjectInit	#
 821      FF
 822              	.LVL130:
 823              		.loc 1 298 0
 824 03f8 8D44244C 		leal	76(%esp), %eax	#, tmp70
 825              	.LVL131:
 826              		.loc 1 299 0
 827 03fc 89442408 		movl	%eax, 8(%esp)	# tmp70,
 828 0400 8B442448 		movl	72(%esp), %eax	# fmt, fmt
 829              	.LVL132:
 830 0404 891C24   		movl	%ebx, (%esp)	# tmp69,
 831 0407 89442404 		movl	%eax, 4(%esp)	# fmt,
 832 040b E8FCFFFF 		call	chvprintf	#
 832      FF
 833              	.LVL133:
 834              		.loc 1 303 0
 835 0410 8B44241C 		movl	28(%esp), %eax	# MEM[(struct BaseSequentialStream *)&ms].vmt, MEM[(struct BaseSequentialStrea
 836 0414 891C24   		movl	%ebx, (%esp)	# tmp69,
 837 0417 C7442404 		movl	$0, 4(%esp)	#,
 837      00000000 
 838 041f FF5008   		call	*8(%eax)	# _10->put
 839              	.LVL134:
 840              		.loc 1 304 0
 841 0422 8B442428 		movl	40(%esp), %eax	# ms.eos, tmp77
 842              		.loc 1 305 0
 843 0426 83C438   		addl	$56, %esp	#,
 844              		.cfi_def_cfa_offset 8
 845 0429 5B       		popl	%ebx	#
 846              		.cfi_restore 3
 847              		.cfi_def_cfa_offset 4
 848              	.LVL135:
 849              		.loc 1 304 0
 850 042a 83E801   		subl	$1, %eax	#, D.2352
 851              		.loc 1 305 0
 852 042d C3       		ret
 853              		.cfi_endproc
 854              	.LFE11:
 855              		.size	chsnprintf, .-chsnprintf
 856              	.Letext0:
GAS LISTING /tmp/ccb8mAkQ.s 			page 17


 857              		.file 2 "/usr/lib/gcc/x86_64-linux-gnu/4.8/include/stddef.h"
 858              		.file 3 "/usr/include/stdint.h"
 859              		.file 4 "../../../os/ports/GCC/SIMIA32/chtypes.h"
 860              		.file 5 "../../../os/kernel/include/chstreams.h"
 861              		.file 6 "/usr/lib/gcc/x86_64-linux-gnu/4.8/include/stdarg.h"
 862              		.file 7 "../../../os/various/memstreams.h"
 3321              		.section	.note.GNU-stack,"",@progbits
GAS LISTING /tmp/ccb8mAkQ.s 			page 63

