GAS LISTING /tmp/ccnzy40L.s 			page 1


   1              		.file	"memstreams.c"
   2              	# GNU C (Ubuntu 4.8.2-19ubuntu1) version 4.8.2 (x86_64-linux-gnu)
   3              	#	compiled by GNU C version 4.8.2, GMP version 5.1.3, MPFR version 3.1.2-p3, MPC version 1.0.1
   4              	# GGC heuristics: --param ggc-min-expand=97 --param ggc-min-heapsize=126309
   5              	# options passed:  -I . -I ../../../os/ports/GCC/SIMIA32
   6              	# -I ../../../os/kernel/include -I ../../../test -I ../../../os/hal/include
   7              	# -I ../../../os/hal/platforms/Posix -I ../../../boards/simulator
   8              	# -I ../../../os/various -imultilib 32 -imultiarch i386-linux-gnu
   9              	# -MD ../../../os/various/memstreams.d -MF .dep/memstreams.o.d -MP
  10              	# -MQ ../../../os/various/memstreams.o -D SIMULATOR
  11              	# -D SHELL_USE_IPRINTF=FALSE ../../../os/various/memstreams.c -m32
  12              	# -mtune=generic -march=i686
  13              	# -auxbase-strip ../../../os/various/memstreams.o -ggdb -O2 -Wall -Wextra
  14              	# -Wstrict-prototypes -fomit-frame-pointer -fverbose-asm -fstack-protector
  15              	# -Wformat -Wformat-security
  16              	# options enabled:  -faggressive-loop-optimizations
  17              	# -fasynchronous-unwind-tables -fauto-inc-dec -fbranch-count-reg
  18              	# -fcaller-saves -fcombine-stack-adjustments -fcommon -fcompare-elim
  19              	# -fcprop-registers -fcrossjumping -fcse-follow-jumps -fdefer-pop
  20              	# -fdelete-null-pointer-checks -fdevirtualize -fdwarf2-cfi-asm
  21              	# -fearly-inlining -feliminate-unused-debug-types -fexpensive-optimizations
  22              	# -fforward-propagate -ffunction-cse -fgcse -fgcse-lm -fgnu-runtime
  23              	# -fguess-branch-probability -fhoist-adjacent-loads -fident -fif-conversion
  24              	# -fif-conversion2 -findirect-inlining -finline -finline-atomics
  25              	# -finline-functions-called-once -finline-small-functions -fipa-cp
  26              	# -fipa-profile -fipa-pure-const -fipa-reference -fipa-sra
  27              	# -fira-hoist-pressure -fira-share-save-slots -fira-share-spill-slots
  28              	# -fivopts -fkeep-static-consts -fleading-underscore -fmath-errno
  29              	# -fmerge-constants -fmerge-debug-strings -fmove-loop-invariants
  30              	# -fomit-frame-pointer -foptimize-register-move -foptimize-sibling-calls
  31              	# -foptimize-strlen -fpartial-inlining -fpcc-struct-return -fpeephole
  32              	# -fpeephole2 -fprefetch-loop-arrays -free -fregmove -freorder-blocks
  33              	# -freorder-functions -frerun-cse-after-loop
  34              	# -fsched-critical-path-heuristic -fsched-dep-count-heuristic
  35              	# -fsched-group-heuristic -fsched-interblock -fsched-last-insn-heuristic
  36              	# -fsched-rank-heuristic -fsched-spec -fsched-spec-insn-heuristic
  37              	# -fsched-stalled-insns-dep -fschedule-insns2 -fshow-column -fshrink-wrap
  38              	# -fsigned-zeros -fsplit-ivs-in-unroller -fsplit-wide-types
  39              	# -fstack-protector -fstrict-aliasing -fstrict-overflow
  40              	# -fstrict-volatile-bitfields -fsync-libcalls -fthread-jumps
  41              	# -ftoplevel-reorder -ftrapping-math -ftree-bit-ccp -ftree-builtin-call-dce
  42              	# -ftree-ccp -ftree-ch -ftree-coalesce-vars -ftree-copy-prop
  43              	# -ftree-copyrename -ftree-cselim -ftree-dce -ftree-dominator-opts
  44              	# -ftree-dse -ftree-forwprop -ftree-fre -ftree-loop-if-convert
  45              	# -ftree-loop-im -ftree-loop-ivcanon -ftree-loop-optimize
  46              	# -ftree-parallelize-loops= -ftree-phiprop -ftree-pre -ftree-pta
  47              	# -ftree-reassoc -ftree-scev-cprop -ftree-sink -ftree-slp-vectorize
  48              	# -ftree-slsr -ftree-sra -ftree-switch-conversion -ftree-tail-merge
  49              	# -ftree-ter -ftree-vect-loop-version -ftree-vrp -funit-at-a-time
  50              	# -funwind-tables -fvar-tracking -fvar-tracking-assignments -fverbose-asm
  51              	# -fzero-initialized-in-bss -m32 -m80387 -m96bit-long-double
  52              	# -maccumulate-outgoing-args -malign-stringops -mfancy-math-387
  53              	# -mfp-ret-in-387 -mglibc -mieee-fp -mlong-double-80 -mno-red-zone
  54              	# -mno-sse4 -mpush-args -msahf -mtls-direct-seg-refs
  55              	
  56              		.text
  57              	.Ltext0:
GAS LISTING /tmp/ccnzy40L.s 			page 2


  58              		.p2align 4,,15
  59              		.type	put, @function
  60              	put:
  61              	.LFB33:
  62              		.file 1 "../../../os/various/memstreams.c"
  63              		.loc 1 66 0
  64              		.cfi_startproc
  65              	.LVL0:
  66 0000 53       		pushl	%ebx	#
  67              		.cfi_def_cfa_offset 8
  68              		.cfi_offset 3, -8
  69              		.loc 1 66 0
  70 0001 8B442408 		movl	8(%esp), %eax	# ip, ip
  71              	.LVL1:
  72 0005 8B4C240C 		movl	12(%esp), %ecx	# b, b
  73              		.loc 1 69 0
  74 0009 8B500C   		movl	12(%eax), %edx	# MEM[(struct MemoryStream *)ip_3(D)].eos, D.2568
  75 000c 395008   		cmpl	%edx, 8(%eax)	# D.2568, MEM[(struct MemoryStream *)ip_3(D)].size
  76 000f 740F     		je	.L3	#,
  77              		.loc 1 71 0
  78 0011 8B5804   		movl	4(%eax), %ebx	# MEM[(struct MemoryStream *)ip_3(D)].buffer, tmp72
  79 0014 880C13   		movb	%cl, (%ebx,%edx)	# b, *_8
  80              		.loc 1 72 0
  81 0017 83400C01 		addl	$1, 12(%eax)	#, MEM[(struct MemoryStream *)ip_3(D)].eos
  82              		.loc 1 73 0
  83 001b 31C0     		xorl	%eax, %eax	# D.2567
  84              		.loc 1 74 0
  85 001d 5B       		popl	%ebx	#
  86              		.cfi_remember_state
  87              		.cfi_restore 3
  88              		.cfi_def_cfa_offset 4
  89 001e C3       		ret
  90              	.LVL2:
  91 001f 90       		.p2align 4,,7
  92              		.p2align 3
  93              	.L3:
  94              		.cfi_restore_state
  95              		.loc 1 70 0
  96 0020 B8FEFFFF 		movl	$-2, %eax	#, D.2567
  96      FF
  97              	.LVL3:
  98              		.loc 1 74 0
  99 0025 5B       		popl	%ebx	#
 100              		.cfi_restore 3
 101              		.cfi_def_cfa_offset 4
 102 0026 C3       		ret
 103              		.cfi_endproc
 104              	.LFE33:
 105              		.size	put, .-put
 106 0027 89F68DBC 		.p2align 4,,15
 106      27000000 
 106      00
 107              		.type	get, @function
 108              	get:
 109              	.LFB34:
 110              		.loc 1 76 0
 111              		.cfi_startproc
GAS LISTING /tmp/ccnzy40L.s 			page 3


 112              	.LVL4:
 113              		.loc 1 76 0
 114 0030 8B542404 		movl	4(%esp), %edx	# ip, ip
 115              	.LVL5:
 116              		.loc 1 80 0
 117 0034 8B4A10   		movl	16(%edx), %ecx	# MEM[(struct MemoryStream *)ip_3(D)].offset, D.2574
 118 0037 394A0C   		cmpl	%ecx, 12(%edx)	# D.2574, MEM[(struct MemoryStream *)ip_3(D)].eos
 119 003a 7414     		je	.L8	#,
 120              		.loc 1 82 0
 121 003c 8B4204   		movl	4(%edx), %eax	# MEM[(struct MemoryStream *)ip_3(D)].buffer, MEM[(struct MemoryStream *)ip_3(D
 122 003f 0FB60408 		movzbl	(%eax,%ecx), %eax	# *_8, b
 123              	.LVL6:
 124              		.loc 1 83 0
 125 0043 83C101   		addl	$1, %ecx	#, tmp69
 126 0046 894A10   		movl	%ecx, 16(%edx)	# tmp69, MEM[(struct MemoryStream *)ip_3(D)].offset
 127              		.loc 1 84 0
 128 0049 C3       		ret
 129              	.LVL7:
 130 004a 8DB60000 		.p2align 4,,7
 130      0000
 131              		.p2align 3
 132              	.L8:
 133              		.loc 1 81 0
 134 0050 B8FEFFFF 		movl	$-2, %eax	#, D.2573
 134      FF
 135              		.loc 1 85 0
 136 0055 C3       		ret
 137              		.cfi_endproc
 138              	.LFE34:
 139              		.size	get, .-get
 140 0056 8D76008D 		.p2align 4,,15
 140      BC270000 
 140      0000
 141              		.type	writes, @function
 142              	writes:
 143              	.LFB31:
 144              		.loc 1 46 0
 145              		.cfi_startproc
 146              	.LVL8:
 147 0060 56       		pushl	%esi	#
 148              		.cfi_def_cfa_offset 8
 149              		.cfi_offset 6, -8
 150 0061 53       		pushl	%ebx	#
 151              		.cfi_def_cfa_offset 12
 152              		.cfi_offset 3, -12
 153 0062 83EC14   		subl	$20, %esp	#,
 154              		.cfi_def_cfa_offset 32
 155              		.loc 1 46 0
 156 0065 8B5C2420 		movl	32(%esp), %ebx	# ip, ip
 157              	.LVL9:
 158 0069 8B742428 		movl	40(%esp), %esi	# n, n
 159              		.loc 1 49 0
 160 006d 8B530C   		movl	12(%ebx), %edx	# MEM[(struct MemoryStream *)ip_2(D)].eos, D.2578
 161 0070 8B4308   		movl	8(%ebx), %eax	# MEM[(struct MemoryStream *)ip_2(D)].size, n
 162 0073 29D0     		subl	%edx, %eax	# D.2578, n
 163 0075 39C6     		cmpl	%eax, %esi	# n, n
 164 0077 0F47F0   		cmova	%eax, %esi	# n,, n, n
GAS LISTING /tmp/ccnzy40L.s 			page 4


 165              	.LVL10:
 166              	.LBB6:
 167              	.LBB7:
 168              		.file 2 "/usr/include/bits/string3.h"
 169              		.loc 2 51 0
 170 007a 8B442424 		movl	36(%esp), %eax	# bp, bp
 171              	.LBE7:
 172              	.LBE6:
 173              		.loc 1 51 0
 174 007e 035304   		addl	4(%ebx), %edx	# MEM[(struct MemoryStream *)ip_2(D)].buffer, D.2579
 175              	.LVL11:
 176              	.LBB9:
 177              	.LBB8:
 178              		.loc 2 51 0
 179 0081 89742408 		movl	%esi, 8(%esp)	# n,
 180 0085 89442404 		movl	%eax, 4(%esp)	# bp,
 181 0089 891424   		movl	%edx, (%esp)	# D.2579,
 182 008c E8FCFFFF 		call	memcpy	#
 182      FF
 183              	.LVL12:
 184              	.LBE8:
 185              	.LBE9:
 186              		.loc 1 54 0
 187 0091 89F0     		movl	%esi, %eax	# n,
 188              		.loc 1 52 0
 189 0093 01730C   		addl	%esi, 12(%ebx)	# n, MEM[(struct MemoryStream *)ip_2(D)].eos
 190              		.loc 1 54 0
 191 0096 83C414   		addl	$20, %esp	#,
 192              		.cfi_def_cfa_offset 12
 193 0099 5B       		popl	%ebx	#
 194              		.cfi_restore 3
 195              		.cfi_def_cfa_offset 8
 196              	.LVL13:
 197 009a 5E       		popl	%esi	#
 198              		.cfi_restore 6
 199              		.cfi_def_cfa_offset 4
 200              	.LVL14:
 201 009b C3       		ret
 202              		.cfi_endproc
 203              	.LFE31:
 204              		.size	writes, .-writes
 205 009c 8D742600 		.p2align 4,,15
 206              		.type	reads, @function
 207              	reads:
 208              	.LFB32:
 209              		.loc 1 56 0
 210              		.cfi_startproc
 211              	.LVL15:
 212 00a0 56       		pushl	%esi	#
 213              		.cfi_def_cfa_offset 8
 214              		.cfi_offset 6, -8
 215 00a1 53       		pushl	%ebx	#
 216              		.cfi_def_cfa_offset 12
 217              		.cfi_offset 3, -12
 218 00a2 83EC14   		subl	$20, %esp	#,
 219              		.cfi_def_cfa_offset 32
 220              		.loc 1 56 0
GAS LISTING /tmp/ccnzy40L.s 			page 5


 221 00a5 8B5C2420 		movl	32(%esp), %ebx	# ip, ip
 222              	.LVL16:
 223 00a9 8B742428 		movl	40(%esp), %esi	# n, n
 224              		.loc 1 59 0
 225 00ad 8B5310   		movl	16(%ebx), %edx	# MEM[(struct MemoryStream *)ip_2(D)].offset, D.2587
 226 00b0 8B430C   		movl	12(%ebx), %eax	# MEM[(struct MemoryStream *)ip_2(D)].eos, n
 227 00b3 29D0     		subl	%edx, %eax	# D.2587, n
 228 00b5 39C6     		cmpl	%eax, %esi	# n, n
 229 00b7 0F47F0   		cmova	%eax, %esi	# n,, n, n
 230              	.LVL17:
 231              	.LBB10:
 232              	.LBB11:
 233              		.loc 2 51 0
 234 00ba 8B442424 		movl	36(%esp), %eax	# bp, bp
 235              	.LBE11:
 236              	.LBE10:
 237              		.loc 1 61 0
 238 00be 035304   		addl	4(%ebx), %edx	# MEM[(struct MemoryStream *)ip_2(D)].buffer, D.2588
 239              	.LVL18:
 240              	.LBB13:
 241              	.LBB12:
 242              		.loc 2 51 0
 243 00c1 89742408 		movl	%esi, 8(%esp)	# n,
 244 00c5 89542404 		movl	%edx, 4(%esp)	# D.2588,
 245 00c9 890424   		movl	%eax, (%esp)	# bp,
 246 00cc E8FCFFFF 		call	memcpy	#
 246      FF
 247              	.LVL19:
 248              	.LBE12:
 249              	.LBE13:
 250              		.loc 1 64 0
 251 00d1 89F0     		movl	%esi, %eax	# n,
 252              		.loc 1 62 0
 253 00d3 017310   		addl	%esi, 16(%ebx)	# n, MEM[(struct MemoryStream *)ip_2(D)].offset
 254              		.loc 1 64 0
 255 00d6 83C414   		addl	$20, %esp	#,
 256              		.cfi_def_cfa_offset 12
 257 00d9 5B       		popl	%ebx	#
 258              		.cfi_restore 3
 259              		.cfi_def_cfa_offset 8
 260              	.LVL20:
 261 00da 5E       		popl	%esi	#
 262              		.cfi_restore 6
 263              		.cfi_def_cfa_offset 4
 264              	.LVL21:
 265 00db C3       		ret
 266              		.cfi_endproc
 267              	.LFE32:
 268              		.size	reads, .-reads
 269 00dc 8D742600 		.p2align 4,,15
 270              		.globl	msObjectInit
 271              		.type	msObjectInit, @function
 272              	msObjectInit:
 273              	.LFB35:
 274              		.loc 1 104 0
 275              		.cfi_startproc
 276              	.LVL22:
GAS LISTING /tmp/ccnzy40L.s 			page 6


 277              		.loc 1 104 0
 278 00e0 8B442404 		movl	4(%esp), %eax	# msp, msp
 279              		.loc 1 107 0
 280 00e4 8B542408 		movl	8(%esp), %edx	# buffer, buffer
 281              		.loc 1 106 0
 282 00e8 C7000000 		movl	$vmt, (%eax)	#, msp_2(D)->vmt
 282      0000
 283              		.loc 1 107 0
 284 00ee 895004   		movl	%edx, 4(%eax)	# buffer, msp_2(D)->buffer
 285              		.loc 1 108 0
 286 00f1 8B54240C 		movl	12(%esp), %edx	# size, size
 287              		.loc 1 110 0
 288 00f5 C7401000 		movl	$0, 16(%eax)	#, msp_2(D)->offset
 288      000000
 289              		.loc 1 108 0
 290 00fc 895008   		movl	%edx, 8(%eax)	# size, msp_2(D)->size
 291              		.loc 1 109 0
 292 00ff 8B542410 		movl	16(%esp), %edx	# eos, eos
 293 0103 89500C   		movl	%edx, 12(%eax)	# eos, msp_2(D)->eos
 294              		.loc 1 110 0
 295 0106 C3       		ret
 296              		.cfi_endproc
 297              	.LFE35:
 298              		.size	msObjectInit, .-msObjectInit
 299              		.section	.rodata
 300              		.align 4
 301              		.type	vmt, @object
 302              		.size	vmt, 16
 303              	vmt:
 304              	# write:
 305 0000 60000000 		.long	writes
 306              	# read:
 307 0004 A0000000 		.long	reads
 308              	# put:
 309 0008 00000000 		.long	put
 310              	# get:
 311 000c 30000000 		.long	get
 312              		.text
 313              	.Letext0:
 314              		.file 3 "/usr/lib/gcc/x86_64-linux-gnu/4.8/include/stddef.h"
 315              		.file 4 "/usr/include/stdint.h"
 316              		.file 5 "../../../os/ports/GCC/SIMIA32/chtypes.h"
 317              		.file 6 "../../../os/various/memstreams.h"
 1510              		.section	.note.GNU-stack,"",@progbits
GAS LISTING /tmp/ccnzy40L.s 			page 29

